 darwinia_gl

 Timestamp is 4c03e971 (Mon May 31 17:53:05 2010)

 Preferred load address is 00400000

 Start         Length     Name                   Class
 0001:00000000 00233d4bH .text                   CODE
 0001:00233d50 0000ebbfH .text$x                 CODE
 0001:00242910 000015e6H .text$yc                CODE
 0001:00243f00 00000942H .text$yd                CODE
 0002:00000000 00000570H .idata$5                DATA
 0002:00000570 00000004H .CRT$XCA                DATA
 0002:00000574 0000002cH .CRT$XCC                DATA
 0002:000005a0 00000100H .CRT$XCU                DATA
 0002:000006a0 00000004H .CRT$XCZ                DATA
 0002:000006a4 00000004H .CRT$XIA                DATA
 0002:000006a8 00000018H .CRT$XIC                DATA
 0002:000006c0 00000004H .CRT$XID                DATA
 0002:000006c4 00000004H .CRT$XIY                DATA
 0002:000006c8 00000004H .CRT$XIZ                DATA
 0002:000006cc 00000004H .CRT$XPA                DATA
 0002:000006d0 00000004H .CRT$XPX                DATA
 0002:000006d4 00000004H .CRT$XPXA               DATA
 0002:000006d8 00000004H .CRT$XPZ                DATA
 0002:000006dc 00000004H .CRT$XTA                DATA
 0002:000006e0 00000004H .CRT$XTZ                DATA
 0002:000006f0 00052990H .rdata                  DATA
 0002:00053080 0000004aH .rdata$debug            DATA
 0002:000530cc 00008908H .rdata$r                DATA
 0002:0005b9e0 00000d34H .rdata$sxdata           DATA
 0002:0005c714 00000004H .rtc$IAA                DATA
 0002:0005c718 00000004H .rtc$IZZ                DATA
 0002:0005c71c 00000004H .rtc$TAA                DATA
 0002:0005c720 00000004H .rtc$TZZ                DATA
 0002:0005c728 0000dac4H .xdata$x                DATA
 0002:0006a1ec 00000020H .didat$2                DATA
 0002:0006a20c 00000020H .didat$3                DATA
 0002:0006a22c 00000008H .didat$4                DATA
 0002:0006a234 00000008H .didat$7                DATA
 0002:0006a23c 00000104H .idata$2                DATA
 0002:0006a340 00000014H .idata$3                DATA
 0002:0006a354 00000570H .idata$4                DATA
 0002:0006a8c4 00001580H .idata$6                DATA
 0002:0006be44 00000000H .edata                  DATA
 0003:00000000 00016808H .data                   DATA
 0003:00016808 00000008H .didat$5                DATA
 0003:00016820 0002de9cH .bss                    DATA
 0004:00000000 000002d4H .rsrc$01                DATA
 0004:000002e0 00034ce0H .rsrc$02                DATA

  Address         Publics by Value              Rva+Base       Lib:Object

 0000:00000000       __except_list              00000000     <absolute>
 0000:0000034d       ___safe_se_handler_count   0000034d     <absolute>
 0000:00000000       ___ImageBase               00400000     <linker-defined>
 0001:00000000       ??_H@YGXPAXIHP6EPAX0@Z@Z   00401000 f i chatinput_window.obj
 0001:00000040       ??0ChatInputWindow@@QAE@XZ 00401040 f   chatinput_window.obj
 0001:000001e0       ?CloseChat@ChatInputWindow@@SAXXZ 004011e0 f   chatinput_window.obj
 0001:000001f0       ?IsChatVisible@ChatInputWindow@@SA_NXZ 004011f0 f   chatinput_window.obj
 0001:00000210       ?Render@ChatInputWindow@@UAEX_N@Z 00401210 f   chatinput_window.obj
 0001:00000220       ?Create@ChatInputWindow@@UAEXXZ 00401220 f   chatinput_window.obj
 0001:00000330       ?Render@ChatInputField@@UAEXHH_N0@Z 00401330 f   chatinput_window.obj
 0001:00000760       ?Update@ChatInputWindow@@UAEXXZ 00401760 f   chatinput_window.obj
 0001:000007c0       ?Keypress@ChatInputField@@UAEXH_N00E@Z 004017c0 f   chatinput_window.obj
 0001:00000af0       ?MouseUp@ChatInputField@@UAEXXZ 00401af0 f   chatinput_window.obj
 0001:00000b60       ??_GChatInputField@@UAEPAXI@Z 00401b60 f i chatinput_window.obj
 0001:00000b60       ??_EAuthInputField@@UAEPAXI@Z 00401b60 f i GameMenuWindow.obj
 0001:00000b60       ??_GGameMenuInputField@@UAEPAXI@Z 00401b60 f i game_menu.obj
 0001:00000b60       ??_GInputField@@UAEPAXI@Z  00401b60 f i input_field.obj
 0001:00000b60       ??_EInputField@@UAEPAXI@Z  00401b60 f i input_field.obj
 0001:00000b60       ??_GAuthInputField@@UAEPAXI@Z 00401b60 f i GameMenuWindow.obj
 0001:00000b60       ??_EChatInputField@@UAEPAXI@Z 00401b60 f i chatinput_window.obj
 0001:00000b60       ??_EGameMenuInputField@@UAEPAXI@Z 00401b60 f i game_menu.obj
 0001:00000b80       ??1CheckBox@@UAE@XZ        00401b80 f   checkbox.obj
 0001:00000c00       ?RegisterNetworkInt@CheckBox@@QAEXPAVNetworkInt@@@Z 00401c00 f   checkbox.obj
 0001:00000c90       ?IsChecked@CheckBox@@QAE_NXZ 00401c90 f   checkbox.obj
 0001:00000cb0       ?Get@?$LocalType@_N_NVNetworkBool@@@@UBE_NXZ 00401cb0 f i checkbox.obj
 0001:00000cc0       ?Set@?$LocalType@_N_NVNetworkBool@@@@UAEX_N@Z 00401cc0 f i checkbox.obj
 0001:00000cd0       ?Get@?$LocalType@_NHVNetworkBool@@@@UBE_NXZ 00401cd0 f i checkbox.obj
 0001:00000ce0       ?Set@?$LocalType@_NHVNetworkBool@@@@UAEX_N@Z 00401ce0 f i checkbox.obj
 0001:00000cf0       ??0CheckBox@@QAE@XZ        00401cf0 f   checkbox.obj
 0001:00000d10       ??_GCheckBox@@UAEPAXI@Z    00401d10 f i checkbox.obj
 0001:00000d10       ??_GGameMenuCheckBox@@UAEPAXI@Z 00401d10 f i prefs_other_window.obj
 0001:00000d10       ??_ECheckBox@@UAEPAXI@Z    00401d10 f i checkbox.obj
 0001:00000d10       ??_EGameMenuCheckBox@@UAEPAXI@Z 00401d10 f i prefs_other_window.obj
 0001:00000d30       ?Render@CheckBox@@UAEXHH_N0@Z 00401d30 f   checkbox.obj
 0001:00001220       ?MouseUp@CheckBox@@UAEXXZ  00402220 f   checkbox.obj
 0001:00001270       ?Set@CheckBox@@QAEXH@Z     00402270 f   checkbox.obj
 0001:000012a0       ?RegisterBool@CheckBox@@QAEXPA_N@Z 004022a0 f   checkbox.obj
 0001:00001330       ?RegisterInt@CheckBox@@QAEXPAH@Z 00402330 f   checkbox.obj
 0001:000013c0       ??1GameOptionsWindow@@UAE@XZ 004023c0 f i controllerunplugged_window.obj
 0001:00001420       ?Update@ControllerUnpluggedWindow@@UAEXXZ 00402420 f   controllerunplugged_window.obj
 0001:00001490       ?Render@ControllerUnpluggedWindow@@UAEX_N@Z 00402490 f   controllerunplugged_window.obj
 0001:000014b0       ??0ControllerUnpluggedWindow@@QAE@XZ 004024b0 f   controllerunplugged_window.obj
 0001:000014d0       ??0DarwiniaButton@@QAE@XZ  004024d0 f   darwinia_window.obj
 0001:00001510       ?SetShortProperties@DarwiniaButton@@UAEXPBDHHHHABVUnicodeString@@1@Z 00402510 f   darwinia_window.obj
 0001:00001610       ??0BorderlessButton@@QAE@XZ 00402610 f   darwinia_window.obj
 0001:00001650       ??1GameMenuButton@@UAE@XZ  00402650 f i helpandoptions_windows.obj
 0001:00001650       ??1BorderlessButton@@UAE@XZ 00402650 f i darwinia_window.obj
 0001:00001650       ??1DarwiniaButton@@UAE@XZ  00402650 f i checkbox.obj
 0001:00001650       ??1LeaderboardSmallFontRenderingButton@@UAE@XZ 00402650 f i leaderboards_window.obj
 0001:00001660       ?SetShortProperties@BorderlessButton@@UAEXPBDHHHHABVUnicodeString@@1@Z 00402660 f   darwinia_window.obj
 0001:000016c0       ?GetMenuSize@DarwiniaWindow@@QAEHH@Z 004026c0 f   darwinia_window.obj
 0001:00001710       ?SetMenuSize@DarwiniaWindow@@QAEXHH@Z 00402710 f   darwinia_window.obj
 0001:00001790       ?MouseUp@CloseButton@@UAEXXZ 00402790 f   darwinia_window.obj
 0001:000017b0       ?Render@InvertedBox@@UAEXHH_N0@Z 004027b0 f   darwinia_window.obj
 0001:00001a00       ?Create@DarwiniaWindow@@UAEXXZ 00402a00 f   darwinia_window.obj
 0001:00001b20       ?Render@DarwiniaWindow@@UAEX_N@Z 00402b20 f   darwinia_window.obj
 0001:00002180       ?CreateValueControl@DarwiniaWindow@@QAEXPBDPADHMMMPAVDarwiniaButton@@HH@Z 00403180 f   darwinia_window.obj
 0001:00002380       ?Remove@DarwiniaWindow@@UAEXXZ 00403380 f   darwinia_window.obj
 0001:00002420       ?Update@DarwiniaWindow@@UAEXXZ 00403420 f   darwinia_window.obj
 0001:00002690       ?SetCurrentButton@DarwiniaWindow@@QAEXPAVEclButton@@@Z 00403690 f   darwinia_window.obj
 0001:000026f0       ?UpdateButtonHighlight@DarwiniaButton@@QAEXXZ 004036f0 f   darwinia_window.obj
 0001:00002760       ?Render@BorderlessButton@@UAEXHH_N0@Z 00403760 f   darwinia_window.obj
 0001:00002da0       ??0DarwiniaWindow@@QAE@PBD@Z 00403da0 f   darwinia_window.obj
 0001:00002ee0       ??1DarwiniaWindow@@UAE@XZ  00403ee0 f   darwinia_window.obj
 0001:00002f80       ?Render@DarwiniaButton@@UAEXHH_N0@Z 00403f80 f   darwinia_window.obj
 0001:00003550       ?Render@CloseButton@@UAEXHH_N0@Z 00404550 f   darwinia_window.obj
 0001:000037c0       ?NetworkButton@DebugKeyBindings@@SAXXZ 004047c0 f   debugmenu.obj
 0001:00003850       ??$min@M@std@@YAABMABM0@Z  00404850 f i demoend_window.obj
 0001:00003870       ??$max@M@std@@YAABMABM0@Z  00404870 f i demoend_window.obj
 0001:00003890       ??0DropDownWindow@@QAE@PAD0@Z 00404890 f   drop_down_menu.obj
 0001:000038c0       ??1DropDownWindow@@UAE@XZ  004048c0 f   drop_down_menu.obj
 0001:000038e0       ?CreateDropDownWindow@DropDownWindow@@SAPAV1@PAD0@Z 004048e0 f   drop_down_menu.obj
 0001:000039a0       ?RegisterNetworkInt@DropDownMenu@@QAEXPAVNetworkInt@@@Z 004049a0 f   drop_down_menu.obj
 0001:000039d0       ??1DropDownMenuOption@@UAE@XZ 004049d0 f   drop_down_menu.obj
 0001:00003a00       ?SetParentMenu@DropDownMenuOption@@QAEXPAVEclWindow@@PAVDropDownMenu@@H@Z 00404a00 f   drop_down_menu.obj
 0001:00003a80       ?MouseUp@DropDownMenuOption@@UAEXXZ 00404a80 f   drop_down_menu.obj
 0001:00003ae0       ??_GDropDownWindow@@UAEPAXI@Z 00404ae0 f i drop_down_menu.obj
 0001:00003ae0       ??_EDropDownWindow@@UAEPAXI@Z 00404ae0 f i drop_down_menu.obj
 0001:00003b20       ?Update@DropDownWindow@@UAEXXZ 00404b20 f   drop_down_menu.obj
 0001:00003b60       ?Render@DropDownMenu@@UAEXHH_N0@Z 00404b60 f   drop_down_menu.obj
 0001:00003c10       ?MouseUp@DropDownMenu@@UAEXXZ 00404c10 f   drop_down_menu.obj
 0001:00003c60       ??0DropDownMenuOption@@QAE@XZ 00404c60 f   drop_down_menu.obj
 0001:00003c90       ??_EDropDownMenuOption@@UAEPAXI@Z 00404c90 f i drop_down_menu.obj
 0001:00003c90       ??_GDropDownMenuOption@@UAEPAXI@Z 00404c90 f i drop_down_menu.obj
 0001:00003ce0       ?Set@?$LocalType@HHVNetworkInt@@@@UAEXH@Z 00404ce0 f i drop_down_menu.obj
 0001:00003cf0       ?RegisterInt@DropDownMenu@@QAEXPAH@Z 00404cf0 f   drop_down_menu.obj
 0001:00003d90       ?EmptyAndDelete@?$LList@PAVDropDownOptionData@@@@QAEXXZ 00404d90 f i drop_down_menu.obj
 0001:00003de0       ??0DropDownMenu@@QAE@_N@Z  00404de0 f   drop_down_menu.obj
 0001:00003e40       ?Empty@DropDownMenu@@QAEXXZ 00404e40 f   drop_down_menu.obj
 0001:00003e60       ?AddOption@DropDownMenu@@QAEXPBDH@Z 00404e60 f   drop_down_menu.obj
 0001:00003f70       ?GetSelectionValue@DropDownMenu@@QAEHXZ 00404f70 f   drop_down_menu.obj
 0001:00003fb0       ?FindValue@DropDownMenu@@QAEHH@Z 00404fb0 f   drop_down_menu.obj
 0001:00004010       ?CreateMenu@DropDownMenu@@UAEXXZ 00405010 f   drop_down_menu.obj
 0001:000043d0       ?Render@DropDownMenuOption@@UAEXHH_N0@Z 004053d0 f   drop_down_menu.obj
 0001:00004460       ??1DropDownMenu@@UAE@XZ    00405460 f   drop_down_menu.obj
 0001:00004500       ?SelectOption@DropDownMenu@@UAEXH@Z 00405500 f   drop_down_menu.obj
 0001:00004630       ??0TextButton@@QAE@PAD@Z   00405630 f   helpandoptions_windows.obj
 0001:000046b0       ??1TextButton@@UAE@XZ      004056b0 f i helpandoptions_windows.obj
 0001:00004710       ??0TextButton@@QAE@VUnicodeString@@@Z 00405710 f   helpandoptions_windows.obj
 0001:00004800       ??0SelectHelpWindow@@QAE@XZ 00405800 f   helpandoptions_windows.obj
 0001:000048a0       ??0GeneralHelpWindow@@QAE@XZ 004058a0 f   helpandoptions_windows.obj
 0001:00004950       ??0GameTypeHelpWindow@@QAE@PADH@Z 00405950 f   helpandoptions_windows.obj
 0001:00004a10       ??0AuthPageButton@@QAE@XZ  00405a10 f i helpandoptions_windows.obj
 0001:00004a80       ?MouseUp@AuthPageButton@@UAEXXZ 00405a80 f i helpandoptions_windows.obj
 0001:00004ac0       ??0HelpWindowButton@@QAE@XZ 00405ac0 f i helpandoptions_windows.obj
 0001:00004b30       ?MouseUp@HelpWindowButton@@UAEXXZ 00405b30 f i helpandoptions_windows.obj
 0001:00004be0       ??0OptionsButton@@QAE@XZ   00405be0 f i helpandoptions_windows.obj
 0001:00004c60       ?MouseUp@OptionsButton@@UAEXXZ 00405c60 f i helpandoptions_windows.obj
 0001:00004d20       ??_GTextButton@@UAEPAXI@Z  00405d20 f i helpandoptions_windows.obj
 0001:00004d20       ??_ETextButton@@UAEPAXI@Z  00405d20 f i helpandoptions_windows.obj
 0001:00004d40       ??0HelpAndOptionsWindow@@QAE@XZ 00405d40 f   helpandoptions_windows.obj
 0001:00004de0       ??0HelpTypeButton@@QAE@XZ  00405de0 f i helpandoptions_windows.obj
 0001:00004e60       ?MouseUp@HelpTypeButton@@UAEXXZ 00405e60 f i helpandoptions_windows.obj
 0001:00004f90       ??0GeneralNextPageButton@@QAE@XZ 00405f90 f i helpandoptions_windows.obj
 0001:00005010       ?MouseUp@GeneralNextPageButton@@UAEXXZ 00406010 f i helpandoptions_windows.obj
 0001:00005060       ??0NextPageButton@@QAE@XZ  00406060 f i helpandoptions_windows.obj
 0001:000050e0       ?MouseUp@NextPageButton@@UAEXXZ 004060e0 f i helpandoptions_windows.obj
 0001:00005120       ??0MenuCloseButton@@QAE@PAD@Z 00406120 f i helpandoptions_windows.obj
 0001:000051a0       ?MouseUp@MenuCloseButton@@UAEXXZ 004061a0 f i helpandoptions_windows.obj
 0001:00005210       ?Render@MenuCloseButton@@UAEXHH_N0@Z 00406210 f i helpandoptions_windows.obj
 0001:00005450       ?Create@HelpAndOptionsWindow@@UAEXXZ 00406450 f   helpandoptions_windows.obj
 0001:00005990       ?Create@SelectHelpWindow@@UAEXXZ 00406990 f   helpandoptions_windows.obj
 0001:00005f70       ?Create@GeneralHelpWindow@@UAEXXZ 00406f70 f   helpandoptions_windows.obj
 0001:00006680       ?Create@GameTypeHelpWindow@@UAEXXZ 00407680 f   helpandoptions_windows.obj
 0001:00006df0       ?EmptyAndDelete@?$LList@PAVUnicodeString@@@@QAEXXZ 00407df0 f i helpandoptions_windows.obj
 0001:00006e40       ?Render@TextButton@@UAEXHH_N0@Z 00407e40 f   helpandoptions_windows.obj
 0001:000071d0       ??1NetworkGameOptionBool@@UAE@XZ 004081d0 f i GameMenuWindow.obj
 0001:000071d0       ??1NetworkGameOptionMapId@@UAE@XZ 004081d0 f i GameMenuWindow.obj
 0001:000071d0       ??1NetworkGameOptionInt@@UAE@XZ 004081d0 f i GameMenuWindow.obj
 0001:000071d0       ??1LocalString@@UAE@XZ     004081d0 f i input_field.obj
 0001:000071d0       ??1NetworkUnicodeString@@UAE@XZ 004081d0 f i input_field.obj
 0001:000071e0       ?Set@LocalUnicodeString@@UAEXABVUnicodeString@@@Z 004081e0 f i input_field.obj
 0001:000071f0       ?SetCallback@InputField@@QAEXPAVDarwiniaButton@@@Z 004081f0 f   input_field.obj
 0001:00007200       ?Render@InputField@@UAEXHH_N0@Z 00408200 f   input_field.obj
 0001:000076d0       ?MouseUp@InputField@@UAEXXZ 004086d0 f   input_field.obj
 0001:000076e0       ?RegisterNetworkValue@InputField@@QAEXHPAVNetworkValue@@@Z 004086e0 f   input_field.obj
 0001:00007720       ?RegisterString@InputField@@QAEXPADH@Z 00408720 f   input_field.obj
 0001:00007780       ?RegisterUnicodeString@InputField@@QAEXAAVUnicodeString@@@Z 00408780 f   input_field.obj
 0001:000077e0       ?Refresh@InputField@@QAEXXZ 004087e0 f   input_field.obj
 0001:00007810       ??0InputScroller@@QAE@XZ   00408810 f   input_field.obj
 0001:00007840       ?CheckInput@InputScroller@@IAEXHH@Z 00408840 f   input_field.obj
 0001:00007b20       ?MouseDown@InputScroller@@UAEXXZ 00408b20 f   input_field.obj
 0001:00007b50       ?MouseUp@InputScroller@@UAEXXZ 00408b50 f   input_field.obj
 0001:00007b60       ??_GNetworkGameOptionMapId@@UAEPAXI@Z 00408b60 f i GameMenuWindow.obj
 0001:00007b60       ??_ENetworkIntAsString@@UAEPAXI@Z 00408b60 f i prefs_other_window.obj
 0001:00007b60       ??_GNetworkIntAsString@@UAEPAXI@Z 00408b60 f i prefs_other_window.obj
 0001:00007b60       ??_ELocalUnicodeString@@UAEPAXI@Z 00408b60 f i input_field.obj
 0001:00007b60       ??_G?$LocalType@HHVNetworkInt@@@@UAEPAXI@Z 00408b60 f i drop_down_menu.obj
 0001:00007b60       ??_ENetworkIntAsBool@@UAEPAXI@Z 00408b60 f i checkbox.obj
 0001:00007b60       ??_ENetworkGameResearchLevel@@UAEPAXI@Z 00408b60 f i GameMenuWindow.obj
 0001:00007b60       ??_GNetworkGameOptionBool@@UAEPAXI@Z 00408b60 f i GameMenuWindow.obj
 0001:00007b60       ??_G?$LocalType@_N_NVNetworkBool@@@@UAEPAXI@Z 00408b60 f i checkbox.obj
 0001:00007b60       ??_EBoundedNetworkValue@@UAEPAXI@Z 00408b60 f i networkvalue.obj
 0001:00007b60       ??_GNetworkIntAsBool@@UAEPAXI@Z 00408b60 f i checkbox.obj
 0001:00007b60       ??_E?$LocalType@HHVNetworkInt@@@@UAEPAXI@Z 00408b60 f i drop_down_menu.obj
 0001:00007b60       ??_GNetworkGameOptionInt@@UAEPAXI@Z 00408b60 f i GameMenuWindow.obj
 0001:00007b60       ??_G?$LocalType@_NHVNetworkBool@@@@UAEPAXI@Z 00408b60 f i checkbox.obj
 0001:00007b60       ??_GNetworkValue@@UAEPAXI@Z 00408b60 f i checkbox.obj
 0001:00007b60       ??_ELocalString@@UAEPAXI@Z 00408b60 f i input_field.obj
 0001:00007b60       ??_GLocalString@@UAEPAXI@Z 00408b60 f i input_field.obj
 0001:00007b60       ??_GNetworkGameParam@@UAEPAXI@Z 00408b60 f i GameMenuWindow.obj
 0001:00007b60       ??_ENetworkGameParam@@UAEPAXI@Z 00408b60 f i GameMenuWindow.obj
 0001:00007b60       ??_ENetworkGameOptionBool@@UAEPAXI@Z 00408b60 f i GameMenuWindow.obj
 0001:00007b60       ??_GBoundedNetworkValue@@UAEPAXI@Z 00408b60 f i networkvalue.obj
 0001:00007b60       ??_ENetworkGameOptionInt@@UAEPAXI@Z 00408b60 f i GameMenuWindow.obj
 0001:00007b60       ??_E?$LocalType@_N_NVNetworkBool@@@@UAEPAXI@Z 00408b60 f i checkbox.obj
 0001:00007b60       ??_E?$LocalType@_NHVNetworkBool@@@@UAEPAXI@Z 00408b60 f i checkbox.obj
 0001:00007b60       ??_ENetworkValue@@UAEPAXI@Z 00408b60 f i checkbox.obj
 0001:00007b60       ??_ENetworkGameOptionMapId@@UAEPAXI@Z 00408b60 f i GameMenuWindow.obj
 0001:00007b60       ??_GNetworkGameResearchLevel@@UAEPAXI@Z 00408b60 f i GameMenuWindow.obj
 0001:00007b60       ??_GLocalUnicodeString@@UAEPAXI@Z 00408b60 f i input_field.obj
 0001:00007b80       ??1InputField@@UAE@XZ      00408b80 f   input_field.obj
 0001:00007c10       ?Keypress@InputField@@UAEXH_N00E@Z 00408c10 f   input_field.obj
 0001:00007f10       ?Render@InputScroller@@UAEXHH_N0@Z 00408f10 f   input_field.obj
 0001:00007f40       ??0InputField@@QAE@XZ      00408f40 f   input_field.obj
 0001:00007fc0       ??0LeaderboardSelectionWindow@@QAE@XZ 00408fc0 f   leaderboards_window.obj
 0001:00008060       ??$max@N@std@@YAABNABN0@Z  00409060 f i leaderboards_window.obj
 0001:00008080       ??0LeaderBoardTypeButton@@QAE@XZ 00409080 f i leaderboards_window.obj
 0001:00008100       ??0LeaderBoardMessageButton@@QAE@XZ 00409100 f i leaderboards_window.obj
 0001:000081b0       ??0LeaderboardWindow@@QAE@H@Z 004091b0 f   leaderboards_window.obj
 0001:00008280       ?PutDataAtEnd@?$LList@PAVJob@@@@QAEXABQAVJob@@@Z 00409280 f i loading_screen.obj
 0001:00008280       ?PutDataAtEnd@?$LList@PAVDirectory@@@@QAEXABQAVDirectory@@@Z 00409280 f i metaserver.obj
 0001:00008280       ?PutDataAtEnd@?$LList@PAVGlobalEventCondition@@@@QAEXABQAVGlobalEventCondition@@@Z 00409280 f i global_world.obj
 0001:00008280       ?PutDataAtEnd@?$LList@PAVInstantUnit@@@@QAEXABQAVInstantUnit@@@Z 00409280 f i level_file.obj
 0001:00008280       ?PutDataAtEnd@?$LList@PAVBuilding@@@@QAEXABQAVBuilding@@@Z 00409280 f i level_file.obj
 0001:00008280       ?PutDataAtEnd@?$LList@PAVRunnable@@@@QAEXABQAVRunnable@@@Z 00409280 f i ClientToServer.obj
 0001:00008280       ?PutDataAtEnd@?$LList@PAVDelayedJob@@@@QAEXABQAVDelayedJob@@@Z 00409280 f i app.obj
 0001:00008280       ?PutDataAtEnd@?$LList@PAVMouseCursorMarker@@@@QAEXABQAVMouseCursorMarker@@@Z 00409280 f i gamecursor.obj
 0001:00008280       ?PutDataAtEnd@?$LList@PAVGlobalLocation@@@@QAEXABQAVGlobalLocation@@@Z 00409280 f i global_world.obj
 0001:00008280       ?PutDataAtEnd@?$LList@PAVRoute@@@@QAEXABQAVRoute@@@Z 00409280 f i level_file.obj
 0001:00008280       ?PutDataAtEnd@?$LList@PAUAntObjective@@@@QAEXABQAUAntObjective@@@Z 00409280 f i anthill.obj
 0001:00008280       ?PutDataAtEnd@?$LList@PAVLocationMarker@@@@QAEXABQAVLocationMarker@@@Z 00409280 f i markersystem.obj
 0001:00008280       ?PutDataAtEnd@?$LList@PAURRSolarPanelInfo@@@@QAEXABQAURRSolarPanelInfo@@@Z 00409280 f i ai.obj
 0001:00008280       ?PutDataAtEnd@?$LList@PAUIncubatorIncoming@@@@QAEXABQAUIncubatorIncoming@@@Z 00409280 f i incubator.obj
 0001:00008280       ?PutDataAtEnd@?$LList@PAVIFrame@@@@QAEXABQAVIFrame@@@Z 00409280 f i ClientToServer.obj
 0001:00008280       ?PutDataAtEnd@?$LList@PAVWayPoint@@@@QAEXABQAVWayPoint@@@Z 00409280 f i level_file.obj
 0001:00008280       ?PutDataAtEnd@?$LList@PAD@@QAEXABQAD@Z 00409280 f i prefs_other_window.obj
 0001:00008280       ?PutDataAtEnd@?$LList@PAVExplosion@@@@QAEXABQAVExplosion@@@Z 00409280 f i explosion.obj
 0001:00008280       ?PutDataAtEnd@?$LList@PAVVector3@@@@QAEXABQAVVector3@@@Z 00409280 f i camera.obj
 0001:00008280       ?PutDataAtEnd@?$LList@PAVWorldObjectId@@@@QAEXABQAVWorldObjectId@@@Z 00409280 f i soundsystem.obj
 0001:00008280       ?PutDataAtEnd@?$LList@PAVUnicodeString@@@@QAEXABQAVUnicodeString@@@Z 00409280 f i leaderboards_window.obj
 0001:00008280       ?PutDataAtEnd@?$LList@PAVSoundEventBlueprint@@@@QAEXABQAVSoundEventBlueprint@@@Z 00409280 f i soundsystem.obj
 0001:00008280       ?PutDataAtEnd@?$LList@PAVResolution@@@@QAEXABQAVResolution@@@Z 00409280 f i window_manager_win32.obj
 0001:00008280       ?PutDataAtEnd@?$LList@PAVDropDownOptionData@@@@QAEXABQAVDropDownOptionData@@@Z 00409280 f i drop_down_menu.obj
 0001:00008280       ?PutDataAtEnd@?$LList@PAVTask@@@@QAEXABQAVTask@@@Z 00409280 f i taskmanager.obj
 0001:00008280       ?PutDataAtEnd@?$LList@PAVScreenZone@@@@QAEXABQAVScreenZone@@@Z 00409280 f i taskmanager_interface_gestures.obj
 0001:00008280       ?PutDataAtEnd@?$LList@PAVAnimatedPanelObject@@@@QAEXABQAVAnimatedPanelObject@@@Z 00409280 f i animatedpanel.obj
 0001:00008280       ?PutDataAtEnd@?$LList@PAUNeighbourInfo@@@@QAEXABQAUNeighbourInfo@@@Z 00409280 f i ai.obj
 0001:00008280       ?PutDataAtEnd@?$LList@PAVEclButton@@@@QAEXABQAVEclButton@@@Z 00409280 f i debugmenu.obj
 0001:00008280       ?PutDataAtEnd@?$LList@PAVShapeFragment@@@@QAEXABQAVShapeFragment@@@Z 00409280 f i shape.obj
 0001:00008280       ?PutDataAtEnd@?$LList@PAVGlobalBuilding@@@@QAEXABQAVGlobalBuilding@@@Z 00409280 f i global_world.obj
 0001:00008280       ?PutDataAtEnd@?$LList@PAVServerToClientLetter@@@@QAEXABQAVServerToClientLetter@@@Z 00409280 f i Server.obj
 0001:00008280       ?PutDataAtEnd@?$LList@H@@QAEXABH@Z 00409280 f i filedialog.obj
 0001:000082e0       ?MouseUp@LeaderBoardTypeButton@@UAEXXZ 004092e0 f i leaderboards_window.obj
 0001:00008380       ?SetUpBoardButton@LeaderboardWindow@@AAEXPAVLeaderBoardListButton@@@Z 00409380 f   leaderboards_window.obj
 0001:00008950       ?Render@LeaderboardSmallFontRenderingButton@@UAEXHH_N0@Z 00409950 f i leaderboards_window.obj
 0001:00009050       ?Render@LeaderBoardMessageButton@@UAEXHH_N0@Z 0040a050 f i leaderboards_window.obj
 0001:000090b0       ?Render@LeaderBoardWeeklyButton@@UAEXHH_N0@Z 0040a0b0 f i leaderboards_window.obj
 0001:000094e0       ?Create@LeaderboardSelectionWindow@@UAEXXZ 0040a4e0 f   leaderboards_window.obj
 0001:00009af0       ??0LeaderBoardListButton@@QAE@XZ 0040aaf0 f i leaderboards_window.obj
 0001:00009c10       ?ToggleCaptions@LeaderBoardListButton@@QAEXH@Z 0040ac10 f i leaderboards_window.obj
 0001:00009d70       ?Render@LeaderBoardListButton@@UAEXHH_N0@Z 0040ad70 f i leaderboards_window.obj
 0001:0000ae60       ?Create@LeaderboardWindow@@UAEXXZ 0040be60 f   leaderboards_window.obj
 0001:0000b6f0       ??_GLeaderBoardListButton@@UAEPAXI@Z 0040c6f0 f i leaderboards_window.obj
 0001:0000b6f0       ??_ELeaderBoardListButton@@UAEPAXI@Z 0040c6f0 f i leaderboards_window.obj
 0001:0000b720       ??0GameOptionsWindow@@QAE@PAD@Z 0040c720 f   mainmenus.obj
 0001:0000b7e0       ?CreateErrorDialogue@GameOptionsWindow@@QAEXVUnicodeString@@_N@Z 0040c7e0 f   mainmenus.obj
 0001:0000b860       ?CreateMenuControl@GameOptionsWindow@@QAEPAVGameMenuInputField@@PBDHPAVNetworkValue@@HMPAVDarwiniaButton@@HHM@Z 0040c860 f   mainmenus.obj
 0001:0000bc30       ??0MainMenuWindow@@QAE@XZ  0040cc30 f   mainmenus.obj
 0001:0000bcc0       ??0OptionsMenuWindow@@QAE@XZ 0040ccc0 f   mainmenus.obj
 0001:0000bd60       ??0ConfirmExitWindow@@QAE@XZ 0040cd60 f   mainmenus.obj
 0001:0000bdf0       ??0ConfirmResetWindow@@QAE@XZ 0040cdf0 f   mainmenus.obj
 0001:0000be80       ?MouseUp@ConfirmResetButton@@UAEXXZ 0040ce80 f   mainmenus.obj
 0001:0000bf00       ??0LocationWindow@@QAE@XZ  0040cf00 f   mainmenus.obj
 0001:0000bfa0       ?MouseUp@HelpAndOptionsButton@@UAEXXZ 0040cfa0 f   mainmenus.obj
 0001:0000c030       ?MouseUp@LeaderBoardButton@@UAEXXZ 0040d030 f   mainmenus.obj
 0001:0000c0c0       ?MouseUp@MenuGameExitButton@@UAEXXZ 0040d0c0 f i mainmenus.obj
 0001:0000c0e0       ??0AchievementsButton@@QAE@XZ 0040d0e0 f i mainmenus.obj
 0001:0000c160       ??_EHelpAndOptionsWindow@@UAEPAXI@Z 0040d160 f i helpandoptions_windows.obj
 0001:0000c160       ??_GConfirmResetWindow@@UAEPAXI@Z 0040d160 f i mainmenus.obj
 0001:0000c160       ??_GOptionsMenuWindow@@UAEPAXI@Z 0040d160 f i mainmenus.obj
 0001:0000c160       ??_ELeaderboardWindow@@UAEPAXI@Z 0040d160 f i leaderboards_window.obj
 0001:0000c160       ??_EMainMenuWindow@@UAEPAXI@Z 0040d160 f i mainmenus.obj
 0001:0000c160       ??_GControllerUnpluggedWindow@@UAEPAXI@Z 0040d160 f i controllerunplugged_window.obj
 0001:0000c160       ??_EGameOptionsWindow@@UAEPAXI@Z 0040d160 f i mainmenus.obj
 0001:0000c160       ??_EPrefsScreenWindow@@UAEPAXI@Z 0040d160 f i prefs_screen_window.obj
 0001:0000c160       ??_GLeaderboardSelectionWindow@@UAEPAXI@Z 0040d160 f i leaderboards_window.obj
 0001:0000c160       ??_GConfirmExitWindow@@UAEPAXI@Z 0040d160 f i mainmenus.obj
 0001:0000c160       ??_ELeaderboardSelectionWindow@@UAEPAXI@Z 0040d160 f i leaderboards_window.obj
 0001:0000c160       ??_EGeneralHelpWindow@@UAEPAXI@Z 0040d160 f i helpandoptions_windows.obj
 0001:0000c160       ??_EGameTypeHelpWindow@@UAEPAXI@Z 0040d160 f i helpandoptions_windows.obj
 0001:0000c160       ??_GGameOptionsWindow@@UAEPAXI@Z 0040d160 f i mainmenus.obj
 0001:0000c160       ??_GPrefsScreenWindow@@UAEPAXI@Z 0040d160 f i prefs_screen_window.obj
 0001:0000c160       ??_EControllerUnpluggedWindow@@UAEPAXI@Z 0040d160 f i controllerunplugged_window.obj
 0001:0000c160       ??_EUserProfileWindow@@UAEPAXI@Z 0040d160 f i userprofile_window.obj
 0001:0000c160       ??_GMainMenuWindow@@UAEPAXI@Z 0040d160 f i mainmenus.obj
 0001:0000c160       ??_EConfirmExitWindow@@UAEPAXI@Z 0040d160 f i mainmenus.obj
 0001:0000c160       ??_GLeaderboardWindow@@UAEPAXI@Z 0040d160 f i leaderboards_window.obj
 0001:0000c160       ??_GSelectHelpWindow@@UAEPAXI@Z 0040d160 f i helpandoptions_windows.obj
 0001:0000c160       ??_ESelectHelpWindow@@UAEPAXI@Z 0040d160 f i helpandoptions_windows.obj
 0001:0000c160       ??_GGeneralHelpWindow@@UAEPAXI@Z 0040d160 f i helpandoptions_windows.obj
 0001:0000c160       ??_EConfirmResetWindow@@UAEPAXI@Z 0040d160 f i mainmenus.obj
 0001:0000c160       ??_GUserProfileWindow@@UAEPAXI@Z 0040d160 f i userprofile_window.obj
 0001:0000c160       ??_GGameTypeHelpWindow@@UAEPAXI@Z 0040d160 f i helpandoptions_windows.obj
 0001:0000c160       ??_EOptionsMenuWindow@@UAEPAXI@Z 0040d160 f i mainmenus.obj
 0001:0000c160       ??_GPrefsSoundWindow@@UAEPAXI@Z 0040d160 f i prefs_sound_window.obj
 0001:0000c160       ??_GHelpAndOptionsWindow@@UAEPAXI@Z 0040d160 f i helpandoptions_windows.obj
 0001:0000c160       ??_EPrefsSoundWindow@@UAEPAXI@Z 0040d160 f i prefs_sound_window.obj
 0001:0000c180       ?Update@GameOptionsWindow@@UAEXXZ 0040d180 f   mainmenus.obj
 0001:0000c240       ?MouseUp@MainMenuUserProfileButton@@UAEXXZ 0040d240 f i mainmenus.obj
 0001:0000c2d0       ?MouseUp@MultiwiniaButton@@UAEXXZ 0040d2d0 f i mainmenus.obj
 0001:0000c360       ??0ScreenOptionsButton@@QAE@XZ 0040d360 f i mainmenus.obj
 0001:0000c3e0       ?MouseUp@ScreenOptionsButton@@UAEXXZ 0040d3e0 f i mainmenus.obj
 0001:0000c4a0       ??0GraphicsOptionsButton@@QAE@XZ 0040d4a0 f i mainmenus.obj
 0001:0000c520       ?MouseUp@GraphicsOptionsButton@@UAEXXZ 0040d520 f i mainmenus.obj
 0001:0000c5e0       ??0SoundOptionsButton@@QAE@XZ 0040d5e0 f i mainmenus.obj
 0001:0000c660       ?MouseUp@SoundOptionsButton@@UAEXXZ 0040d660 f i mainmenus.obj
 0001:0000c720       ??0OtherOptionsButton@@QAE@XZ 0040d720 f i mainmenus.obj
 0001:0000c7a0       ?MouseUp@OtherOptionsButton@@UAEXXZ 0040d7a0 f i mainmenus.obj
 0001:0000c860       ??0ExitLevelButton@@QAE@XZ 0040d860 f i mainmenus.obj
 0001:0000c8e0       ?MouseUp@ExitLevelButton@@UAEXXZ 0040d8e0 f i mainmenus.obj
 0001:0000c910       ?MouseUp@WebsiteButton@@UAEXXZ 0040d910 f i mainmenus.obj
 0001:0000cab0       ??0ConfirmExitButton@@QAE@XZ 0040dab0 f i mainmenus.obj
 0001:0000cb20       ?MouseUp@ConfirmExitButton@@UAEXXZ 0040db20 f i mainmenus.obj
 0001:0000cbd0       ??0ConfirmResetButton@@QAE@XZ 0040dbd0 f   mainmenus.obj
 0001:0000cc40       ??_GLocationWindow@@UAEPAXI@Z 0040dc40 f i mainmenus.obj
 0001:0000cc40       ??_ELocationWindow@@UAEPAXI@Z 0040dc40 f i mainmenus.obj
 0001:0000cc70       ??0HelpAndOptionsButton@@QAE@XZ 0040dc70 f   mainmenus.obj
 0001:0000cce0       ??0LeaderBoardButton@@QAE@PAD@Z 0040dce0 f   mainmenus.obj
 0001:0000cd60       ?MouseUp@MainCloseButton@@UAEXXZ 0040dd60 f i mainmenus.obj
 0001:0000cdc0       ?Create@OptionsMenuWindow@@UAEXXZ 0040ddc0 f   mainmenus.obj
 0001:0000d3c0       ?Create@ConfirmExitWindow@@UAEXXZ 0040e3c0 f   mainmenus.obj
 0001:0000d730       ?Create@ConfirmResetWindow@@UAEXXZ 0040e730 f   mainmenus.obj
 0001:0000d9a0       ?Create@LocationWindow@@UAEXXZ 0040e9a0 f   mainmenus.obj
 0001:0000de60       ?Create@MainMenuWindow@@UAEXXZ 0040ee60 f   mainmenus.obj
 0001:0000e670       ?RenderErrorDialogue@GameOptionsWindow@@QAEXXZ 0040f670 f   mainmenus.obj
 0001:0000e930       ?Render@GameOptionsWindow@@UAEX_N@Z 0040f930 f   mainmenus.obj
 0001:0000eeb0       ?Render@MainMenuWindow@@UAEX_N@Z 0040feb0 f   mainmenus.obj
 0001:0000eeb0       ?Render@PrefsScreenWindow@@UAEX_N@Z 0040feb0 f   prefs_screen_window.obj
 0001:0000eeb0       ?Render@PrefsOtherWindow@@UAEX_N@Z 0040feb0 f   prefs_other_window.obj
 0001:0000eeb0       ?Render@UserProfileWindow@@UAEX_N@Z 0040feb0 f   userprofile_window.obj
 0001:0000eec0       ??1MessageDialog@@UAE@XZ   0040fec0 f   message_dialog.obj
 0001:0000ef10       ?Render@MessageDialog@@UAEX_N@Z 0040ff10 f   message_dialog.obj
 0001:0000efb0       ?MouseUp@OKButton@@UAEXXZ  0040ffb0 f i message_dialog.obj
 0001:0000efd0       ??0MessageDialog@@QAE@PBD0@Z 0040ffd0 f   message_dialog.obj
 0001:0000f170       ??_GMessageDialog@@UAEPAXI@Z 00410170 f i message_dialog.obj
 0001:0000f170       ??_EMessageDialog@@UAEPAXI@Z 00410170 f i message_dialog.obj
 0001:0000f190       ?Create@MessageDialog@@UAEXXZ 00410190 f   message_dialog.obj
 0001:0000f310       ?Remove@MultiwiniaFileDialog@@UAEXXZ 00410310 f   multiwinia_filedialog.obj
 0001:0000f330       ??0MultiwiniaFileOKButton@@QAE@XZ 00410330 f i multiwinia_filedialog.obj
 0001:0000f3a0       ?MouseUp@MultiwiniaFileOKButton@@UAEXXZ 004103a0 f i multiwinia_filedialog.obj
 0001:0000f460       ?Create@MultiwiniaFileDialog@@UAEXXZ 00410460 f   multiwinia_filedialog.obj
 0001:0000fab0       ?IsFileSelected@MultiwiniaFileDialog@@QAEHH@Z 00410ab0 f   multiwinia_filedialog.obj
 0001:0000fb10       ?Render@MultiwiniaFileButton@@UAEXHH_N0@Z 00410b10 f i multiwinia_filedialog.obj
 0001:0000fdb0       ?RefreshFileList@MultiwiniaFileDialog@@QAEXXZ 00410db0 f   multiwinia_filedialog.obj
 0001:0000fe50       ?FileClicked@MultiwiniaFileDialog@@QAEXH@Z 00410e50 f   multiwinia_filedialog.obj
 0001:0000fec0       ?MouseUp@MultiwiniaFileButton@@UAEXXZ 00410ec0 f i multiwinia_filedialog.obj
 0001:0000ff40       ??1MultiwiniaFileDialog@@UAE@XZ 00410f40 f   multiwinia_filedialog.obj
 0001:00010030       ?SetDirectory@MultiwiniaFileDialog@@QAEXPBD@Z 00411030 f   multiwinia_filedialog.obj
 0001:000100c0       ??0MultiwiniaFileDialog@@QAE@PADPBD11_N@Z 004110c0 f   multiwinia_filedialog.obj
 0001:000101f0       ??_EMultiwiniaFileDialog@@UAEPAXI@Z 004111f0 f i multiwinia_filedialog.obj
 0001:000101f0       ??_GMultiwiniaFileDialog@@UAEPAXI@Z 004111f0 f i multiwinia_filedialog.obj
 0001:00010210       ?Update@MultiwiniaWindow@@UAEXXZ 00411210 f   multiwinia_window.obj
 0001:000103b0       ??0NewMapWindow@@QAE@XZ    004113b0 f   multiwinia_window.obj
 0001:00010440       ??0CreateMapButton@@QAE@XZ 00411440 f i multiwinia_window.obj
 0001:000104b0       ?MouseUp@CreateMapButton@@UAEXXZ 004114b0 f i multiwinia_window.obj
 0001:000106f0       ??0SelectMapButton@@QAE@XZ 004116f0 f i multiwinia_window.obj
 0001:00010790       ?MouseUp@SelectMapButton@@UAEXXZ 00411790 f i multiwinia_window.obj
 0001:00010860       ??0NewMapWindowButton@@QAE@XZ 00411860 f i multiwinia_window.obj
 0001:000108d0       ?MouseUp@NewMapWindowButton@@UAEXXZ 004118d0 f i multiwinia_window.obj
 0001:00010980       ??0MultiwiniaWindow@@QAE@XZ 00411980 f   multiwinia_window.obj
 0001:00010b10       ??_GMultiwiniaWindow@@UAEPAXI@Z 00411b10 f i multiwinia_window.obj
 0001:00010b10       ??_EMultiwiniaWindow@@UAEPAXI@Z 00411b10 f i multiwinia_window.obj
 0001:00010b40       ??_GNewMapWindow@@UAEPAXI@Z 00411b40 f i multiwinia_window.obj
 0001:00010b40       ??_ENewMapWindow@@UAEPAXI@Z 00411b40 f i multiwinia_window.obj
 0001:00010b70       ?Create@MultiwiniaWindow@@UAEXXZ 00411b70 f   multiwinia_window.obj
 0001:00010ff0       ?Create@NewMapWindow@@UAEXXZ 00411ff0 f   multiwinia_window.obj
 0001:00011400       ??4RGBAColour@@QAEABV0@ABV0@@Z 00412400 f i network_window.obj
 0001:00011420       ??0NetworkWindow@@QAE@PAD@Z 00412420 f   network_window.obj
 0001:00011620       ??_GNetworkWindow@@UAEPAXI@Z 00412620 f i network_window.obj
 0001:00011620       ??_GDarwiniaWindow@@UAEPAXI@Z 00412620 f i darwinia_window.obj
 0001:00011620       ??_GChatInputWindow@@UAEPAXI@Z 00412620 f i chatinput_window.obj
 0001:00011620       ??_EGlobalWorldEditorWindow@@UAEPAXI@Z 00412620 f i globalworldeditor_window.obj
 0001:00011620       ??_EChatInputWindow@@UAEPAXI@Z 00412620 f i chatinput_window.obj
 0001:00011620       ??_GGlobalWorldEditorWindow@@UAEPAXI@Z 00412620 f i globalworldeditor_window.obj
 0001:00011620       ??_ENetworkWindow@@UAEPAXI@Z 00412620 f i network_window.obj
 0001:00011620       ??_EDarwiniaWindow@@UAEPAXI@Z 00412620 f i darwinia_window.obj
 0001:00011640       ?Render@NetworkWindow@@UAEX_N@Z 00412640 f   network_window.obj
 0001:00012240       ?Create@NetworkWindow@@UAEXXZ 00413240 f   network_window.obj
 0001:00012370       ??0ApplyGraphicsButton@@QAE@XZ 00413370 f i prefs_graphics_window.obj
 0001:000123f0       ?Render@ApplyGraphicsButton@@UAEXHH_N0@Z 004133f0 f i prefs_graphics_window.obj
 0001:000124d0       ?MouseUp@ApplyGraphicsButton@@UAEXXZ 004134d0 f i prefs_graphics_window.obj
 0001:00012620       ??0PrefsGraphicsWindow@@QAE@XZ 00413620 f   prefs_graphics_window.obj
 0001:00012750       ??_GPrefsGraphicsWindow@@UAEPAXI@Z 00413750 f i prefs_graphics_window.obj
 0001:00012750       ??_EPrefsGraphicsWindow@@UAEPAXI@Z 00413750 f i prefs_graphics_window.obj
 0001:00012780       ?Create@PrefsGraphicsWindow@@UAEXXZ 00413780 f   prefs_graphics_window.obj
 0001:00012f60       ?Render@PrefsGraphicsWindow@@UAEX_N@Z 00413f60 f   prefs_graphics_window.obj
 0001:00012f60       ?Render@PrefsSoundWindow@@UAEX_N@Z 00413f60 f   prefs_sound_window.obj
 0001:00012f90       ??1bad_alloc@std@@UAE@XZ   00413f90 f i prefs_keybindings_window.obj
 0001:00012fa0       ??_Ebad_alloc@std@@UAEPAXI@Z 00413fa0 f i prefs_keybindings_window.obj
 0001:00012fa0       ??_Gbad_alloc@std@@UAEPAXI@Z 00413fa0 f i prefs_keybindings_window.obj
 0001:00012fd0       ?compare@?$char_traits@D@std@@SAHPBD0I@Z 00413fd0 f i prefs_keybindings_window.obj
 0001:00013050       ?_Myptr@?$basic_string@DU?$char_traits@D@std@@V?$allocator@D@2@@std@@IBEPBDXZ 00414050 f i prefs_keybindings_window.obj
 0001:00013050       ?c_str@?$basic_string@DU?$char_traits@D@std@@V?$allocator@D@2@@std@@QBEPBDXZ 00414050 f i prefs_keybindings_window.obj
 0001:00013060       ??$_Allocate@D@std@@YAPADIPAD@Z 00414060 f i prefs_keybindings_window.obj
 0001:000130c0       ??0bad_alloc@std@@QAE@ABV01@@Z 004140c0 f i prefs_keybindings_window.obj
 0001:000130e0       ?find@?$basic_string@DU?$char_traits@D@std@@V?$allocator@D@2@@std@@QBEIPBDII@Z 004140e0 f i prefs_keybindings_window.obj
 0001:000131a0       ??$copy_s@U?$char_traits@D@std@@@_Traits_helper@std@@YAPADPADIPBDI@Z 004141a0 f i prefs_keybindings_window.obj
 0001:000131d0       ?_Tidy@?$basic_string@DU?$char_traits@D@std@@V?$allocator@D@2@@std@@IAEX_NI@Z 004141d0 f i prefs_keybindings_window.obj
 0001:00013220       ?erase@?$basic_string@DU?$char_traits@D@std@@V?$allocator@D@2@@std@@QAEAAV12@II@Z 00414220 f i prefs_keybindings_window.obj
 0001:000132b0       ?_Copy@?$basic_string@DU?$char_traits@D@std@@V?$allocator@D@2@@std@@IAEXII@Z 004142b0 f i prefs_keybindings_window.obj
 0001:000133f0       ??0?$basic_string@DU?$char_traits@D@std@@V?$allocator@D@2@@std@@QAE@XZ 004143f0 f i prefs_keybindings_window.obj
 0001:00013410       ??1?$pair@$$CBV?$basic_string@DU?$char_traits@D@std@@V?$allocator@D@2@@std@@PAVCachedSample@@@std@@QAE@XZ 00414410 f i sample_cache.obj
 0001:00013410       ??1?$pair@$$CBV?$basic_string@DU?$char_traits@D@std@@V?$allocator@D@2@@std@@PAUTextureInfo@Resource@@@std@@QAE@XZ 00414410 f i resource.obj
 0001:00013410       ??1?$basic_string@DU?$char_traits@D@std@@V?$allocator@D@2@@std@@QAE@XZ 00414410 f i prefs_keybindings_window.obj
 0001:00013440       ??1InputDescription@@QAE@XZ 00414440 f i prefs_keybindings_window.obj
 0001:000134b0       ?what@runtime_error@std@@UBEPBDXZ 004144b0 f i language_table.obj
 0001:000134b0       ?what@logic_error@std@@UBEPBDXZ 004144b0 f i prefs_keybindings_window.obj
 0001:000134c0       ?assign@?$basic_string@DU?$char_traits@D@std@@V?$allocator@D@2@@std@@QAEAAV12@ABV12@II@Z 004144c0 f i prefs_keybindings_window.obj
 0001:000135a0       ?assign@?$basic_string@DU?$char_traits@D@std@@V?$allocator@D@2@@std@@QAEAAV12@PBDI@Z 004145a0 f i prefs_keybindings_window.obj
 0001:00013680       ??0?$basic_string@DU?$char_traits@D@std@@V?$allocator@D@2@@std@@QAE@ABV01@@Z 00414680 f i prefs_keybindings_window.obj
 0001:000136b0       ??0logic_error@std@@QAE@ABV?$basic_string@DU?$char_traits@D@std@@V?$allocator@D@2@@1@@Z 004146b0 f i prefs_keybindings_window.obj
 0001:00013720       ??0length_error@std@@QAE@ABV?$basic_string@DU?$char_traits@D@std@@V?$allocator@D@2@@1@@Z 00414720 f i prefs_keybindings_window.obj
 0001:00013740       ??1length_error@std@@UAE@XZ 00414740 f i prefs_keybindings_window.obj
 0001:00013740       ??1out_of_range@std@@UAE@XZ 00414740 f i preferences.obj
 0001:00013780       ??_Gout_of_range@std@@UAEPAXI@Z 00414780 f i preferences.obj
 0001:00013780       ??_Elogic_error@std@@UAEPAXI@Z 00414780 f i prefs_keybindings_window.obj
 0001:00013780       ??_Glogic_error@std@@UAEPAXI@Z 00414780 f i prefs_keybindings_window.obj
 0001:00013780       ??_Eout_of_range@std@@UAEPAXI@Z 00414780 f i preferences.obj
 0001:00013780       ??_Glength_error@std@@UAEPAXI@Z 00414780 f i prefs_keybindings_window.obj
 0001:00013780       ??_Elength_error@std@@UAEPAXI@Z 00414780 f i prefs_keybindings_window.obj
 0001:000137d0       ??0?$basic_string@DU?$char_traits@D@std@@V?$allocator@D@2@@std@@QAE@PBD@Z 004147d0 f i prefs_keybindings_window.obj
 0001:00013810       ??0logic_error@std@@QAE@ABV01@@Z 00414810 f i prefs_keybindings_window.obj
 0001:00013890       ??0length_error@std@@QAE@ABV01@@Z 00414890 f i prefs_keybindings_window.obj
 0001:000138b0       ??0ApplyOtherButton@@QAE@XZ 004148b0 f i prefs_other_window.obj
 0001:00013930       ?MouseUp@ApplyOtherButton@@UAEXXZ 00414930 f i prefs_other_window.obj
 0001:00013cd0       ?Render@ApplyOtherButton@@UAEXHH_N0@Z 00414cd0 f i prefs_other_window.obj
 0001:00013df0       ?Create@PrefsOtherWindow@@UAEXXZ 00414df0 f   prefs_other_window.obj
 0001:000148e0       ?EmptyAndDeleteArray@?$LList@PAD@@QAEXXZ 004158e0 f i prefs_other_window.obj
 0001:00014920       ?ListAvailableLanguages@PrefsOtherWindow@@QAEXXZ 00415920 f   prefs_other_window.obj
 0001:00014a00       ??0PrefsOtherWindow@@QAE@XZ 00415a00 f   prefs_other_window.obj
 0001:00014c60       ??_EPrefsOtherWindow@@UAEPAXI@Z 00415c60 f i prefs_other_window.obj
 0001:00014c60       ??_GPrefsOtherWindow@@UAEPAXI@Z 00415c60 f i prefs_other_window.obj
 0001:00014c90       ??0SetScreenButton@@QAE@XZ 00415c90 f i prefs_screen_window.obj
 0001:00014d10       ?Render@SetScreenButton@@UAEXHH_N0@Z 00415d10 f i prefs_screen_window.obj
 0001:00014e20       ??0PrefsScreenWindow@@QAE@XZ 00415e20 f   prefs_screen_window.obj
 0001:00014fa0       ?Render@FullscreenRequiredMenu@@EAEXHH_N0@Z 00415fa0 f i prefs_screen_window.obj
 0001:000151b0       ?MouseUp@FullscreenRequiredMenu@@EAEXXZ 004161b0 f i prefs_screen_window.obj
 0001:000151e0       ??_GGameMenuDropDown@@UAEPAXI@Z 004161e0 f i game_menu.obj
 0001:000151e0       ??_GFullscreenRequiredMenu@@UAEPAXI@Z 004161e0 f i prefs_screen_window.obj
 0001:000151e0       ??_EScreenResDropDownMenu@@UAEPAXI@Z 004161e0 f i prefs_screen_window.obj
 0001:000151e0       ??_EDropDownMenu@@UAEPAXI@Z 004161e0 f i drop_down_menu.obj
 0001:000151e0       ??_GScreenResDropDownMenu@@UAEPAXI@Z 004161e0 f i prefs_screen_window.obj
 0001:000151e0       ??_EFullscreenRequiredMenu@@UAEPAXI@Z 004161e0 f i prefs_screen_window.obj
 0001:000151e0       ??_EGameMenuDropDown@@UAEPAXI@Z 004161e0 f i game_menu.obj
 0001:000151e0       ??_GDropDownMenu@@UAEPAXI@Z 004161e0 f i drop_down_menu.obj
 0001:000152c0       ?RestartWindowManagerAndRenderer@@YAXXZ 004162c0 f   prefs_screen_window.obj
 0001:00015530       ?MouseUp@SetScreenButton@@UAEXXZ 00416530 f i prefs_screen_window.obj
 0001:00015810       ?SelectOption@ScreenResDropDownMenu@@EAEXH@Z 00416810 f i prefs_screen_window.obj
 0001:000158e0       ?Create@PrefsScreenWindow@@UAEXXZ 004168e0 f   prefs_screen_window.obj
 0001:00016420       ??0VolumeControl@@QAE@XZ   00417420 f i prefs_sound_window.obj
 0001:000164d0       ?MouseDown@VolumeControl@@UAEXXZ 004174d0 f i prefs_sound_window.obj
 0001:000165b0       ?MouseUp@VolumeControl@@UAEXXZ 004175b0 f i prefs_sound_window.obj
 0001:000165e0       ?ReadValues@PrefsSoundWindow@@IAEXXZ 004175e0 f   prefs_sound_window.obj
 0001:00016680       ?RefreshValues@PrefsSoundWindow@@QAEXXZ 00417680 f   prefs_sound_window.obj
 0001:00016700       ??0RestartSoundButton@@QAE@XZ 00417700 f i prefs_sound_window.obj
 0001:00016780       ?Render@RestartSoundButton@@UAEXHH_N0@Z 00417780 f i prefs_sound_window.obj
 0001:000168c0       ?MouseUp@RestartSoundButton@@UAEXXZ 004178c0 f i prefs_sound_window.obj
 0001:00016a20       ??0PrefsSoundWindow@@QAE@XZ 00417a20 f   prefs_sound_window.obj
 0001:00016ae0       ?Create@PrefsSoundWindow@@UAEXXZ 00417ae0 f   prefs_sound_window.obj
 0001:00017480       ?Render@VolumeControl@@UAEXHH_N0@Z 00418480 f i prefs_sound_window.obj
 0001:000179b0       ??HVector3@@QBE?AV0@ABV0@@Z 004189b0 f i rocket_status_panel.obj
 0001:000179e0       ??0RocketStatusPanel@@QAE@XZ 004189e0 f   rocket_status_panel.obj
 0001:00017a00       ?Render@RocketStatusPanel@@QAEXXZ 00418a00 f   rocket_status_panel.obj
 0001:00019010       ??0ScrollBar@@QAE@PAVEclWindow@@@Z 0041a010 f   scrollbar.obj
 0001:000190b0       ?Remove@ScrollBar@@QAEXXZ  0041a0b0 f   scrollbar.obj
 0001:00019160       ?SetCurrentValue@ScrollBar@@QAEXH@Z 0041a160 f   scrollbar.obj
 0001:000191c0       ?Render@ScrollBarButton@@UAEXHH_N0@Z 0041a1c0 f   scrollbar.obj
 0001:00019390       ?MouseUp@ScrollBarButton@@UAEXXZ 0041a390 f   scrollbar.obj
 0001:000194d0       ?MouseDown@ScrollBarButton@@UAEXXZ 0041a4d0 f   scrollbar.obj
 0001:00019650       ?MouseDown@ScrollChangeButton@@UAEXXZ 0041a650 f   scrollbar.obj
 0001:00019690       ?Render@ScrollChangeButton@@UAEXHH_N0@Z 0041a690 f   scrollbar.obj
 0001:00019900       ?SetNumRows@ScrollBar@@QAEXH@Z 0041a900 f   scrollbar.obj
 0001:00019930       ?Create@ScrollBar@@QAEXPADHHHHHHH@Z 0041a930 f   scrollbar.obj
 0001:00019cf0       ??0LoadUserProfileButton@@QAE@XZ 0041acf0 f i userprofile_window.obj
 0001:00019d90       ?SetShortProperties@LoadUserProfileButton@@UAEXPBDHHHHABVUnicodeString@@1@Z 0041ad90 f i userprofile_window.obj
 0001:00019ed0       ??0ResetProfileButton@@QAE@XZ 0041aed0 f   userprofile_window.obj
 0001:00019f40       ??0UserProfileWindow@@QAE@XZ 0041af40 f   userprofile_window.obj
 0001:00019f60       ?Create@UserProfileWindow@@UAEXXZ 0041af60 f   userprofile_window.obj
 0001:0001a480       ?MouseUp@ResetProfileButton@@UAEXXZ 0041b480 f   userprofile_window.obj
 0001:0001a570       ??0GlobalWorldEditorWindow@@QAE@XZ 0041b570 f   globalworldeditor_window.obj
 0001:0001a5e0       ?Update@GlobalWorldEditorWindow@@UAEXXZ 0041b5e0 f   globalworldeditor_window.obj
 0001:0001a600       ?MouseUp@SetModeButton@@UAEXXZ 0041b600 f i globalworldeditor_window.obj
 0001:0001a620       ?Render@SetModeButton@@UAEXHH_N0@Z 0041b620 f i globalworldeditor_window.obj
 0001:0001a640       ?MouseUp@NewLocationButton@@EAEXXZ 0041b640 f i globalworldeditor_window.obj
 0001:0001a880       ?MouseUp@SaveLocationsButton@@EAEXXZ 0041b880 f i globalworldeditor_window.obj
 0001:0001a8a0       ?Create@GlobalWorldEditorWindow@@UAEXXZ 0041b8a0 f   globalworldeditor_window.obj
 0001:0001ab60       ??0Vector3@@QAE@XZ         0041bb60 f i debug_render.obj
 0001:0001ab70       ??TVector3@@QBE?AV0@ABV0@@Z 0041bb70 f i debug_render.obj
 0001:0001abb0       ??GVector3@@QBE?AV0@ABV0@@Z 0041bbb0 f i debug_render.obj
 0001:0001abe0       ??YVector3@@QAEABV0@ABV0@@Z 0041bbe0 f i debug_render.obj
 0001:0001ac10       ?Normalise@Vector3@@QAEABV1@XZ 0041bc10 f i debug_render.obj
 0001:0001ac90       ?Mag@Vector3@@QBENXZ       0041bc90 f i debug_render.obj
 0001:0001acc0       ?GetPos@Camera@@QAE?AVVector3@@XZ 0041bcc0 f i debug_render.obj
 0001:0001acf0       ?RenderSquare2d@@YAXMMMABVRGBAColour@@@Z 0041bcf0 f   debug_render.obj
 0001:0001ae70       ?RenderSphere@@YAXABVVector3@@MABVRGBAColour@@@Z 0041be70 f   debug_render.obj
 0001:0001aeb0       ?SetLength@Vector3@@QAEABV1@N@Z 0041beb0 f i debug_render.obj
 0001:0001af20       ?RenderVerticalCylinder@@YAXABVVector3@@0MMABVRGBAColour@@@Z 0041bf20 f   debug_render.obj
 0001:0001b3e0       ?RenderArrow@@YAXABVVector3@@0MABVRGBAColour@@@Z 0041c3e0 f   debug_render.obj
 0001:0001b660       ?RenderPointMarker@@YAXABVVector3@@PBDZZ 0041c660 f   debug_render.obj
 0001:0001b730       ??1NetLockMutex@@QAE@XZ    0041c730 f i debug_utils.obj
 0001:0001b740       ?AppDebugLogPath@@YAPADPBD@Z 0041c740 f   debug_utils.obj
 0001:0001b7c0       ?AppDebugLogPathPrefix@@YAXPBD@Z 0041c7c0 f   debug_utils.obj
 0001:0001b7f0       ?AppDebugOut@@YAXPBDZZ     0041c7f0 f   debug_utils.obj
 0001:0001b930       ?AppDebugAssert@@YAX_N@Z   0041c930 f   debug_utils.obj
 0001:0001b940       ?AppGenerateBlackBox@@YAXPBD0@Z 0041c940 f   debug_utils.obj
 0001:0001bab0       ?HashDouble@@YAPADNPAD@Z   0041cab0 f   debug_utils.obj
 0001:0001bb00       ?AppDebugOutRedirect@@YAXPBD@Z 0041cb00 f   debug_utils.obj
 0001:0001bba0       ?AppReleaseAssertFailed@@YAXPBDZZ 0041cba0 f   debug_utils.obj
 0001:0001c830       ?RecordExceptionInfo@@YAHPAU_EXCEPTION_POINTERS@@PBD111@Z 0041d830 f   exception_handler.obj
 0001:0001ce50       ?GetWinVer@@YAHPADPAH0@Z   0041de50 f   GetWinVer.obj
 0001:0001d220       ?InitialiseHighResTime@@YAXXZ 0041e220 f   hi_res_time.obj
 0001:0001d240       ?GetLowLevelTime@@YANXZ    0041e240 f i hi_res_time.obj
 0001:0001d2a0       ?GetHighResTime@@YANXZ     0041e2a0 f   hi_res_time.obj
 0001:0001d2d0       ?IncrementFakeTime@@YAXN@Z 0041e2d0 f   hi_res_time.obj
 0001:0001d2f0       ?_Incref@facet@locale@std@@QAEXXZ 0041e2f0 f i language_table.obj
 0001:0001d320       ?_Decref@facet@locale@std@@QAEPAV123@XZ 0041e320 f i language_table.obj
 0001:0001d360       ??1facet@locale@std@@UAE@XZ 0041e360 f i language_table.obj
 0001:0001d370       ??1locale@std@@QAE@XZ      0041e370 f i language_table.obj
 0001:0001d3c0       ?getloc@ios_base@std@@QBE?AVlocale@2@XZ 0041e3c0 f i language_table.obj
 0001:0001d400       ?markerLength@@YAHPBG@Z    0041e400 f   language_table.obj
 0001:0001d440       ??1LangPhrase@@QAE@XZ      0041e440 f   language_table.obj
 0001:0001d460       ?is_suffix@@YA_NPBD0@Z     0041e460 f   language_table.obj
 0001:0001d4b0       ?chomp_mode_suffix@@YA_NPAD@Z 0041e4b0 f   language_table.obj
 0001:0001d520       ?consumeIfMarker@LangTable@@QAE_NABVUnicodeString@@AAV2@AAUCaptionParserMode@@@Z 0041e520 f   language_table.obj
 0001:0001d750       ?_Pnavail@?$basic_streambuf@DU?$char_traits@D@std@@@std@@IBEHXZ 0041e750 f i language_table.obj
 0001:0001d750       ?_Pnavail@?$basic_streambuf@GU?$char_traits@G@std@@@std@@IBEHXZ 0041e750 f i preferences.obj
 0001:0001d770       ??1_Sentry_base@?$basic_istream@GU?$char_traits@G@std@@@std@@QAE@XZ 0041e770 f i preferences.obj
 0001:0001d770       ??1sentry@?$basic_istream@GU?$char_traits@G@std@@@std@@QAE@XZ 0041e770 f i preferences.obj
 0001:0001d770       ??1_Sentry_base@?$basic_istream@DU?$char_traits@D@std@@@std@@QAE@XZ 0041e770 f i memory_leak.obj
 0001:0001d770       ??1sentry@?$basic_istream@DU?$char_traits@D@std@@@std@@QAE@XZ 0041e770 f i memory_leak.obj
 0001:0001d770       ??1_Sentry_base@?$basic_ostream@DU?$char_traits@D@std@@@std@@QAE@XZ 0041e770 f i language_table.obj
 0001:0001d790       ?GetData@?$DArray@PAVLangPhrase@@@@QBEPAVLangPhrase@@H@Z 0041e790 f i language_table.obj
 0001:0001d790       ?GetData@?$DArray@PAVDirectoryData@@@@QBEPAVDirectoryData@@H@Z 0041e790 f i directory.obj
 0001:0001d790       ?GetData@?$DArray@PAUIFrameUnit@@@@QBEPAUIFrameUnit@@H@Z 0041e790 f i iframe.obj
 0001:0001d790       ?GetData@?$DArray@PAVIFrameEntity@@@@QBEPAVIFrameEntity@@H@Z 0041e790 f i iframe.obj
 0001:0001d790       ?GetData@?$DArray@PAVLight@@@@QBEPAVLight@@H@Z 0041e790 f i level_file.obj
 0001:0001d790       ?GetData@?$DArray@PAVBuilding@@@@QBEPAVBuilding@@H@Z 0041e790 f i radardish.obj
 0001:0001d790       ?GetData@?$DArray@PBD@@QBEPBDH@Z 0041e790 f i resource.obj
 0001:0001d790       ?GetData@?$DArray@PAVDirectory@@@@QBEPAVDirectory@@H@Z 0041e790 f i directory.obj
 0001:0001d790       ?GetData@?$DArray@PAVUnit@@@@QBEPAVUnit@@H@Z 0041e790 f i radardish.obj
 0001:0001d790       ?GetData@?$DArray@PAVEntity@@@@QBEPAVEntity@@H@Z 0041e790 f i insertion_squad.obj
 0001:0001d790       ?GetData@?$DArray@PAVMapData@@@@QBEPAVMapData@@H@Z 0041e790 f i GameMenuWindow.obj
 0001:0001d800       ??0?$HashTable@PAVBitmapRGBA@@@@QAE@XZ 0041e800 f i resource.obj
 0001:0001d800       ??0?$HashTable@H@@QAE@XZ   0041e800 f i resource.obj
 0001:0001d800       ??0?$HashTable@PAVProfiledElement@@@@QAE@XZ 0041e800 f i profiler.obj
 0001:0001d800       ??0?$HashTable@PAVUnicodeString@@@@QAE@XZ 0041e800 f i language_table.obj
 0001:0001d800       ??0?$HashTable@PAVFTP@@@@QAE@XZ 0041e800 f i ftp_manager.obj
 0001:0001d800       ??0?$HashTable@PAVShape@@@@QAE@XZ 0041e800 f i resource.obj
 0001:0001d800       ??0?$HashTable@PAVMemMappedFile@@@@QAE@XZ 0041e800 f i resource.obj
 0001:0001d800       ??0?$HashTable@PAVAckSet@@@@QAE@XZ 0041e800 f i ftp_manager.obj
 0001:0001d880       ??0?$BTree@PAVLangPhrase@@@@QAE@PBDABQAVLangPhrase@@@Z 0041e880 f i language_table.obj
 0001:0001d8e0       ?Empty@?$BTree@M@@QAEXXZ   0041e8e0 f i soundsystem.obj
 0001:0001d8e0       ?Empty@?$BTree@PAVLangPhrase@@@@QAEXXZ 0041e8e0 f i language_table.obj
 0001:0001d940       ?Size@?$BTree@PAVLangPhrase@@@@QBEHXZ 0041e940 f i language_table.obj
 0001:0001d970       ?Empty@?$HashTable@PAVFTP@@@@QAEXXZ 0041e970 f i ftp_manager.obj
 0001:0001d970       ?Empty@?$HashTable@PAVBitmapRGBA@@@@QAEXXZ 0041e970 f i resource.obj
 0001:0001d970       ?Empty@?$HashTable@H@@QAEXXZ 0041e970 f i resource.obj
 0001:0001d970       ?Empty@?$HashTable@PAVShape@@@@QAEXXZ 0041e970 f i resource.obj
 0001:0001d970       ?Empty@?$HashTable@PAVProfiledElement@@@@QAEXXZ 0041e970 f i profiler.obj
 0001:0001d970       ?Empty@?$HashTable@PAVMemMappedFile@@@@QAEXXZ 0041e970 f i resource.obj
 0001:0001d970       ?Empty@?$HashTable@PAVAckSet@@@@QAEXXZ 0041e970 f i ftp_manager.obj
 0001:0001d970       ?Empty@?$HashTable@PAVUnicodeString@@@@QAEXXZ 0041e970 f i language_table.obj
 0001:0001d9d0       ??1?$BTree@PAVLangPhrase@@@@QAE@XZ 0041e9d0 f i language_table.obj
 0001:0001d9d0       ??1?$BTree@M@@QAE@XZ       0041e9d0 f i soundsystem.obj
 0001:0001d9e0       ?PutData@?$BTree@PAVLangPhrase@@@@QAEXPBDABQAVLangPhrase@@@Z 0041e9e0 f i language_table.obj
 0001:0001db30       ?EmptyAndDelete@?$DArray@PAVLangPhrase@@@@QAEXXZ 0041eb30 f i language_table.obj
 0001:0001dbb0       ?EmptyAndDelete@?$HashTable@PAVUnicodeString@@@@QAEXXZ 0041ebb0 f i language_table.obj
 0001:0001dc00       ?_Ifmt@?$num_put@DV?$ostreambuf_iterator@DU?$char_traits@D@std@@@std@@@std@@ABAPADPADPBDH@Z 0041ec00 f i language_table.obj
 0001:0001dc90       ??A?$basic_string@DU?$char_traits@D@std@@V?$allocator@D@2@@std@@QAEAADI@Z 0041ec90 f i language_table.obj
 0001:0001dcc0       ?_Chassign@?$basic_string@DU?$char_traits@D@std@@V?$allocator@D@2@@std@@IAEXIID@Z 0041ecc0 f i language_table.obj
 0001:0001dd20       ??$_Maklocstr@D@std@@YAPADPBDPADABU_Cvtvec@@@Z 0041ed20 f i language_table.obj
 0001:0001dd60       ?_Init@?$numpunct@D@std@@IAEXABV_Locinfo@2@_N@Z 0041ed60 f i language_table.obj
 0001:0001ded0       ?AppendRight@?$BTree@PAVLangPhrase@@@@IAEXPAV1@@Z 0041eed0 f i language_table.obj
 0001:0001df00       ?RawLookupPhrase@LangTable@@QAEABVUnicodeString@@PBDW4InputMode@@@Z 0041ef00 f   language_table.obj
 0001:0001e0b0       ?_Putc@?$num_put@DV?$ostreambuf_iterator@DU?$char_traits@D@std@@@std@@@std@@ABA?AV?$ostreambuf_iterator@DU?$char_traits@D@std@@@2@V32@PBDI@Z 0041f0b0 f i language_table.obj
 0001:0001e0b0       ?_Put@?$num_put@DV?$ostreambuf_iterator@DU?$char_traits@D@std@@@std@@@std@@ABA?AV?$ostreambuf_iterator@DU?$char_traits@D@std@@@2@V32@PBDI@Z 0041f0b0 f i language_table.obj
 0001:0001e120       ?_Rep@?$num_put@DV?$ostreambuf_iterator@DU?$char_traits@D@std@@@std@@@std@@ABA?AV?$ostreambuf_iterator@DU?$char_traits@D@std@@@2@V32@DI@Z 0041f120 f i language_table.obj
 0001:0001e190       ?_Putgrouped@?$num_put@DV?$ostreambuf_iterator@DU?$char_traits@D@std@@@std@@@std@@ABA?AV?$ostreambuf_iterator@DU?$char_traits@D@std@@@2@V32@PBDID@Z 0041f190 f i language_table.obj
 0001:0001e230       ?RemoveData@?$BTree@PAVLangPhrase@@@@QAEXPBD@Z 0041f230 f i language_table.obj
 0001:0001e3a0       ??0?$numpunct@D@std@@QAE@ABV_Locinfo@1@I_N@Z 0041f3a0 f i language_table.obj
 0001:0001e410       ?do_decimal_point@?$numpunct@D@std@@MBEDXZ 0041f410 f i language_table.obj
 0001:0001e410       ?HashValue@IFrame@@QBEEXZ  0041f410 f i iframe.obj
 0001:0001e420       ?do_thousands_sep@?$numpunct@D@std@@MBEDXZ 0041f420 f i language_table.obj
 0001:0001e430       ??_E?$numpunct@D@std@@MAEPAXI@Z 0041f430 f i language_table.obj
 0001:0001e430       ??_G?$numpunct@D@std@@MAEPAXI@Z 0041f430 f i language_table.obj
 0001:0001e480       ?RecursiveConvertToDArray@?$BTree@PAVLangPhrase@@@@IAEXPAV?$DArray@PAVLangPhrase@@@@PAV1@@Z 0041f480 f i language_table.obj
 0001:0001e4e0       ?ParseLanguageFile@LangTable@@QAEXPBD@Z 0041f4e0 f   language_table.obj
 0001:0001e7f0       ?RawDoesPhraseExist@LangTable@@QAE_NPBDW4InputMode@@@Z 0041f7f0 f   language_table.obj
 0001:0001e8e0       ?buildPhrase@LangTable@@QAE_NABVUnicodeString@@AAV2@AAUCaptionParserMode@@@Z 0041f8e0 f   language_table.obj
 0001:0001ea70       ?consumeOtherMarker@LangTable@@QAE_NABVUnicodeString@@AAV2@AAUCaptionParserMode@@@Z 0041fa70 f   language_table.obj
 0001:0001ec60       ?RawLookupPhrase@LangTable@@QAEABVUnicodeString@@PBD@Z 0041fc60 f   language_table.obj
 0001:0001ed00       ?WordWrapText@@YAPAV?$LList@PAVUnicodeString@@@@ABVUnicodeString@@MM_N1@Z 0041fd00 f   language_table.obj
 0001:0001f1e0       ?append@?$basic_string@DU?$char_traits@D@std@@V?$allocator@D@2@@std@@QAEAAV12@ID@Z 004201e0 f i language_table.obj
 0001:0001f290       ?insert@?$basic_string@DU?$char_traits@D@std@@V?$allocator@D@2@@std@@QAEAAV12@IID@Z 00420290 f i language_table.obj
 0001:0001f390       ?grouping@?$numpunct@G@std@@QBE?AV?$basic_string@DU?$char_traits@D@std@@V?$allocator@D@2@@2@XZ 00420390 f i preferences.obj
 0001:0001f390       ?grouping@?$numpunct@D@std@@QBE?AV?$basic_string@DU?$char_traits@D@std@@V?$allocator@D@2@@2@XZ 00420390 f i language_table.obj
 0001:0001f3b0       ?append@?$basic_string@DU?$char_traits@D@std@@V?$allocator@D@2@@std@@QAEAAV12@ABV12@II@Z 004203b0 f i language_table.obj
 0001:0001f4b0       ?ConvertToDArray@?$BTree@PAVLangPhrase@@@@QAEPAV?$DArray@PAVLangPhrase@@@@XZ 004204b0 f i language_table.obj
 0001:0001f520       ??0_Locinfo@std@@QAE@ABV?$basic_string@DU?$char_traits@D@std@@V?$allocator@D@2@@1@@Z 00420520 f i language_table.obj
 0001:0001f5b0       ??1_Locinfo@std@@QAE@XZ    004205b0 f i language_table.obj
 0001:0001f690       ??0LangTable@@QAE@PAD@Z    00420690 f   language_table.obj
 0001:0001f730       ??1LangTable@@QAE@XZ       00420730 f   language_table.obj
 0001:0001f850       ?specific_key_exists@LangTable@@AAE_NPBDW4InputMode@@@Z 00420850 f   language_table.obj
 0001:0001f920       ?append@?$basic_string@DU?$char_traits@D@std@@V?$allocator@D@2@@std@@QAEAAV12@PBDI@Z 00420920 f i language_table.obj
 0001:0001fa30       ??0runtime_error@std@@QAE@ABV?$basic_string@DU?$char_traits@D@std@@V?$allocator@D@2@@1@@Z 00420a30 f i language_table.obj
 0001:0001faa0       ?name@locale@std@@QBE?AV?$basic_string@DU?$char_traits@D@std@@V?$allocator@D@2@@2@XZ 00420aa0 f i language_table.obj
 0001:0001fad0       ??1failure@ios_base@std@@UAE@XZ 00420ad0 f i language_table.obj
 0001:0001fb10       ??_Efailure@ios_base@std@@UAEPAXI@Z 00420b10 f i language_table.obj
 0001:0001fb10       ??_Eruntime_error@std@@UAEPAXI@Z 00420b10 f i language_table.obj
 0001:0001fb10       ??_Gfailure@ios_base@std@@UAEPAXI@Z 00420b10 f i language_table.obj
 0001:0001fb10       ??_Gruntime_error@std@@UAEPAXI@Z 00420b10 f i language_table.obj
 0001:0001fb60       ?do_falsename@?$numpunct@D@std@@MBE?AV?$basic_string@DU?$char_traits@D@std@@V?$allocator@D@2@@2@XZ 00420b60 f i language_table.obj
 0001:0001fbb0       ?do_truename@?$numpunct@D@std@@MBE?AV?$basic_string@DU?$char_traits@D@std@@V?$allocator@D@2@@2@XZ 00420bb0 f i language_table.obj
 0001:0001fc00       ?_Getcat@?$num_put@DV?$ostreambuf_iterator@DU?$char_traits@D@std@@@std@@@std@@SAIPAPBVfacet@locale@2@PBV42@@Z 00420c00 f i language_table.obj
 0001:0001fd10       ?_Getcat@?$numpunct@D@std@@SAIPAPBVfacet@locale@2@PBV42@@Z 00420d10 f i language_table.obj
 0001:0001fe20       ?clear@ios_base@std@@QAEXH_N@Z 00420e20 f i language_table.obj
 0001:0001ff50       ??0runtime_error@std@@QAE@ABV01@@Z 00420f50 f i language_table.obj
 0001:0001ffd0       ??0failure@ios_base@std@@QAE@ABV012@@Z 00420fd0 f i language_table.obj
 0001:0001fff0       ?consumeKeyMarker@LangTable@@QAE_NABVUnicodeString@@AAV2@AAUCaptionParserMode@@@Z 00420ff0 f   language_table.obj
 0001:000202c0       ??$use_facet@V?$num_put@DV?$ostreambuf_iterator@DU?$char_traits@D@std@@@std@@@std@@@std@@YAABV?$num_put@DV?$ostreambuf_iterator@DU?$char_traits@D@std@@@std@@@0@ABVlocale@0@@Z 004212c0 f i language_table.obj
 0001:00020410       ??$use_facet@V?$numpunct@D@std@@@std@@YAABV?$numpunct@D@0@ABVlocale@0@@Z 00421410 f i language_table.obj
 0001:00020560       ?consumeMarker@LangTable@@QAE_NABVUnicodeString@@AAV2@AAUCaptionParserMode@@@Z 00421560 f   language_table.obj
 0001:00020670       ?do_put@?$num_put@DV?$ostreambuf_iterator@DU?$char_traits@D@std@@@std@@@std@@MBE?AV?$ostreambuf_iterator@DU?$char_traits@D@std@@@2@V32@AAVios_base@2@D_N@Z 00421670 f i language_table.obj
 0001:00020890       ?_Fput@?$num_put@DV?$ostreambuf_iterator@DU?$char_traits@D@std@@@std@@@std@@ABA?AV?$ostreambuf_iterator@DU?$char_traits@D@std@@@2@V32@AAVios_base@2@DPBDIIII@Z 00421890 f i language_table.obj
 0001:00020f20       ?_Iput@?$num_put@DV?$ostreambuf_iterator@DU?$char_traits@D@std@@@std@@@std@@ABA?AV?$ostreambuf_iterator@DU?$char_traits@D@std@@@2@V32@AAVios_base@2@DPADI@Z 00421f20 f i language_table.obj
 0001:00021210       ?buildCaption@LangTable@@QAE_NABVUnicodeString@@AAV2@AAUCaptionParserMode@@@Z 00422210 f   language_table.obj
 0001:00021340       ?buildCaption@LangTable@@QAE_NABVUnicodeString@@AAV2@W4InputMode@@@Z 00422340 f   language_table.obj
 0001:000213a0       ?flush@?$basic_ostream@DU?$char_traits@D@std@@@std@@QAEAAV12@XZ 004223a0 f i language_table.obj
 0001:000213a0       ?flush@?$basic_ostream@GU?$char_traits@G@std@@@std@@QAEAAV12@XZ 004223a0 f i preferences.obj
 0001:000213f0       ??0sentry@?$basic_ostream@DU?$char_traits@D@std@@@std@@QAE@AAV12@@Z 004223f0 f i language_table.obj
 0001:00021480       ?do_put@?$num_put@DV?$ostreambuf_iterator@DU?$char_traits@D@std@@@std@@@std@@MBE?AV?$ostreambuf_iterator@DU?$char_traits@D@std@@@2@V32@AAVios_base@2@DJ@Z 00422480 f i language_table.obj
 0001:00021500       ?do_put@?$num_put@DV?$ostreambuf_iterator@DU?$char_traits@D@std@@@std@@@std@@MBE?AV?$ostreambuf_iterator@DU?$char_traits@D@std@@@2@V32@AAVios_base@2@DK@Z 00422500 f i language_table.obj
 0001:00021580       ?do_put@?$num_put@DV?$ostreambuf_iterator@DU?$char_traits@D@std@@@std@@@std@@MBE?AV?$ostreambuf_iterator@DU?$char_traits@D@std@@@2@V32@AAVios_base@2@D_J@Z 00422580 f i language_table.obj
 0001:00021610       ?do_put@?$num_put@DV?$ostreambuf_iterator@DU?$char_traits@D@std@@@std@@@std@@MBE?AV?$ostreambuf_iterator@DU?$char_traits@D@std@@@2@V32@AAVios_base@2@D_K@Z 00422610 f i language_table.obj
 0001:000216a0       ?do_put@?$num_put@DV?$ostreambuf_iterator@DU?$char_traits@D@std@@@std@@@std@@MBE?AV?$ostreambuf_iterator@DU?$char_traits@D@std@@@2@V32@AAVios_base@2@DN@Z 004226a0 f i language_table.obj
 0001:00021890       ?do_put@?$num_put@DV?$ostreambuf_iterator@DU?$char_traits@D@std@@@std@@@std@@MBE?AV?$ostreambuf_iterator@DU?$char_traits@D@std@@@2@V32@AAVios_base@2@DO@Z 00422890 f i language_table.obj
 0001:00021a70       ?do_put@?$num_put@DV?$ostreambuf_iterator@DU?$char_traits@D@std@@@std@@@std@@MBE?AV?$ostreambuf_iterator@DU?$char_traits@D@std@@@2@V32@AAVios_base@2@DPBX@Z 00422a70 f i language_table.obj
 0001:00021ae0       ?_Osfx@?$basic_ostream@DU?$char_traits@D@std@@@std@@QAEXXZ 00422ae0 f i language_table.obj
 0001:00021b40       ?RebuildTable@LangTable@@AAEXPAV?$HashTable@PAVUnicodeString@@@@W4InputMode@@@Z 00422b40 f   language_table.obj
 0001:00021e10       ??1sentry@?$basic_ostream@DU?$char_traits@D@std@@@std@@QAE@XZ 00422e10 f i language_table.obj
 0001:00021e80       ??$?6U?$char_traits@D@std@@@std@@YAAAV?$basic_ostream@DU?$char_traits@D@std@@@0@AAV10@PBD@Z 00422e80 f i language_table.obj
 0001:00022090       ??$?6U?$char_traits@D@std@@@std@@YAAAV?$basic_ostream@DU?$char_traits@D@std@@@0@AAV10@D@Z 00423090 f i language_table.obj
 0001:000222a0       ?RebuildTables@LangTable@@QAEXXZ 004232a0 f   language_table.obj
 0001:000223c0       ?put@?$basic_ostream@DU?$char_traits@D@std@@@std@@QAEAAV12@D@Z 004233c0 f i language_table.obj
 0001:000224f0       ?DoesPhraseExist@LangTable@@QAE_NPBD@Z 004234f0 f   language_table.obj
 0001:00022580       ?LookupPhrase@LangTable@@QAEABVUnicodeString@@PBD@Z 00423580 f   language_table.obj
 0001:00022680       ?TestAgainstEnglish@LangTable@@QAEXXZ 00423680 f   language_table.obj
 0001:000228b0       ??1?$basic_ios@DU?$char_traits@D@std@@@std@@UAE@XZ 004238b0 f i memory_leak.obj
 0001:000228b0       ??1?$basic_ios@GU?$char_traits@G@std@@@std@@UAE@XZ 004238b0 f i preferences.obj
 0001:000228c0       ??1?$basic_istream@DU?$char_traits@D@std@@@std@@UAE@XZ 004238c0 f i memory_leak.obj
 0001:000228d0       ??_Glocale@std@@QAEPAXI@Z  004238d0 f i memory_leak.obj
 0001:00022940       ??_E?$basic_ios@GU?$char_traits@G@std@@@std@@UAEPAXI@Z 00423940 f i preferences.obj
 0001:00022940       ??_G?$basic_ios@GU?$char_traits@G@std@@@std@@UAEPAXI@Z 00423940 f i preferences.obj
 0001:00022940       ??_G?$basic_ios@DU?$char_traits@D@std@@@std@@UAEPAXI@Z 00423940 f i memory_leak.obj
 0001:00022940       ??_Gios_base@std@@UAEPAXI@Z 00423940 f i memory_leak.obj
 0001:00022940       ??_Eios_base@std@@UAEPAXI@Z 00423940 f i memory_leak.obj
 0001:00022940       ??_E?$basic_ios@DU?$char_traits@D@std@@@std@@UAEPAXI@Z 00423940 f i memory_leak.obj
 0001:00022970       ?_Gnavail@?$basic_streambuf@DU?$char_traits@D@std@@@std@@IBEHXZ 00423970 f i memory_leak.obj
 0001:00022970       ?_Gnavail@?$basic_streambuf@GU?$char_traits@G@std@@@std@@IBEHXZ 00423970 f i preferences.obj
 0001:00022990       ?getloc@?$basic_streambuf@DU?$char_traits@D@std@@@std@@QBE?AVlocale@2@XZ 00423990 f i memory_leak.obj
 0001:000229d0       ??0?$ctype@D@std@@QAE@ABV_Locinfo@1@I@Z 004239d0 f i memory_leak.obj
 0001:00022a10       ?do_tolower@?$ctype@D@std@@MBEDD@Z 00423a10 f i memory_leak.obj
 0001:00022a30       ?do_tolower@?$ctype@D@std@@MBEPBDPADPBD@Z 00423a30 f i memory_leak.obj
 0001:00022a60       ?do_toupper@?$ctype@D@std@@MBEDD@Z 00423a60 f i memory_leak.obj
 0001:00022a80       ?do_toupper@?$ctype@D@std@@MBEPBDPADPBD@Z 00423a80 f i memory_leak.obj
 0001:00022ab0       ?do_widen@?$ctype@D@std@@MBEDD@Z 00423ab0 f i memory_leak.obj
 0001:00022ac0       ?do_widen@?$ctype@D@std@@MBEPBDPBD0PAD@Z 00423ac0 f i memory_leak.obj
 0001:00022af0       ?_Do_widen_s@?$ctype@D@std@@MBEPBDPBD0PADI@Z 00423af0 f i memory_leak.obj
 0001:00022b30       ?do_narrow@?$ctype@D@std@@MBEDDD@Z 00423b30 f i memory_leak.obj
 0001:00022b40       ?do_narrow@?$ctype@D@std@@MBEPBDPBD0DPAD@Z 00423b40 f i memory_leak.obj
 0001:00022b70       ?_Do_narrow_s@?$ctype@D@std@@MBEPBDPBD0DPADI@Z 00423b70 f i memory_leak.obj
 0001:00022bb0       ??_E?$ctype@D@std@@MAEPAXI@Z 00423bb0 f i memory_leak.obj
 0001:00022bb0       ??_G?$ctype@D@std@@MAEPAXI@Z 00423bb0 f i memory_leak.obj
 0001:00022c00       ??1?$basic_streambuf@DU?$char_traits@D@std@@@std@@UAE@XZ 00423c00 f i memory_leak.obj
 0001:00022c70       ?pbackfail@?$basic_streambuf@DU?$char_traits@D@std@@@std@@MAEHH@Z 00423c70 f i memory_leak.obj
 0001:00022c70       ?overflow@?$basic_streambuf@DU?$char_traits@D@std@@@std@@MAEHH@Z 00423c70 f i memory_leak.obj
 0001:00022c80       ?GetBuildingLink@Building@@UAEHXZ 00423c80 f i building.obj
 0001:00022c80       ?underflow@?$basic_streambuf@DU?$char_traits@D@std@@@std@@MAEHXZ 00423c80 f i memory_leak.obj
 0001:00022c90       ?xsgetn@?$basic_streambuf@GU?$char_traits@G@std@@@std@@MAEHPAGH@Z 00423c90 f i preferences.obj
 0001:00022c90       ?xsgetn@?$basic_streambuf@DU?$char_traits@D@std@@@std@@MAEHPADH@Z 00423c90 f i memory_leak.obj
 0001:00022cb0       ?setbuf@?$basic_streambuf@GU?$char_traits@G@std@@@std@@MAEPAV12@PAGH@Z 00423cb0 f i preferences.obj
 0001:00022cb0       ?setbuf@?$basic_streambuf@DU?$char_traits@D@std@@@std@@MAEPAV12@PADH@Z 00423cb0 f i memory_leak.obj
 0001:00022cc0       ?ReadUnicodeChar@UnicodeTextReader@@MAEGXZ 00423cc0 f i unicode_text_stream_reader1.obj
 0001:00022cc0       ?getInputMode@InputDriver@@UAE?AW4InputMode@@XZ 00423cc0 f i inputdriver.obj
 0001:00022cc0       ?sync@?$basic_streambuf@DU?$char_traits@D@std@@@std@@MAEHXZ 00423cc0 f i memory_leak.obj
 0001:00022cc0       ?ExtractLink@@YAHAAVComprDataIO@@AAVArchive@@PADAAI_N@Z 00423cc0 f i unrar:ulinks.obj
 0001:00022cc0       ?showmanyc@?$basic_streambuf@GU?$char_traits@G@std@@@std@@MAEHXZ 00423cc0 f i preferences.obj
 0001:00022cc0       ?showmanyc@?$basic_streambuf@DU?$char_traits@D@std@@@std@@MAEHXZ 00423cc0 f i memory_leak.obj
 0001:00022cc0       ?GetMaxChannels@SoundLibrary3dNoSound@@UAEHXZ 00423cc0 f i soundsystem.obj
 0001:00022cc0       ?GetCPUOverhead@SoundLibrary3dNoSound@@UAEHXZ 00423cc0 f i soundsystem.obj
 0001:00022cc0       ?sync@?$basic_streambuf@GU?$char_traits@G@std@@@std@@MAEHXZ 00423cc0 f i preferences.obj
 0001:00022cd0       ?uflow@?$basic_streambuf@DU?$char_traits@D@std@@@std@@MAEHXZ 00423cd0 f i memory_leak.obj
 0001:00022d00       ?seekpos@?$basic_streambuf@DU?$char_traits@D@std@@@std@@MAE?AV?$fpos@H@2@V32@H@Z 00423d00 f i memory_leak.obj
 0001:00022d00       ?seekpos@?$basic_streambuf@GU?$char_traits@G@std@@@std@@MAE?AV?$fpos@H@2@V32@H@Z 00423d00 f i preferences.obj
 0001:00022d20       ??_E?$basic_istream@DU?$char_traits@D@std@@@std@@UAEPAXI@Z 00423d20 f i memory_leak.obj
 0001:00022d20       ??_G?$basic_istream@DU?$char_traits@D@std@@@std@@UAEPAXI@Z 00423d20 f i memory_leak.obj
 0001:00022d60       ??_G?$basic_streambuf@DU?$char_traits@D@std@@@std@@UAEPAXI@Z 00423d60 f i memory_leak.obj
 0001:00022d60       ??_E?$basic_streambuf@DU?$char_traits@D@std@@@std@@UAEPAXI@Z 00423d60 f i memory_leak.obj
 0001:00022d80       ??D?$_String_iterator@DU?$char_traits@D@std@@V?$allocator@D@2@@std@@QBEAADXZ 00423d80 f i memory_leak.obj
 0001:00022dc0       ??0?$_String_const_iterator@DU?$char_traits@D@std@@V?$allocator@D@2@@std@@QAE@PBDPBV_Container_base_secure@1@@Z 00423dc0 f i memory_leak.obj
 0001:00022e20       ?do_out@?$codecvt@DDH@std@@MBEHAAHPBD1AAPBDPAD3AAPAD@Z 00423e20 f i memory_leak.obj
 0001:00022e20       ?do_in@?$codecvt@DDH@std@@MBEHAAHPBD1AAPBDPAD3AAPAD@Z 00423e20 f i memory_leak.obj
 0001:00022e40       ?do_unshift@?$codecvt@DDH@std@@MBEHAAHPAD1AAPAD@Z 00423e40 f i memory_leak.obj
 0001:00022e60       ?do_length@?$codecvt@DDH@std@@MBEHABHPBD1I@Z 00423e60 f i memory_leak.obj
 0001:00022e80       ?PutDataAtStart@?$LList@PAVMineCart@@@@QAEXABQAVMineCart@@@Z 00423e80 f i mine.obj
 0001:00022e80       ?PutDataAtStart@?$LList@PAVEclButton@@@@QAEXABQAVEclButton@@@Z 00423e80 f i GameMenuWindow.obj
 0001:00022e80       ?PutDataAtStart@?$LList@PAD@@QAEXABQAD@Z 00423e80 f i memory_leak.obj
 0001:00022e80       ?PutDataAtStart@?$LList@H@@QAEXABH@Z 00423e80 f i profiler.obj
 0001:00022e80       ?PutDataAtStart@?$LList@PAVDirectory@@@@QAEXABQAVDirectory@@@Z 00423e80 f i ClientToServer.obj
 0001:00022e80       ?PutDataAtStart@?$LList@PAVDropDownOptionData@@@@QAEXABQAVDropDownOptionData@@@Z 00423e80 f i drop_down_menu.obj
 0001:00022e80       ?PutDataAtStart@?$LList@PAVHistoricWayPoint@@@@QAEXABQAVHistoricWayPoint@@@Z 00423e80 f i insertion_squad.obj
 0001:00022e80       ?PutDataAtStart@?$LList@PAVVector3@@@@QAEXABQAVVector3@@@Z 00423e80 f i engineer.obj
 0001:00022e80       ?PutDataAtStart@?$LList@PAVTask@@@@QAEXABQAVTask@@@Z 00423e80 f i taskmanager.obj
 0001:00022e80       ?PutDataAtStart@?$LList@PAVViriiHistory@@@@QAEXABQAVViriiHistory@@@Z 00423e80 f i virii.obj
 0001:00022e80       ?PutDataAtStart@?$LList@PAVServerToClientLetter@@@@QAEXABQAVServerToClientLetter@@@Z 00423e80 f i Server.obj
 0001:00022e80       ?PutDataAtStart@?$LList@PAUPowerSurge@@@@QAEXABQAUPowerSurge@@@Z 00423e80 f i generator.obj
 0001:00022e80       ?PutDataAtStart@?$LList@PAVLocationMarker@@@@QAEXABQAVLocationMarker@@@Z 00423e80 f i markersystem.obj
 0001:00022e80       ?PutDataAtStart@?$LList@PAUChatMessage@@@@QAEXABQAUChatMessage@@@Z 00423e80 f i GameMenuWindow.obj
 0001:00022ee0       ?snextc@?$basic_streambuf@DU?$char_traits@D@std@@@std@@QAEHXZ 00423ee0 f i memory_leak.obj
 0001:00022f60       ?_Xsgetn_s@?$basic_streambuf@DU?$char_traits@D@std@@@std@@MAEHPADIH@Z 00423f60 f i memory_leak.obj
 0001:00022ff0       ?xsputn@?$basic_streambuf@DU?$char_traits@D@std@@@std@@MAEHPBDH@Z 00423ff0 f i memory_leak.obj
 0001:00023080       ??0?$basic_streambuf@DU?$char_traits@D@std@@@std@@IAE@XZ 00424080 f i memory_leak.obj
 0001:00023130       ?begin@?$basic_string@DU?$char_traits@D@std@@V?$allocator@D@2@@std@@QAE?AV?$_String_iterator@DU?$char_traits@D@std@@V?$allocator@D@2@@2@XZ 00424130 f i memory_leak.obj
 0001:00023170       ??0?$basic_filebuf@DU?$char_traits@D@std@@@std@@QAE@PAU_iobuf@@@Z 00424170 f i memory_leak.obj
 0001:000231d0       ??$_Fputc@D@std@@YA_NDPAU_iobuf@@@Z 004241d0 f i memory_leak.obj
 0001:000231f0       ?sync@?$basic_filebuf@DU?$char_traits@D@std@@@std@@MAEHXZ 004241f0 f i memory_leak.obj
 0001:00023220       ?pbackfail@?$basic_filebuf@DU?$char_traits@D@std@@@std@@MAEHH@Z 00424220 f i memory_leak.obj
 0001:00023290       ?underflow@?$basic_filebuf@DU?$char_traits@D@std@@@std@@MAEHXZ 00424290 f i memory_leak.obj
 0001:000232e0       ?setbuf@?$basic_filebuf@DU?$char_traits@D@std@@@std@@MAEPAV?$basic_streambuf@DU?$char_traits@D@std@@@2@PADH@Z 004242e0 f i memory_leak.obj
 0001:00023360       ?assign@?$basic_string@DU?$char_traits@D@std@@V?$allocator@D@2@@std@@QAEAAV12@ID@Z 00424360 f i memory_leak.obj
 0001:000233f0       ?uflow@?$basic_filebuf@DU?$char_traits@D@std@@@std@@MAEHXZ 004243f0 f i memory_leak.obj
 0001:00023750       ?_Endwrite@?$basic_filebuf@DU?$char_traits@D@std@@@std@@IAE_NXZ 00424750 f i memory_leak.obj
 0001:00023a70       ?_Getcat@?$ctype@D@std@@SAIPAPBVfacet@locale@2@PBV42@@Z 00424a70 f i memory_leak.obj
 0001:00023b70       ?overflow@?$basic_filebuf@DU?$char_traits@D@std@@@std@@MAEHH@Z 00424b70 f i memory_leak.obj
 0001:00023f40       ?seekoff@?$basic_filebuf@DU?$char_traits@D@std@@@std@@MAE?AV?$fpos@H@2@JHH@Z 00424f40 f i memory_leak.obj
 0001:00024020       ?seekpos@?$basic_filebuf@DU?$char_traits@D@std@@@std@@MAE?AV?$fpos@H@2@V32@H@Z 00425020 f i memory_leak.obj
 0001:00024110       ?close@?$basic_filebuf@DU?$char_traits@D@std@@@std@@QAEPAV12@XZ 00425110 f i memory_leak.obj
 0001:00024160       ??$use_facet@V?$ctype@D@std@@@std@@YAABV?$ctype@D@0@ABVlocale@0@@Z 00425160 f i memory_leak.obj
 0001:000242b0       ?_Getcat@?$codecvt@DDH@std@@SAIPAPBVfacet@locale@2@PBV42@@Z 004252b0 f i memory_leak.obj
 0001:000243b0       ?_Init@ios_base@std@@IAEXXZ 004253b0 f i memory_leak.obj
 0001:00024430       ??1?$basic_filebuf@DU?$char_traits@D@std@@@std@@UAE@XZ 00425430 f i memory_leak.obj
 0001:000244a0       ??_G?$basic_filebuf@DU?$char_traits@D@std@@@std@@UAEPAXI@Z 004254a0 f i memory_leak.obj
 0001:000244a0       ??_E?$basic_filebuf@DU?$char_traits@D@std@@@std@@UAEPAXI@Z 004254a0 f i memory_leak.obj
 0001:000244c0       ?widen@?$basic_ios@DU?$char_traits@D@std@@@std@@QBEDD@Z 004254c0 f i memory_leak.obj
 0001:00024580       ??$use_facet@V?$codecvt@DDH@std@@@std@@YAABV?$codecvt@DDH@0@ABVlocale@0@@Z 00425580 f i memory_leak.obj
 0001:000246d0       ??1?$basic_ifstream@DU?$char_traits@D@std@@@std@@UAE@XZ 004256d0 f i memory_leak.obj
 0001:00024740       ?imbue@?$basic_filebuf@DU?$char_traits@D@std@@@std@@MAEXABVlocale@2@@Z 00425740 f i memory_leak.obj
 0001:00024780       ?open@?$basic_filebuf@DU?$char_traits@D@std@@@std@@QAEPAV12@PBDHH@Z 00425780 f i memory_leak.obj
 0001:000248a0       ?init@?$basic_ios@DU?$char_traits@D@std@@@std@@IAEXPAV?$basic_streambuf@DU?$char_traits@D@std@@@2@_N@Z 004258a0 f i memory_leak.obj
 0001:00024900       ??_D?$basic_ifstream@DU?$char_traits@D@std@@@std@@QAEXXZ 00425900 f i memory_leak.obj
 0001:00024920       ??_E?$basic_ifstream@DU?$char_traits@D@std@@@std@@UAEPAXI@Z 00425920 f i memory_leak.obj
 0001:00024920       ??_G?$basic_ifstream@DU?$char_traits@D@std@@@std@@UAEPAXI@Z 00425920 f i memory_leak.obj
 0001:00024960       ?_Ipfx@?$basic_istream@DU?$char_traits@D@std@@@std@@QAE_N_N@Z 00425960 f i memory_leak.obj
 0001:00024b00       ??0sentry@?$basic_istream@DU?$char_traits@D@std@@@std@@QAE@AAV12@_N@Z 00425b00 f i memory_leak.obj
 0001:00024b70       ??0?$basic_ifstream@DU?$char_traits@D@std@@@std@@QAE@PBDHH@Z 00425b70 f i memory_leak.obj
 0001:00024cb0       ?Release@CMiniVersion@@QAEXXZ 00425cb0 f   MiniVersion.obj
 0001:00024cd0       ?GetFileVersion@CMiniVersion@@QAEHPAG@Z 00425cd0 f   MiniVersion.obj
 0001:00024d00       ?GetProductVersion@CMiniVersion@@QAEHPAG@Z 00425d00 f   MiniVersion.obj
 0001:00024d30       ?GetCompanyName@CMiniVersion@@QAEHPADH@Z 00425d30 f   MiniVersion.obj
 0001:00024d70       ?GetFileDescription@CMiniVersion@@QAEHPADH@Z 00425d70 f   MiniVersion.obj
 0001:00024db0       ?GetProductName@CMiniVersion@@QAEHPADH@Z 00425db0 f   MiniVersion.obj
 0001:00024df0       ?GetFixedInfo@CMiniVersion@@IAEHAAUtagVS_FIXEDFILEINFO@@@Z 00425df0 f   MiniVersion.obj
 0001:00024e40       ?GetStringInfo@CMiniVersion@@IAEHPBDPAD@Z 00425e40 f   MiniVersion.obj
 0001:00024f00       ?Init@CMiniVersion@@QAEHXZ 00425f00 f   MiniVersion.obj
 0001:00025020       ??0CMiniVersion@@QAE@PBD@Z 00426020 f   MiniVersion.obj
 0001:000250d0       ?_Read_s@?$basic_istream@DU?$char_traits@D@std@@@std@@QAEAAV12@PADIH@Z 004260d0 f i network_stream.obj
 0001:000251f0       ?write@?$basic_ostream@DU?$char_traits@D@std@@@std@@QAEAAV12@PBDH@Z 004261f0 f i network_stream.obj
 0001:00025300       ??$ReadNetworkValue@H@@YAAAV?$basic_istream@DU?$char_traits@D@std@@@std@@AAV01@AAH@Z 00426300 f i network_stream.obj
 0001:00025300       ??$ReadNetworkValue@M@@YAAAV?$basic_istream@DU?$char_traits@D@std@@@std@@AAV01@AAM@Z 00426300 f i directory.obj
 0001:00025320       ?WritePackedInt@@YAXAAV?$basic_ostream@DU?$char_traits@D@std@@@std@@H@Z 00426320 f   network_stream.obj
 0001:00025380       ?ReadPackedInt@@YAHAAV?$basic_istream@DU?$char_traits@D@std@@@std@@@Z 00426380 f   network_stream.obj
 0001:000253d0       ?WriteVoidData@@YAXAAV?$basic_ostream@DU?$char_traits@D@std@@@std@@PBXH@Z 004263d0 f   network_stream.obj
 0001:00025400       ?ReadVoidData@@YAPAXAAV?$basic_istream@DU?$char_traits@D@std@@@std@@PAH@Z 00426400 f   network_stream.obj
 0001:00025440       ?ReadNetworkValue@@YAAAV?$basic_istream@DU?$char_traits@D@std@@@std@@AAV12@AAVVector3@@@Z 00426440 f   network_stream.obj
 0001:00025480       ?WriteNetworkValue@@YAAAV?$basic_ostream@DU?$char_traits@D@std@@@std@@AAV12@ABVVector3@@@Z 00426480 f   network_stream.obj
 0001:000254e0       ?ReadDynamicString@@YAPADAAV?$basic_istream@DU?$char_traits@D@std@@@std@@HPBD@Z 004264e0 f   network_stream.obj
 0001:00025570       ?WriteDynamicString@@YAXAAV?$basic_ostream@DU?$char_traits@D@std@@@std@@PBD@Z 00426570 f   network_stream.obj
 0001:000255c0       ?ReadUnicodeString@@YAPAGAAV?$basic_istream@DU?$char_traits@D@std@@@std@@HPBG@Z 004265c0 f   network_stream.obj
 0001:00025680       ?WriteUnicodeString@@YAXAAV?$basic_ostream@DU?$char_traits@D@std@@@std@@PBG@Z 00426680 f   network_stream.obj
 0001:000256f0       ??0PosterMaker@@QAE@HH@Z   004266f0 f   poster_maker.obj
 0001:000257c0       ?AddFrame@PosterMaker@@QAEXXZ 004267c0 f   poster_maker.obj
 0001:000258d0       ?SavePoster@PosterMaker@@QAEXXZ 004268d0 f   poster_maker.obj
 0001:00025970       ??1PosterMaker@@QAE@XZ     00426970 f   poster_maker.obj
 0001:000259b0       ??0PrefsItem@@QAE@VUnicodeString@@0@Z 004269b0 f   preferences.obj
 0001:00025a50       ??0PrefsItem@@QAE@VUnicodeString@@H@Z 00426a50 f   preferences.obj
 0001:00025ae0       ??1PrefsItem@@QAE@XZ       00426ae0 f   preferences.obj
 0001:00025b40       ?IsLineEmpty@PrefsManager@@AAE_NABVUnicodeString@@@Z 00426b40 f   preferences.obj
 0001:00025b80       ?SaveItem@PrefsManager@@AAEXAAVUnicodeTextFileWriter@@AAVPrefsItem@@@Z 00426b80 f   preferences.obj
 0001:00025c10       ??1UnicodeTextFileWriter@@UAE@XZ 00426c10 f i preferences.obj
 0001:00025c20       ??1?$basic_istream@GU?$char_traits@G@std@@@std@@UAE@XZ 00426c20 f i preferences.obj
 0001:00025c30       ??8const_iterator@?$_Tree@V?$_Tmap_traits@HV?$basic_string@DU?$char_traits@D@std@@V?$allocator@D@2@@std@@U?$less@H@2@V?$allocator@U?$pair@$$CBHV?$basic_string@DU?$char_traits@D@std@@V?$allocator@D@2@@std@@@std@@@2@$0A@@std@@@std@@QBE_NABV012@@Z 00426c30 f i file_paths.obj
 0001:00025c30       ??8const_iterator@?$_Tree@V?$_Tmap_traits@VUnicodeString@@VPrefsItem@@U?$less@VUnicodeString@@@std@@V?$allocator@U?$pair@$$CBVUnicodeString@@VPrefsItem@@@std@@@4@$0A@@std@@@std@@QBE_NABV012@@Z 00426c30 f i preferences.obj
 0001:00025c60       ??1?$pair@$$CBVUnicodeString@@VPrefsItem@@@std@@QAE@XZ 00426c60 f i preferences.obj
 0001:00025cc0       ?setg@?$basic_streambuf@GU?$char_traits@G@std@@@std@@IAEXPAG00@Z 00426cc0 f i preferences.obj
 0001:00025cf0       ?setp@?$basic_streambuf@GU?$char_traits@G@std@@@std@@IAEXPAG00@Z 00426cf0 f i preferences.obj
 0001:00025d20       ?_Max@?$_Tree@V?$_Tmap_traits@VUnicodeString@@VPrefsItem@@U?$less@VUnicodeString@@@std@@V?$allocator@U?$pair@$$CBVUnicodeString@@VPrefsItem@@@std@@@4@$0A@@std@@@std@@KAPAU_Node@?$_Tree_nod@V?$_Tmap_traits@VUnicodeString@@VPrefsItem@@U?$less@VUnicodeString@@@std@@V?$allocator@U?$pair@$$CBVUnicodeString@@VPrefsItem@@@std@@@4@$0A@@std@@@2@PAU342@@Z 00426d20 f i preferences.obj
 0001:00025d40       ?_Min@?$_Tree@V?$_Tmap_traits@VUnicodeString@@VPrefsItem@@U?$less@VUnicodeString@@@std@@V?$allocator@U?$pair@$$CBVUnicodeString@@VPrefsItem@@@std@@@4@$0A@@std@@@std@@KAPAU_Node@?$_Tree_nod@V?$_Tmap_traits@VUnicodeString@@VPrefsItem@@U?$less@VUnicodeString@@@std@@V?$allocator@U?$pair@$$CBVUnicodeString@@VPrefsItem@@@std@@@4@$0A@@std@@@2@PAU342@@Z 00426d40 f i preferences.obj
 0001:00025d60       ?_Rrotate@?$_Tree@V?$_Tmap_traits@VUnicodeString@@VPrefsItem@@U?$less@VUnicodeString@@@std@@V?$allocator@U?$pair@$$CBVUnicodeString@@VPrefsItem@@@std@@@4@$0A@@std@@@std@@IAEXPAU_Node@?$_Tree_nod@V?$_Tmap_traits@VUnicodeString@@VPrefsItem@@U?$less@VUnicodeString@@@std@@V?$allocator@U?$pair@$$CBVUnicodeString@@VPrefsItem@@@std@@@4@$0A@@std@@@2@@Z 00426d60 f i preferences.obj
 0001:00025dc0       ?_Tidy@?$basic_stringbuf@GU?$char_traits@G@std@@V?$allocator@G@2@@std@@IAEXXZ 00426dc0 f i preferences.obj
 0001:00025dc0       ?_Tidy@?$basic_stringbuf@DU?$char_traits@D@std@@V?$allocator@D@2@@std@@IAEXXZ 00426dc0 f i string_utils.obj
 0001:00025e20       ??0PrefsItem@@QAE@ABV0@@Z  00426e20 f i preferences.obj
 0001:00025ea0       ?_Inc@const_iterator@?$_Tree@V?$_Tmap_traits@VUnicodeString@@VPrefsItem@@U?$less@VUnicodeString@@@std@@V?$allocator@U?$pair@$$CBVUnicodeString@@VPrefsItem@@@std@@@4@$0A@@std@@@std@@QAEXXZ 00426ea0 f i preferences.obj
 0001:00025f10       ?_Init@?$basic_streambuf@GU?$char_traits@G@std@@@std@@IAEXXZ 00426f10 f i preferences.obj
 0001:00025f10       ?_Init@?$basic_streambuf@DU?$char_traits@D@std@@@std@@IAEXXZ 00426f10 f i memory_leak.obj
 0001:00025f70       ?_Dec@const_iterator@?$_Tree@V?$_Tmap_traits@VUnicodeString@@VPrefsItem@@U?$less@VUnicodeString@@@std@@V?$allocator@U?$pair@$$CBVUnicodeString@@VPrefsItem@@@std@@@4@$0A@@std@@@std@@QAEXXZ 00426f70 f i preferences.obj
 0001:00026000       ??0?$pair@$$CBVUnicodeString@@VPrefsItem@@@std@@QAE@ABU01@@Z 00427000 f i preferences.obj
 0001:00026060       ??$_Allocate@G@std@@YAPAGIPAG@Z 00427060 f i preferences.obj
 0001:000260c0       ??$_Construct@VUnicodeString@@V1@@std@@YAXPAVUnicodeString@@ABV1@@Z 004270c0 f i preferences.obj
 0001:00026120       ??0?$ctype@G@std@@QAE@ABV_Locinfo@1@I@Z 00427120 f i preferences.obj
 0001:00026170       ?do_is@?$ctype@G@std@@MBE_NFG@Z 00427170 f i preferences.obj
 0001:000261a0       ?do_is@?$ctype@G@std@@MBEPBGPBG0PAF@Z 004271a0 f i preferences.obj
 0001:000261c0       ?do_scan_is@?$ctype@G@std@@MBEPBGFPBG0@Z 004271c0 f i preferences.obj
 0001:00026200       ?do_scan_not@?$ctype@G@std@@MBEPBGFPBG0@Z 00427200 f i preferences.obj
 0001:00026240       ?do_tolower@?$ctype@G@std@@MBEGG@Z 00427240 f i preferences.obj
 0001:00026260       ?do_tolower@?$ctype@G@std@@MBEPBGPAGPBG@Z 00427260 f i preferences.obj
 0001:000262a0       ?do_toupper@?$ctype@G@std@@MBEGG@Z 004272a0 f i preferences.obj
 0001:000262c0       ?do_toupper@?$ctype@G@std@@MBEPBGPAGPBG@Z 004272c0 f i preferences.obj
 0001:00026300       ?do_widen@?$ctype@G@std@@MBEGD@Z 00427300 f i preferences.obj
 0001:00026350       ?do_widen@?$ctype@G@std@@MBEPBDPBD0PAG@Z 00427350 f i preferences.obj
 0001:00026380       ?_Do_widen_s@?$ctype@G@std@@MBEPBDPBD0PAGI@Z 00427380 f i preferences.obj
 0001:00026400       ?do_narrow@?$ctype@G@std@@MBEDGD@Z 00427400 f i preferences.obj
 0001:00026450       ?do_narrow@?$ctype@G@std@@MBEPBGPBG0DPAD@Z 00427450 f i preferences.obj
 0001:00026480       ?_Do_narrow_s@?$ctype@G@std@@MBEPBGPBG0DPADI@Z 00427480 f i preferences.obj
 0001:00026510       ??_E?$ctype@G@std@@MAEPAXI@Z 00427510 f i preferences.obj
 0001:00026510       ??_G?$ctype@G@std@@MAEPAXI@Z 00427510 f i preferences.obj
 0001:00026550       ??1?$basic_streambuf@GU?$char_traits@G@std@@@std@@UAE@XZ 00427550 f i preferences.obj
 0001:000265c0       ?overflow@?$basic_streambuf@GU?$char_traits@G@std@@@std@@MAEGG@Z 004275c0 f i preferences.obj
 0001:000265c0       ?pbackfail@?$basic_streambuf@GU?$char_traits@G@std@@@std@@MAEGG@Z 004275c0 f i preferences.obj
 0001:000265d0       ?underflow@?$basic_streambuf@GU?$char_traits@G@std@@@std@@MAEGXZ 004275d0 f i preferences.obj
 0001:000265e0       ?snextc@?$basic_streambuf@GU?$char_traits@G@std@@@std@@QAEGXZ 004275e0 f i preferences.obj
 0001:00026670       ?uflow@?$basic_streambuf@GU?$char_traits@G@std@@@std@@MAEGXZ 00427670 f i preferences.obj
 0001:000266a0       ?seekoff@?$basic_streambuf@GU?$char_traits@G@std@@@std@@MAE?AV?$fpos@H@2@JHH@Z 004276a0 f i preferences.obj
 0001:000266a0       ?seekoff@?$basic_streambuf@DU?$char_traits@D@std@@@std@@MAE?AV?$fpos@H@2@JHH@Z 004276a0 f i memory_leak.obj
 0001:000266c0       ?pbackfail@?$basic_stringbuf@GU?$char_traits@G@std@@V?$allocator@G@2@@std@@MAEGG@Z 004276c0 f i preferences.obj
 0001:00026720       ?underflow@?$basic_stringbuf@GU?$char_traits@G@std@@V?$allocator@G@2@@std@@MAEGXZ 00427720 f i preferences.obj
 0001:00026790       ?seekoff@?$basic_stringbuf@GU?$char_traits@G@std@@V?$allocator@G@2@@std@@MAE?AV?$fpos@H@2@JHH@Z 00427790 f i preferences.obj
 0001:00026900       ?seekpos@?$basic_stringbuf@GU?$char_traits@G@std@@V?$allocator@G@2@@std@@MAE?AV?$fpos@H@2@V32@H@Z 00427900 f i preferences.obj
 0001:000269e0       ??_G?$basic_streambuf@GU?$char_traits@G@std@@@std@@UAEPAXI@Z 004279e0 f i preferences.obj
 0001:000269e0       ??_E?$basic_streambuf@GU?$char_traits@G@std@@@std@@UAEPAXI@Z 004279e0 f i preferences.obj
 0001:00026a00       ??_G?$basic_istream@GU?$char_traits@G@std@@@std@@UAEPAXI@Z 00427a00 f i preferences.obj
 0001:00026a00       ??_E?$basic_istream@GU?$char_traits@G@std@@@std@@UAEPAXI@Z 00427a00 f i preferences.obj
 0001:00026a40       ??_E?$basic_stringbuf@GU?$char_traits@G@std@@V?$allocator@G@2@@std@@UAEPAXI@Z 00427a40 f i preferences.obj
 0001:00026a40       ??_G?$basic_stringbuf@GU?$char_traits@G@std@@V?$allocator@G@2@@std@@UAEPAXI@Z 00427a40 f i preferences.obj
 0001:00026a70       ?_Lrotate@?$_Tree@V?$_Tmap_traits@VUnicodeString@@VPrefsItem@@U?$less@VUnicodeString@@@std@@V?$allocator@U?$pair@$$CBVUnicodeString@@VPrefsItem@@@std@@@4@$0A@@std@@@std@@IAEXPAU_Node@?$_Tree_nod@V?$_Tmap_traits@VUnicodeString@@VPrefsItem@@U?$less@VUnicodeString@@@std@@V?$allocator@U?$pair@$$CBVUnicodeString@@VPrefsItem@@@std@@@4@$0A@@std@@@2@@Z 00427a70 f i preferences.obj
 0001:00026ac0       ??0?$pair@$$CBVUnicodeString@@VPrefsItem@@@std@@QAE@ABVUnicodeString@@ABVPrefsItem@@@Z 00427ac0 f i preferences.obj
 0001:00026b20       ??0?$basic_streambuf@GU?$char_traits@G@std@@@std@@IAE@XZ 00427b20 f i preferences.obj
 0001:00026bd0       ?_Lbound@?$_Tree@V?$_Tmap_traits@VUnicodeString@@VPrefsItem@@U?$less@VUnicodeString@@@std@@V?$allocator@U?$pair@$$CBVUnicodeString@@VPrefsItem@@@std@@@4@$0A@@std@@@std@@IBEPAU_Node@?$_Tree_nod@V?$_Tmap_traits@VUnicodeString@@VPrefsItem@@U?$less@VUnicodeString@@@std@@V?$allocator@U?$pair@$$CBVUnicodeString@@VPrefsItem@@@std@@@4@$0A@@std@@@2@ABVUnicodeString@@@Z 00427bd0 f i preferences.obj
 0001:00026c10       ??$copy_s@U?$char_traits@G@std@@@_Traits_helper@std@@YAPAGPAGIPBGI@Z 00427c10 f i preferences.obj
 0001:00026c40       ??$_Maklocchr@G@std@@YAGDPAGABU_Cvtvec@@@Z 00427c40 f i preferences.obj
 0001:00026c70       ??$_Maklocstr@G@std@@YAPAGPBDPAGABU_Cvtvec@@@Z 00427c70 f i preferences.obj
 0001:00026d30       ?_Tidy@?$numpunct@G@std@@AAEXXZ 00427d30 f i preferences.obj
 0001:00026d30       ?_Tidy@?$numpunct@D@std@@AAEXXZ 00427d30 f i language_table.obj
 0001:00026d60       ?_Chassign@?$basic_string@GU?$char_traits@G@std@@V?$allocator@G@2@@std@@IAEXIIG@Z 00427d60 f i preferences.obj
 0001:00026dd0       ?_Inc@?$istreambuf_iterator@GU?$char_traits@G@std@@@std@@AAEXXZ 00427dd0 f i preferences.obj
 0001:00026e30       ?_Peek@?$istreambuf_iterator@GU?$char_traits@G@std@@@std@@AAEGXZ 00427e30 f i preferences.obj
 0001:00026e90       ?_Init@?$numpunct@G@std@@IAEXABV_Locinfo@2@_N@Z 00427e90 f i preferences.obj
 0001:00027090       ?_Xsgetn_s@?$basic_streambuf@GU?$char_traits@G@std@@@std@@MAEHPAGIH@Z 00428090 f i preferences.obj
 0001:00027140       ?xsputn@?$basic_streambuf@GU?$char_traits@G@std@@@std@@MAEHPBGH@Z 00428140 f i preferences.obj
 0001:000271f0       ??1?$basic_istringstream@GU?$char_traits@G@std@@V?$allocator@G@2@@std@@UAE@XZ 004281f0 f i preferences.obj
 0001:00027270       ?overflow@?$basic_stringbuf@GU?$char_traits@G@std@@V?$allocator@G@2@@std@@MAEGG@Z 00428270 f i preferences.obj
 0001:00027460       ?_Buynode@?$list@VUnicodeString@@V?$allocator@VUnicodeString@@@std@@@std@@IAEPAU_Node@?$_List_nod@VUnicodeString@@V?$allocator@VUnicodeString@@@std@@@2@XZ 00428460 f i preferences.obj
 0001:00027480       ?_Buynode@?$list@VUnicodeString@@V?$allocator@VUnicodeString@@@std@@@std@@IAEPAU_Node@?$_List_nod@VUnicodeString@@V?$allocator@VUnicodeString@@@std@@@2@PAU342@0ABVUnicodeString@@@Z 00428480 f i preferences.obj
 0001:00027520       ?_Init@?$basic_stringbuf@GU?$char_traits@G@std@@V?$allocator@G@2@@std@@IAEXPBGIH@Z 00428520 f i preferences.obj
 0001:000275d0       ?_Buynode@?$_Tree@V?$_Tmap_traits@VUnicodeString@@VPrefsItem@@U?$less@VUnicodeString@@@std@@V?$allocator@U?$pair@$$CBVUnicodeString@@VPrefsItem@@@std@@@4@$0A@@std@@@std@@IAEPAU_Node@?$_Tree_nod@V?$_Tmap_traits@VUnicodeString@@VPrefsItem@@U?$less@VUnicodeString@@@std@@V?$allocator@U?$pair@$$CBVUnicodeString@@VPrefsItem@@@std@@@4@$0A@@std@@@2@XZ 004285d0 f i preferences.obj
 0001:00027610       ?_Buynode@?$_Tree@V?$_Tmap_traits@VUnicodeString@@VPrefsItem@@U?$less@VUnicodeString@@@std@@V?$allocator@U?$pair@$$CBVUnicodeString@@VPrefsItem@@@std@@@4@$0A@@std@@@std@@IAEPAU_Node@?$_Tree_nod@V?$_Tmap_traits@VUnicodeString@@VPrefsItem@@U?$less@VUnicodeString@@@std@@V?$allocator@U?$pair@$$CBVUnicodeString@@VPrefsItem@@@std@@@4@$0A@@std@@@2@PAU342@00ABU?$pair@$$CBVUnicodeString@@VPrefsItem@@@2@D@Z 00428610 f i preferences.obj
 0001:000276b0       ?erase@?$basic_string@GU?$char_traits@G@std@@V?$allocator@G@2@@std@@QAEAAV12@II@Z 004286b0 f i preferences.obj
 0001:00027750       ?_Copy@?$basic_string@GU?$char_traits@G@std@@V?$allocator@G@2@@std@@IAEXII@Z 00428750 f i preferences.obj
 0001:000278a0       ??$?9GU?$char_traits@G@std@@@std@@YA_NABV?$istreambuf_iterator@GU?$char_traits@G@std@@@0@0@Z 004288a0 f i preferences.obj
 0001:00027900       ??0?$numpunct@G@std@@QAE@ABV_Locinfo@1@I_N@Z 00428900 f i preferences.obj
 0001:00027970       ?do_decimal_point@?$numpunct@G@std@@MBEGXZ 00428970 f i preferences.obj
 0001:00027980       ?do_thousands_sep@?$numpunct@G@std@@MBEGXZ 00428980 f i preferences.obj
 0001:00027990       ??_G?$numpunct@G@std@@MAEPAXI@Z 00428990 f i preferences.obj
 0001:00027990       ??_E?$numpunct@G@std@@MAEPAXI@Z 00428990 f i preferences.obj
 0001:000279e0       ??_D?$basic_istringstream@GU?$char_traits@G@std@@V?$allocator@G@2@@std@@QAEXXZ 004289e0 f i preferences.obj
 0001:00027a00       ??1?$basic_string@GU?$char_traits@G@std@@V?$allocator@G@2@@std@@QAE@XZ 00428a00 f i preferences.obj
 0001:00027a30       ??Citerator@?$_Tree@V?$_Tmap_traits@VUnicodeString@@VPrefsItem@@U?$less@VUnicodeString@@@std@@V?$allocator@U?$pair@$$CBVUnicodeString@@VPrefsItem@@@std@@@4@$0A@@std@@@std@@QBEPAU?$pair@$$CBVUnicodeString@@VPrefsItem@@@2@XZ 00428a30 f i preferences.obj
 0001:00027a60       ??_G?$basic_istringstream@GU?$char_traits@G@std@@V?$allocator@G@2@@std@@UAEPAXI@Z 00428a60 f i preferences.obj
 0001:00027a60       ??_E?$basic_istringstream@GU?$char_traits@G@std@@V?$allocator@G@2@@std@@UAEPAXI@Z 00428a60 f i preferences.obj
 0001:00027aa0       ??0?$basic_stringbuf@GU?$char_traits@G@std@@V?$allocator@G@2@@std@@QAE@ABV?$basic_string@GU?$char_traits@G@std@@V?$allocator@G@2@@1@H@Z 00428aa0 f i preferences.obj
 0001:00027b30       ?falsename@?$numpunct@D@std@@QBE?AV?$basic_string@DU?$char_traits@D@std@@V?$allocator@D@2@@2@XZ 00428b30 f i language_table.obj
 0001:00027b30       ?falsename@?$numpunct@G@std@@QBE?AV?$basic_string@GU?$char_traits@G@std@@V?$allocator@G@2@@2@XZ 00428b30 f i preferences.obj
 0001:00027b50       ?truename@?$numpunct@G@std@@QBE?AV?$basic_string@GU?$char_traits@G@std@@V?$allocator@G@2@@2@XZ 00428b50 f i preferences.obj
 0001:00027b50       ?truename@?$numpunct@D@std@@QBE?AV?$basic_string@DU?$char_traits@D@std@@V?$allocator@D@2@@2@XZ 00428b50 f i language_table.obj
 0001:00027b70       ?append@?$basic_string@GU?$char_traits@G@std@@V?$allocator@G@2@@std@@QAEAAV12@ABV12@II@Z 00428b70 f i preferences.obj
 0001:00027c80       ?find@?$_Tree@V?$_Tmap_traits@VUnicodeString@@VPrefsItem@@U?$less@VUnicodeString@@@std@@V?$allocator@U?$pair@$$CBVUnicodeString@@VPrefsItem@@@std@@@4@$0A@@std@@@std@@QBE?AVconst_iterator@12@ABVUnicodeString@@@Z 00428c80 f i preferences.obj
 0001:00027c80       ?find@?$_Tree@V?$_Tmap_traits@VUnicodeString@@VPrefsItem@@U?$less@VUnicodeString@@@std@@V?$allocator@U?$pair@$$CBVUnicodeString@@VPrefsItem@@@std@@@4@$0A@@std@@@std@@QAE?AViterator@12@ABVUnicodeString@@@Z 00428c80 f i preferences.obj
 0001:00027d00       ?clear@?$list@VUnicodeString@@V?$allocator@VUnicodeString@@@std@@@std@@QAEXXZ 00428d00 f i preferences.obj
 0001:00027d40       ?_Erase@?$_Tree@V?$_Tmap_traits@VUnicodeString@@VPrefsItem@@U?$less@VUnicodeString@@@std@@V?$allocator@U?$pair@$$CBVUnicodeString@@VPrefsItem@@@std@@@4@$0A@@std@@@std@@IAEXPAU_Node@?$_Tree_nod@V?$_Tmap_traits@VUnicodeString@@VPrefsItem@@U?$less@VUnicodeString@@@std@@V?$allocator@U?$pair@$$CBVUnicodeString@@VPrefsItem@@@std@@@4@$0A@@std@@@2@@Z 00428d40 f i preferences.obj
 0001:00027df0       ?append@?$basic_string@GU?$char_traits@G@std@@V?$allocator@G@2@@std@@QAEAAV12@IG@Z 00428df0 f i preferences.obj
 0001:00027eb0       ?assign@?$basic_string@GU?$char_traits@G@std@@V?$allocator@G@2@@std@@QAEAAV12@ABV12@II@Z 00428eb0 f i preferences.obj
 0001:00027fb0       ??$_Getloctxt@GV?$istreambuf_iterator@GU?$char_traits@G@std@@@std@@@std@@YAHAAV?$istreambuf_iterator@GU?$char_traits@G@std@@@0@0IPBG@Z 00428fb0 f i preferences.obj
 0001:000283c0       ?GetFloat@PrefsManager@@QBEMPBDM@Z 004293c0 f   preferences.obj
 0001:00028490       ?GetInt@PrefsManager@@QBEHPBDH@Z 00429490 f   preferences.obj
 0001:00028560       ?GetString@PrefsManager@@QBEPBDPBD0@Z 00429560 f   preferences.obj
 0001:00028630       ?GetUnicodeString@PrefsManager@@QBE?AVUnicodeString@@PBDABV2@@Z 00429630 f   preferences.obj
 0001:00028710       ?DoesKeyExist@PrefsManager@@QBE_NPBD@Z 00429710 f   preferences.obj
 0001:000287b0       ??1?$list@VUnicodeString@@V?$allocator@VUnicodeString@@@std@@@std@@QAE@XZ 004297b0 f i preferences.obj
 0001:00028820       ?assign@?$basic_string@GU?$char_traits@G@std@@V?$allocator@G@2@@std@@QAEAAV12@PBGI@Z 00429820 f i preferences.obj
 0001:00028910       ??0out_of_range@std@@QAE@ABV?$basic_string@DU?$char_traits@D@std@@V?$allocator@D@2@@1@@Z 00429910 f i preferences.obj
 0001:00028930       ?_Getcat@?$ctype@G@std@@SAIPAPBVfacet@locale@2@PBV42@@Z 00429930 f i preferences.obj
 0001:00028a30       ?erase@?$_Tree@V?$_Tmap_traits@VUnicodeString@@VPrefsItem@@U?$less@VUnicodeString@@@std@@V?$allocator@U?$pair@$$CBVUnicodeString@@VPrefsItem@@@std@@@4@$0A@@std@@@std@@QAE?AViterator@12@Vconst_iterator@12@@Z 00429a30 f i preferences.obj
 0001:00028d10       ??0?$list@VUnicodeString@@V?$allocator@VUnicodeString@@@std@@@std@@QAE@XZ 00429d10 f i preferences.obj
 0001:00028d80       ??0?$_Tree@V?$_Tmap_traits@VUnicodeString@@VPrefsItem@@U?$less@VUnicodeString@@@std@@V?$allocator@U?$pair@$$CBVUnicodeString@@VPrefsItem@@@std@@@4@$0A@@std@@@std@@QAE@ABU?$less@VUnicodeString@@@1@ABV?$allocator@U?$pair@$$CBVUnicodeString@@VPrefsItem@@@std@@@1@@Z 00429d80 f i preferences.obj
 0001:00028e10       ?erase@?$_Tree@V?$_Tmap_traits@VUnicodeString@@VPrefsItem@@U?$less@VUnicodeString@@@std@@V?$allocator@U?$pair@$$CBVUnicodeString@@VPrefsItem@@@std@@@4@$0A@@std@@@std@@QAE?AViterator@12@Vconst_iterator@12@0@Z 00429e10 f i preferences.obj
 0001:00028ef0       ?_Insert@?$_Tree@V?$_Tmap_traits@VUnicodeString@@VPrefsItem@@U?$less@VUnicodeString@@@std@@V?$allocator@U?$pair@$$CBVUnicodeString@@VPrefsItem@@@std@@@4@$0A@@std@@@std@@IAE?AViterator@12@_NPAU_Node@?$_Tree_nod@V?$_Tmap_traits@VUnicodeString@@VPrefsItem@@U?$less@VUnicodeString@@@std@@V?$allocator@U?$pair@$$CBVUnicodeString@@VPrefsItem@@@std@@@4@$0A@@std@@@2@ABU?$pair@$$CBVUnicodeString@@VPrefsItem@@@2@@Z 00429ef0 f i preferences.obj
 0001:000290c0       ?_Incsize@?$list@VUnicodeString@@V?$allocator@VUnicodeString@@@std@@@std@@IAEXI@Z 0042a0c0 f i preferences.obj
 0001:00029160       ?do_grouping@?$numpunct@D@std@@MBE?AV?$basic_string@DU?$char_traits@D@std@@V?$allocator@D@2@@2@XZ 0042a160 f i language_table.obj
 0001:00029160       ?do_grouping@?$numpunct@G@std@@MBE?AV?$basic_string@DU?$char_traits@D@std@@V?$allocator@D@2@@2@XZ 0042a160 f i preferences.obj
 0001:000291b0       ??$use_facet@V?$ctype@G@std@@@std@@YAABV?$ctype@G@0@ABVlocale@0@@Z 0042a1b0 f i preferences.obj
 0001:00029300       ?_Getcat@?$num_get@GV?$istreambuf_iterator@GU?$char_traits@G@std@@@std@@@std@@SAIPAPBVfacet@locale@2@PBV42@@Z 0042a300 f i preferences.obj
 0001:00029410       ?_Getcat@?$numpunct@G@std@@SAIPAPBVfacet@locale@2@PBV42@@Z 0042a410 f i preferences.obj
 0001:00029520       ??0out_of_range@std@@QAE@ABV01@@Z 0042a520 f i preferences.obj
 0001:00029540       ??0?$basic_string@GU?$char_traits@G@std@@V?$allocator@G@2@@std@@QAE@PBG@Z 0042a540 f i preferences.obj
 0001:00029580       ?insert@?$_Tree@V?$_Tmap_traits@VUnicodeString@@VPrefsItem@@U?$less@VUnicodeString@@@std@@V?$allocator@U?$pair@$$CBVUnicodeString@@VPrefsItem@@@std@@@4@$0A@@std@@@std@@QAE?AU?$pair@Viterator@?$_Tree@V?$_Tmap_traits@VUnicodeString@@VPrefsItem@@U?$less@VUnicodeString@@@std@@V?$allocator@U?$pair@$$CBVUnicodeString@@VPrefsItem@@@std@@@4@$0A@@std@@@std@@_N@2@ABU?$pair@$$CBVUnicodeString@@VPrefsItem@@@2@@Z 0042a580 f i preferences.obj
 0001:00029670       ?do_falsename@?$numpunct@G@std@@MBE?AV?$basic_string@GU?$char_traits@G@std@@V?$allocator@G@2@@2@XZ 0042a670 f i preferences.obj
 0001:000296c0       ?do_truename@?$numpunct@G@std@@MBE?AV?$basic_string@GU?$char_traits@G@std@@V?$allocator@G@2@@2@XZ 0042a6c0 f i preferences.obj
 0001:00029710       ?widen@?$basic_ios@GU?$char_traits@G@std@@@std@@QBEGD@Z 0042a710 f i preferences.obj
 0001:000297d0       ??$use_facet@V?$num_get@GV?$istreambuf_iterator@GU?$char_traits@G@std@@@std@@@std@@@std@@YAABV?$num_get@GV?$istreambuf_iterator@GU?$char_traits@G@std@@@std@@@0@ABVlocale@0@@Z 0042a7d0 f i preferences.obj
 0001:00029920       ??$use_facet@V?$numpunct@G@std@@@std@@YAABV?$numpunct@G@0@ABVlocale@0@@Z 0042a920 f i preferences.obj
 0001:00029a70       ??1?$_Tree@V?$_Tmap_traits@VUnicodeString@@VPrefsItem@@U?$less@VUnicodeString@@@std@@V?$allocator@U?$pair@$$CBVUnicodeString@@VPrefsItem@@@std@@@4@$0A@@std@@@std@@QAE@XZ 0042aa70 f i preferences.obj
 0001:00029af0       ?insert@?$_Tree@V?$_Tmap_traits@VUnicodeString@@VPrefsItem@@U?$less@VUnicodeString@@@std@@V?$allocator@U?$pair@$$CBVUnicodeString@@VPrefsItem@@@std@@@4@$0A@@std@@@std@@QAE?AViterator@12@Vconst_iterator@12@ABU?$pair@$$CBVUnicodeString@@VPrefsItem@@@2@@Z 0042aaf0 f i preferences.obj
 0001:00029d10       ?_Getifld@?$num_get@GV?$istreambuf_iterator@GU?$char_traits@G@std@@@std@@@std@@ABAHPADAAV?$istreambuf_iterator@GU?$char_traits@G@std@@@2@1HABVlocale@2@@Z 0042ad10 f i preferences.obj
 0001:0002a300       ?_Getffld@?$num_get@GV?$istreambuf_iterator@GU?$char_traits@G@std@@@std@@@std@@ABAHPADAAV?$istreambuf_iterator@GU?$char_traits@G@std@@@2@1ABVlocale@2@@Z 0042b300 f i preferences.obj
 0001:0002b490       ??1?$map@VUnicodeString@@VPrefsItem@@U?$less@VUnicodeString@@@std@@V?$allocator@U?$pair@$$CBVUnicodeString@@VPrefsItem@@@std@@@4@@std@@QAE@XZ 0042c490 f i preferences.obj
 0001:0002b4a0       ??1PrefsManager@@QAE@XZ    0042c4a0 f   preferences.obj
 0001:0002b510       ?_Ipfx@?$basic_istream@GU?$char_traits@G@std@@@std@@QAE_N_N@Z 0042c510 f i preferences.obj
 0001:0002b6c0       ?do_get@?$num_get@GV?$istreambuf_iterator@GU?$char_traits@G@std@@@std@@@std@@MBE?AV?$istreambuf_iterator@GU?$char_traits@G@std@@@2@V32@0AAVios_base@2@AAHAA_N@Z 0042c6c0 f i preferences.obj
 0001:0002b970       ?do_get@?$num_get@GV?$istreambuf_iterator@GU?$char_traits@G@std@@@std@@@std@@MBE?AV?$istreambuf_iterator@GU?$char_traits@G@std@@@2@V32@0AAVios_base@2@AAHAAG@Z 0042c970 f i preferences.obj
 0001:0002bb10       ?do_get@?$num_get@GV?$istreambuf_iterator@GU?$char_traits@G@std@@@std@@@std@@MBE?AV?$istreambuf_iterator@GU?$char_traits@G@std@@@2@V32@0AAVios_base@2@AAHAAI@Z 0042cb10 f i preferences.obj
 0001:0002bcb0       ?do_get@?$num_get@GV?$istreambuf_iterator@GU?$char_traits@G@std@@@std@@@std@@MBE?AV?$istreambuf_iterator@GU?$char_traits@G@std@@@2@V32@0AAVios_base@2@AAHAAJ@Z 0042ccb0 f i preferences.obj
 0001:0002be30       ?do_get@?$num_get@GV?$istreambuf_iterator@GU?$char_traits@G@std@@@std@@@std@@MBE?AV?$istreambuf_iterator@GU?$char_traits@G@std@@@2@V32@0AAVios_base@2@AAHAAK@Z 0042ce30 f i preferences.obj
 0001:0002bfb0       ?do_get@?$num_get@GV?$istreambuf_iterator@GU?$char_traits@G@std@@@std@@@std@@MBE?AV?$istreambuf_iterator@GU?$char_traits@G@std@@@2@V32@0AAVios_base@2@AAHAA_J@Z 0042cfb0 f i preferences.obj
 0001:0002c140       ?do_get@?$num_get@GV?$istreambuf_iterator@GU?$char_traits@G@std@@@std@@@std@@MBE?AV?$istreambuf_iterator@GU?$char_traits@G@std@@@2@V32@0AAVios_base@2@AAHAA_K@Z 0042d140 f i preferences.obj
 0001:0002c2d0       ?do_get@?$num_get@GV?$istreambuf_iterator@GU?$char_traits@G@std@@@std@@@std@@MBE?AV?$istreambuf_iterator@GU?$char_traits@G@std@@@2@V32@0AAVios_base@2@AAHAAM@Z 0042d2d0 f i preferences.obj
 0001:0002c470       ?do_get@?$num_get@GV?$istreambuf_iterator@GU?$char_traits@G@std@@@std@@@std@@MBE?AV?$istreambuf_iterator@GU?$char_traits@G@std@@@2@V32@0AAVios_base@2@AAHAAN@Z 0042d470 f i preferences.obj
 0001:0002c620       ?do_get@?$num_get@GV?$istreambuf_iterator@GU?$char_traits@G@std@@@std@@@std@@MBE?AV?$istreambuf_iterator@GU?$char_traits@G@std@@@2@V32@0AAVios_base@2@AAHAAO@Z 0042d620 f i preferences.obj
 0001:0002c7d0       ?do_get@?$num_get@GV?$istreambuf_iterator@GU?$char_traits@G@std@@@std@@@std@@MBE?AV?$istreambuf_iterator@GU?$char_traits@G@std@@@2@V32@0AAVios_base@2@AAHAAPAX@Z 0042d7d0 f i preferences.obj
 0001:0002c960       ??0sentry@?$basic_istream@GU?$char_traits@G@std@@@std@@QAE@AAV12@_N@Z 0042d960 f i preferences.obj
 0001:0002c9d0       ??0?$basic_istringstream@GU?$char_traits@G@std@@V?$allocator@G@2@@std@@QAE@ABV?$basic_string@GU?$char_traits@G@std@@V?$allocator@G@2@@1@H@Z 0042d9d0 f i preferences.obj
 0001:0002cab0       ??5?$basic_istream@GU?$char_traits@G@std@@@std@@QAEAAV01@AAH@Z 0042dab0 f i preferences.obj
 0001:0002cc30       ??5?$basic_istream@GU?$char_traits@G@std@@@std@@QAEAAV01@AAM@Z 0042dc30 f i preferences.obj
 0001:0002cd80       ?wtof@@YAMABV?$basic_string@GU?$char_traits@G@std@@V?$allocator@G@2@@std@@@Z 0042dd80 f   preferences.obj
 0001:0002ce60       ?wtoi@@YAHABV?$basic_string@GU?$char_traits@G@std@@V?$allocator@G@2@@std@@@Z 0042de60 f   preferences.obj
 0001:0002cf50       ??0PrefsItem@@QAE@VUnicodeString@@@Z 0042df50 f   preferences.obj
 0001:0002d180       ??A?$map@VUnicodeString@@VPrefsItem@@U?$less@VUnicodeString@@@std@@V?$allocator@U?$pair@$$CBVUnicodeString@@VPrefsItem@@@std@@@4@@std@@QAEAAVPrefsItem@@ABVUnicodeString@@@Z 0042e180 f i preferences.obj
 0001:0002d290       ?Save@PrefsManager@@QAEXXZ 0042e290 f   preferences.obj
 0001:0002d5b0       ?SetString@PrefsManager@@QAEXPBDABVUnicodeString@@@Z 0042e5b0 f   preferences.obj
 0001:0002d740       ?SetInt@PrefsManager@@QAEXPBDH@Z 0042e740 f   preferences.obj
 0001:0002d8a0       ?AddLine@PrefsManager@@QAEXVUnicodeString@@@Z 0042e8a0 f   preferences.obj
 0001:0002da80       ?CreateDefaultValues@PrefsManager@@AAEXXZ 0042ea80 f   preferences.obj
 0001:0002df40       ?Load@PrefsManager@@QAEXPBD@Z 0042ef40 f   preferences.obj
 0001:0002e140       ??0PrefsManager@@QAE@PBD@Z 0042f140 f   preferences.obj
 0001:0002e1f0       ?End@ProfiledElement@@QAEXXZ 0042f1f0 f   profiler.obj
 0001:0002e230       ?RenderStarted@Profiler@@QAEXXZ 0042f230 f   profiler.obj
 0001:0002e240       ?RenderEnded@Profiler@@QAEXXZ 0042f240 f   profiler.obj
 0001:0002e250       ?EndProfile@Profiler@@QAEXPBD@Z 0042f250 f   profiler.obj
 0001:0002e310       ?FindPrevKey@?$SortingHashTable@PAVProfiledElement@@@@IBEFPBD@Z 0042f310 f i profiler.obj
 0001:0002e360       ?Advance@ProfiledElement@@QAEXXZ 0042f360 f   profiler.obj
 0001:0002e3d0       ?GetInsertPos@?$HashTable@PAVBitmapRGBA@@@@IBEIPBD@Z 0042f3d0 f i resource.obj
 0001:0002e3d0       ?GetInsertPos@?$HashTable@PAVUnicodeString@@@@IBEIPBD@Z 0042f3d0 f i language_table.obj
 0001:0002e3d0       ?GetInsertPos@?$HashTable@PAVAckSet@@@@IBEIPBD@Z 0042f3d0 f i ftp_manager.obj
 0001:0002e3d0       ?GetInsertPos@?$HashTable@PAVShape@@@@IBEIPBD@Z 0042f3d0 f i resource.obj
 0001:0002e3d0       ?GetInsertPos@?$HashTable@H@@IBEIPBD@Z 0042f3d0 f i resource.obj
 0001:0002e3d0       ?GetInsertPos@?$HashTable@_N@@IBEIPBD@Z 0042f3d0 f i ftp_manager.obj
 0001:0002e3d0       ?GetInsertPos@?$HashTable@PAVProfiledElement@@@@IBEIPBD@Z 0042f3d0 f i profiler.obj
 0001:0002e3d0       ?GetInsertPos@?$HashTable@PAVMemMappedFile@@@@IBEIPBD@Z 0042f3d0 f i resource.obj
 0001:0002e3d0       ?GetInsertPos@?$HashTable@PAVFTP@@@@IBEIPBD@Z 0042f3d0 f i ftp_manager.obj
 0001:0002e450       ??1?$HashTable@PAVAckSet@@@@QAE@XZ 0042f450 f i ftp_manager.obj
 0001:0002e450       ??1?$HashTable@PAVMemMappedFile@@@@QAE@XZ 0042f450 f i resource.obj
 0001:0002e450       ??1?$HashTable@PAVShape@@@@QAE@XZ 0042f450 f i resource.obj
 0001:0002e450       ??1?$HashTable@PAVProfiledElement@@@@QAE@XZ 0042f450 f i profiler.obj
 0001:0002e450       ??1?$HashTable@H@@QAE@XZ   0042f450 f i resource.obj
 0001:0002e450       ??1?$HashTable@PAVFTP@@@@QAE@XZ 0042f450 f i ftp_manager.obj
 0001:0002e450       ??1?$HashTable@PAVBitmapRGBA@@@@QAE@XZ 0042f450 f i resource.obj
 0001:0002e470       ?Grow@?$SortingHashTable@PAVProfiledElement@@@@IAEXXZ 0042f470 f i profiler.obj
 0001:0002e5e0       ??0?$SortingHashTable@PAVProfiledElement@@@@QAE@XZ 0042f5e0 f i profiler.obj
 0001:0002e660       ?PutData@?$SortingHashTable@PAVProfiledElement@@@@QAEHPBDABQAVProfiledElement@@@Z 0042f660 f i profiler.obj
 0001:0002e700       ??0ProfiledElement@@QAE@PBDPAV0@@Z 0042f700 f   profiler.obj
 0001:0002e760       ??0Profiler@@QAE@XZ        0042f760 f   profiler.obj
 0001:0002e820       ??1Profiler@@QAE@XZ        0042f820 f   profiler.obj
 0001:0002e830       ?Advance@Profiler@@QAEXXZ  0042f830 f   profiler.obj
 0001:0002e8d0       ?StartProfile@Profiler@@QAEXPBD@Z 0042f8d0 f   profiler.obj
 0001:0002e9c0       ?Stop@Profiler@@SAXXZ      0042f9c0 f   profiler.obj
 0001:0002e9f0       ?ProcessBmp@Resource@@IAEPAUTextureInfo@1@AAVBitmapRGBA@@H@Z 0042f9f0 f   resource.obj
 0001:0002eaa0       ??_GTextureToConvert@@UAEPAXI@Z 0042faa0 f i bitmap.obj
 0001:0002eaa0       ??_EJob@@UAEPAXI@Z         0042faa0 f i resource.obj
 0001:0002eaa0       ??_GDeleteTextureByName@@UAEPAXI@Z 0042faa0 f i resource.obj
 0001:0002eaa0       ??_GDeleteDisplayListByName@@UAEPAXI@Z 0042faa0 f i resource.obj
 0001:0002eaa0       ??_EDeleteDisplayListByName@@UAEPAXI@Z 0042faa0 f i resource.obj
 0001:0002eaa0       ??_EDeleteTextureByName@@UAEPAXI@Z 0042faa0 f i resource.obj
 0001:0002eaa0       ??_GDisplayListToCreate@@UAEPAXI@Z 0042faa0 f i resource.obj
 0001:0002eaa0       ??_EDisplayListToCreate@@UAEPAXI@Z 0042faa0 f i resource.obj
 0001:0002eaa0       ??_GJob@@UAEPAXI@Z         0042faa0 f i resource.obj
 0001:0002eaa0       ??_GDeleteDisplayListById@@UAEPAXI@Z 0042faa0 f i resource.obj
 0001:0002eaa0       ??_EDeleteDisplayListById@@UAEPAXI@Z 0042faa0 f i resource.obj
 0001:0002eaa0       ??_ETextureToConvert@@UAEPAXI@Z 0042faa0 f i bitmap.obj
 0001:0002eac0       ??1TextDataReader@@UAE@XZ  0042fac0 f i resource.obj
 0001:0002ead0       ?WildCmp@Resource@@IAEHPBD0@Z 0042fad0 f   resource.obj
 0001:0002eb70       ?Run@DeleteDisplayListById@@MAEXXZ 0042fb70 f i resource.obj
 0001:0002eb80       ??1DeleteTextureByName@@UAE@XZ 0042fb80 f i resource.obj
 0001:0002eb80       ??1TextureToConvert@@UAE@XZ 0042fb80 f i bitmap.obj
 0001:0002eb80       ??1DeleteDisplayListByName@@UAE@XZ 0042fb80 f i resource.obj
 0001:0002eb80       ??1DisplayListToCreate@@UAE@XZ 0042fb80 f i resource.obj
 0001:0002eb80       ??1DeleteDisplayListById@@UAE@XZ 0042fb80 f i resource.obj
 0001:0002eb90       ?DeleteDisplayListAsync@Resource@@QAEXH@Z 0042fb90 f   resource.obj
 0001:0002ec50       ?GenerateName@Resource@@QAEPADXZ 0042fc50 f   resource.obj
 0001:0002ecb0       ?GetBaseDirectory@Resource@@QAEPADXZ 0042fcb0 f   resource.obj
 0001:0002ed00       ?IsModLoaded@Resource@@QAE_NXZ 0042fd00 f   resource.obj
 0001:0002ed10       ?GetTextFileWriter@Resource@@QAEPAVTextFileWriter@@PBD_N@Z 0042fd10 f   resource.obj
 0001:0002ee60       ??9?$_Const_iterator@$00@?$list@U?$pair@$$CBV?$basic_string@DU?$char_traits@D@std@@V?$allocator@D@2@@std@@PAUTextureInfo@Resource@@@std@@V?$allocator@U?$pair@$$CBV?$basic_string@DU?$char_traits@D@std@@V?$allocator@D@2@@std@@PAUTextureInfo@Resource@@@std@@@2@@std@@QBE_NABV012@@Z 0042fe60 f i resource.obj
 0001:0002ee60       ??9?$_Const_iterator@$00@?$list@U?$pair@$$CBV?$basic_string@DU?$char_traits@D@std@@V?$allocator@D@2@@std@@PAVCachedSample@@@std@@V?$allocator@U?$pair@$$CBV?$basic_string@DU?$char_traits@D@std@@V?$allocator@D@2@@std@@PAVCachedSample@@@std@@@2@@std@@QBE_NABV012@@Z 0042fe60 f i sample_cache.obj
 0001:0002ee90       ??$_Allocate@U_List_position@?$_Hash@V?$_Hmap_traits@V?$basic_string@DU?$char_traits@D@std@@V?$allocator@D@2@@std@@PAVCachedSample@@V?$hash_compare@V?$basic_string@DU?$char_traits@D@std@@V?$allocator@D@2@@std@@U?$less@V?$basic_string@DU?$char_traits@D@std@@V?$allocator@D@2@@std@@@2@@stdext@@V?$allocator@U?$pair@$$CBV?$basic_string@DU?$char_traits@D@std@@V?$allocator@D@2@@std@@PAVCachedSample@@@std@@@2@$0A@@stdext@@@stdext@@@std@@YAPAU_List_position@?$_Hash@V?$_Hmap_traits@V?$basic_string@DU?$char_traits@D@std@@V?$allocator@D@2@@std@@PAVCachedSample@@V?$hash_compare@V?$basic_string@DU?$char_traits@D@std@@V?$allocator@D@2@@std@@U?$less@V?$basic_string@DU?$char_traits@D@std@@V?$allocator@D@2@@std@@@2@@stdext@@V?$allocator@U?$pair@$$CBV?$basic_string@DU?$char_traits@D@std@@V?$allocator@D@2@@std@@PAVCachedSample@@@std@@@2@$0A@@stdext@@@stdext@@IPAU123@@Z 0042fe90 f i sample_cache.obj
 0001:0002ee90       ??$_Allocate@U_List_position@?$_Hash@V?$_Hmap_traits@V?$basic_string@DU?$char_traits@D@std@@V?$allocator@D@2@@std@@PAUTextureInfo@Resource@@V?$hash_compare@V?$basic_string@DU?$char_traits@D@std@@V?$allocator@D@2@@std@@U?$less@V?$basic_string@DU?$char_traits@D@std@@V?$allocator@D@2@@std@@@2@@stdext@@V?$allocator@U?$pair@$$CBV?$basic_string@DU?$char_traits@D@std@@V?$allocator@D@2@@std@@PAUTextureInfo@Resource@@@std@@@2@$0A@@stdext@@@stdext@@@std@@YAPAU_List_position@?$_Hash@V?$_Hmap_traits@V?$basic_string@DU?$char_traits@D@std@@V?$allocator@D@2@@std@@PAUTextureInfo@Resource@@V?$hash_compare@V?$basic_string@DU?$char_traits@D@std@@V?$allocator@D@2@@std@@U?$less@V?$basic_string@DU?$char_traits@D@std@@V?$allocator@D@2@@std@@@2@@stdext@@V?$allocator@U?$pair@$$CBV?$basic_string@DU?$char_traits@D@std@@V?$allocator@D@2@@std@@PAUTextureInfo@Resource@@@std@@@2@$0A@@stdext@@@stdext@@IPAU123@@Z 0042fe90 f i resource.obj
 0001:0002ee90       ??$_Allocate@N@std@@YAPANIPAN@Z 0042fe90 f i routing_system.obj
 0001:0002eef0       ?DumpKeys@?$HashTable@PAVUnicodeString@@@@QBEXXZ 0042fef0 f i language_table.obj
 0001:0002eef0       ?DumpKeys@?$HashTable@PAVShape@@@@QBEXXZ 0042fef0 f i resource.obj
 0001:0002eef0       ?DumpKeys@?$HashTable@H@@QBEXXZ 0042fef0 f i resource.obj
 0001:0002eef0       ?DumpKeys@?$HashTable@_N@@QBEXXZ 0042fef0 f i ftp_manager.obj
 0001:0002eef0       ?DumpKeys@?$HashTable@PAVBitmapRGBA@@@@QBEXXZ 0042fef0 f i resource.obj
 0001:0002eef0       ?DumpKeys@?$HashTable@PAVFTP@@@@QBEXXZ 0042fef0 f i ftp_manager.obj
 0001:0002eef0       ?DumpKeys@?$HashTable@PAVAckSet@@@@QBEXXZ 0042fef0 f i ftp_manager.obj
 0001:0002eef0       ?DumpKeys@?$HashTable@PAVProfiledElement@@@@QBEXXZ 0042fef0 f i profiler.obj
 0001:0002eef0       ?DumpKeys@?$HashTable@PAVMemMappedFile@@@@QBEXXZ 0042fef0 f i resource.obj
 0001:0002ef50       ?HashFunc@?$HashTable@PAVProfiledElement@@@@IBEIPBD@Z 0042ff50 f i prefs_graphics_window.obj
 0001:0002ef50       ?HashFunc@?$HashTable@PAVMemMappedFile@@@@IBEIPBD@Z 0042ff50 f i resource.obj
 0001:0002ef50       ?HashFunc@?$HashTable@PAVFTP@@@@IBEIPBD@Z 0042ff50 f i ftp_manager.obj
 0001:0002ef50       ?HashFunc@?$HashTable@H@@IBEIPBD@Z 0042ff50 f i resource.obj
 0001:0002ef50       ?HashFunc@?$HashTable@PAVShape@@@@IBEIPBD@Z 0042ff50 f i resource.obj
 0001:0002ef50       ?HashFunc@?$HashTable@PAVBitmapRGBA@@@@IBEIPBD@Z 0042ff50 f i resource.obj
 0001:0002ef50       ?HashFunc@?$HashTable@PAVAckSet@@@@IBEIPBD@Z 0042ff50 f i ftp_manager.obj
 0001:0002ef50       ?HashFunc@?$HashTable@PAVUnicodeString@@@@IBEIPBD@Z 0042ff50 f i language_table.obj
 0001:0002ef50       ?HashFunc@?$HashTable@_N@@IBEIPBD@Z 0042ff50 f i ftp_manager.obj
 0001:0002efd0       ?compare@?$basic_string@DU?$char_traits@D@std@@V?$allocator@D@2@@std@@QBEHIIPBDI@Z 0042ffd0 f i resource.obj
 0001:0002f040       ?EmptyAndDelete@?$HashTable@PAVMemMappedFile@@@@QAEXXZ 00430040 f i resource.obj
 0001:0002f090       ?EmptyAndDelete@?$HashTable@PAVBitmapRGBA@@@@QAEXXZ 00430090 f i resource.obj
 0001:0002f0e0       ?EmptyAndDelete@?$HashTable@PAVShape@@@@QAEXXZ 004300e0 f i resource.obj
 0001:0002f130       ?GetIndex@?$HashTable@PAVUnicodeString@@@@QBEHPBD@Z 00430130 f i language_table.obj
 0001:0002f130       ?GetIndex@?$HashTable@PAVProfiledElement@@@@QBEHPBD@Z 00430130 f i prefs_graphics_window.obj
 0001:0002f130       ?GetIndex@?$HashTable@PAVAckSet@@@@QBEHPBD@Z 00430130 f i ftp_manager.obj
 0001:0002f130       ?GetIndex@?$HashTable@_N@@QBEHPBD@Z 00430130 f i ftp_manager.obj
 0001:0002f130       ?GetIndex@?$HashTable@H@@QBEHPBD@Z 00430130 f i resource.obj
 0001:0002f130       ?GetIndex@?$HashTable@PAVBitmapRGBA@@@@QBEHPBD@Z 00430130 f i resource.obj
 0001:0002f130       ?GetIndex@?$HashTable@PAVFTP@@@@QBEHPBD@Z 00430130 f i ftp_manager.obj
 0001:0002f130       ?GetIndex@?$HashTable@PAVShape@@@@QBEHPBD@Z 00430130 f i resource.obj
 0001:0002f130       ?GetIndex@?$HashTable@PAVMemMappedFile@@@@QBEHPBD@Z 00430130 f i resource.obj
 0001:0002f190       ?Rebuild@?$HashTable@PAVFTP@@@@QAEXXZ 00430190 f i ftp_manager.obj
 0001:0002f190       ?Rebuild@?$HashTable@PAVMemMappedFile@@@@QAEXXZ 00430190 f i resource.obj
 0001:0002f190       ?Rebuild@?$HashTable@H@@QAEXXZ 00430190 f i resource.obj
 0001:0002f190       ?Rebuild@?$HashTable@PAVBitmapRGBA@@@@QAEXXZ 00430190 f i resource.obj
 0001:0002f260       ??D?$_Iterator@$00@?$list@U?$pair@$$CBV?$basic_string@DU?$char_traits@D@std@@V?$allocator@D@2@@std@@PAVCachedSample@@@std@@V?$allocator@U?$pair@$$CBV?$basic_string@DU?$char_traits@D@std@@V?$allocator@D@2@@std@@PAVCachedSample@@@std@@@2@@std@@QBEAAU?$pair@$$CBV?$basic_string@DU?$char_traits@D@std@@V?$allocator@D@2@@std@@PAVCachedSample@@@2@XZ 00430260 f i sample_cache.obj
 0001:0002f260       ??D?$_Iterator@$00@?$list@U?$pair@$$CBV?$basic_string@DU?$char_traits@D@std@@V?$allocator@D@2@@std@@PAUTextureInfo@Resource@@@std@@V?$allocator@U?$pair@$$CBV?$basic_string@DU?$char_traits@D@std@@V?$allocator@D@2@@std@@PAUTextureInfo@Resource@@@std@@@2@@std@@QBEAAU?$pair@$$CBV?$basic_string@DU?$char_traits@D@std@@V?$allocator@D@2@@std@@PAUTextureInfo@Resource@@@2@XZ 00430260 f i resource.obj
 0001:0002f290       ??R?$hash_compare@V?$basic_string@DU?$char_traits@D@std@@V?$allocator@D@2@@std@@U?$less@V?$basic_string@DU?$char_traits@D@std@@V?$allocator@D@2@@std@@@2@@stdext@@QBEIABV?$basic_string@DU?$char_traits@D@std@@V?$allocator@D@2@@std@@@Z 00430290 f i resource.obj
 0001:0002f2f0       ?RemoveData@?$HashTable@PAVFTP@@@@QAEXI@Z 004302f0 f i ftp_manager.obj
 0001:0002f2f0       ?RemoveData@?$HashTable@PAVMemMappedFile@@@@QAEXI@Z 004302f0 f i resource.obj
 0001:0002f2f0       ?RemoveData@?$HashTable@H@@QAEXI@Z 004302f0 f i resource.obj
 0001:0002f2f0       ?RemoveData@?$HashTable@PAVBitmapRGBA@@@@QAEXI@Z 004302f0 f i resource.obj
 0001:0002f350       ?Grow@?$HashTable@PAVUnicodeString@@@@IAEXXZ 00430350 f i language_table.obj
 0001:0002f350       ?Grow@?$HashTable@PAVAckSet@@@@IAEXXZ 00430350 f i ftp_manager.obj
 0001:0002f350       ?Grow@?$HashTable@PAVBitmapRGBA@@@@IAEXXZ 00430350 f i resource.obj
 0001:0002f350       ?Grow@?$HashTable@PAVShape@@@@IAEXXZ 00430350 f i resource.obj
 0001:0002f350       ?Grow@?$HashTable@H@@IAEXXZ 00430350 f i resource.obj
 0001:0002f350       ?Grow@?$HashTable@PAVMemMappedFile@@@@IAEXXZ 00430350 f i resource.obj
 0001:0002f350       ?Grow@?$HashTable@PAVFTP@@@@IAEXXZ 00430350 f i ftp_manager.obj
 0001:0002f450       ??$_Uninit_fill_n@PAU_List_position@?$_Hash@V?$_Hmap_traits@V?$basic_string@DU?$char_traits@D@std@@V?$allocator@D@2@@std@@PAUTextureInfo@Resource@@V?$hash_compare@V?$basic_string@DU?$char_traits@D@std@@V?$allocator@D@2@@std@@U?$less@V?$basic_string@DU?$char_traits@D@std@@V?$allocator@D@2@@std@@@2@@stdext@@V?$allocator@U?$pair@$$CBV?$basic_string@DU?$char_traits@D@std@@V?$allocator@D@2@@std@@PAUTextureInfo@Resource@@@std@@@2@$0A@@stdext@@@stdext@@IU123@V?$allocator@U_List_position@?$_Hash@V?$_Hmap_traits@V?$basic_string@DU?$char_traits@D@std@@V?$allocator@D@2@@std@@PAUTextureInfo@Resource@@V?$hash_compare@V?$basic_string@DU?$char_traits@D@std@@V?$allocator@D@2@@std@@U?$less@V?$basic_string@DU?$char_traits@D@std@@V?$allocator@D@2@@std@@@2@@stdext@@V?$allocator@U?$pair@$$CBV?$basic_string@DU?$char_traits@D@std@@V?$allocator@D@2@@std@@PAUTextureInfo@Resource@@@std@@@2@$0A@@stdext@@@stdext@@@std@@@std@@YAXPAU_List_position@?$_Hash@V?$_Hmap_traits@V?$basic_string@DU?$char_traits@D@std@@V?$allocator@D@2@@std@@PAUTextureInfo@Resource@@V?$hash_compare@V?$basic_string@DU?$char_traits@D@std@@V?$allocator@D@2@@std@@U?$less@V?$basic_string@DU?$char_traits@D@std@@V?$allocator@D@2@@std@@@2@@stdext@@V?$allocator@U?$pair@$$CBV?$basic_string@DU?$char_traits@D@std@@V?$allocator@D@2@@std@@PAUTextureInfo@Resource@@@std@@@2@$0A@@stdext@@@stdext@@IABU123@AAV?$allocator@U_List_position@?$_Hash@V?$_Hmap_traits@V?$basic_string@DU?$char_traits@D@std@@V?$allocator@D@2@@std@@PAUTextureInfo@Resource@@V?$hash_compare@V?$basic_string@DU?$char_traits@D@std@@V?$allocator@D@2@@std@@U?$less@V?$basic_string@DU?$char_traits@D@std@@V?$allocator@D@2@@std@@@2@@stdext@@V?$allocator@U?$pair@$$CBV?$basic_string@DU?$char_traits@D@std@@V?$allocator@D@2@@std@@PAUTextureInfo@Resource@@@std@@@2@$0A@@stdext@@@stdext@@@0@U_Nonscalar_ptr_iterator_tag@0@U_Range_checked_iterator_tag@0@@Z 00430450 f i resource.obj
 0001:0002f450       ??$_Uninit_fill_n@PAU_List_position@?$_Hash@V?$_Hmap_traits@V?$basic_string@DU?$char_traits@D@std@@V?$allocator@D@2@@std@@PAVCachedSample@@V?$hash_compare@V?$basic_string@DU?$char_traits@D@std@@V?$allocator@D@2@@std@@U?$less@V?$basic_string@DU?$char_traits@D@std@@V?$allocator@D@2@@std@@@2@@stdext@@V?$allocator@U?$pair@$$CBV?$basic_string@DU?$char_traits@D@std@@V?$allocator@D@2@@std@@PAVCachedSample@@@std@@@2@$0A@@stdext@@@stdext@@IU123@V?$allocator@U_List_position@?$_Hash@V?$_Hmap_traits@V?$basic_string@DU?$char_traits@D@std@@V?$allocator@D@2@@std@@PAVCachedSample@@V?$hash_compare@V?$basic_string@DU?$char_traits@D@std@@V?$allocator@D@2@@std@@U?$less@V?$basic_string@DU?$char_traits@D@std@@V?$allocator@D@2@@std@@@2@@stdext@@V?$allocator@U?$pair@$$CBV?$basic_string@DU?$char_traits@D@std@@V?$allocator@D@2@@std@@PAVCachedSample@@@std@@@2@$0A@@stdext@@@stdext@@@std@@@std@@YAXPAU_List_position@?$_Hash@V?$_Hmap_traits@V?$basic_string@DU?$char_traits@D@std@@V?$allocator@D@2@@std@@PAVCachedSample@@V?$hash_compare@V?$basic_string@DU?$char_traits@D@std@@V?$allocator@D@2@@std@@U?$less@V?$basic_string@DU?$char_traits@D@std@@V?$allocator@D@2@@std@@@2@@stdext@@V?$allocator@U?$pair@$$CBV?$basic_string@DU?$char_traits@D@std@@V?$allocator@D@2@@std@@PAVCachedSample@@@std@@@2@$0A@@stdext@@@stdext@@IABU123@AAV?$allocator@U_List_position@?$_Hash@V?$_Hmap_traits@V?$basic_string@DU?$char_traits@D@std@@V?$allocator@D@2@@std@@PAVCachedSample@@V?$hash_compare@V?$basic_string@DU?$char_traits@D@std@@V?$allocator@D@2@@std@@U?$less@V?$basic_string@DU?$char_traits@D@std@@V?$allocator@D@2@@std@@@2@@stdext@@V?$allocator@U?$pair@$$CBV?$basic_string@DU?$char_traits@D@std@@V?$allocator@D@2@@std@@PAVCachedSample@@@std@@@2@$0A@@stdext@@@stdext@@@0@U_Nonscalar_ptr_iterator_tag@0@U_Range_checked_iterator_tag@0@@Z 00430450 f i sample_cache.obj
 0001:0002f480       ?DeleteBitmap@Resource@@QAEXPBD@Z 00430480 f   resource.obj
 0001:0002f4d0       ?GetUncompressedFile@Resource@@QAEPAVMemMappedFile@@PBD@Z 004304d0 f   resource.obj
 0001:0002f510       ?GetTextReader@Resource@@QAEPAVTextReader@@PBD@Z 00430510 f   resource.obj
 0001:0002f730       ?GetBinaryReader@Resource@@QAEPAVBinaryReader@@PBD@Z 00430730 f   resource.obj
 0001:0002f880       ?DoesShapeExist@Resource@@QAE_NPBD@Z 00430880 f   resource.obj
 0001:0002f920       ?GetShapeCopy@Resource@@QAEPAVShape@@PBD_N1@Z 00430920 f   resource.obj
 0001:0002fae0       ?GetSoundStreamDecoder@Resource@@QAEPAVSoundStreamDecoder@@PBD@Z 00430ae0 f   resource.obj
 0001:0002fbc0       ?GetDisplayList@Resource@@QAEHPBD@Z 00430bc0 f   resource.obj
 0001:0002fc10       ?FileExists@Resource@@QAE_NPBD@Z 00430c10 f   resource.obj
 0001:0002fc40       ?ListResources@Resource@@QAEPAV?$LList@PAD@@PBD0_N@Z 00430c40 f   resource.obj
 0001:0002fe10       ?PutData@?$HashTable@PAVShape@@@@QAEHPBDABQAVShape@@@Z 00430e10 f i resource.obj
 0001:0002fe10       ?PutData@?$HashTable@PAVFTP@@@@QAEHPBDABQAVFTP@@@Z 00430e10 f i ftp_manager.obj
 0001:0002fe10       ?PutData@?$HashTable@H@@QAEHPBDABH@Z 00430e10 f i resource.obj
 0001:0002fe10       ?PutData@?$HashTable@PAVMemMappedFile@@@@QAEHPBDABQAVMemMappedFile@@@Z 00430e10 f i resource.obj
 0001:0002fe10       ?PutData@?$HashTable@PAVBitmapRGBA@@@@QAEHPBDABQAVBitmapRGBA@@@Z 00430e10 f i resource.obj
 0001:0002fe10       ?PutData@?$HashTable@PAVAckSet@@@@QAEHPBDABQAVAckSet@@@Z 00430e10 f i ftp_manager.obj
 0001:0002fe10       ?PutData@?$HashTable@PAVUnicodeString@@@@QAEHPBDABQAVUnicodeString@@@Z 00430e10 f i language_table.obj
 0001:0002fe80       ??$_Unchecked_move_backward@PAU_List_position@?$_Hash@V?$_Hmap_traits@V?$basic_string@DU?$char_traits@D@std@@V?$allocator@D@2@@std@@PAUTextureInfo@Resource@@V?$hash_compare@V?$basic_string@DU?$char_traits@D@std@@V?$allocator@D@2@@std@@U?$less@V?$basic_string@DU?$char_traits@D@std@@V?$allocator@D@2@@std@@@2@@stdext@@V?$allocator@U?$pair@$$CBV?$basic_string@DU?$char_traits@D@std@@V?$allocator@D@2@@std@@PAUTextureInfo@Resource@@@std@@@2@$0A@@stdext@@@stdext@@PAU123@@stdext@@YAPAU_List_position@?$_Hash@V?$_Hmap_traits@V?$basic_string@DU?$char_traits@D@std@@V?$allocator@D@2@@std@@PAUTextureInfo@Resource@@V?$hash_compare@V?$basic_string@DU?$char_traits@D@std@@V?$allocator@D@2@@std@@U?$less@V?$basic_string@DU?$char_traits@D@std@@V?$allocator@D@2@@std@@@2@@stdext@@V?$allocator@U?$pair@$$CBV?$basic_string@DU?$char_traits@D@std@@V?$allocator@D@2@@std@@PAUTextureInfo@Resource@@@std@@@2@$0A@@stdext@@@0@PAU120@00@Z 00430e80 f i resource.obj
 0001:0002fe80       ??$_Unchecked_move_backward@PAU_List_position@?$_Hash@V?$_Hmap_traits@V?$basic_string@DU?$char_traits@D@std@@V?$allocator@D@2@@std@@PAVCachedSample@@V?$hash_compare@V?$basic_string@DU?$char_traits@D@std@@V?$allocator@D@2@@std@@U?$less@V?$basic_string@DU?$char_traits@D@std@@V?$allocator@D@2@@std@@@2@@stdext@@V?$allocator@U?$pair@$$CBV?$basic_string@DU?$char_traits@D@std@@V?$allocator@D@2@@std@@PAVCachedSample@@@std@@@2@$0A@@stdext@@@stdext@@PAU123@@stdext@@YAPAU_List_position@?$_Hash@V?$_Hmap_traits@V?$basic_string@DU?$char_traits@D@std@@V?$allocator@D@2@@std@@PAVCachedSample@@V?$hash_compare@V?$basic_string@DU?$char_traits@D@std@@V?$allocator@D@2@@std@@U?$less@V?$basic_string@DU?$char_traits@D@std@@V?$allocator@D@2@@std@@@2@@stdext@@V?$allocator@U?$pair@$$CBV?$basic_string@DU?$char_traits@D@std@@V?$allocator@D@2@@std@@PAVCachedSample@@@std@@@2@$0A@@stdext@@@0@PAU120@00@Z 00430e80 f i sample_cache.obj
 0001:0002fec0       ?ParseArchive@Resource@@QAEXPBD0@Z 00430ec0 f   resource.obj
 0001:00030050       ?AddBitmap@Resource@@QAEXPBDABVBitmapRGBA@@@Z 00431050 f   resource.obj
 0001:000300e0       ?GetBitmap@Resource@@QAEPBVBitmapRGBA@@PBD@Z 004310e0 f   resource.obj
 0001:00030200       ?GetTextReader@Resource@@QAEPAVTextReader@@ABV?$basic_string@DU?$char_traits@D@std@@V?$allocator@D@2@@std@@@Z 00431200 f   resource.obj
 0001:00030230       ?AddShape@Resource@@QAEXPAVShape@@PBD@Z 00431230 f   resource.obj
 0001:00030270       ?GetShape@Resource@@QAEPAVShape@@PBD_N@Z 00431270 f   resource.obj
 0001:000302d0       ?CreateDisplayList@Resource@@QAEHPBD@Z 004312d0 f   resource.obj
 0001:00030330       ?Run@DisplayListToCreate@@MAEXXZ 00431330 f i resource.obj
 0001:000303a0       ?CreateDisplayListAsync@Resource@@QAEHPBDABVRunnable@@11@Z 004313a0 f   resource.obj
 0001:000304c0       ?DeleteDisplayList@Resource@@QAEXPBD@Z 004314c0 f   resource.obj
 0001:00030530       ??R?$hash_compare@V?$basic_string@DU?$char_traits@D@std@@V?$allocator@D@2@@std@@U?$less@V?$basic_string@DU?$char_traits@D@std@@V?$allocator@D@2@@std@@@2@@stdext@@QBE_NABV?$basic_string@DU?$char_traits@D@std@@V?$allocator@D@2@@std@@0@Z 00431530 f i resource.obj
 0001:00030570       ?_Ufill@?$vector@U_List_position@?$_Hash@V?$_Hmap_traits@V?$basic_string@DU?$char_traits@D@std@@V?$allocator@D@2@@std@@PAVCachedSample@@V?$hash_compare@V?$basic_string@DU?$char_traits@D@std@@V?$allocator@D@2@@std@@U?$less@V?$basic_string@DU?$char_traits@D@std@@V?$allocator@D@2@@std@@@2@@stdext@@V?$allocator@U?$pair@$$CBV?$basic_string@DU?$char_traits@D@std@@V?$allocator@D@2@@std@@PAVCachedSample@@@std@@@2@$0A@@stdext@@@stdext@@V?$allocator@U_List_position@?$_Hash@V?$_Hmap_traits@V?$basic_string@DU?$char_traits@D@std@@V?$allocator@D@2@@std@@PAVCachedSample@@V?$hash_compare@V?$basic_string@DU?$char_traits@D@std@@V?$allocator@D@2@@std@@U?$less@V?$basic_string@DU?$char_traits@D@std@@V?$allocator@D@2@@std@@@2@@stdext@@V?$allocator@U?$pair@$$CBV?$basic_string@DU?$char_traits@D@std@@V?$allocator@D@2@@std@@PAVCachedSample@@@std@@@2@$0A@@stdext@@@stdext@@@std@@@std@@IAEPAU_List_position@?$_Hash@V?$_Hmap_traits@V?$basic_string@DU?$char_traits@D@std@@V?$allocator@D@2@@std@@PAVCachedSample@@V?$hash_compare@V?$basic_string@DU?$char_traits@D@std@@V?$allocator@D@2@@std@@U?$less@V?$basic_string@DU?$char_traits@D@std@@V?$allocator@D@2@@std@@@2@@stdext@@V?$allocator@U?$pair@$$CBV?$basic_string@DU?$char_traits@D@std@@V?$allocator@D@2@@std@@PAVCachedSample@@@std@@@2@$0A@@stdext@@@stdext@@PAU345@IABU345@@Z 00431570 f i sample_cache.obj
 0001:00030570       ?_Ufill@?$vector@U_List_position@?$_Hash@V?$_Hmap_traits@V?$basic_string@DU?$char_traits@D@std@@V?$allocator@D@2@@std@@PAUTextureInfo@Resource@@V?$hash_compare@V?$basic_string@DU?$char_traits@D@std@@V?$allocator@D@2@@std@@U?$less@V?$basic_string@DU?$char_traits@D@std@@V?$allocator@D@2@@std@@@2@@stdext@@V?$allocator@U?$pair@$$CBV?$basic_string@DU?$char_traits@D@std@@V?$allocator@D@2@@std@@PAUTextureInfo@Resource@@@std@@@2@$0A@@stdext@@@stdext@@V?$allocator@U_List_position@?$_Hash@V?$_Hmap_traits@V?$basic_string@DU?$char_traits@D@std@@V?$allocator@D@2@@std@@PAUTextureInfo@Resource@@V?$hash_compare@V?$basic_string@DU?$char_traits@D@std@@V?$allocator@D@2@@std@@U?$less@V?$basic_string@DU?$char_traits@D@std@@V?$allocator@D@2@@std@@@2@@stdext@@V?$allocator@U?$pair@$$CBV?$basic_string@DU?$char_traits@D@std@@V?$allocator@D@2@@std@@PAUTextureInfo@Resource@@@std@@@2@$0A@@stdext@@@stdext@@@std@@@std@@IAEPAU_List_position@?$_Hash@V?$_Hmap_traits@V?$basic_string@DU?$char_traits@D@std@@V?$allocator@D@2@@std@@PAUTextureInfo@Resource@@V?$hash_compare@V?$basic_string@DU?$char_traits@D@std@@V?$allocator@D@2@@std@@U?$less@V?$basic_string@DU?$char_traits@D@std@@V?$allocator@D@2@@std@@@2@@stdext@@V?$allocator@U?$pair@$$CBV?$basic_string@DU?$char_traits@D@std@@V?$allocator@D@2@@std@@PAUTextureInfo@Resource@@@std@@@2@$0A@@stdext@@@stdext@@PAU345@IABU345@@Z 00431570 f i resource.obj
 0001:000305b0       ?Run@DeleteDisplayListByName@@MAEXXZ 004315b0 f i resource.obj
 0001:000305d0       ?DeleteDisplayListAsync@Resource@@QAEXPBD@Z 004315d0 f   resource.obj
 0001:00030690       ??0?$list@U?$pair@$$CBV?$basic_string@DU?$char_traits@D@std@@V?$allocator@D@2@@std@@PAVCachedSample@@@std@@V?$allocator@U?$pair@$$CBV?$basic_string@DU?$char_traits@D@std@@V?$allocator@D@2@@std@@PAVCachedSample@@@std@@@2@@std@@QAE@ABV?$allocator@U?$pair@$$CBV?$basic_string@DU?$char_traits@D@std@@V?$allocator@D@2@@std@@PAVCachedSample@@@std@@@1@@Z 00431690 f i sample_cache.obj
 0001:00030690       ??0?$list@U?$pair@$$CBV?$basic_string@DU?$char_traits@D@std@@V?$allocator@D@2@@std@@PAUTextureInfo@Resource@@@std@@V?$allocator@U?$pair@$$CBV?$basic_string@DU?$char_traits@D@std@@V?$allocator@D@2@@std@@PAUTextureInfo@Resource@@@std@@@2@@std@@QAE@ABV?$allocator@U?$pair@$$CBV?$basic_string@DU?$char_traits@D@std@@V?$allocator@D@2@@std@@PAUTextureInfo@Resource@@@std@@@1@@Z 00431690 f i resource.obj
 0001:00030700       ?_Insert_n@?$vector@U_List_position@?$_Hash@V?$_Hmap_traits@V?$basic_string@DU?$char_traits@D@std@@V?$allocator@D@2@@std@@PAUTextureInfo@Resource@@V?$hash_compare@V?$basic_string@DU?$char_traits@D@std@@V?$allocator@D@2@@std@@U?$less@V?$basic_string@DU?$char_traits@D@std@@V?$allocator@D@2@@std@@@2@@stdext@@V?$allocator@U?$pair@$$CBV?$basic_string@DU?$char_traits@D@std@@V?$allocator@D@2@@std@@PAUTextureInfo@Resource@@@std@@@2@$0A@@stdext@@@stdext@@V?$allocator@U_List_position@?$_Hash@V?$_Hmap_traits@V?$basic_string@DU?$char_traits@D@std@@V?$allocator@D@2@@std@@PAUTextureInfo@Resource@@V?$hash_compare@V?$basic_string@DU?$char_traits@D@std@@V?$allocator@D@2@@std@@U?$less@V?$basic_string@DU?$char_traits@D@std@@V?$allocator@D@2@@std@@@2@@stdext@@V?$allocator@U?$pair@$$CBV?$basic_string@DU?$char_traits@D@std@@V?$allocator@D@2@@std@@PAUTextureInfo@Resource@@@std@@@2@$0A@@stdext@@@stdext@@@std@@@std@@IAEXV?$_Vector_const_iterator@U_List_position@?$_Hash@V?$_Hmap_traits@V?$basic_string@DU?$char_traits@D@std@@V?$allocator@D@2@@std@@PAUTextureInfo@Resource@@V?$hash_compare@V?$basic_string@DU?$char_traits@D@std@@V?$allocator@D@2@@std@@U?$less@V?$basic_string@DU?$char_traits@D@std@@V?$allocator@D@2@@std@@@2@@stdext@@V?$allocator@U?$pair@$$CBV?$basic_string@DU?$char_traits@D@std@@V?$allocator@D@2@@std@@PAUTextureInfo@Resource@@@std@@@2@$0A@@stdext@@@stdext@@V?$allocator@U_List_position@?$_Hash@V?$_Hmap_traits@V?$basic_string@DU?$char_traits@D@std@@V?$allocator@D@2@@std@@PAUTextureInfo@Resource@@V?$hash_compare@V?$basic_string@DU?$char_traits@D@std@@V?$allocator@D@2@@std@@U?$less@V?$basic_string@DU?$char_traits@D@std@@V?$allocator@D@2@@std@@@2@@stdext@@V?$allocator@U?$pair@$$CBV?$basic_string@DU?$char_traits@D@std@@V?$allocator@D@2@@std@@PAUTextureInfo@Resource@@@std@@@2@$0A@@stdext@@@stdext@@@std@@@2@IABU_List_position@?$_Hash@V?$_Hmap_traits@V?$basic_string@DU?$char_traits@D@std@@V?$allocator@D@2@@std@@PAUTextureInfo@Resource@@V?$hash_compare@V?$basic_string@DU?$char_traits@D@std@@V?$allocator@D@2@@std@@U?$less@V?$basic_string@DU?$char_traits@D@std@@V?$allocator@D@2@@std@@@2@@stdext@@V?$allocator@U?$pair@$$CBV?$basic_string@DU?$char_traits@D@std@@V?$allocator@D@2@@std@@PAUTextureInfo@Resource@@@std@@@2@$0A@@stdext@@@stdext@@@Z 00431700 f i resource.obj
 0001:00030700       ?_Insert_n@?$vector@U_List_position@?$_Hash@V?$_Hmap_traits@V?$basic_string@DU?$char_traits@D@std@@V?$allocator@D@2@@std@@PAVCachedSample@@V?$hash_compare@V?$basic_string@DU?$char_traits@D@std@@V?$allocator@D@2@@std@@U?$less@V?$basic_string@DU?$char_traits@D@std@@V?$allocator@D@2@@std@@@2@@stdext@@V?$allocator@U?$pair@$$CBV?$basic_string@DU?$char_traits@D@std@@V?$allocator@D@2@@std@@PAVCachedSample@@@std@@@2@$0A@@stdext@@@stdext@@V?$allocator@U_List_position@?$_Hash@V?$_Hmap_traits@V?$basic_string@DU?$char_traits@D@std@@V?$allocator@D@2@@std@@PAVCachedSample@@V?$hash_compare@V?$basic_string@DU?$char_traits@D@std@@V?$allocator@D@2@@std@@U?$less@V?$basic_string@DU?$char_traits@D@std@@V?$allocator@D@2@@std@@@2@@stdext@@V?$allocator@U?$pair@$$CBV?$basic_string@DU?$char_traits@D@std@@V?$allocator@D@2@@std@@PAVCachedSample@@@std@@@2@$0A@@stdext@@@stdext@@@std@@@std@@IAEXV?$_Vector_const_iterator@U_List_position@?$_Hash@V?$_Hmap_traits@V?$basic_string@DU?$char_traits@D@std@@V?$allocator@D@2@@std@@PAVCachedSample@@V?$hash_compare@V?$basic_string@DU?$char_traits@D@std@@V?$allocator@D@2@@std@@U?$less@V?$basic_string@DU?$char_traits@D@std@@V?$allocator@D@2@@std@@@2@@stdext@@V?$allocator@U?$pair@$$CBV?$basic_string@DU?$char_traits@D@std@@V?$allocator@D@2@@std@@PAVCachedSample@@@std@@@2@$0A@@stdext@@@stdext@@V?$allocator@U_List_position@?$_Hash@V?$_Hmap_traits@V?$basic_string@DU?$char_traits@D@std@@V?$allocator@D@2@@std@@PAVCachedSample@@V?$hash_compare@V?$basic_string@DU?$char_traits@D@std@@V?$allocator@D@2@@std@@U?$less@V?$basic_string@DU?$char_traits@D@std@@V?$allocator@D@2@@std@@@2@@stdext@@V?$allocator@U?$pair@$$CBV?$basic_string@DU?$char_traits@D@std@@V?$allocator@D@2@@std@@PAVCachedSample@@@std@@@2@$0A@@stdext@@@stdext@@@std@@@2@IABU_List_position@?$_Hash@V?$_Hmap_traits@V?$basic_string@DU?$char_traits@D@std@@V?$allocator@D@2@@std@@PAVCachedSample@@V?$hash_compare@V?$basic_string@DU?$char_traits@D@std@@V?$allocator@D@2@@std@@U?$less@V?$basic_string@DU?$char_traits@D@std@@V?$allocator@D@2@@std@@@2@@stdext@@V?$allocator@U?$pair@$$CBV?$basic_string@DU?$char_traits@D@std@@V?$allocator@D@2@@std@@PAVCachedSample@@@std@@@2@$0A@@stdext@@@stdext@@@Z 00431700 f i sample_cache.obj
 0001:00030950       ?GetTextureInfo@Resource@@QAE_NPBDAAH1@Z 00431950 f   resource.obj
 0001:00030a60       ?DoesTextureExist@Resource@@QAE_NPBD@Z 00431a60 f   resource.obj
 0001:00030bf0       ?_Assign_n@?$vector@U_List_position@?$_Hash@V?$_Hmap_traits@V?$basic_string@DU?$char_traits@D@std@@V?$allocator@D@2@@std@@PAUTextureInfo@Resource@@V?$hash_compare@V?$basic_string@DU?$char_traits@D@std@@V?$allocator@D@2@@std@@U?$less@V?$basic_string@DU?$char_traits@D@std@@V?$allocator@D@2@@std@@@2@@stdext@@V?$allocator@U?$pair@$$CBV?$basic_string@DU?$char_traits@D@std@@V?$allocator@D@2@@std@@PAUTextureInfo@Resource@@@std@@@2@$0A@@stdext@@@stdext@@V?$allocator@U_List_position@?$_Hash@V?$_Hmap_traits@V?$basic_string@DU?$char_traits@D@std@@V?$allocator@D@2@@std@@PAUTextureInfo@Resource@@V?$hash_compare@V?$basic_string@DU?$char_traits@D@std@@V?$allocator@D@2@@std@@U?$less@V?$basic_string@DU?$char_traits@D@std@@V?$allocator@D@2@@std@@@2@@stdext@@V?$allocator@U?$pair@$$CBV?$basic_string@DU?$char_traits@D@std@@V?$allocator@D@2@@std@@PAUTextureInfo@Resource@@@std@@@2@$0A@@stdext@@@stdext@@@std@@@std@@IAEXIABU_List_position@?$_Hash@V?$_Hmap_traits@V?$basic_string@DU?$char_traits@D@std@@V?$allocator@D@2@@std@@PAUTextureInfo@Resource@@V?$hash_compare@V?$basic_string@DU?$char_traits@D@std@@V?$allocator@D@2@@std@@U?$less@V?$basic_string@DU?$char_traits@D@std@@V?$allocator@D@2@@std@@@2@@stdext@@V?$allocator@U?$pair@$$CBV?$basic_string@DU?$char_traits@D@std@@V?$allocator@D@2@@std@@PAUTextureInfo@Resource@@@std@@@2@$0A@@stdext@@@stdext@@@Z 00431bf0 f i resource.obj
 0001:00030bf0       ?_Assign_n@?$vector@U_List_position@?$_Hash@V?$_Hmap_traits@V?$basic_string@DU?$char_traits@D@std@@V?$allocator@D@2@@std@@PAVCachedSample@@V?$hash_compare@V?$basic_string@DU?$char_traits@D@std@@V?$allocator@D@2@@std@@U?$less@V?$basic_string@DU?$char_traits@D@std@@V?$allocator@D@2@@std@@@2@@stdext@@V?$allocator@U?$pair@$$CBV?$basic_string@DU?$char_traits@D@std@@V?$allocator@D@2@@std@@PAVCachedSample@@@std@@@2@$0A@@stdext@@@stdext@@V?$allocator@U_List_position@?$_Hash@V?$_Hmap_traits@V?$basic_string@DU?$char_traits@D@std@@V?$allocator@D@2@@std@@PAVCachedSample@@V?$hash_compare@V?$basic_string@DU?$char_traits@D@std@@V?$allocator@D@2@@std@@U?$less@V?$basic_string@DU?$char_traits@D@std@@V?$allocator@D@2@@std@@@2@@stdext@@V?$allocator@U?$pair@$$CBV?$basic_string@DU?$char_traits@D@std@@V?$allocator@D@2@@std@@PAVCachedSample@@@std@@@2@$0A@@stdext@@@stdext@@@std@@@std@@IAEXIABU_List_position@?$_Hash@V?$_Hmap_traits@V?$basic_string@DU?$char_traits@D@std@@V?$allocator@D@2@@std@@PAVCachedSample@@V?$hash_compare@V?$basic_string@DU?$char_traits@D@std@@V?$allocator@D@2@@std@@U?$less@V?$basic_string@DU?$char_traits@D@std@@V?$allocator@D@2@@std@@@2@@stdext@@V?$allocator@U?$pair@$$CBV?$basic_string@DU?$char_traits@D@std@@V?$allocator@D@2@@std@@PAVCachedSample@@@std@@@2@$0A@@stdext@@@stdext@@@Z 00431bf0 f i sample_cache.obj
 0001:00030c70       ?DeleteTexture@Resource@@QAEXPBD@Z 00431c70 f   resource.obj
 0001:00030d80       ?Run@DeleteTextureByName@@MAEXXZ 00431d80 f i resource.obj
 0001:00030d90       ?DeleteTextureAsync@Resource@@QAEXPBD@Z 00431d90 f   resource.obj
 0001:00030e50       ??1?$_Hash@V?$_Hmap_traits@V?$basic_string@DU?$char_traits@D@std@@V?$allocator@D@2@@std@@PAVCachedSample@@V?$hash_compare@V?$basic_string@DU?$char_traits@D@std@@V?$allocator@D@2@@std@@U?$less@V?$basic_string@DU?$char_traits@D@std@@V?$allocator@D@2@@std@@@2@@stdext@@V?$allocator@U?$pair@$$CBV?$basic_string@DU?$char_traits@D@std@@V?$allocator@D@2@@std@@PAVCachedSample@@@std@@@2@$0A@@stdext@@@stdext@@QAE@XZ 00431e50 f i sample_cache.obj
 0001:00030e50       ??1?$_Hash@V?$_Hmap_traits@V?$basic_string@DU?$char_traits@D@std@@V?$allocator@D@2@@std@@PAUTextureInfo@Resource@@V?$hash_compare@V?$basic_string@DU?$char_traits@D@std@@V?$allocator@D@2@@std@@U?$less@V?$basic_string@DU?$char_traits@D@std@@V?$allocator@D@2@@std@@@2@@stdext@@V?$allocator@U?$pair@$$CBV?$basic_string@DU?$char_traits@D@std@@V?$allocator@D@2@@std@@PAUTextureInfo@Resource@@@std@@@2@$0A@@stdext@@@stdext@@QAE@XZ 00431e50 f i resource.obj
 0001:00030ea0       ??1?$hash_map@V?$basic_string@DU?$char_traits@D@std@@V?$allocator@D@2@@std@@PAVCachedSample@@V?$hash_compare@V?$basic_string@DU?$char_traits@D@std@@V?$allocator@D@2@@std@@U?$less@V?$basic_string@DU?$char_traits@D@std@@V?$allocator@D@2@@std@@@2@@stdext@@V?$allocator@U?$pair@$$CBV?$basic_string@DU?$char_traits@D@std@@V?$allocator@D@2@@std@@PAVCachedSample@@@std@@@2@@stdext@@QAE@XZ 00431ea0 f i sample_cache.obj
 0001:00030ea0       ??1?$hash_map@V?$basic_string@DU?$char_traits@D@std@@V?$allocator@D@2@@std@@PAUTextureInfo@Resource@@V?$hash_compare@V?$basic_string@DU?$char_traits@D@std@@V?$allocator@D@2@@std@@U?$less@V?$basic_string@DU?$char_traits@D@std@@V?$allocator@D@2@@std@@@2@@stdext@@V?$allocator@U?$pair@$$CBV?$basic_string@DU?$char_traits@D@std@@V?$allocator@D@2@@std@@PAUTextureInfo@Resource@@@std@@@2@@stdext@@QAE@XZ 00431ea0 f i resource.obj
 0001:00030eb0       ??0?$_Hash@V?$_Hmap_traits@V?$basic_string@DU?$char_traits@D@std@@V?$allocator@D@2@@std@@PAVCachedSample@@V?$hash_compare@V?$basic_string@DU?$char_traits@D@std@@V?$allocator@D@2@@std@@U?$less@V?$basic_string@DU?$char_traits@D@std@@V?$allocator@D@2@@std@@@2@@stdext@@V?$allocator@U?$pair@$$CBV?$basic_string@DU?$char_traits@D@std@@V?$allocator@D@2@@std@@PAVCachedSample@@@std@@@2@$0A@@stdext@@@stdext@@QAE@ABV?$hash_compare@V?$basic_string@DU?$char_traits@D@std@@V?$allocator@D@2@@std@@U?$less@V?$basic_string@DU?$char_traits@D@std@@V?$allocator@D@2@@std@@@2@@1@ABV?$allocator@U?$pair@$$CBV?$basic_string@DU?$char_traits@D@std@@V?$allocator@D@2@@std@@PAVCachedSample@@@std@@@std@@@Z 00431eb0 f i sample_cache.obj
 0001:00030eb0       ??0?$_Hash@V?$_Hmap_traits@V?$basic_string@DU?$char_traits@D@std@@V?$allocator@D@2@@std@@PAUTextureInfo@Resource@@V?$hash_compare@V?$basic_string@DU?$char_traits@D@std@@V?$allocator@D@2@@std@@U?$less@V?$basic_string@DU?$char_traits@D@std@@V?$allocator@D@2@@std@@@2@@stdext@@V?$allocator@U?$pair@$$CBV?$basic_string@DU?$char_traits@D@std@@V?$allocator@D@2@@std@@PAUTextureInfo@Resource@@@std@@@2@$0A@@stdext@@@stdext@@QAE@ABV?$hash_compare@V?$basic_string@DU?$char_traits@D@std@@V?$allocator@D@2@@std@@U?$less@V?$basic_string@DU?$char_traits@D@std@@V?$allocator@D@2@@std@@@2@@1@ABV?$allocator@U?$pair@$$CBV?$basic_string@DU?$char_traits@D@std@@V?$allocator@D@2@@std@@PAUTextureInfo@Resource@@@std@@@std@@@Z 00431eb0 f i resource.obj
 0001:00030f70       ?FlushOpenGlState@Resource@@QAEXXZ 00431f70 f   resource.obj
 0001:00031130       ??0Resource@@QAE@XZ        00432130 f   resource.obj
 0001:000311e0       ??1Resource@@QAE@XZ        004321e0 f   resource.obj
 0001:000312e0       ?GetTextureWithFlags@Resource@@QAEHPBDH@Z 004322e0 f   resource.obj
 0001:000315b0       ?GetTexture@Resource@@QAEHPBD_N11@Z 004325b0 f   resource.obj
 0001:000315f0       ?GetTextureWithAlpha@Resource@@QAEHPBD@Z 004325f0 f   resource.obj
 0001:00031600       ?RegenerateOpenGlState@Resource@@QAEXXZ 00432600 f   resource.obj
 0001:00031800       ??1Runnable@@UAE@XZ        00432800 f   runnable.obj
 0001:00031810       ??1RunnableJob@@UAE@XZ     00432810 f   runnable.obj
 0001:00031810       ??1Job@@UAE@XZ             00432810 f   runnable.obj
 0001:00031820       ?Process@Job@@QAEXXZ       00432820 f   runnable.obj
 0001:00031840       ?Wait@Job@@QAEXXZ          00432840 f   runnable.obj
 0001:00031860       ?Run@RunnableJob@@MAEXXZ   00432860 f   runnable.obj
 0001:00031870       ??0DelayedJob@@QAE@PAVRunnable@@H@Z 00432870 f   runnable.obj
 0001:00031890       ??1DelayedJob@@QAE@XZ      00432890 f   runnable.obj
 0001:000318b0       ?ReadyToRun@DelayedJob@@QAE_NXZ 004328b0 f   runnable.obj
 0001:000318d0       ?Run@DelayedJob@@QAEXXZ    004328d0 f   runnable.obj
 0001:000318e0       ??_ERunnable@@UAEPAXI@Z    004328e0 f i runnable.obj
 0001:000318e0       ??_GRunnable@@UAEPAXI@Z    004328e0 f i runnable.obj
 0001:00031900       ??0RunnableJob@@QAE@PAVRunnable@@@Z 00432900 f   runnable.obj
 0001:00031930       ??_ERunnableJob@@UAEPAXI@Z 00432930 f i runnable.obj
 0001:00031930       ??_GRunnableJob@@UAEPAXI@Z 00432930 f i runnable.obj
 0001:00031960       ?StrToLower@@YAXPAD@Z      00432960 f   string_utils.obj
 0001:00031990       ?newStr@@YAPADPBD@Z        00432990 f   string_utils.obj
 0001:000319d0       ?newStr@@YAPAGPBG@Z        004329d0 f   string_utils.obj
 0001:00031a30       ??1?$basic_ostream@DU?$char_traits@D@std@@@std@@UAE@XZ 00432a30 f i string_utils.obj
 0001:00031a40       ??_D?$basic_ostream@DU?$char_traits@D@std@@@std@@QAEXXZ 00432a40 f i string_utils.obj
 0001:00031a60       ??Y?$_String_const_iterator@DU?$char_traits@D@std@@V?$allocator@D@2@@std@@QAEAAV01@H@Z 00432a60 f i string_utils.obj
 0001:00031ac0       ??$_Transform@PADPADP6AHH@ZUforward_iterator_tag@std@@@std@@YAPADPAD00P6AHH@ZUforward_iterator_tag@0@U_Range_checked_iterator_tag@0@@Z 00432ac0 f i string_utils.obj
 0001:00031b00       ?pbackfail@?$basic_stringbuf@DU?$char_traits@D@std@@V?$allocator@D@2@@std@@MAEHH@Z 00432b00 f i string_utils.obj
 0001:00031b50       ?underflow@?$basic_stringbuf@DU?$char_traits@D@std@@V?$allocator@D@2@@std@@MAEHXZ 00432b50 f i string_utils.obj
 0001:00031bc0       ?seekoff@?$basic_stringbuf@DU?$char_traits@D@std@@V?$allocator@D@2@@std@@MAE?AV?$fpos@H@2@JHH@Z 00432bc0 f i string_utils.obj
 0001:00031d20       ?seekpos@?$basic_stringbuf@DU?$char_traits@D@std@@V?$allocator@D@2@@std@@MAE?AV?$fpos@H@2@V32@H@Z 00432d20 f i string_utils.obj
 0001:00031df0       ??_E?$basic_ostream@DU?$char_traits@D@std@@@std@@UAEPAXI@Z 00432df0 f i string_utils.obj
 0001:00031df0       ??_G?$basic_ostream@DU?$char_traits@D@std@@@std@@UAEPAXI@Z 00432df0 f i string_utils.obj
 0001:00031e30       ??_E?$basic_stringbuf@DU?$char_traits@D@std@@V?$allocator@D@2@@std@@UAEPAXI@Z 00432e30 f i string_utils.obj
 0001:00031e30       ??_G?$basic_stringbuf@DU?$char_traits@D@std@@V?$allocator@D@2@@std@@UAEPAXI@Z 00432e30 f i string_utils.obj
 0001:00031e60       ?overflow@?$basic_stringbuf@DU?$char_traits@D@std@@V?$allocator@D@2@@std@@MAEHH@Z 00432e60 f i string_utils.obj
 0001:00032030       ?_Init@?$basic_stringbuf@DU?$char_traits@D@std@@V?$allocator@D@2@@std@@IAEXPBDIH@Z 00433030 f i string_utils.obj
 0001:000320e0       ??$_Transform@PADV?$_String_iterator@DU?$char_traits@D@std@@V?$allocator@D@2@@std@@P6AHH@Z@std@@YA?AV?$_String_iterator@DU?$char_traits@D@std@@V?$allocator@D@2@@0@PAD0V10@P6AHH@ZUrandom_access_iterator_tag@0@U_Range_checked_iterator_tag@0@@Z 004330e0 f i string_utils.obj
 0001:00032150       ?StrToLower@@YAXAAV?$basic_string@DU?$char_traits@D@std@@V?$allocator@D@2@@std@@@Z 00433150 f   string_utils.obj
 0001:00032250       ?destroy@?$allocator@V?$basic_string@DU?$char_traits@D@std@@V?$allocator@D@2@@std@@@std@@QAEXPAV?$basic_string@DU?$char_traits@D@std@@V?$allocator@D@2@@2@@Z 00433250 f i string_utils.obj
 0001:00032280       ??$_Destroy_range@V?$allocator@V?$basic_string@DU?$char_traits@D@std@@V?$allocator@D@2@@std@@@std@@@std@@YAXPAV?$basic_string@DU?$char_traits@D@std@@V?$allocator@D@2@@0@0AAV?$allocator@V?$basic_string@DU?$char_traits@D@std@@V?$allocator@D@2@@std@@@0@U_Nonscalar_ptr_iterator_tag@0@@Z 00433280 f i string_utils.obj
 0001:000322c0       ?_Destroy@?$vector@V?$basic_string@DU?$char_traits@D@std@@V?$allocator@D@2@@std@@V?$allocator@V?$basic_string@DU?$char_traits@D@std@@V?$allocator@D@2@@std@@@2@@std@@IAEXPAV?$basic_string@DU?$char_traits@D@std@@V?$allocator@D@2@@2@0@Z 004332c0 f i string_utils.obj
 0001:000322e0       ??0?$basic_ostream@DU?$char_traits@D@std@@@std@@QAE@PAV?$basic_streambuf@DU?$char_traits@D@std@@@1@_N@Z 004332e0 f i string_utils.obj
 0001:00032370       ?_Tidy@?$vector@V?$basic_string@DU?$char_traits@D@std@@V?$allocator@D@2@@std@@V?$allocator@V?$basic_string@DU?$char_traits@D@std@@V?$allocator@D@2@@std@@@2@@std@@IAEXXZ 00433370 f i string_utils.obj
 0001:000323c0       ??1?$vector@V?$basic_string@DU?$char_traits@D@std@@V?$allocator@D@2@@std@@V?$allocator@V?$basic_string@DU?$char_traits@D@std@@V?$allocator@D@2@@std@@@2@@std@@QAE@XZ 004333c0 f i string_utils.obj
 0001:00032410       ??$?6DU?$char_traits@D@std@@V?$allocator@D@1@@std@@YAAAV?$basic_ostream@DU?$char_traits@D@std@@@0@AAV10@ABV?$basic_string@DU?$char_traits@D@std@@V?$allocator@D@2@@0@@Z 00433410 f i string_utils.obj
 0001:00032660       ??1LocaleInfo@@QAE@XZ      00433660 f i system_info.obj
 0001:00032680       ??1AudioInfo@@QAE@XZ       00433680 f i system_info.obj
 0001:000326c0       ??1SystemInfo@@QAE@XZ      004336c0 f   system_info.obj
 0001:00032710       ?GetLocaleDetails@SystemInfo@@AAEXXZ 00433710 f   system_info.obj
 0001:000327a0       ?GetAudioDetails@SystemInfo@@AAEXXZ 004337a0 f   system_info.obj
 0001:000328c0       ?GetDirectXVersion@SystemInfo@@AAEXXZ 004338c0 f   system_info.obj
 0001:00032990       ??0SystemInfo@@QAE@XZ      00433990 f   system_info.obj
 0001:00032a00       ?WndProc@@YGJPAUHWND__@@IIJ@Z 00433a00 f   window_manager_win32.obj
 0001:00032a50       ?SaveDesktop@WindowManagerWin32@@QAEXXZ 00433a50 f   window_manager_win32.obj
 0001:00032ad0       ?RestoreDesktop@WindowManagerWin32@@QAEXXZ 00433ad0 f   window_manager_win32.obj
 0001:00032ba0       ?EnableOpenGL@WindowManagerWin32@@QAE_NHH@Z 00433ba0 f   window_manager_win32.obj
 0001:00032cb0       ?CreateWin@WindowManagerWin32@@UAE_NHH_NHHH00PBG@Z 00433cb0 f   window_manager_win32.obj
 0001:00032ee0       ?DestroyWin@WindowManagerWin32@@UAEXXZ 00433ee0 f   window_manager_win32.obj
 0001:00032f20       ?Window@WindowManagerWin32@@UAEPAPAXXZ 00433f20 f   window_manager_win32.obj
 0001:00032f20       ?NumEntities@Unit@@QAEHXZ  00433f20 f   unit.obj
 0001:00032f30       ?Flip@WindowManagerWin32@@UAEXXZ 00433f30 f   window_manager_win32.obj
 0001:00032f40       ?NastyPollForMessages@WindowManagerWin32@@UAEXXZ 00433f40 f   window_manager_win32.obj
 0001:00032fa0       ?NastySetMousePos@WindowManagerWin32@@UAEXHH@Z 00433fa0 f   window_manager_win32.obj
 0001:00033020       ?NastyMoveMouse@WindowManagerWin32@@UAEXHH@Z 00434020 f   window_manager_win32.obj
 0001:00033070       ?CaptureMouse@WindowManagerWin32@@UAEXXZ 00434070 f   window_manager_win32.obj
 0001:00033090       ?UncaptureMouse@WindowManagerWin32@@UAEXXZ 00434090 f   window_manager_win32.obj
 0001:000330a0       ?HideMousePointer@WindowManagerWin32@@UAEXXZ 004340a0 f   window_manager_win32.obj
 0001:000330c0       ?UnhideMousePointer@WindowManagerWin32@@UAEXXZ 004340c0 f   window_manager_win32.obj
 0001:000330e0       ?OpenWebsite@WindowManagerWin32@@UAEXPBD@Z 004340e0 f   window_manager_win32.obj
 0001:00033100       ?FindData@?$LList@H@@QAEHABH@Z 00434100 f i window_manager_win32.obj
 0001:00033100       ?FindData@?$LList@PAVEclButton@@@@QAEHABQAVEclButton@@@Z 00434100 f i leaderboards_window.obj
 0001:00033150       ?ListAllDisplayModes@WindowManagerWin32@@UAEXXZ 00434150 f   window_manager_win32.obj
 0001:00033290       ??0WindowManagerWin32@@QAE@XZ 00434290 f   window_manager_win32.obj
 0001:00033310       _WinMain@16                00434310 f   window_manager_win32.obj
 0001:00033350       ?Empty@WorkQueue@@QBE_NXZ  00434350 f   work_queue.obj
 0001:00033370       ??1WorkQueue@@QAE@XZ       00434370 f   work_queue.obj
 0001:00033450       ?Run@WorkQueue@@AAEXXZ     00434450 f   work_queue.obj
 0001:00033520       ?RunThread@WorkQueue@@CAXPAV1@@Z 00434520 f   work_queue.obj
 0001:00033530       ??0WorkQueue@@QAE@XZ       00434530 f   work_queue.obj
 0001:000335d0       ?GetFront@Camera@@QAE?AVVector3@@XZ 004345d0 f i 3d_sprite.obj
 0001:00033600       ?GetUp@Camera@@QAE?AVVector3@@XZ 00434600 f i 3d_sprite.obj
 0001:00033680       ?Render3DSprite@@YAXABVVector3@@MMH@Z 00434680 f   3d_sprite.obj
 0001:00033860       ?ReadBMPFileHeader@BitmapRGBA@@AAEXPAVBinaryReader@@PAVBitmapFileHeader@@@Z 00434860 f   bitmap.obj
 0001:000338d0       ?ReadWinBMPInfoHeader@BitmapRGBA@@AAEXPAVBinaryReader@@PAVBitmapInfoHeader@@@Z 004348d0 f   bitmap.obj
 0001:00033960       ?ReadOS2BMPInfoHeader@BitmapRGBA@@AAEXPAVBinaryReader@@PAVBitmapInfoHeader@@@Z 00434960 f   bitmap.obj
 0001:000339c0       ?ReadBMPPalette@BitmapRGBA@@AAEXHQAVRGBAColour@@PAVBinaryReader@@H@Z 004349c0 f   bitmap.obj
 0001:00033a30       ?WritePng@BitmapRGBA@@QAEXPAU_iobuf@@_N@Z 00434a30 f   bitmap.obj
 0001:00033c20       ??1BitmapRGBA@@QAE@XZ      00434c20 f   bitmap.obj
 0001:00033c50       ?Initialise@BitmapRGBA@@QAEXHH@Z 00434c50 f   bitmap.obj
 0001:00033cf0       ?PutPixel@BitmapRGBA@@QAEXHHABVRGBAColour@@@Z 00434cf0 f   bitmap.obj
 0001:00033d20       ?GetPixel@BitmapRGBA@@QBEABVRGBAColour@@HH@Z 00434d20 f   bitmap.obj
 0001:00033d40       ?DrawLine@BitmapRGBA@@QAEXHHHHABVRGBAColour@@@Z 00434d40 f   bitmap.obj
 0001:00033e30       ?GetInterpolatedPixel@BitmapRGBA@@QBE?AVRGBAColour@@MM@Z 00434e30 f   bitmap.obj
 0001:00034160       ?ConvertRedChannel@BitmapRGBA@@QAEXVRGBAColour@@@Z 00435160 f   bitmap.obj
 0001:000341e0       ?Blit@BitmapRGBA@@QAEXHHHHPBV1@HHHH_N@Z 004351e0 f   bitmap.obj
 0001:000343c0       ?ConvertColourToAlpha@BitmapRGBA@@QAEXXZ 004353c0 f   bitmap.obj
 0001:00034460       ?ConvertPinkToTransparent@BitmapRGBA@@QAEXXZ 00435460 f   bitmap.obj
 0001:00034510       ?Clear@BitmapRGBA@@QAEXABVRGBAColour@@@Z 00435510 f   bitmap.obj
 0001:00034570       ?SetMaxTextureSize@BitmapRGBA@@SAXH@Z 00435570 f   bitmap.obj
 0001:00034580       ?Read4BitLine@BitmapRGBA@@AAEXHPAVBinaryReader@@PAVRGBAColour@@H@Z 00435580 f   bitmap.obj
 0001:00034610       ?Read8BitLine@BitmapRGBA@@AAEXHPAVBinaryReader@@PAVRGBAColour@@H@Z 00435610 f   bitmap.obj
 0001:00034670       ?Read24BitLine@BitmapRGBA@@AAEXHPAVBinaryReader@@H@Z 00435670 f   bitmap.obj
 0001:00034710       ?Read32BitLine@BitmapRGBA@@AAEXHPAVBinaryReader@@H@Z 00435710 f   bitmap.obj
 0001:00034790       ?LoadBmp@BitmapRGBA@@AAEXPAVBinaryReader@@@Z 00435790 f   bitmap.obj
 0001:00034920       ?SavePng@BitmapRGBA@@QAEXPBD_N@Z 00435920 f   bitmap.obj
 0001:00034970       ??0BitmapRGBA@@QAE@ABV0@@Z 00435970 f   bitmap.obj
 0001:000349b0       ??0BitmapRGBA@@QAE@HH@Z    004359b0 f   bitmap.obj
 0001:000349e0       ?ApplyBlurFilter@BitmapRGBA@@QAEXM@Z 004359e0 f   bitmap.obj
 0001:00034dc0       ?ConvertToTexture@BitmapRGBA@@QBEH_N0@Z 00435dc0 f   bitmap.obj
 0001:00035070       ??0BitmapRGBA@@QAE@PAVBinaryReader@@PBD@Z 00436070 f   bitmap.obj
 0001:000350c0       ?Run@TextureToConvert@@MAEXXZ 004360c0 f i bitmap.obj
 0001:000350e0       ?ConvertToTextureAsync@BitmapRGBA@@QBEH_N0@Z 004360e0 f   bitmap.obj
 0001:000351c0       ??A?$DArray@VPersistRenderItem@@@@QAEAAVPersistRenderItem@@H@Z 004361c0 f i persisting_debug_render.obj
 0001:00035230       ??4PersistRenderItem@@QAEAAV0@ABV0@@Z 00436230 f i persisting_debug_render.obj
 0001:000352a0       ?Render@PersistingDebugRenderer@@QAEXXZ 004362a0 f   persisting_debug_render.obj
 0001:00035400       ?SetSize@?$FastDArray@VPersistRenderItem@@@@QAEXH@Z 00436400 f i persisting_debug_render.obj
 0001:000356a0       ?Set@RGBAColour@@QAEXEEEE@Z 004366a0 f   rgb_colour.obj
 0001:000356c0       ??XRGBAColour@@QAEABV0@M@Z 004366c0 f   rgb_colour.obj
 0001:00035790       ??8RGBAColour@@QBE_NABV0@@Z 00436790 f   rgb_colour.obj
 0001:000357c0       ??9RGBAColour@@QBE_NABV0@@Z 004367c0 f   rgb_colour.obj
 0001:000357f0       ??0RGBAColour@@QAE@EEEE@Z  004367f0 f   rgb_colour.obj
 0001:00035810       ??0RGBAColour@@QAE@H@Z     00436810 f   rgb_colour.obj
 0001:00035840       ??HRGBAColour@@QBE?AV0@ABV0@@Z 00436840 f   rgb_colour.obj
 0001:00035880       ??DRGBAColour@@QBE?AV0@M@Z 00436880 f   rgb_colour.obj
 0001:00035960       ??KRGBAColour@@QBE?AV0@M@Z 00436960 f   rgb_colour.obj
 0001:00035a50       ?AddWithClamp@RGBAColour@@QAEXABV1@@Z 00436a50 f   rgb_colour.obj
 0001:00035b70       ?ConvertToOpenGLFormat@Matrix34@@QBEPANXZ 00436b70 f i shape.obj
 0001:00035c00       ??DMatrix34@@QBE?AV0@ABV0@@Z 00436c00 f i shape.obj
 0001:00035c60       ??D@YA?AVVector3@@ABVMatrix34@@ABV0@@Z 00436c60 f i shape.obj
 0001:00035cc0       ??D@YA?AVVector3@@ABV0@ABVMatrix34@@@Z 00436cc0 f i shape.obj
 0001:00035d20       ??0SpherePackage@@QAE@ABVVector3@@N@Z 00436d20 f i shape.obj
 0001:00035d60       ??0ShapeMarker@@QAE@PAVTextReader@@PBD@Z 00436d60 f   shape.obj
 0001:00035f90       ??4Matrix34@@QAEAAV0@ABV0@@Z 00436f90 f i shape.obj
 0001:00035fe0       ?ParseNormalBlock@ShapeFragment@@IAEXPAVTextReader@@I@Z 00436fe0 f   shape.obj
 0001:00036180       ?ParseColourBlock@ShapeFragment@@IAEXPAVTextReader@@I@Z 00437180 f   shape.obj
 0001:000362c0       ?ParseVertexBlock@ShapeFragment@@IAEXPAVTextReader@@I@Z 004372c0 f   shape.obj
 0001:000363b0       ?ParseStripBlock@ShapeFragment@@IAEXPAVTextReader@@@Z 004373b0 f   shape.obj
 0001:000365f0       ?ParseAllStripBlocks@ShapeFragment@@IAEXPAVTextReader@@I@Z 004375f0 f   shape.obj
 0001:000366b0       ?ParseTriangleBlock@ShapeFragment@@IAEXPAVTextReader@@I@Z 004376b0 f   shape.obj
 0001:00036780       ?GenerateNormals@ShapeFragment@@IAEXXZ 00437780 f   shape.obj
 0001:000368e0       ?RegisterPositions@ShapeFragment@@QAEXPAVVector3@@I@Z 004378e0 f   shape.obj
 0001:00036ad0       ?RegisterColours@ShapeFragment@@QAEXPAVRGBAColour@@I@Z 00437ad0 f   shape.obj
 0001:00036b00       ?RenderSlow@ShapeFragment@@QAEXXZ 00437b00 f   shape.obj
 0001:00036c50       ?FlushDisplayList@Shape@@QAEXXZ 00437c50 f   shape.obj
 0001:00036c90       ?GetWorldMatrix@ShapeMarker@@QAE?AVMatrix34@@ABV2@@Z 00437c90 f   shape.obj
 0001:00036e10       ?ParsePositionBlock@ShapeFragment@@IAEXPAVTextReader@@I@Z 00437e10 f   shape.obj
 0001:00036fc0       ?Render@ShapeFragment@@QAEXN@Z 00437fc0 f   shape.obj
 0001:00037110       ?LookupFragment@ShapeFragment@@QAEPAV1@PBD@Z 00438110 f   shape.obj
 0001:00037170       ?LookupMarker@ShapeFragment@@QAEPAVShapeMarker@@PBD@Z 00438170 f   shape.obj
 0001:00037200       ?RenderHitCheck@ShapeFragment@@QAEXABVMatrix34@@@Z 00438200 f   shape.obj
 0001:00037450       ?RayHit@ShapeFragment@@QAE_NPAVRayPackage@@ABVMatrix34@@_N@Z 00438450 f   shape.obj
 0001:00037680       ?SphereHit@ShapeFragment@@QAE_NPAVSpherePackage@@ABVMatrix34@@_N@Z 00438680 f   shape.obj
 0001:000378a0       ?CalculateCentre@ShapeFragment@@QAEXABVMatrix34@@AAVVector3@@AAH@Z 004388a0 f   shape.obj
 0001:000379a0       ?CalculateRadius@ShapeFragment@@QAEXABVMatrix34@@ABVVector3@@AAN@Z 004389a0 f   shape.obj
 0001:00037ad0       ?ScaleRadius@ShapeFragment@@QAEXN@Z 00438ad0 f   shape.obj
 0001:00037b30       ?RenderSlow@Shape@@IAEXXZ  00438b30 f   shape.obj
 0001:00037b50       ?BuildDisplayList@Shape@@QAEXXZ 00438b50 f   shape.obj
 0001:00037c30       ?Render@Shape@@QAEXNABVMatrix34@@@Z 00438c30 f   shape.obj
 0001:00037cc0       ?RenderHitCheck@Shape@@QAEXABVMatrix34@@@Z 00438cc0 f   shape.obj
 0001:00037cd0       ?RayHit@Shape@@QAE_NPAVRayPackage@@ABVMatrix34@@_N@Z 00438cd0 f   shape.obj
 0001:00037ce0       ?SphereHit@Shape@@QAE_NPAVSpherePackage@@ABVMatrix34@@_N@Z 00438ce0 f   shape.obj
 0001:00037cf0       ?CalculateCentre@Shape@@QAE?AVVector3@@ABVMatrix34@@@Z 00438cf0 f   shape.obj
 0001:00037d40       ?CalculateRadius@Shape@@QAENABVMatrix34@@ABVVector3@@@Z 00438d40 f   shape.obj
 0001:00037d70       ?ScaleRadius@Shape@@QAEXN@Z 00438d70 f   shape.obj
 0001:00037d90       ?EmptyAndDelete@?$LList@PAVShapeMarker@@@@QAEXXZ 00438d90 f i shape.obj
 0001:00037e00       ??0ShapeFragment@@QAE@PAVTextReader@@PBD@Z 00438e00 f   shape.obj
 0001:000382b0       ??0ShapeFragment@@QAE@PBD0@Z 004392b0 f   shape.obj
 0001:00038490       ??1ShapeFragment@@QAE@XZ   00439490 f   shape.obj
 0001:00038590       ?ShapeHit@ShapeFragment@@QAE_NPAVShape@@ABVMatrix34@@1_N@Z 00439590 f   shape.obj
 0001:000386d0       ?Load@Shape@@IAEXPAVTextReader@@@Z 004396d0 f   shape.obj
 0001:00038ac0       ?ShapeHit@Shape@@QAE_NPAV1@ABVMatrix34@@1_N@Z 00439ac0 f   shape.obj
 0001:00038ad0       ?EmptyAndDelete@?$LList@PAVShapeFragment@@@@QAEXXZ 00439ad0 f i shape.obj
 0001:00038b20       ??0Shape@@QAE@PBD_N1@Z     00439b20 f   shape.obj
 0001:00038bf0       ??0Shape@@QAE@PAVTextReader@@_N1@Z 00439bf0 f   shape.obj
 0001:00038c30       ??1Shape@@QAE@XZ           00439c30 f   shape.obj
 0001:00038c80       ?ConsiderTriangle@Sphere@@AAEXHABVVector3@@00@Z 00439c80 f   sphere_renderer.obj
 0001:00038eb0       ?RenderLong@Sphere@@QAEXXZ 00439eb0 f   sphere_renderer.obj
 0001:00038ee0       ?Render@Sphere@@QAEXABVVector3@@M@Z 00439ee0 f   sphere_renderer.obj
 0001:00038f90       ??0Sphere@@QAE@XZ          00439f90 f   sphere_renderer.obj
 0001:00038fc0       ?GenerateDisplayList@Sphere@@QAEXXZ 00439fc0 f   sphere_renderer.obj
 0001:00039580       ??ZVector3@@QAEABV0@ABV0@@Z 0043a580 f i text_renderer.obj
 0001:000395b0       ?GetRight@Camera@@QAE?AVVector3@@XZ 0043a5b0 f i text_renderer.obj
 0001:000395f0       ?SetHorizScaleFactor@TextRenderer@@QAEXM@Z 0043a5f0 f   text_renderer.obj
 0001:00039600       ?SetHorizSpacingFactor@TextRenderer@@QAEXM@Z 0043a600 f   text_renderer.obj
 0001:00039610       ?AddUnicodeBitmapInfo@TextRenderer@@IAEXHHPADHMHH@Z 0043a610 f   text_renderer.obj
 0001:00039770       ?BuildOpenGlState@TextRenderer@@QAEXXZ 0043a770 f   text_renderer.obj
 0001:00039880       ?BeginText2D@TextRenderer@@QAEXXZ 0043a880 f   text_renderer.obj
 0001:000399e0       ?EndText2D@TextRenderer@@QAEXXZ 0043a9e0 f   text_renderer.obj
 0001:00039a40       ?GetTexCoordX@TextRenderer@@IAEMG@Z 0043aa40 f   text_renderer.obj
 0001:00039b00       ?GetTexCoordY@TextRenderer@@IAEMG@Z 0043ab00 f   text_renderer.obj
 0001:00039be0       ?GetTextureID@TextRenderer@@IAEHG@Z 0043abe0 f   text_renderer.obj
 0001:00039c40       ?SetRenderShadow@TextRenderer@@QAEX_N@Z 0043ac40 f   text_renderer.obj
 0001:00039c50       ?SetRenderOutline@TextRenderer@@QAEX_N@Z 0043ac50 f   text_renderer.obj
 0001:00039c60       ??0SaveGLFontDrawAttributes@?A0x79704532@@QAE@XZ 0043ac60 f i text_renderer.obj
 0001:00039d40       ??1SaveGLFontDrawAttributes@?A0x79704532@@QAE@XZ 0043ad40 f i text_renderer.obj
 0001:00039e00       ?GetTextWidth@TextRenderer@@QAEMIM@Z 0043ae00 f   text_renderer.obj
 0001:00039e30       ?IsUnicode@TextRenderer@@QAE_NXZ 0043ae30 f   text_renderer.obj
 0001:00039e40       ?Shutdown@TextRenderer@@QAEXXZ 0043ae40 f   text_renderer.obj
 0001:00039eb0       ?DrawText2DSimple@TextRenderer@@QAEXMMMABVUnicodeString@@@Z 0043aeb0 f   text_renderer.obj
 0001:0003a3d0       ?DrawText2D@TextRenderer@@QAAXMMMPBDZZ 0043b3d0 f   text_renderer.obj
 0001:0003a4b0       ?DrawText2D@TextRenderer@@QAEXMMMABVUnicodeString@@@Z 0043b4b0 f   text_renderer.obj
 0001:0003a4e0       ?DrawText3DSimple@TextRenderer@@QAEXABVVector3@@MABVUnicodeString@@@Z 0043b4e0 f   text_renderer.obj
 0001:0003acc0       ?DrawText3DCentre@TextRenderer@@QAAXABVVector3@@MPBDZZ 0043bcc0 f   text_renderer.obj
 0001:0003ae40       ?DrawText3DCentre@TextRenderer@@QAEXABVVector3@@MABVUnicodeString@@@Z 0043be40 f   text_renderer.obj
 0001:0003afd0       ?DrawText3D@TextRenderer@@QAEXABVVector3@@00MABVUnicodeString@@@Z 0043bfd0 f   text_renderer.obj
 0001:0003b4c0       ?GetTextWidthReal@TextRenderer@@QAEMABVUnicodeString@@M@Z 0043c4c0 f   text_renderer.obj
 0001:0003b800       ?DrawText2DRight@TextRenderer@@QAAXMMMPBDZZ 0043c800 f   text_renderer.obj
 0001:0003b910       ?DrawText2DRight@TextRenderer@@QAEXMMMABVUnicodeString@@@Z 0043c910 f   text_renderer.obj
 0001:0003b960       ?DrawText2DCentre@TextRenderer@@QAAXMMMPBDZZ 0043c960 f   text_renderer.obj
 0001:0003ba70       ?DrawText2DCentre@TextRenderer@@QAEXMMMABVUnicodeString@@@Z 0043ca70 f   text_renderer.obj
 0001:0003bad0       ?DrawText3DSimple@TextRenderer@@QAEXABVVector3@@MPBD@Z 0043cad0 f   text_renderer.obj
 0001:0003bb50       ?DrawText3D@TextRenderer@@QAAXABVVector3@@00MPBDZZ 0043cb50 f   text_renderer.obj
 0001:0003bc40       ?BuildUnicodeArray@TextRenderer@@QAEXXZ 0043cc40 f   text_renderer.obj
 0001:0003bea0       ?Initialise@TextRenderer@@QAEXPBD@Z 0043cea0 f   text_renderer.obj
 0001:0003bf90       ?GetData@Vector2@@QAEPANXZ 0043cf90 f   vector2.obj
 0001:0003bf90       ??0TextureUV@@QAE@XZ       0043cf90 f   texture_uv.obj
 0001:0003bf90       ?GetData@RGBAColour@@QBEPBEXZ 0043cf90 f   rgb_colour.obj
 0001:0003bf90       ?GetStringId@MultiwiniaGameParameter@@QAEPADXZ 0043cf90 f   multiwinia.obj
 0001:0003bf90       ??0NetLib@@QAE@XZ          0043cf90 f   net_lib.obj
 0001:0003bfa0       ??0TextureUV@@QAE@MM@Z     0043cfa0 f   texture_uv.obj
 0001:0003bfc0       ??4TextureUV@@QAEABV0@ABV0@@Z 0043cfc0 f   texture_uv.obj
 0001:0003bfe0       ?InitialiseOGLExtensions@@YAXXZ 0043cfe0 f   ogl_extensions.obj
 0001:0003c260       ?IsOGLExtensionSupported@@YAHPBD@Z 0043d260 f   ogl_extensions.obj
 0001:0003c2f0       ?IsOGLExtensionPerfectlySupported@@YAHPBD@Z 0043d2f0 f   ogl_extensions.obj
 0001:0003c370       ?SuggestDefaultRes@WindowManager@@UAEXPAH000@Z 0043d370 f   window_manager.obj
 0001:0003c3a0       ?Windowed@WindowManager@@QAE_NXZ 0043d3a0 f   window_manager.obj
 0001:0003c3b0       ?WindowMoved@WindowManager@@QAEXXZ 0043d3b0 f   window_manager.obj
 0001:0003c3c0       ?EnsureMouseCaptured@WindowManager@@UAEXXZ 0043d3c0 f   window_manager.obj
 0001:0003c3d0       ?EnsureMouseUncaptured@WindowManager@@UAEXXZ 0043d3d0 f   window_manager.obj
 0001:0003c3e0       ?GetResolutionId@WindowManager@@QAEHHH@Z 0043d3e0 f   window_manager.obj
 0001:0003c430       ??0WindowManager@@QAE@XZ   0043d430 f   window_manager.obj
 0001:0003c4a0       ??1WindowManager@@QAE@XZ   0043d4a0 f   window_manager.obj
 0001:0003c520       ?GetClosestResolution@WindowManager@@UAEXPAH00@Z 0043d520 f   window_manager.obj
 0001:0003c610       ??1Matrix@@QAE@XZ          0043d610 f i invert_matrix.obj
 0001:0003c620       ?set@Matrix@@QAEXN@Z       0043d620 f i invert_matrix.obj
 0001:0003c670       ?copy@Matrix@@AAEXABV1@@Z  0043d670 f i invert_matrix.obj
 0001:0003c710       ??0Matrix@@QAE@HH@Z        0043d710 f i invert_matrix.obj
 0001:0003c780       ?inv@@YANVMatrix@@AAV1@@Z  0043d780 f   invert_matrix.obj
 0001:0003d170       ?InvertMatrix@@YAXPAN0HH@Z 0043e170 f   invert_matrix.obj
 0001:0003d3a0       ?Log2@@YANN@Z              0043e3a0 f   math_utils.obj
 0001:0003d440       ?RampUpAndDown@@YANNNN@Z   0043e440 f   math_utils.obj
 0001:0003d4a0       ?RequireSquareTextures@@YA_NXZ 0043e4a0 f   math_utils.obj
 0001:0003d4e0       ?RequirePowerOfTwoTextures@@YA_NXZ 0043e4e0 f   math_utils.obj
 0001:0003d520       ?nearestPowerOfTwo@@YAII@Z 0043e520 f   math_utils.obj
 0001:0003d550       ?GetPlaneMatrix@@YAXABVVector3@@00PAVMatrix34@@@Z 0043e550 f   math_utils.obj
 0001:0003d650       ?ConvertPlaneSpaceIntoWorldSpace@@YAXABVVector2@@ABVMatrix34@@PAVVector3@@@Z 0043e650 f   math_utils.obj
 0001:0003d6a0       ?CalcTriArea@@YANABVVector2@@00@Z 0043e6a0 f   math_utils.obj
 0001:0003d6f0       ?IsPointInTriangle@@YA_NABVVector2@@000@Z 0043e6f0 f   math_utils.obj
 0001:0003d820       ?PointSegDist2D@@YANABVVector2@@00PAV1@@Z 0043e820 f   math_utils.obj
 0001:0003d960       ?SegRayIntersection2D@@YA_NABVVector2@@000PAV1@@Z 0043e960 f   math_utils.obj
 0001:0003da20       ?RayTriIntersection@@YA_NABVVector3@@0000NPAV1@@Z 0043ea20 f   math_utils.obj
 0001:0003dc20       ?RaySphereIntersection@@YA_NABVVector3@@00NNPAV1@1@Z 0043ec20 f   math_utils.obj
 0001:0003dd30       ?RayPlaneIntersection@@YAHABVVector3@@0ABVPlane@@PAV1@@Z 0043ed30 f   math_utils.obj
 0001:0003de20       ?SphereSphereIntersection@@YA_NABVVector3@@N0N@Z 0043ee20 f   math_utils.obj
 0001:0003de70       ?SphereTriangleIntersection@@YA_NABVVector3@@N000@Z 0043ee70 f   math_utils.obj
 0001:0003e280       ?RayRayDist@@YANABVVector3@@000PAV1@1@Z 0043f280 f   math_utils.obj
 0001:0003e430       ??D@YA?AVVector3@@NABV0@@Z 0043f430 f i matrix33.obj
 0001:0003e460       ??0Matrix33@@QAE@XZ        0043f460 f   matrix33.obj
 0001:0003e480       ?RotateAroundX@Matrix33@@QAEABV1@N@Z 0043f480 f   matrix33.obj
 0001:0003e530       ?RotateAroundY@Matrix33@@QAEABV1@N@Z 0043f530 f   matrix33.obj
 0001:0003e5e0       ?RotateAroundZ@Matrix33@@QAEABV1@N@Z 0043f5e0 f   matrix33.obj
 0001:0003e690       ?RotateAround@Matrix33@@QAEABV1@ABVVector3@@N@Z 0043f690 f   matrix33.obj
 0001:0003e9c0       ?SetToIdentity@Matrix33@@QAEXXZ 0043f9c0 f   matrix33.obj
 0001:0003e9e0       ??XMatrix33@@QAEABV0@ABV0@@Z 0043f9e0 f   matrix33.obj
 0001:0003eaf0       ??0Matrix33@@QAE@H@Z       0043faf0 f   matrix33.obj
 0001:0003eb30       ??0Matrix33@@QAE@NNN@Z     0043fb30 f   matrix33.obj
 0001:0003eba0       ??0Matrix34@@QAE@ABVVector3@@00@Z 0043fba0 f i matrix34.obj
 0001:0003ec90       ?RotateAroundF@Matrix34@@QAEABV1@N@Z 0043fc90 f   matrix34.obj
 0001:0003ed40       ?FastRotateAround@Matrix34@@QAEABV1@ABVVector3@@N@Z 0043fd40 f   matrix34.obj
 0001:0003ed40       ?FastRotateAround@Matrix33@@QAEABV1@ABVVector3@@N@Z 0043fd40 f   matrix33.obj
 0001:0003efa0       ?SetToIdentity@Matrix34@@QAEXXZ 0043ffa0 f   matrix34.obj
 0001:0003efc0       ?Normalise@Matrix34@@QAEXXZ 0043ffc0 f   matrix34.obj
 0001:0003f040       ??8Matrix34@@QBE_NABV0@@Z  00440040 f   matrix34.obj
 0001:0003f090       ?RotateAround@Matrix34@@QAEABV1@ABVVector3@@@Z 00440090 f   matrix34.obj
 0001:0003f120       ??XMatrix34@@QAEABV0@ABV0@@Z 00440120 f   matrix34.obj
 0001:0003f290       ??0Plane@@QAE@ABVVector3@@00@Z 00440290 f   plane.obj
 0001:0003f330       ?GetCartesianDefinition@Plane@@QBEXPAN000@Z 00440330 f   plane.obj
 0001:0003f360       ?Compare@Vector2@@ABE_NABV1@@Z 00440360 f   vector2.obj
 0001:0003f3c0       ??0Vector2@@QAE@XZ         004403c0 f   vector2.obj
 0001:0003f3d0       ??0Vector2@@QAE@ABVVector3@@@Z 004403d0 f   vector2.obj
 0001:0003f3f0       ??0Vector2@@QAE@NN@Z       004403f0 f   vector2.obj
 0001:0003f410       ?Zero@Vector2@@QAEXXZ      00440410 f   vector2.obj
 0001:0003f420       ?Set@Vector2@@QAEXNN@Z     00440420 f   vector2.obj
 0001:0003f430       ??TVector2@@QBENABV0@@Z    00440430 f   vector2.obj
 0001:0003f450       ??DVector2@@QBENABV0@@Z    00440450 f   vector2.obj
 0001:0003f470       ??HVector2@@QBE?AV0@ABV0@@Z 00440470 f   vector2.obj
 0001:0003f490       ??GVector2@@QBE?AV0@ABV0@@Z 00440490 f   vector2.obj
 0001:0003f4b0       ??DVector2@@QBE?AV0@N@Z    004404b0 f   vector2.obj
 0001:0003f4d0       ??KVector2@@QBE?AV0@N@Z    004404d0 f   vector2.obj
 0001:0003f4f0       ??4Vector2@@QAEXABV0@@Z    004404f0 f   vector2.obj
 0001:0003f510       ??4Vector2@@QAEXABVVector3@@@Z 00440510 f   vector2.obj
 0001:0003f530       ??XVector2@@QAEXN@Z        00440530 f   vector2.obj
 0001:0003f550       ??YVector2@@QAEXABV0@@Z    00440550 f   vector2.obj
 0001:0003f570       ?Normalise@Vector2@@QAEABV1@XZ 00440570 f   vector2.obj
 0001:0003f5d0       ?Mag@Vector2@@QBENXZ       004405d0 f   vector2.obj
 0001:0003f600       ?MagSquared@Vector2@@QBENXZ 00440600 f   vector2.obj
 0001:0003f610       ??9Vector2@@QBE_NABV0@@Z   00440610 f   vector2.obj
 0001:0003f630       ?SetLength@Vector2@@QAEXN@Z 00440630 f   vector2.obj
 0001:0003f670       ?FromRand@@YANABURandomFloat@@@Z 00440670 f   vector3.obj
 0001:0003f690       ?FromRand@@YANABUSymmetricRandomFloat@@@Z 00440690 f   vector3.obj
 0001:0003f6b0       ?FastRotateAround@Vector3@@QAEXABV1@N@Z 004406b0 f   vector3.obj
 0001:0003f7d0       ?RotateAround@Vector3@@QAEXABV1@@Z 004407d0 f   vector3.obj
 0001:0003f860       ??8Vector3@@QBE_NABV0@@Z   00440860 f   vector3.obj
 0001:0003f8b0       ??9Vector3@@QBE_NABV0@@Z   004408b0 f   vector3.obj
 0001:0003f910       ?RotateAroundX@Vector3@@QAEXN@Z 00440910 f   vector3.obj
 0001:0003f940       ?RotateAroundY@Vector3@@QAEXN@Z 00440940 f   vector3.obj
 0001:0003f960       ?RotateAroundZ@Vector3@@QAEXN@Z 00440960 f   vector3.obj
 0001:0003f990       ?IsOpen@BinaryFileReader@@UAE_NXZ 00440990 f   binary_stream_readers.obj
 0001:0003f9a0       ?ReadU8@BinaryFileReader@@UAEEXZ 004409a0 f   binary_stream_readers.obj
 0001:0003f9a0       ?ReadS8@BinaryFileReader@@UAECXZ 004409a0 f   binary_stream_readers.obj
 0001:0003f9c0       ?ReadS16@BinaryFileReader@@UAEFXZ 004409c0 f   binary_stream_readers.obj
 0001:0003fa00       ?ReadS32@BinaryFileReader@@UAEHXZ 00440a00 f   binary_stream_readers.obj
 0001:0003fa60       ?ReadBytes@BinaryFileReader@@UAEIIPAE@Z 00440a60 f   binary_stream_readers.obj
 0001:0003fa90       ?Seek@BinaryFileReader@@UAEHHH@Z 00440a90 f   binary_stream_readers.obj
 0001:0003fab0       ?Tell@BinaryFileReader@@UAEHXZ 00440ab0 f   binary_stream_readers.obj
 0001:0003fac0       ?ReadU8@BinaryDataReader@@UAEEXZ 00440ac0 f   binary_stream_readers.obj
 0001:0003fac0       ?ReadS8@BinaryDataReader@@UAECXZ 00440ac0 f   binary_stream_readers.obj
 0001:0003fae0       ?ReadS16@BinaryDataReader@@UAEFXZ 00440ae0 f   binary_stream_readers.obj
 0001:0003fb10       ?ReadS32@BinaryDataReader@@UAEHXZ 00440b10 f   binary_stream_readers.obj
 0001:0003fb80       ?ReadBytes@BinaryDataReader@@UAEIIPAE@Z 00440b80 f   binary_stream_readers.obj
 0001:0003fbd0       ?Seek@BinaryDataReader@@UAEHHH@Z 00440bd0 f   binary_stream_readers.obj
 0001:0003fc30       ?rfind@?$basic_string@DU?$char_traits@D@std@@V?$allocator@D@2@@std@@QBEIPBDII@Z 00440c30 f i binary_stream_readers.obj
 0001:0003fce0       ?GetFileType@BinaryReader@@UAEPBDXZ 00440ce0 f   binary_stream_readers.obj
 0001:0003fd30       ??1BinaryReader@@UAE@XZ    00440d30 f   binary_stream_readers.obj
 0001:0003fd60       ??_EBinaryFileReader@@UAEPAXI@Z 00440d60 f i binary_stream_readers.obj
 0001:0003fd60       ??_GBinaryFileReader@@UAEPAXI@Z 00440d60 f i binary_stream_readers.obj
 0001:0003fdc0       ??4?$basic_string@DU?$char_traits@D@std@@V?$allocator@D@2@@std@@QAEAAV01@PBD@Z 00440dc0 f i binary_stream_readers.obj
 0001:0003fdc0       ?assign@?$basic_string@DU?$char_traits@D@std@@V?$allocator@D@2@@std@@QAEAAV12@PBD@Z 00440dc0 f i prefs_keybindings_window.obj
 0001:0003fdf0       ??0BinaryFileReader@@QAE@PBD@Z 00440df0 f   binary_stream_readers.obj
 0001:0003ff20       ??0BinaryDataReader@@QAE@PBEIPBD@Z 00440f20 f   binary_stream_readers.obj
 0001:0003ffd0       ??_EBinaryDataReader@@UAEPAXI@Z 00440fd0 f i binary_stream_readers.obj
 0001:0003ffd0       ??_GBinaryDataReader@@UAEPAXI@Z 00440fd0 f i binary_stream_readers.obj
 0001:0003ffd0       ??_EBinaryReader@@UAEPAXI@Z 00440fd0 f i binary_stream_readers.obj
 0001:0003ffd0       ??_GBinaryReader@@UAEPAXI@Z 00440fd0 f i binary_stream_readers.obj
 0001:00040010       ?OrderedInsert@@YAXPAV?$LList@PAD@@PBD@Z 00441010 f   file_system.obj
 0001:00040130       ?DoesFileExist@@YA_NPBD@Z  00441130 f   filesys_utils.obj
 0001:00040160       ?ConcatPaths@@YAPADPBDZZ   00441160 f   filesys_utils.obj
 0001:00040210       ?GetDirectoryPart@@YAPADPBD@Z 00441210 f   filesys_utils.obj
 0001:00040250       ?GetFilenamePart@@YAPADPBD@Z 00441250 f   filesys_utils.obj
 0001:00040280       ?GetExtensionPart@@YAPBDPBD@Z 00441280 f   filesys_utils.obj
 0001:000402b0       ?RemoveExtension@@YAPADPBD@Z 004412b0 f   filesys_utils.obj
 0001:000402f0       ?CreateDirectoryA@@YA_NPBD@Z 004412f0 f   filesys_utils.obj
 0001:00040320       ?CreateDirectoryRecursively@@YA_NPBD@Z 00441320 f   filesys_utils.obj
 0001:00040410       ?DeleteThisFile@@YAXPBD@Z  00441410 f   filesys_utils.obj
 0001:00040420       ?IsDirectory@@YA_NPBD@Z    00441420 f   filesys_utils.obj
 0001:00040440       ?ListDirectory@@YAPAV?$LList@PAD@@PBD0_N@Z 00441440 f   filesys_utils.obj
 0001:000406a0       ?ListSubDirectoryNames@@YAPAV?$LList@PAD@@PBD@Z 004416a0 f   filesys_utils.obj
 0001:00040820       ?FindCaseInsensitive@@YA?AV?$basic_string@DU?$char_traits@D@std@@V?$allocator@D@2@@std@@ABV12@@Z 00441820 f   filesys_utils.obj
 0001:00040850       ??1TextWriter@@UAE@XZ      00441850 f i text_file_writer.obj
 0001:00040860       ??_ETextWriter@@UAEPAXI@Z  00441860 f i text_file_writer.obj
 0001:00040860       ??_GTextWriter@@UAEPAXI@Z  00441860 f i text_file_writer.obj
 0001:00040880       ??1TextFileWriter@@UAE@XZ  00441880 f   text_file_writer.obj
 0001:000408b0       ??BTextFileWriter@@UBE_NXZ 004418b0 f   text_file_writer.obj
 0001:000408c0       ?printf@TextFileWriter@@UAAHPADZZ 004418c0 f   text_file_writer.obj
 0001:000409a0       ??_ETextFileWriter@@UAEPAXI@Z 004419a0 f i text_file_writer.obj
 0001:000409a0       ??_GTextFileWriter@@UAEPAXI@Z 004419a0 f i text_file_writer.obj
 0001:000409e0       ??0TextFileWriter@@QAE@PAD_N1@Z 004419e0 f   text_file_writer.obj
 0001:00040b40       ?IsUnicode@TextReader@@QAE_NXZ 00441b40 f   text_stream_readers.obj
 0001:00040b50       ??BTextReader@@QBE_NXZ     00441b50 f   text_stream_readers.obj
 0001:00040b60       ?CleanLine@TextReader@@MAEXXZ 00441b60 f   text_stream_readers.obj
 0001:00040c80       ?SetSeperatorChars@TextReader@@UAEXPBD@Z 00441c80 f   text_stream_readers.obj
 0001:00040ca0       ?SetDefaultSeperatorChars@TextReader@@UAEXXZ 00441ca0 f   text_stream_readers.obj
 0001:00040cc0       ?TokenAvailable@TextReader@@UAE_NXZ 00441cc0 f   text_stream_readers.obj
 0001:00040d00       ?GetNextToken@TextReader@@QAEPADXZ 00441d00 f   text_stream_readers.obj
 0001:00040db0       ?GetRestOfLine@TextReader@@QAEPADXZ 00441db0 f   text_stream_readers.obj
 0001:00040e00       ?IsOpen@TextFileReader@@UBE_NXZ 00441e00 f   text_stream_readers.obj
 0001:00040e20       ?ReadLine@TextFileReader@@UAE_NXZ 00441e20 f   text_stream_readers.obj
 0001:00040ee0       ?ReadLine@TextDataReader@@UAE_NXZ 00441ee0 f   text_stream_readers.obj
 0001:00040fc0       ?GetNextUnicodeToken@TextReader@@UAEABVUnicodeString@@XZ 00441fc0 f   text_stream_readers.obj
 0001:00041080       ?GetRestOfUnicodeLine@TextReader@@UAEABVUnicodeString@@XZ 00442080 f   text_stream_readers.obj
 0001:00041140       ?GetFilename@TextReader@@QAEPBDXZ 00442140 f   text_stream_readers.obj
 0001:00041150       ??0TextReader@@QAE@XZ      00442150 f   text_stream_readers.obj
 0001:00041220       ??1TextReader@@UAE@XZ      00442220 f   text_stream_readers.obj
 0001:000412c0       ??1TextFileReader@@UAE@XZ  004422c0 f   text_stream_readers.obj
 0001:000412f0       ??_ETextDataReader@@UAEPAXI@Z 004422f0 f i text_stream_readers.obj
 0001:000412f0       ??_ETextReader@@UAEPAXI@Z  004422f0 f i text_stream_readers.obj
 0001:000412f0       ??_GTextDataReader@@UAEPAXI@Z 004422f0 f i text_stream_readers.obj
 0001:000412f0       ??_GTextReader@@UAEPAXI@Z  004422f0 f i text_stream_readers.obj
 0001:00041310       ??_GTextFileReader@@UAEPAXI@Z 00442310 f i text_stream_readers.obj
 0001:00041310       ??_ETextFileReader@@UAEPAXI@Z 00442310 f i text_stream_readers.obj
 0001:00041350       ??0TextFileReader@@QAE@PBD@Z 00442350 f   text_stream_readers.obj
 0001:00041460       ??0TextDataReader@@QAE@PBDI0@Z 00442460 f   text_stream_readers.obj
 0001:000414f0       ??0UnicodeTextFileWriter@@QAE@PAD_N1@Z 004424f0 f   unicode_text_file_writer.obj
 0001:000415a0       ??BUnicodeTextFileWriter@@UBE_NXZ 004425a0 f   unicode_text_file_writer.obj
 0001:000415b0       ?printf@UnicodeTextFileWriter@@QAAHPAGZZ 004425b0 f   unicode_text_file_writer.obj
 0001:00041690       ??_GUnicodeTextFileWriter@@UAEPAXI@Z 00442690 f i unicode_text_file_writer.obj
 0001:00041690       ??_EUnicodeTextFileWriter@@UAEPAXI@Z 00442690 f i unicode_text_file_writer.obj
 0001:000416b0       ?printf@UnicodeTextFileWriter@@QAEHVUnicodeString@@@Z 004426b0 f   unicode_text_file_writer.obj
 0001:000416d0       ??AControlBindings@@QBEABV?$auto_vector@$$CBUInputSpec@@@@W4ControlType@@@Z 004426d0 f   control_bindings.obj
 0001:000416e0       ?Advance@ControlBindings@@QAEXXZ 004426e0 f   control_bindings.obj
 0001:00041700       ?suppress@ControlBindings@@QAEXW4ControlType@@@Z 00442700 f   control_bindings.obj
 0001:00041710       ?isActive@ControlBindings@@QBE_NW4ControlType@@@Z 00442710 f   control_bindings.obj
 0001:00041730       ?getControlID@ControlBindings@@SAHABV?$basic_string@DU?$char_traits@D@std@@V?$allocator@D@2@@std@@@Z 00442730 f   control_bindings.obj
 0001:00041780       ?erase@?$vector@PBUInputSpec@@V?$allocator@PBUInputSpec@@@std@@@std@@QAE?AV?$_Vector_iterator@PBUInputSpec@@V?$allocator@PBUInputSpec@@@std@@@2@V?$_Vector_const_iterator@PBUInputSpec@@V?$allocator@PBUInputSpec@@@std@@@2@@Z 00442780 f i control_bindings.obj
 0001:000417e0       ?_Ufill@?$vector@PAVHelpIcon@@V?$allocator@PAVHelpIcon@@@std@@@std@@IAEPAPAVHelpIcon@@PAPAV3@IABQAV3@@Z 004427e0 f i control_help.obj
 0001:000417e0       ?_Ufill@?$vector@PAV?$auto_vector@$$CBUInputSpec@@@@V?$allocator@PAV?$auto_vector@$$CBUInputSpec@@@@@std@@@std@@IAEPAPAV?$auto_vector@$$CBUInputSpec@@@@PAPAV3@IABQAV3@@Z 004427e0 f i inputdriver_chord.obj
 0001:000417e0       ?_Ufill@?$vector@PBUInputSpec@@V?$allocator@PBUInputSpec@@@std@@@std@@IAEPAPBUInputSpec@@PAPBU3@IABQBU3@@Z 004427e0 f i control_bindings.obj
 0001:000417e0       ?_Ufill@?$vector@PAVW32EventProcessor@@V?$allocator@PAVW32EventProcessor@@@std@@@std@@IAEPAPAVW32EventProcessor@@PAPAV3@IABQAV3@@Z 004427e0 f i win32_eventhandler.obj
 0001:000417e0       ?_Ufill@?$vector@PAVInputDriver@@V?$allocator@PAVInputDriver@@@std@@@std@@IAEPAPAVInputDriver@@PAPAV3@IABQAV3@@Z 004427e0 f i input.obj
 0001:000417e0       ?_Ufill@?$vector@HV?$allocator@H@std@@@std@@IAEPAHPAHIABH@Z 004427e0 f i directory.obj
 0001:000417e0       ?_Ufill@?$vector@PAV?$basic_string@DU?$char_traits@D@std@@V?$allocator@D@2@@std@@V?$allocator@PAV?$basic_string@DU?$char_traits@D@std@@V?$allocator@D@2@@std@@@2@@std@@IAEPAPAV?$basic_string@DU?$char_traits@D@std@@V?$allocator@D@2@@2@PAPAV32@IABQAV32@@Z 004427e0 f i inputdriver_prefs.obj
 0001:00041810       ?ToIter@?$auto_vector@$$CBUInputSpec@@@@QAE?AV?$_Vector_iterator@PBUInputSpec@@V?$allocator@PBUInputSpec@@@std@@@std@@I@Z 00442810 f i control_bindings.obj
 0001:00041870       ?erase@?$auto_vector@$$CBUInputSpec@@@@QAEXI@Z 00442870 f i control_bindings.obj
 0001:000418f0       ?clear@?$auto_vector@$$CBUInputSpec@@@@QAEXXZ 004428f0 f i control_bindings.obj
 0001:00041960       ?setIcon@ControlBindings@@QAEXHABV?$basic_string@DU?$char_traits@D@std@@V?$allocator@D@2@@std@@@Z 00442960 f   control_bindings.obj
 0001:000419b0       ??1?$auto_vector@$$CBUInputSpec@@@@QAE@XZ 004429b0 f i control_bindings.obj
 0001:000419f0       ?insert@?$auto_vector@$$CBUInputSpec@@@@QAEXIV?$auto_ptr@$$CBUInputSpec@@@std@@@Z 004429f0 f i control_bindings.obj
 0001:00041aa0       ??_F?$auto_vector@$$CBUInputSpec@@@@QAEXXZ 00442aa0 f i control_bindings.obj
 0001:00041ab0       ?push_back@?$auto_vector@$$CBUInputSpec@@@@QAEXV?$auto_ptr@$$CBUInputSpec@@@std@@@Z 00442ab0 f i control_bindings.obj
 0001:00041b10       ??0ControlBindings@@QAE@XZ 00442b10 f   control_bindings.obj
 0001:00041ba0       ?bind@ControlBindings@@QAE_NHABUInputSpec@@_N@Z 00442ba0 f   control_bindings.obj
 0001:00041cc0       ?_Max@?$_Tree@V?$_Tmap_traits@HV?$basic_string@DU?$char_traits@D@std@@V?$allocator@D@2@@std@@U?$less@H@2@V?$allocator@U?$pair@$$CBHV?$basic_string@DU?$char_traits@D@std@@V?$allocator@D@2@@std@@@std@@@2@$0A@@std@@@std@@KAPAU_Node@?$_Tree_nod@V?$_Tmap_traits@HV?$basic_string@DU?$char_traits@D@std@@V?$allocator@D@2@@std@@U?$less@H@2@V?$allocator@U?$pair@$$CBHV?$basic_string@DU?$char_traits@D@std@@V?$allocator@D@2@@std@@@std@@@2@$0A@@std@@@2@PAU342@@Z 00442cc0 f i file_paths.obj
 0001:00041ce0       ?_Min@?$_Tree@V?$_Tmap_traits@HV?$basic_string@DU?$char_traits@D@std@@V?$allocator@D@2@@std@@U?$less@H@2@V?$allocator@U?$pair@$$CBHV?$basic_string@DU?$char_traits@D@std@@V?$allocator@D@2@@std@@@std@@@2@$0A@@std@@@std@@KAPAU_Node@?$_Tree_nod@V?$_Tmap_traits@HV?$basic_string@DU?$char_traits@D@std@@V?$allocator@D@2@@std@@U?$less@H@2@V?$allocator@U?$pair@$$CBHV?$basic_string@DU?$char_traits@D@std@@V?$allocator@D@2@@std@@@std@@@2@$0A@@std@@@2@PAU342@@Z 00442ce0 f i file_paths.obj
 0001:00041d00       ?_Inc@const_iterator@?$_Tree@V?$_Tmap_traits@HV?$basic_string@DU?$char_traits@D@std@@V?$allocator@D@2@@std@@U?$less@H@2@V?$allocator@U?$pair@$$CBHV?$basic_string@DU?$char_traits@D@std@@V?$allocator@D@2@@std@@@std@@@2@$0A@@std@@@std@@QAEXXZ 00442d00 f i file_paths.obj
 0001:00041d70       ?_Lrotate@?$_Tree@V?$_Tmap_traits@HV?$basic_string@DU?$char_traits@D@std@@V?$allocator@D@2@@std@@U?$less@H@2@V?$allocator@U?$pair@$$CBHV?$basic_string@DU?$char_traits@D@std@@V?$allocator@D@2@@std@@@std@@@2@$0A@@std@@@std@@IAEXPAU_Node@?$_Tree_nod@V?$_Tmap_traits@HV?$basic_string@DU?$char_traits@D@std@@V?$allocator@D@2@@std@@U?$less@H@2@V?$allocator@U?$pair@$$CBHV?$basic_string@DU?$char_traits@D@std@@V?$allocator@D@2@@std@@@std@@@2@$0A@@std@@@2@@Z 00442d70 f i file_paths.obj
 0001:00041dc0       ?_Rrotate@?$_Tree@V?$_Tmap_traits@HV?$basic_string@DU?$char_traits@D@std@@V?$allocator@D@2@@std@@U?$less@H@2@V?$allocator@U?$pair@$$CBHV?$basic_string@DU?$char_traits@D@std@@V?$allocator@D@2@@std@@@std@@@2@$0A@@std@@@std@@IAEXPAU_Node@?$_Tree_nod@V?$_Tmap_traits@HV?$basic_string@DU?$char_traits@D@std@@V?$allocator@D@2@@std@@U?$less@H@2@V?$allocator@U?$pair@$$CBHV?$basic_string@DU?$char_traits@D@std@@V?$allocator@D@2@@std@@@std@@@2@$0A@@std@@@2@@Z 00442dc0 f i file_paths.obj
 0001:00041e20       ?_Dec@const_iterator@?$_Tree@V?$_Tmap_traits@HV?$basic_string@DU?$char_traits@D@std@@V?$allocator@D@2@@std@@U?$less@H@2@V?$allocator@U?$pair@$$CBHV?$basic_string@DU?$char_traits@D@std@@V?$allocator@D@2@@std@@@std@@@2@$0A@@std@@@std@@QAEXXZ 00442e20 f i file_paths.obj
 0001:00041eb0       ?_Buynode@?$_Tree@V?$_Tmap_traits@HV?$basic_string@DU?$char_traits@D@std@@V?$allocator@D@2@@std@@U?$less@H@2@V?$allocator@U?$pair@$$CBHV?$basic_string@DU?$char_traits@D@std@@V?$allocator@D@2@@std@@@std@@@2@$0A@@std@@@std@@IAEPAU_Node@?$_Tree_nod@V?$_Tmap_traits@HV?$basic_string@DU?$char_traits@D@std@@V?$allocator@D@2@@std@@U?$less@H@2@V?$allocator@U?$pair@$$CBHV?$basic_string@DU?$char_traits@D@std@@V?$allocator@D@2@@std@@@std@@@2@$0A@@std@@@2@XZ 00442eb0 f i file_paths.obj
 0001:00041ef0       ??$?8DU?$char_traits@D@std@@V?$allocator@D@1@@std@@YA_NABV?$basic_string@DU?$char_traits@D@std@@V?$allocator@D@2@@0@PBD@Z 00442ef0 f i file_paths.obj
 0001:00041f30       ??1?$pair@$$CBHV?$basic_string@DU?$char_traits@D@std@@V?$allocator@D@2@@std@@@std@@QAE@XZ 00442f30 f i file_paths.obj
 0001:00041f60       ?find@?$_Tree@V?$_Tmap_traits@HV?$basic_string@DU?$char_traits@D@std@@V?$allocator@D@2@@std@@U?$less@H@2@V?$allocator@U?$pair@$$CBHV?$basic_string@DU?$char_traits@D@std@@V?$allocator@D@2@@std@@@std@@@2@$0A@@std@@@std@@QAE?AViterator@12@ABH@Z 00442f60 f i file_paths.obj
 0001:00041ff0       ??0_Node@?$_Tree_nod@V?$_Tmap_traits@HV?$basic_string@DU?$char_traits@D@std@@V?$allocator@D@2@@std@@U?$less@H@2@V?$allocator@U?$pair@$$CBHV?$basic_string@DU?$char_traits@D@std@@V?$allocator@D@2@@std@@@std@@@2@$0A@@std@@@std@@QAE@PAU012@00ABU?$pair@$$CBHV?$basic_string@DU?$char_traits@D@std@@V?$allocator@D@2@@std@@@2@D@Z 00442ff0 f i file_paths.obj
 0001:00042050       ??$?HDU?$char_traits@D@std@@V?$allocator@D@1@@std@@YA?AV?$basic_string@DU?$char_traits@D@std@@V?$allocator@D@2@@0@ABV10@0@Z 00443050 f i file_paths.obj
 0001:00042100       ??Y?$basic_string@DU?$char_traits@D@std@@V?$allocator@D@2@@std@@QAEAAV01@PBD@Z 00443100 f i file_paths.obj
 0001:00042130       ?GetSystemPrefsPath@InputPrefs@@SAABV?$basic_string@DU?$char_traits@D@std@@V?$allocator@D@2@@std@@XZ 00443130 f   file_paths.obj
 0001:00042260       ?GetUserPrefsPath@InputPrefs@@SAABV?$basic_string@DU?$char_traits@D@std@@V?$allocator@D@2@@std@@XZ 00443260 f   file_paths.obj
 0001:00042350       ??0?$_Tree@V?$_Tmap_traits@HV?$basic_string@DU?$char_traits@D@std@@V?$allocator@D@2@@std@@U?$less@H@2@V?$allocator@U?$pair@$$CBHV?$basic_string@DU?$char_traits@D@std@@V?$allocator@D@2@@std@@@std@@@2@$0A@@std@@@std@@QAE@ABU?$less@H@1@ABV?$allocator@U?$pair@$$CBHV?$basic_string@DU?$char_traits@D@std@@V?$allocator@D@2@@std@@@std@@@1@@Z 00443350 f i file_paths.obj
 0001:000423e0       ?_Buynode@?$_Tree@V?$_Tmap_traits@HV?$basic_string@DU?$char_traits@D@std@@V?$allocator@D@2@@std@@U?$less@H@2@V?$allocator@U?$pair@$$CBHV?$basic_string@DU?$char_traits@D@std@@V?$allocator@D@2@@std@@@std@@@2@$0A@@std@@@std@@IAEPAU_Node@?$_Tree_nod@V?$_Tmap_traits@HV?$basic_string@DU?$char_traits@D@std@@V?$allocator@D@2@@std@@U?$less@H@2@V?$allocator@U?$pair@$$CBHV?$basic_string@DU?$char_traits@D@std@@V?$allocator@D@2@@std@@@std@@@2@$0A@@std@@@2@PAU342@00ABU?$pair@$$CBHV?$basic_string@DU?$char_traits@D@std@@V?$allocator@D@2@@std@@@2@D@Z 004433e0 f i file_paths.obj
 0001:00042480       ??$?HDU?$char_traits@D@std@@V?$allocator@D@1@@std@@YA?AV?$basic_string@DU?$char_traits@D@std@@V?$allocator@D@2@@0@ABV10@PBD@Z 00443480 f i file_paths.obj
 0001:00042540       ?_Insert@?$_Tree@V?$_Tmap_traits@HV?$basic_string@DU?$char_traits@D@std@@V?$allocator@D@2@@std@@U?$less@H@2@V?$allocator@U?$pair@$$CBHV?$basic_string@DU?$char_traits@D@std@@V?$allocator@D@2@@std@@@std@@@2@$0A@@std@@@std@@IAE?AViterator@12@_NPAU_Node@?$_Tree_nod@V?$_Tmap_traits@HV?$basic_string@DU?$char_traits@D@std@@V?$allocator@D@2@@std@@U?$less@H@2@V?$allocator@U?$pair@$$CBHV?$basic_string@DU?$char_traits@D@std@@V?$allocator@D@2@@std@@@std@@@2@$0A@@std@@@2@ABU?$pair@$$CBHV?$basic_string@DU?$char_traits@D@std@@V?$allocator@D@2@@std@@@2@@Z 00443540 f i file_paths.obj
 0001:00042710       ?erase@?$_Tree@V?$_Tmap_traits@HV?$basic_string@DU?$char_traits@D@std@@V?$allocator@D@2@@std@@U?$less@H@2@V?$allocator@U?$pair@$$CBHV?$basic_string@DU?$char_traits@D@std@@V?$allocator@D@2@@std@@@std@@@2@$0A@@std@@@std@@QAE?AViterator@12@Vconst_iterator@12@@Z 00443710 f i file_paths.obj
 0001:00042a00       ?_Erase@?$_Tree@V?$_Tmap_traits@HV?$basic_string@DU?$char_traits@D@std@@V?$allocator@D@2@@std@@U?$less@H@2@V?$allocator@U?$pair@$$CBHV?$basic_string@DU?$char_traits@D@std@@V?$allocator@D@2@@std@@@std@@@2@$0A@@std@@@std@@IAEXPAU_Node@?$_Tree_nod@V?$_Tmap_traits@HV?$basic_string@DU?$char_traits@D@std@@V?$allocator@D@2@@std@@U?$less@H@2@V?$allocator@U?$pair@$$CBHV?$basic_string@DU?$char_traits@D@std@@V?$allocator@D@2@@std@@@std@@@2@$0A@@std@@@2@@Z 00443a00 f i file_paths.obj
 0001:00042a60       ?insert@?$_Tree@V?$_Tmap_traits@HV?$basic_string@DU?$char_traits@D@std@@V?$allocator@D@2@@std@@U?$less@H@2@V?$allocator@U?$pair@$$CBHV?$basic_string@DU?$char_traits@D@std@@V?$allocator@D@2@@std@@@std@@@2@$0A@@std@@@std@@QAE?AU?$pair@Viterator@?$_Tree@V?$_Tmap_traits@HV?$basic_string@DU?$char_traits@D@std@@V?$allocator@D@2@@std@@U?$less@H@2@V?$allocator@U?$pair@$$CBHV?$basic_string@DU?$char_traits@D@std@@V?$allocator@D@2@@std@@@std@@@2@$0A@@std@@@std@@_N@2@ABU?$pair@$$CBHV?$basic_string@DU?$char_traits@D@std@@V?$allocator@D@2@@std@@@2@@Z 00443a60 f i file_paths.obj
 0001:00042b50       ?readLocaleNames@@YAXXZ    00443b50 f   file_paths.obj
 0001:00042cd0       ?GetKeyboardLayout@InputPrefs@@SA?AV?$basic_string@DU?$char_traits@D@std@@V?$allocator@D@2@@std@@XZ 00443cd0 f   file_paths.obj
 0001:00042e10       ?IsKeyboardFrenchLocale@InputPrefs@@SA_NXZ 00443e10 f   file_paths.obj
 0001:00042e90       ?GetLocalePrefsPath@InputPrefs@@SAABV?$basic_string@DU?$char_traits@D@std@@V?$allocator@D@2@@std@@XZ 00443e90 f   file_paths.obj
 0001:00043070       ?erase@?$_Tree@V?$_Tmap_traits@HV?$basic_string@DU?$char_traits@D@std@@V?$allocator@D@2@@std@@U?$less@H@2@V?$allocator@U?$pair@$$CBHV?$basic_string@DU?$char_traits@D@std@@V?$allocator@D@2@@std@@@std@@@2@$0A@@std@@@std@@QAE?AViterator@12@Vconst_iterator@12@0@Z 00444070 f i file_paths.obj
 0001:00043150       ??1?$_Tree@V?$_Tmap_traits@HV?$basic_string@DU?$char_traits@D@std@@V?$allocator@D@2@@std@@U?$less@H@2@V?$allocator@U?$pair@$$CBHV?$basic_string@DU?$char_traits@D@std@@V?$allocator@D@2@@std@@@std@@@2@$0A@@std@@@std@@QAE@XZ 00444150 f i file_paths.obj
 0001:000431d0       ??1?$map@HV?$basic_string@DU?$char_traits@D@std@@V?$allocator@D@2@@std@@U?$less@H@2@V?$allocator@U?$pair@$$CBHV?$basic_string@DU?$char_traits@D@std@@V?$allocator@D@2@@std@@@std@@@2@@std@@QAE@XZ 004441d0 f i file_paths.obj
 0001:000431e0       ?suppressEvent@InputManager@@QAEXW4ControlType@@@Z 004441e0 f   input.obj
 0001:000431f0       ?getControlID@InputManager@@QAEHABV?$basic_string@DU?$char_traits@D@std@@V?$allocator@D@2@@std@@@Z 004441f0 f   input.obj
 0001:00043200       ?isIdle@InputManager@@QAE_NXZ 00444200 f   input.obj
 0001:00043210       ?getInputMode@InputManager@@QAE?AW4InputMode@@XZ 00444210 f   input.obj
 0001:00043220       ?Advance@InputManager@@QAEXXZ 00444220 f   input.obj
 0001:000432d0       ?PollForEvents@InputManager@@QAEXXZ 004442d0 f   input.obj
 0001:00043310       ?checkInput@InputManager@@QAE_NABUInputSpec@@AAUInputDetails@@@Z 00444310 f   input.obj
 0001:00043350       ?getInputDescription@InputManager@@QAE_NABUInputSpec@@AAVInputDescription@@@Z 00444350 f   input.obj
 0001:00043390       ?controlEventA@InputManager@@AAE_NW4ControlType@@AAUInputDetails@@@Z 00444390 f   input.obj
 0001:00043440       ?controlEvent@InputManager@@QAE_NW4ControlType@@AAUInputDetails@@@Z 00444440 f   input.obj
 0001:00043450       ?controlEvent@InputManager@@QAE_NW4ControlType@@@Z 00444450 f   input.obj
 0001:00043480       ??$fill@PAHH@std@@YAXPAH0ABH@Z 00444480 f i directory.obj
 0001:00043480       ??$fill@PAPBUInputSpec@@PBU1@@std@@YAXPAPBUInputSpec@@0ABQBU1@@Z 00444480 f i control_bindings.obj
 0001:00043480       ??$fill@PAPAV?$auto_vector@$$CBUInputSpec@@@@PAV1@@std@@YAXPAPAV?$auto_vector@$$CBUInputSpec@@@@0ABQAV1@@Z 00444480 f i inputdriver_chord.obj
 0001:00043480       ??$fill@PAPAVW32EventProcessor@@PAV1@@std@@YAXPAPAVW32EventProcessor@@0ABQAV1@@Z 00444480 f i win32_eventhandler.obj
 0001:00043480       ??$fill@PAPAVHelpIcon@@PAV1@@std@@YAXPAPAVHelpIcon@@0ABQAV1@@Z 00444480 f i control_help.obj
 0001:00043480       ??$fill@PAPAV?$basic_string@DU?$char_traits@D@std@@V?$allocator@D@2@@std@@PAV12@@std@@YAXPAPAV?$basic_string@DU?$char_traits@D@std@@V?$allocator@D@2@@0@0ABQAV10@@Z 00444480 f i inputdriver_prefs.obj
 0001:00043480       ??$fill@PAPAVInputDriver@@PAV1@@std@@YAXPAPAVInputDriver@@0ABQAV1@@Z 00444480 f i input.obj
 0001:000434a0       ?getBoundInputDescription@InputManager@@QAE_NW4ControlType@@AAVInputDescription@@@Z 004444a0 f   input.obj
 0001:000435a0       ?substr@?$basic_string@DU?$char_traits@D@std@@V?$allocator@D@2@@std@@QBE?AV12@II@Z 004445a0 f i input.obj
 0001:000435e0       ?parseInputSpecTokens@InputManager@@QAE?AW4InputParserState@@ABVInputSpecTokens@@AAUInputSpec@@AAV?$basic_string@DU?$char_traits@D@std@@V?$allocator@D@2@@std@@@Z 004445e0 f   input.obj
 0001:000436a0       ??1ControlBindings@@QAE@XZ 004446a0 f i input.obj
 0001:00043720       ??1InputManager@@QAE@XZ    00444720 f   input.obj
 0001:00043800       ?parseInputSpecString@InputManager@@QAE?AW4InputParserState@@ABV?$basic_string@DU?$char_traits@D@std@@V?$allocator@D@2@@std@@AAUInputSpec@@AAV34@@Z 00444800 f   input.obj
 0001:000438a0       ??0InputManager@@QAE@XZ    004448a0 f   input.obj
 0001:00043910       ?addDriver@InputManager@@QAEXPAVInputDriver@@@Z 00444910 f   input.obj
 0001:00043930       ??6?$basic_ostream@DU?$char_traits@D@std@@@std@@QAEAAV01@H@Z 00444930 f i input.obj
 0001:00043a80       ?parseInputPrefs@InputManager@@QAEXAAVTextReader@@_N@Z 00444a80 f   input.obj
 0001:00043f40       ??0InputDescription@@QAE@XZ 00444f40 f   input_types.obj
 0001:00043f70       ?translate@InputDescription@@QAEXXZ 00444f70 f   input_types.obj
 0001:00044040       ?RenderPixelEffect@WorldObject@@UAE_NN@Z 00445040 f   worldobject.obj
 0001:00044040       ?ChangeHealth@Tentacle@@UAE_NHH@Z 00445040 f   tentacle.obj
 0001:00044040       ?RenderPixelEffect@ResearchItem@@UAE_NN@Z 00445040 f   researchitem.obj
 0001:00044040       ?getInputDescription@IdleInputDriver@@UAE_NABUInputSpec@@AAVInputDescription@@@Z 00445040 f   inputdriver_idle.obj
 0001:00044040       ?ChangeHealth@DropShip@@UAE_NHH@Z 00445040 f   dropship.obj
 0001:00044040       ?RenderPixelEffect@Tank@@UAE_NN@Z 00445040 f   tank.obj
 0001:00044040       ?ChangeHealth@SpaceShip@@UAE_NHH@Z 00445040 f   spaceship.obj
 0001:00044040       ?getInputDescription@InputDriver@@UAE_NABUInputSpec@@AAVInputDescription@@@Z 00445040 f   inputdriver.obj
 0001:00044040       ?ChangeHealth@AI@@UAE_NHH@Z 00445040 f   ai.obj
 0001:00044040       ?getFirstActiveInput@InputDriver@@UAE_NAAUInputSpec@@_N@Z 00445040 f   inputdriver.obj
 0001:00044050       ?getName@InputDriver@@UBEABV?$basic_string@DU?$char_traits@D@std@@V?$allocator@D@2@@std@@XZ 00445050 f   inputdriver.obj
 0001:00044060       ??1InputDriver@@UAE@XZ     00445060 f   inputdriver.obj
 0001:00044090       ??_EInputDriver@@UAEPAXI@Z 00445090 f i inputdriver.obj
 0001:00044090       ??_GInputDriver@@UAEPAXI@Z 00445090 f i inputdriver.obj
 0001:000440d0       ?getDefaultConditionID@InputDriver@@IAEHABV?$basic_string@DU?$char_traits@D@std@@V?$allocator@D@2@@std@@AAH@Z 004450d0 f   inputdriver.obj
 0001:000441b0       ?getDefaultPrefsString@InputDriver@@IAE_NHHAAV?$basic_string@DU?$char_traits@D@std@@V?$allocator@D@2@@std@@@Z 004451b0 f   inputdriver.obj
 0001:00044240       ?getDefaultVerb@InputDriver@@IAE_NHHAAV?$basic_string@DU?$char_traits@D@std@@V?$allocator@D@2@@std@@@Z 00445240 f   inputdriver.obj
 0001:00044300       ?setName@InputDriver@@IAEXABV?$basic_string@DU?$char_traits@D@std@@V?$allocator@D@2@@std@@@Z 00445300 f   inputdriver.obj
 0001:00044320       ?getInput@AliasInputDriver@@UAE_NABUInputSpec@@AAUInputDetails@@@Z 00445320 f   inputdriver_alias.obj
 0001:00044350       ?getLastParseError@AliasInputDriver@@UAEABV?$basic_string@DU?$char_traits@D@std@@V?$allocator@D@2@@std@@W4InputParserState@@@Z 00445350 f   inputdriver_alias.obj
 0001:00044370       ?getInputDescription@AliasInputDriver@@UAE_NABUInputSpec@@AAVInputDescription@@@Z 00445370 f   inputdriver_alias.obj
 0001:000443a0       ?parseInputSpecification@AliasInputDriver@@UAE?AW4InputParserState@@ABVInputSpecTokens@@AAUInputSpec@@@Z 004453a0 f   inputdriver_alias.obj
 0001:00044430       ??0AliasInputDriver@@QAE@XZ 00445430 f   inputdriver_alias.obj
 0001:000444d0       ??_EValueInputDriver@@UAEPAXI@Z 004454d0 f i main.obj
 0001:000444d0       ??_GIdleInputDriver@@UAEPAXI@Z 004454d0 f i inputdriver_idle.obj
 0001:000444d0       ??_EAliasInputDriver@@UAEPAXI@Z 004454d0 f i inputdriver_alias.obj
 0001:000444d0       ??_GXInputDriver@@UAEPAXI@Z 004454d0 f i inputdriver_xinput.obj
 0001:000444d0       ??_GValueInputDriver@@UAEPAXI@Z 004454d0 f i main.obj
 0001:000444d0       ??_GAliasInputDriver@@UAEPAXI@Z 004454d0 f i inputdriver_alias.obj
 0001:000444d0       ??_EIdleInputDriver@@UAEPAXI@Z 004454d0 f i inputdriver_idle.obj
 0001:000444d0       ??_EXInputDriver@@UAEPAXI@Z 004454d0 f i inputdriver_xinput.obj
 0001:000444f0       ?getLastParseError@ChordInputDriver@@UAEABV?$basic_string@DU?$char_traits@D@std@@V?$allocator@D@2@@std@@W4InputParserState@@@Z 004454f0 f   inputdriver_chord.obj
 0001:000444f0       ?getLastParseError@ConjoinInputDriver@@UAEABV?$basic_string@DU?$char_traits@D@std@@V?$allocator@D@2@@std@@W4InputParserState@@@Z 004454f0 f   inputdriver_conjoin.obj
 0001:000444f0       ?getLastParseError@InvertInputDriver@@UAEABV?$basic_string@DU?$char_traits@D@std@@V?$allocator@D@2@@std@@W4InputParserState@@@Z 004454f0 f   inputdriver_invert.obj
 0001:00044500       ??Y?$_Vector_const_iterator@V?$basic_string@DU?$char_traits@D@std@@V?$allocator@D@2@@std@@V?$allocator@V?$basic_string@DU?$char_traits@D@std@@V?$allocator@D@2@@std@@@2@@std@@QAEAAV01@H@Z 00445500 f i inputdriver_chord.obj
 0001:00044560       ??$_Allocate@V?$basic_string@DU?$char_traits@D@std@@V?$allocator@D@2@@std@@@std@@YAPAV?$basic_string@DU?$char_traits@D@std@@V?$allocator@D@2@@0@IPAV10@@Z 00445560 f i inputdriver_chord.obj
 0001:000445d0       ?erase@?$basic_string@DU?$char_traits@D@std@@V?$allocator@D@2@@std@@QAE?AV?$_String_iterator@DU?$char_traits@D@std@@V?$allocator@D@2@@2@V?$_String_const_iterator@DU?$char_traits@D@std@@V?$allocator@D@2@@2@0@Z 004455d0 f i inputdriver_chord.obj
 0001:000446b0       ??$_Umove@PAPBUInputSpec@@@?$vector@PBUInputSpec@@V?$allocator@PBUInputSpec@@@std@@@std@@IAEPAPBUInputSpec@@PAPBU2@00@Z 004456b0 f i control_bindings.obj
 0001:000446b0       ??$_Umove@PAPAVW32EventProcessor@@@?$vector@PAVW32EventProcessor@@V?$allocator@PAVW32EventProcessor@@@std@@@std@@IAEPAPAVW32EventProcessor@@PAPAV2@00@Z 004456b0 f i win32_eventhandler.obj
 0001:000446b0       ??$_Umove@PAPAV?$basic_string@DU?$char_traits@D@std@@V?$allocator@D@2@@std@@@?$vector@PAV?$basic_string@DU?$char_traits@D@std@@V?$allocator@D@2@@std@@V?$allocator@PAV?$basic_string@DU?$char_traits@D@std@@V?$allocator@D@2@@std@@@2@@std@@IAEPAPAV?$basic_string@DU?$char_traits@D@std@@V?$allocator@D@2@@1@PAPAV21@00@Z 004456b0 f i inputdriver_prefs.obj
 0001:000446b0       ??$_Umove@PAPAV?$auto_vector@$$CBUInputSpec@@@@@?$vector@PAV?$auto_vector@$$CBUInputSpec@@@@V?$allocator@PAV?$auto_vector@$$CBUInputSpec@@@@@std@@@std@@IAEPAPAV?$auto_vector@$$CBUInputSpec@@@@PAPAV2@00@Z 004456b0 f i inputdriver_chord.obj
 0001:000446b0       ??$_Umove@PAH@?$vector@HV?$allocator@H@std@@@std@@IAEPAHPAH00@Z 004456b0 f i directory.obj
 0001:000446b0       ??$_Umove@PAPAVInputDriver@@@?$vector@PAVInputDriver@@V?$allocator@PAVInputDriver@@@std@@@std@@IAEPAPAVInputDriver@@PAPAV2@00@Z 004456b0 f i input.obj
 0001:000446b0       ??$_Umove@PAPAVHelpIcon@@@?$vector@PAVHelpIcon@@V?$allocator@PAVHelpIcon@@@std@@@std@@IAEPAPAVHelpIcon@@PAPAV2@00@Z 004456b0 f i control_help.obj
 0001:000446f0       ?getInput@ChordInputDriver@@UAE_NABUInputSpec@@AAUInputDetails@@@Z 004456f0 f   inputdriver_chord.obj
 0001:000447c0       ?clear@?$basic_string@DU?$char_traits@D@std@@V?$allocator@D@2@@std@@QAEXXZ 004457c0 f i inputdriver_chord.obj
 0001:00044860       ??$_Construct@V?$basic_string@DU?$char_traits@D@std@@V?$allocator@D@2@@std@@V12@@std@@YAXPAV?$basic_string@DU?$char_traits@D@std@@V?$allocator@D@2@@0@ABV10@@Z 00445860 f i inputdriver_chord.obj
 0001:000448d0       ??$?HDU?$char_traits@D@std@@V?$allocator@D@1@@std@@YA?AV?$basic_string@DU?$char_traits@D@std@@V?$allocator@D@2@@0@PBDABV10@@Z 004458d0 f i inputdriver_chord.obj
 0001:00044990       ?_Insert_n@?$vector@PBUInputSpec@@V?$allocator@PBUInputSpec@@@std@@@std@@IAEXV?$_Vector_const_iterator@PBUInputSpec@@V?$allocator@PBUInputSpec@@@std@@@2@IABQBUInputSpec@@@Z 00445990 f i control_bindings.obj
 0001:00044990       ?_Insert_n@?$vector@PAV?$basic_string@DU?$char_traits@D@std@@V?$allocator@D@2@@std@@V?$allocator@PAV?$basic_string@DU?$char_traits@D@std@@V?$allocator@D@2@@std@@@2@@std@@IAEXV?$_Vector_const_iterator@PAV?$basic_string@DU?$char_traits@D@std@@V?$allocator@D@2@@std@@V?$allocator@PAV?$basic_string@DU?$char_traits@D@std@@V?$allocator@D@2@@std@@@2@@2@IABQAV?$basic_string@DU?$char_traits@D@std@@V?$allocator@D@2@@2@@Z 00445990 f i inputdriver_prefs.obj
 0001:00044990       ?_Insert_n@?$vector@PAVW32EventProcessor@@V?$allocator@PAVW32EventProcessor@@@std@@@std@@IAEXV?$_Vector_const_iterator@PAVW32EventProcessor@@V?$allocator@PAVW32EventProcessor@@@std@@@2@IABQAVW32EventProcessor@@@Z 00445990 f i win32_eventhandler.obj
 0001:00044990       ?_Insert_n@?$vector@HV?$allocator@H@std@@@std@@IAEXV?$_Vector_const_iterator@HV?$allocator@H@std@@@2@IABH@Z 00445990 f i directory.obj
 0001:00044990       ?_Insert_n@?$vector@PAVInputDriver@@V?$allocator@PAVInputDriver@@@std@@@std@@IAEXV?$_Vector_const_iterator@PAVInputDriver@@V?$allocator@PAVInputDriver@@@std@@@2@IABQAVInputDriver@@@Z 00445990 f i input.obj
 0001:00044990       ?_Insert_n@?$vector@PAV?$auto_vector@$$CBUInputSpec@@@@V?$allocator@PAV?$auto_vector@$$CBUInputSpec@@@@@std@@@std@@IAEXV?$_Vector_const_iterator@PAV?$auto_vector@$$CBUInputSpec@@@@V?$allocator@PAV?$auto_vector@$$CBUInputSpec@@@@@std@@@2@IABQAV?$auto_vector@$$CBUInputSpec@@@@@Z 00445990 f i inputdriver_chord.obj
 0001:00044990       ?_Insert_n@?$vector@PAVHelpIcon@@V?$allocator@PAVHelpIcon@@@std@@@std@@IAEXV?$_Vector_const_iterator@PAVHelpIcon@@V?$allocator@PAVHelpIcon@@@std@@@2@IABQAVHelpIcon@@@Z 00445990 f i control_help.obj
 0001:00044b40       ?swap@?$basic_string@DU?$char_traits@D@std@@V?$allocator@D@2@@std@@QAEXAAV12@@Z 00445b40 f i inputdriver_chord.obj
 0001:00044bc0       ?getInputDescription@ChordInputDriver@@UAE_NABUInputSpec@@AAVInputDescription@@@Z 00445bc0 f   inputdriver_chord.obj
 0001:00044da0       ?_Buy@?$vector@V?$basic_string@DU?$char_traits@D@std@@V?$allocator@D@2@@std@@V?$allocator@V?$basic_string@DU?$char_traits@D@std@@V?$allocator@D@2@@std@@@2@@std@@IAE_NI@Z 00445da0 f i inputdriver_chord.obj
 0001:00044e00       ??$fill@PAV?$basic_string@DU?$char_traits@D@std@@V?$allocator@D@2@@std@@V12@@std@@YAXPAV?$basic_string@DU?$char_traits@D@std@@V?$allocator@D@2@@0@0ABV10@@Z 00445e00 f i inputdriver_chord.obj
 0001:00044e30       ?insert@?$vector@PAVW32EventProcessor@@V?$allocator@PAVW32EventProcessor@@@std@@@std@@QAE?AV?$_Vector_iterator@PAVW32EventProcessor@@V?$allocator@PAVW32EventProcessor@@@std@@@2@V?$_Vector_const_iterator@PAVW32EventProcessor@@V?$allocator@PAVW32EventProcessor@@@std@@@2@ABQAVW32EventProcessor@@@Z 00445e30 f i win32_eventhandler.obj
 0001:00044e30       ?insert@?$vector@PAVHelpIcon@@V?$allocator@PAVHelpIcon@@@std@@@std@@QAE?AV?$_Vector_iterator@PAVHelpIcon@@V?$allocator@PAVHelpIcon@@@std@@@2@V?$_Vector_const_iterator@PAVHelpIcon@@V?$allocator@PAVHelpIcon@@@std@@@2@ABQAVHelpIcon@@@Z 00445e30 f i control_help.obj
 0001:00044e30       ?insert@?$vector@PAV?$basic_string@DU?$char_traits@D@std@@V?$allocator@D@2@@std@@V?$allocator@PAV?$basic_string@DU?$char_traits@D@std@@V?$allocator@D@2@@std@@@2@@std@@QAE?AV?$_Vector_iterator@PAV?$basic_string@DU?$char_traits@D@std@@V?$allocator@D@2@@std@@V?$allocator@PAV?$basic_string@DU?$char_traits@D@std@@V?$allocator@D@2@@std@@@2@@2@V?$_Vector_const_iterator@PAV?$basic_string@DU?$char_traits@D@std@@V?$allocator@D@2@@std@@V?$allocator@PAV?$basic_string@DU?$char_traits@D@std@@V?$allocator@D@2@@std@@@2@@2@ABQAV?$basic_string@DU?$char_traits@D@std@@V?$allocator@D@2@@2@@Z 00445e30 f i inputdriver_prefs.obj
 0001:00044e30       ?insert@?$vector@PAVInputDriver@@V?$allocator@PAVInputDriver@@@std@@@std@@QAE?AV?$_Vector_iterator@PAVInputDriver@@V?$allocator@PAVInputDriver@@@std@@@2@V?$_Vector_const_iterator@PAVInputDriver@@V?$allocator@PAVInputDriver@@@std@@@2@ABQAVInputDriver@@@Z 00445e30 f i input.obj
 0001:00044e30       ?insert@?$vector@PBUInputSpec@@V?$allocator@PBUInputSpec@@@std@@@std@@QAE?AV?$_Vector_iterator@PBUInputSpec@@V?$allocator@PBUInputSpec@@@std@@@2@V?$_Vector_const_iterator@PBUInputSpec@@V?$allocator@PBUInputSpec@@@std@@@2@ABQBUInputSpec@@@Z 00445e30 f i control_bindings.obj
 0001:00044e30       ?insert@?$vector@PAV?$auto_vector@$$CBUInputSpec@@@@V?$allocator@PAV?$auto_vector@$$CBUInputSpec@@@@@std@@@std@@QAE?AV?$_Vector_iterator@PAV?$auto_vector@$$CBUInputSpec@@@@V?$allocator@PAV?$auto_vector@$$CBUInputSpec@@@@@std@@@2@V?$_Vector_const_iterator@PAV?$auto_vector@$$CBUInputSpec@@@@V?$allocator@PAV?$auto_vector@$$CBUInputSpec@@@@@std@@@2@ABQAV?$auto_vector@$$CBUInputSpec@@@@@Z 00445e30 f i inputdriver_chord.obj
 0001:00044ee0       ??$_Uninit_fill_n@PAV?$basic_string@DU?$char_traits@D@std@@V?$allocator@D@2@@std@@IV12@V?$allocator@V?$basic_string@DU?$char_traits@D@std@@V?$allocator@D@2@@std@@@2@@std@@YAXPAV?$basic_string@DU?$char_traits@D@std@@V?$allocator@D@2@@0@IABV10@AAV?$allocator@V?$basic_string@DU?$char_traits@D@std@@V?$allocator@D@2@@std@@@0@U_Nonscalar_ptr_iterator_tag@0@U_Range_checked_iterator_tag@0@@Z 00445ee0 f i inputdriver_chord.obj
 0001:00044f90       ??1?$auto_ptr@V?$auto_vector@$$CBUInputSpec@@@@@std@@QAE@XZ 00445f90 f i inputdriver_chord.obj
 0001:00044fe0       ??$for_each@V?$_Vector_iterator@PAV?$auto_vector@$$CBUInputSpec@@@@V?$allocator@PAV?$auto_vector@$$CBUInputSpec@@@@@std@@@std@@V?$DeletePtr@V?$auto_vector@$$CBUInputSpec@@@@@@@std@@YA?AV?$DeletePtr@V?$auto_vector@$$CBUInputSpec@@@@@@V?$_Vector_iterator@PAV?$auto_vector@$$CBUInputSpec@@@@V?$allocator@PAV?$auto_vector@$$CBUInputSpec@@@@@std@@@0@0V1@@Z 00445fe0 f i inputdriver_chord.obj
 0001:00045040       ?_Ufill@?$vector@V?$basic_string@DU?$char_traits@D@std@@V?$allocator@D@2@@std@@V?$allocator@V?$basic_string@DU?$char_traits@D@std@@V?$allocator@D@2@@std@@@2@@std@@IAEPAV?$basic_string@DU?$char_traits@D@std@@V?$allocator@D@2@@2@PAV32@IABV32@@Z 00446040 f i inputdriver_chord.obj
 0001:00045080       ?clear@?$auto_vector@V?$auto_vector@$$CBUInputSpec@@@@@@QAEXXZ 00446080 f i inputdriver_chord.obj
 0001:00045100       ??$_Uninit_move@PAV?$basic_string@DU?$char_traits@D@std@@V?$allocator@D@2@@std@@PAV12@V?$allocator@V?$basic_string@DU?$char_traits@D@std@@V?$allocator@D@2@@std@@@2@@std@@YAPAV?$basic_string@DU?$char_traits@D@std@@V?$allocator@D@2@@0@PAV10@00AAV?$allocator@V?$basic_string@DU?$char_traits@D@std@@V?$allocator@D@2@@std@@@0@U_Swap_move_tag@0@U_Range_checked_iterator_tag@0@@Z 00446100 f i inputdriver_chord.obj
 0001:000451f0       ??1?$auto_vector@V?$auto_vector@$$CBUInputSpec@@@@@@QAE@XZ 004461f0 f i inputdriver_chord.obj
 0001:00045230       ??$_Move_backward_opt@PAV?$basic_string@DU?$char_traits@D@std@@V?$allocator@D@2@@std@@PAV12@@std@@YAPAV?$basic_string@DU?$char_traits@D@std@@V?$allocator@D@2@@0@PAV10@00Urandom_access_iterator_tag@0@U_Swap_move_tag@0@U_Range_checked_iterator_tag@0@@Z 00446230 f i inputdriver_chord.obj
 0001:00045290       ??0ChordInputDriver@@QAE@XZ 00446290 f   inputdriver_chord.obj
 0001:00045350       ??$_Umove@PAV?$basic_string@DU?$char_traits@D@std@@V?$allocator@D@2@@std@@@?$vector@V?$basic_string@DU?$char_traits@D@std@@V?$allocator@D@2@@std@@V?$allocator@V?$basic_string@DU?$char_traits@D@std@@V?$allocator@D@2@@std@@@2@@std@@IAEPAV?$basic_string@DU?$char_traits@D@std@@V?$allocator@D@2@@1@PAV21@00@Z 00446350 f i inputdriver_chord.obj
 0001:00045380       ??$_Unchecked_move_backward@PAV?$basic_string@DU?$char_traits@D@std@@V?$allocator@D@2@@std@@PAV12@@stdext@@YAPAV?$basic_string@DU?$char_traits@D@std@@V?$allocator@D@2@@std@@PAV12@00@Z 00446380 f i inputdriver_chord.obj
 0001:000453b0       ??_EChordInputDriver@@UAEPAXI@Z 004463b0 f i inputdriver_chord.obj
 0001:000453b0       ??_EConjoinInputDriver@@UAEPAXI@Z 004463b0 f i inputdriver_conjoin.obj
 0001:000453b0       ??_GConjoinInputDriver@@UAEPAXI@Z 004463b0 f i inputdriver_conjoin.obj
 0001:000453b0       ??_GChordInputDriver@@UAEPAXI@Z 004463b0 f i inputdriver_chord.obj
 0001:00045410       ?_Insert_n@?$vector@V?$basic_string@DU?$char_traits@D@std@@V?$allocator@D@2@@std@@V?$allocator@V?$basic_string@DU?$char_traits@D@std@@V?$allocator@D@2@@std@@@2@@std@@IAEXV?$_Vector_const_iterator@V?$basic_string@DU?$char_traits@D@std@@V?$allocator@D@2@@std@@V?$allocator@V?$basic_string@DU?$char_traits@D@std@@V?$allocator@D@2@@std@@@2@@2@IABV?$basic_string@DU?$char_traits@D@std@@V?$allocator@D@2@@2@@Z 00446410 f i inputdriver_chord.obj
 0001:000457b0       ?insert@?$vector@V?$basic_string@DU?$char_traits@D@std@@V?$allocator@D@2@@std@@V?$allocator@V?$basic_string@DU?$char_traits@D@std@@V?$allocator@D@2@@std@@@2@@std@@QAE?AV?$_Vector_iterator@V?$basic_string@DU?$char_traits@D@std@@V?$allocator@D@2@@std@@V?$allocator@V?$basic_string@DU?$char_traits@D@std@@V?$allocator@D@2@@std@@@2@@2@V?$_Vector_const_iterator@V?$basic_string@DU?$char_traits@D@std@@V?$allocator@D@2@@std@@V?$allocator@V?$basic_string@DU?$char_traits@D@std@@V?$allocator@D@2@@std@@@2@@2@ABV?$basic_string@DU?$char_traits@D@std@@V?$allocator@D@2@@2@@Z 004467b0 f i inputdriver_chord.obj
 0001:00045870       ?push_back@?$vector@V?$basic_string@DU?$char_traits@D@std@@V?$allocator@D@2@@std@@V?$allocator@V?$basic_string@DU?$char_traits@D@std@@V?$allocator@D@2@@std@@@2@@std@@QAEXABV?$basic_string@DU?$char_traits@D@std@@V?$allocator@D@2@@2@@Z 00446870 f i inputdriver_chord.obj
 0001:00045920       ?parseInputSpecification@ChordInputDriver@@UAE?AW4InputParserState@@ABVInputSpecTokens@@AAUInputSpec@@@Z 00446920 f   inputdriver_chord.obj
 0001:00045fa0       ?getInput@ConjoinInputDriver@@UAE_NABUInputSpec@@AAUInputDetails@@@Z 00446fa0 f   inputdriver_conjoin.obj
 0001:000460e0       ?getInputDescription@ConjoinInputDriver@@UAE_NABUInputSpec@@AAVInputDescription@@@Z 004470e0 f   inputdriver_conjoin.obj
 0001:000462a0       ?parseInputSpecification@ConjoinInputDriver@@UAE?AW4InputParserState@@ABVInputSpecTokens@@AAUInputSpec@@@Z 004472a0 f   inputdriver_conjoin.obj
 0001:00046640       ??0ConjoinInputDriver@@QAE@XZ 00447640 f   inputdriver_conjoin.obj
 0001:00046700       ??1SimpleInputDriver@@UAE@XZ 00447700 f i inputdriver_idle.obj
 0001:00046710       ?getInput@IdleInputDriver@@UAE_NABUInputSpec@@AAUInputDetails@@@Z 00447710 f   inputdriver_idle.obj
 0001:000467a0       ?Advance@IdleInputDriver@@UAEXXZ 004477a0 f   inputdriver_idle.obj
 0001:000467f0       ?getControlType@IdleInputDriver@@EAEHH@Z 004477f0 f   inputdriver_idle.obj
 0001:00046800       ??_G?$num_get@GV?$istreambuf_iterator@GU?$char_traits@G@std@@@std@@@std@@MAEPAXI@Z 00447800 f i preferences.obj
 0001:00046800       ??_E?$num_get@GV?$istreambuf_iterator@GU?$char_traits@G@std@@@std@@@std@@MAEPAXI@Z 00447800 f i preferences.obj
 0001:00046800       ??_E?$num_put@DV?$ostreambuf_iterator@DU?$char_traits@D@std@@@std@@@std@@MAEPAXI@Z 00447800 f i language_table.obj
 0001:00046800       ??_G?$num_get@DV?$istreambuf_iterator@DU?$char_traits@D@std@@@std@@@std@@MAEPAXI@Z 00447800 f i inputdriver_idle.obj
 0001:00046800       ??_G?$num_put@DV?$ostreambuf_iterator@DU?$char_traits@D@std@@@std@@@std@@MAEPAXI@Z 00447800 f i language_table.obj
 0001:00046800       ??_Gfacet@locale@std@@UAEPAXI@Z 00447800 f i language_table.obj
 0001:00046800       ??_Efacet@locale@std@@UAEPAXI@Z 00447800 f i language_table.obj
 0001:00046800       ??_G?$codecvt@DDH@std@@MAEPAXI@Z 00447800 f i memory_leak.obj
 0001:00046800       ??_E?$codecvt@DDH@std@@MAEPAXI@Z 00447800 f i memory_leak.obj
 0001:00046800       ??_E?$num_get@DV?$istreambuf_iterator@DU?$char_traits@D@std@@@std@@@std@@MAEPAXI@Z 00447800 f i inputdriver_idle.obj
 0001:00046820       ?_Peek@?$istreambuf_iterator@DU?$char_traits@D@std@@@std@@AAEDXZ 00447820 f i inputdriver_idle.obj
 0001:00046870       ?acceptDriver@IdleInputDriver@@EAE_NABV?$basic_string@DU?$char_traits@D@std@@V?$allocator@D@2@@std@@@Z 00447870 f   inputdriver_idle.obj
 0001:000468a0       ??1?$basic_istringstream@DU?$char_traits@D@std@@V?$allocator@D@2@@std@@UAE@XZ 004478a0 f i inputdriver_idle.obj
 0001:00046920       ??E?$istreambuf_iterator@DU?$char_traits@D@std@@@std@@QAEAAV01@XZ 00447920 f i inputdriver_idle.obj
 0001:00046970       ??$?9DU?$char_traits@D@std@@@std@@YA_NABV?$istreambuf_iterator@DU?$char_traits@D@std@@@0@0@Z 00447970 f i inputdriver_idle.obj
 0001:000469d0       ??_D?$basic_istringstream@DU?$char_traits@D@std@@V?$allocator@D@2@@std@@QAEXXZ 004479d0 f i inputdriver_idle.obj
 0001:000469f0       ??_E?$basic_istringstream@DU?$char_traits@D@std@@V?$allocator@D@2@@std@@UAEPAXI@Z 004479f0 f i inputdriver_idle.obj
 0001:000469f0       ??_G?$basic_istringstream@DU?$char_traits@D@std@@V?$allocator@D@2@@std@@UAEPAXI@Z 004479f0 f i inputdriver_idle.obj
 0001:00046a30       ??0?$basic_stringbuf@DU?$char_traits@D@std@@V?$allocator@D@2@@std@@QAE@ABV?$basic_string@DU?$char_traits@D@std@@V?$allocator@D@2@@1@H@Z 00447a30 f i inputdriver_idle.obj
 0001:00046ac0       ?getControlID@IdleInputDriver@@EAEHABV?$basic_string@DU?$char_traits@D@std@@V?$allocator@D@2@@std@@@Z 00447ac0 f   inputdriver_idle.obj
 0001:00046b70       ??$_Getloctxt@DV?$istreambuf_iterator@DU?$char_traits@D@std@@@std@@@std@@YAHAAV?$istreambuf_iterator@DU?$char_traits@D@std@@@0@0IPBD@Z 00447b70 f i inputdriver_idle.obj
 0001:00046f20       ?_Getcat@?$num_get@DV?$istreambuf_iterator@DU?$char_traits@D@std@@@std@@@std@@SAIPAPBVfacet@locale@2@PBV42@@Z 00447f20 f i inputdriver_idle.obj
 0001:00047030       ??0IdleInputDriver@@QAE@XZ 00448030 f   inputdriver_idle.obj
 0001:000470e0       ??$use_facet@V?$num_get@DV?$istreambuf_iterator@DU?$char_traits@D@std@@@std@@@std@@@std@@YAABV?$num_get@DV?$istreambuf_iterator@DU?$char_traits@D@std@@@std@@@0@ABVlocale@0@@Z 004480e0 f i inputdriver_idle.obj
 0001:00047230       ?_Getifld@?$num_get@DV?$istreambuf_iterator@DU?$char_traits@D@std@@@std@@@std@@ABAHPADAAV?$istreambuf_iterator@DU?$char_traits@D@std@@@2@1HABVlocale@2@@Z 00448230 f i inputdriver_idle.obj
 0001:00047780       ?_Getffld@?$num_get@DV?$istreambuf_iterator@DU?$char_traits@D@std@@@std@@@std@@ABAHPADAAV?$istreambuf_iterator@DU?$char_traits@D@std@@@2@1ABVlocale@2@@Z 00448780 f i inputdriver_idle.obj
 0001:000486b0       ?do_get@?$num_get@DV?$istreambuf_iterator@DU?$char_traits@D@std@@@std@@@std@@MBE?AV?$istreambuf_iterator@DU?$char_traits@D@std@@@2@V32@0AAVios_base@2@AAHAA_N@Z 004496b0 f i inputdriver_idle.obj
 0001:000489c0       ?do_get@?$num_get@DV?$istreambuf_iterator@DU?$char_traits@D@std@@@std@@@std@@MBE?AV?$istreambuf_iterator@DU?$char_traits@D@std@@@2@V32@0AAVios_base@2@AAHAAG@Z 004499c0 f i inputdriver_idle.obj
 0001:00048bc0       ?do_get@?$num_get@DV?$istreambuf_iterator@DU?$char_traits@D@std@@@std@@@std@@MBE?AV?$istreambuf_iterator@DU?$char_traits@D@std@@@2@V32@0AAVios_base@2@AAHAAI@Z 00449bc0 f i inputdriver_idle.obj
 0001:00048dc0       ?do_get@?$num_get@DV?$istreambuf_iterator@DU?$char_traits@D@std@@@std@@@std@@MBE?AV?$istreambuf_iterator@DU?$char_traits@D@std@@@2@V32@0AAVios_base@2@AAHAAJ@Z 00449dc0 f i inputdriver_idle.obj
 0001:00048fa0       ?do_get@?$num_get@DV?$istreambuf_iterator@DU?$char_traits@D@std@@@std@@@std@@MBE?AV?$istreambuf_iterator@DU?$char_traits@D@std@@@2@V32@0AAVios_base@2@AAHAAK@Z 00449fa0 f i inputdriver_idle.obj
 0001:00049180       ?do_get@?$num_get@DV?$istreambuf_iterator@DU?$char_traits@D@std@@@std@@@std@@MBE?AV?$istreambuf_iterator@DU?$char_traits@D@std@@@2@V32@0AAVios_base@2@AAHAA_J@Z 0044a180 f i inputdriver_idle.obj
 0001:00049370       ?do_get@?$num_get@DV?$istreambuf_iterator@DU?$char_traits@D@std@@@std@@@std@@MBE?AV?$istreambuf_iterator@DU?$char_traits@D@std@@@2@V32@0AAVios_base@2@AAHAA_K@Z 0044a370 f i inputdriver_idle.obj
 0001:00049560       ?do_get@?$num_get@DV?$istreambuf_iterator@DU?$char_traits@D@std@@@std@@@std@@MBE?AV?$istreambuf_iterator@DU?$char_traits@D@std@@@2@V32@0AAVios_base@2@AAHAAM@Z 0044a560 f i inputdriver_idle.obj
 0001:00049760       ?do_get@?$num_get@DV?$istreambuf_iterator@DU?$char_traits@D@std@@@std@@@std@@MBE?AV?$istreambuf_iterator@DU?$char_traits@D@std@@@2@V32@0AAVios_base@2@AAHAAN@Z 0044a760 f i inputdriver_idle.obj
 0001:00049970       ?do_get@?$num_get@DV?$istreambuf_iterator@DU?$char_traits@D@std@@@std@@@std@@MBE?AV?$istreambuf_iterator@DU?$char_traits@D@std@@@2@V32@0AAVios_base@2@AAHAAO@Z 0044a970 f i inputdriver_idle.obj
 0001:00049b80       ?do_get@?$num_get@DV?$istreambuf_iterator@DU?$char_traits@D@std@@@std@@@std@@MBE?AV?$istreambuf_iterator@DU?$char_traits@D@std@@@2@V32@0AAVios_base@2@AAHAAPAX@Z 0044ab80 f i inputdriver_idle.obj
 0001:00049d70       ??0?$basic_istringstream@DU?$char_traits@D@std@@V?$allocator@D@2@@std@@QAE@ABV?$basic_string@DU?$char_traits@D@std@@V?$allocator@D@2@@1@H@Z 0044ad70 f i inputdriver_idle.obj
 0001:00049e50       ??5?$basic_istream@DU?$char_traits@D@std@@@std@@QAEAAV01@AAH@Z 0044ae50 f i inputdriver_idle.obj
 0001:00049fd0       ?getConditionID@IdleInputDriver@@EAEHABV?$basic_string@DU?$char_traits@D@std@@V?$allocator@D@2@@std@@AAH@Z 0044afd0 f   inputdriver_idle.obj
 0001:0004a100       ??1?$auto_ptr@VInputSpecTokens@@@std@@QAE@XZ 0044b100 f i inputdriver_invert.obj
 0001:0004a120       ?getInput@InvertInputDriver@@UAE_NABUInputSpec@@AAUInputDetails@@@Z 0044b120 f   inputdriver_invert.obj
 0001:0004a180       ?getInputDescription@InvertInputDriver@@UAE_NABUInputSpec@@AAVInputDescription@@@Z 0044b180 f   inputdriver_invert.obj
 0001:0004a260       ??0InvertInputDriver@@QAE@XZ 0044b260 f   inputdriver_invert.obj
 0001:0004a320       ??_EInvertInputDriver@@UAEPAXI@Z 0044b320 f i inputdriver_invert.obj
 0001:0004a320       ??_GInvertInputDriver@@UAEPAXI@Z 0044b320 f i inputdriver_invert.obj
 0001:0004a380       ?parseInputSpecification@InvertInputDriver@@UAE?AW4InputParserState@@ABVInputSpecTokens@@AAUInputSpec@@@Z 0044b380 f   inputdriver_invert.obj
 0001:0004a5e0       ?getLastParseError@PrefsInputDriver@@UAEABV?$basic_string@DU?$char_traits@D@std@@V?$allocator@D@2@@std@@W4InputParserState@@@Z 0044b5e0 f   inputdriver_prefs.obj
 0001:0004a600       ?getInputDescription@PrefsInputDriver@@UAE_NABUInputSpec@@AAVInputDescription@@@Z 0044b600 f   inputdriver_prefs.obj
 0001:0004a630       ?getInput@PrefsInputDriver@@UAE_NABUInputSpec@@AAUInputDetails@@@Z 0044b630 f   inputdriver_prefs.obj
 0001:0004a6c0       ??$?8DU?$char_traits@D@std@@V?$allocator@D@1@@std@@YA_NPBDABV?$basic_string@DU?$char_traits@D@std@@V?$allocator@D@2@@0@@Z 0044b6c0 f i inputdriver_prefs.obj
 0001:0004a700       ??$_Unchecked_move_backward@PAPAVHelpIcon@@PAPAV1@@stdext@@YAPAPAVHelpIcon@@PAPAV1@00@Z 0044b700 f i control_help.obj
 0001:0004a700       ??$_Unchecked_move_backward@PAHPAH@stdext@@YAPAHPAH00@Z 0044b700 f i directory.obj
 0001:0004a700       ??$_Unchecked_move_backward@PAPBUInputSpec@@PAPBU1@@stdext@@YAPAPBUInputSpec@@PAPBU1@00@Z 0044b700 f i control_bindings.obj
 0001:0004a700       ??$_Unchecked_move_backward@PAPAV?$basic_string@DU?$char_traits@D@std@@V?$allocator@D@2@@std@@PAPAV12@@stdext@@YAPAPAV?$basic_string@DU?$char_traits@D@std@@V?$allocator@D@2@@std@@PAPAV12@00@Z 0044b700 f i inputdriver_prefs.obj
 0001:0004a700       ??$_Unchecked_move_backward@PAPAV?$auto_vector@$$CBUInputSpec@@@@PAPAV1@@stdext@@YAPAPAV?$auto_vector@$$CBUInputSpec@@@@PAPAV1@00@Z 0044b700 f i inputdriver_chord.obj
 0001:0004a700       ??$_Unchecked_move_backward@PAPAVInputDriver@@PAPAV1@@stdext@@YAPAPAVInputDriver@@PAPAV1@00@Z 0044b700 f i input.obj
 0001:0004a700       ??$_Unchecked_move_backward@PAPAVW32EventProcessor@@PAPAV1@@stdext@@YAPAPAVW32EventProcessor@@PAPAV1@00@Z 0044b700 f i win32_eventhandler.obj
 0001:0004a730       ??1?$auto_ptr@V?$basic_string@DU?$char_traits@D@std@@V?$allocator@D@2@@std@@@std@@QAE@XZ 0044b730 f i inputdriver_prefs.obj
 0001:0004a770       ??$for_each@V?$_Vector_iterator@PAV?$basic_string@DU?$char_traits@D@std@@V?$allocator@D@2@@std@@V?$allocator@PAV?$basic_string@DU?$char_traits@D@std@@V?$allocator@D@2@@std@@@2@@std@@V?$DeletePtr@V?$basic_string@DU?$char_traits@D@std@@V?$allocator@D@2@@std@@@@@std@@YA?AV?$DeletePtr@V?$basic_string@DU?$char_traits@D@std@@V?$allocator@D@2@@std@@@@V?$_Vector_iterator@PAV?$basic_string@DU?$char_traits@D@std@@V?$allocator@D@2@@std@@V?$allocator@PAV?$basic_string@DU?$char_traits@D@std@@V?$allocator@D@2@@std@@@2@@0@0V1@@Z 0044b770 f i inputdriver_prefs.obj
 0001:0004a7d0       ?clear@?$auto_vector@V?$basic_string@DU?$char_traits@D@std@@V?$allocator@D@2@@std@@@@QAEXXZ 0044b7d0 f i inputdriver_prefs.obj
 0001:0004a850       ??1?$auto_vector@V?$basic_string@DU?$char_traits@D@std@@V?$allocator@D@2@@std@@@@QAE@XZ 0044b850 f i inputdriver_prefs.obj
 0001:0004a890       ?reserve@?$vector@PAV?$auto_vector@$$CBUInputSpec@@@@V?$allocator@PAV?$auto_vector@$$CBUInputSpec@@@@@std@@@std@@QAEXI@Z 0044b890 f i inputdriver_chord.obj
 0001:0004a890       ?reserve@?$vector@PBUInputSpec@@V?$allocator@PBUInputSpec@@@std@@@std@@QAEXI@Z 0044b890 f i control_bindings.obj
 0001:0004a890       ?reserve@?$vector@PAV?$basic_string@DU?$char_traits@D@std@@V?$allocator@D@2@@std@@V?$allocator@PAV?$basic_string@DU?$char_traits@D@std@@V?$allocator@D@2@@std@@@2@@std@@QAEXI@Z 0044b890 f i inputdriver_prefs.obj
 0001:0004a940       ??0?$auto_vector@$$CBUInputSpec@@@@QAE@I@Z 0044b940 f i control_bindings.obj
 0001:0004a940       ??0?$auto_vector@V?$auto_vector@$$CBUInputSpec@@@@@@QAE@I@Z 0044b940 f i inputdriver_chord.obj
 0001:0004a940       ??0?$auto_vector@V?$basic_string@DU?$char_traits@D@std@@V?$allocator@D@2@@std@@@@QAE@I@Z 0044b940 f i inputdriver_prefs.obj
 0001:0004a9a0       ??0PrefsInputDriver@@QAE@XZ 0044b9a0 f   inputdriver_prefs.obj
 0001:0004aa50       ??_EPrefsInputDriver@@UAEPAXI@Z 0044ba50 f i inputdriver_prefs.obj
 0001:0004aa50       ??_GPrefsInputDriver@@UAEPAXI@Z 0044ba50 f i inputdriver_prefs.obj
 0001:0004aab0       ?keyPosition@PrefsInputDriver@@AAEHABV?$basic_string@DU?$char_traits@D@std@@V?$allocator@D@2@@std@@@Z 0044bab0 f   inputdriver_prefs.obj
 0001:0004ac30       ?parseInputSpecification@PrefsInputDriver@@UAE?AW4InputParserState@@ABVInputSpecTokens@@AAUInputSpec@@@Z 0044bc30 f   inputdriver_prefs.obj
 0001:0004ae50       ?parseInputSpecification@SimpleInputDriver@@UAE?AW4InputParserState@@ABVInputSpecTokens@@AAUInputSpec@@@Z 0044be50 f   inputdriver_simple.obj
 0001:0004aec0       ?acceptToken@SimpleInputDriver@@MAE_NAAW4InputParserState@@ABV?$basic_string@DU?$char_traits@D@std@@V?$allocator@D@2@@std@@AAUInputSpec@@@Z 0044bec0 f   inputdriver_simple.obj
 0001:0004afd0       ?getConditionID@SimpleInputDriver@@MAEHABV?$basic_string@DU?$char_traits@D@std@@V?$allocator@D@2@@std@@AAH@Z 0044bfd0 f   inputdriver_simple.obj
 0001:0004afe0       ?writeExtraSpecInfo@SimpleInputDriver@@MAE?AW4InputParserState@@AAUInputSpec@@@Z 0044bfe0 f   inputdriver_simple.obj
 0001:0004aff0       ?parseExtraToken@SimpleInputDriver@@MAE?AW4InputParserState@@ABV?$basic_string@DU?$char_traits@D@std@@V?$allocator@D@2@@std@@AAUInputSpec@@@Z 0044bff0 f   inputdriver_simple.obj
 0001:0004b000       ?getLastParseError@SimpleInputDriver@@UAEABV?$basic_string@DU?$char_traits@D@std@@V?$allocator@D@2@@std@@W4InputParserState@@@Z 0044c000 f   inputdriver_simple.obj
 0001:0004b020       ?getInput@ValueInputDriver@@UAE_NABUInputSpec@@AAUInputDetails@@@Z 0044c020 f   inputdriver_value.obj
 0001:0004b060       ?getLastParseError@ValueInputDriver@@UAEABV?$basic_string@DU?$char_traits@D@std@@V?$allocator@D@2@@std@@W4InputParserState@@@Z 0044c060 f   inputdriver_value.obj
 0001:0004b080       ?parseInputSpecification@ValueInputDriver@@UAE?AW4InputParserState@@ABVInputSpecTokens@@AAUInputSpec@@@Z 0044c080 f   inputdriver_value.obj
 0001:0004b150       ??1W32InputDriver@@UAE@XZ  0044c150 f   inputdriver_win32.obj
 0001:0004b1c0       ?getKeyInput@W32InputDriver@@AAE_NABUInputSpec@@AAUInputDetails@@@Z 0044c1c0 f   inputdriver_win32.obj
 0001:0004b230       ?getMouseInput@W32InputDriver@@AAE_NABUInputSpec@@AAUInputDetails@@@Z 0044c230 f   inputdriver_win32.obj
 0001:0004b330       ?isIdle@W32InputDriver@@UAE_NXZ 0044c330 f   inputdriver_win32.obj
 0001:0004b430       ?SetMousePosNoVelocity@W32InputDriver@@QAEXHH@Z 0044c430 f   inputdriver_win32.obj
 0001:0004b450       ?getFirstActiveInput@W32InputDriver@@UAE_NAAUInputSpec@@_N@Z 0044c450 f   inputdriver_win32.obj
 0001:0004b4c0       ?Advance@W32InputDriver@@UAEXXZ 0044c4c0 f   inputdriver_win32.obj
 0001:0004b570       ?PollForEvents@W32InputDriver@@UAEXXZ 0044c570 f   inputdriver_win32.obj
 0001:0004b580       ?WndProc@W32InputDriver@@UAGJPAUHWND__@@IIJ@Z 0044c580 f   inputdriver_win32.obj
 0001:0004b840       ?writeExtraSpecInfo@W32InputDriver@@EAE?AW4InputParserState@@AAUInputSpec@@@Z 0044c840 f   inputdriver_win32.obj
 0001:0004b860       ?getMouseControlType@W32InputDriver@@AAEHH@Z 0044c860 f   inputdriver_win32.obj
 0001:0004b8b0       ??_GW32InputDriver@@UAEPAXI@Z 0044c8b0 f i inputdriver_win32.obj
 0001:0004b8b0       ??_EW32InputDriver@@UAEPAXI@Z 0044c8b0 f i inputdriver_win32.obj
 0001:0004b8d0       ?getInput@W32InputDriver@@UAE_NABUInputSpec@@AAUInputDetails@@@Z 0044c8d0 f   inputdriver_win32.obj
 0001:0004b900       ?getControlType@W32InputDriver@@EAEHH@Z 0044c900 f   inputdriver_win32.obj
 0001:0004b920       ?getKeyId@W32InputDriver@@AAEHABV?$basic_string@DU?$char_traits@D@std@@V?$allocator@D@2@@std@@@Z 0044c920 f   inputdriver_win32.obj
 0001:0004b990       ?acceptDriver@W32InputDriver@@EAE_NABV?$basic_string@DU?$char_traits@D@std@@V?$allocator@D@2@@std@@@Z 0044c990 f   inputdriver_win32.obj
 0001:0004ba00       ?getControlID@W32InputDriver@@EAEHABV?$basic_string@DU?$char_traits@D@std@@V?$allocator@D@2@@std@@@Z 0044ca00 f   inputdriver_win32.obj
 0001:0004bad0       ??0W32InputDriver@@QAE@XZ  0044cad0 f   inputdriver_win32.obj
 0001:0004bc00       ?getInputDescription@W32InputDriver@@UAE_NABUInputSpec@@AAVInputDescription@@@Z 0044cc00 f   inputdriver_win32.obj
 0001:0004c070       ?round@@YAHN@Z             0044d070 f i inputdriver_xinput.obj
 0001:0004c0a0       ?getInputMode@XInputDriver@@UAE?AW4InputMode@@XZ 0044d0a0 f   inputdriver_xinput.obj
 0001:0004c0b0       ?getControlType@XInputDriver@@EAEHH@Z 0044d0b0 f   inputdriver_xinput.obj
 0001:0004c0c0       ?writeExtraSpecInfo@XInputDriver@@EAE?AW4InputParserState@@AAUInputSpec@@@Z 0044d0c0 f   inputdriver_xinput.obj
 0001:0004c120       ?isIdle@Controller@XInputDriver@@QAE_NXZ 0044d120 f   inputdriver_xinput.obj
 0001:0004c1b0       ?getButtonInput@Controller@XInputDriver@@AAE_NGABUInputSpec@@AAUInputDetails@@@Z 0044d1b0 f   inputdriver_xinput.obj
 0001:0004c270       ?getThumbInput@Controller@XInputDriver@@AAE_NABUInputSpec@@AAUInputDetails@@@Z 0044d270 f   inputdriver_xinput.obj
 0001:0004c4b0       ?getTriggerInput@Controller@XInputDriver@@AAE_NABUInputSpec@@AAUInputDetails@@@Z 0044d4b0 f   inputdriver_xinput.obj
 0001:0004c6a0       ?correctDeadZones@Controller@XInputDriver@@AAEXAAU_XINPUT_STATE@@@Z 0044d6a0 f   inputdriver_xinput.obj
 0001:0004c740       ?scaleInputs@Controller@XInputDriver@@AAEXAAU_XINPUT_STATE@@@Z 0044d740 f   inputdriver_xinput.obj
 0001:0004c8b0       ?getThumbDirection@Controller@XInputDriver@@AAE_NHABUInputSpec@@IAAUInputDetails@@@Z 0044d8b0 f   inputdriver_xinput.obj
 0001:0004ca90       ?Advance@XInputDriver@@UAEXXZ 0044da90 f   inputdriver_xinput.obj
 0001:0004cb10       ?isIdle@XInputDriver@@UAE_NXZ 0044db10 f   inputdriver_xinput.obj
 0001:0004cb50       ?getInput@Controller@XInputDriver@@QAE_NABUInputSpec@@AAUInputDetails@@@Z 0044db50 f   inputdriver_xinput.obj
 0001:0004ce30       ?getInput@XInputDriver@@UAE_NABUInputSpec@@AAUInputDetails@@@Z 0044de30 f   inputdriver_xinput.obj
 0001:0004ce80       ?acceptDriver@XInputDriver@@EAE_NABV?$basic_string@DU?$char_traits@D@std@@V?$allocator@D@2@@std@@@Z 0044de80 f   inputdriver_xinput.obj
 0001:0004ceb0       ?getControlID@XInputDriver@@EAEHABV?$basic_string@DU?$char_traits@D@std@@V?$allocator@D@2@@std@@@Z 0044deb0 f   inputdriver_xinput.obj
 0001:0004cf60       ?getConditionID@XInputDriver@@MAEHABV?$basic_string@DU?$char_traits@D@std@@V?$allocator@D@2@@std@@AAH@Z 0044df60 f   inputdriver_xinput.obj
 0001:0004cfb0       ??0XInputDriver@@QAE@XZ    0044dfb0 f   inputdriver_xinput.obj
 0001:0004d0b0       ?getInputDescription@XInputDriver@@UAE_NABUInputSpec@@AAVInputDescription@@@Z 0044e0b0 f   inputdriver_xinput.obj
 0001:0004d1c0       ?parseExtraToken@XInputDriver@@EAE?AW4InputParserState@@ABV?$basic_string@DU?$char_traits@D@std@@V?$allocator@D@2@@std@@AAUInputSpec@@@Z 0044e1c0 f   inputdriver_xinput.obj
 0001:0004d320       ??A?$vector@V?$basic_string@DU?$char_traits@D@std@@V?$allocator@D@2@@std@@V?$allocator@V?$basic_string@DU?$char_traits@D@std@@V?$allocator@D@2@@std@@@2@@std@@QBEABV?$basic_string@DU?$char_traits@D@std@@V?$allocator@D@2@@1@I@Z 0044e320 f i inputspec.obj
 0001:0004d360       ?length@InputSpecTokens@@QBEIXZ 0044e360 f   inputspec.obj
 0001:0004d380       ??AInputSpecTokens@@QBEABV?$basic_string@DU?$char_traits@D@std@@V?$allocator@D@2@@std@@I@Z 0044e380 f   inputspec.obj
 0001:0004d3d0       ??$_Copy_opt@PAV?$basic_string@DU?$char_traits@D@std@@V?$allocator@D@2@@std@@PAV12@Uforward_iterator_tag@2@@std@@YAPAV?$basic_string@DU?$char_traits@D@std@@V?$allocator@D@2@@0@PAV10@00Uforward_iterator_tag@0@U_Nonscalar_ptr_iterator_tag@0@U_Range_checked_iterator_tag@0@@Z 0044e3d0 f i inputspec.obj
 0001:0004d410       ??$_Copy_opt@PAV?$basic_string@DU?$char_traits@D@std@@V?$allocator@D@2@@std@@PAV12@@std@@YAPAV?$basic_string@DU?$char_traits@D@std@@V?$allocator@D@2@@0@PAV10@00Urandom_access_iterator_tag@0@U_Nonscalar_ptr_iterator_tag@0@U_Range_checked_iterator_tag@0@@Z 0044e410 f i inputspec.obj
 0001:0004d470       ??$_Uninit_copy@PBV?$basic_string@DU?$char_traits@D@std@@V?$allocator@D@2@@std@@PAV12@V?$allocator@V?$basic_string@DU?$char_traits@D@std@@V?$allocator@D@2@@std@@@2@@std@@YAPAV?$basic_string@DU?$char_traits@D@std@@V?$allocator@D@2@@0@PBV10@0PAV10@AAV?$allocator@V?$basic_string@DU?$char_traits@D@std@@V?$allocator@D@2@@std@@@0@U_Nonscalar_ptr_iterator_tag@0@U_Range_checked_iterator_tag@0@@Z 0044e470 f i inputspec.obj
 0001:0004d530       ?erase@?$vector@V?$basic_string@DU?$char_traits@D@std@@V?$allocator@D@2@@std@@V?$allocator@V?$basic_string@DU?$char_traits@D@std@@V?$allocator@D@2@@std@@@2@@std@@QAE?AV?$_Vector_iterator@V?$basic_string@DU?$char_traits@D@std@@V?$allocator@D@2@@std@@V?$allocator@V?$basic_string@DU?$char_traits@D@std@@V?$allocator@D@2@@std@@@2@@2@V?$_Vector_const_iterator@V?$basic_string@DU?$char_traits@D@std@@V?$allocator@D@2@@std@@V?$allocator@V?$basic_string@DU?$char_traits@D@std@@V?$allocator@D@2@@std@@@2@@2@0@Z 0044e530 f i inputspec.obj
 0001:0004d5e0       ??0?$vector@V?$basic_string@DU?$char_traits@D@std@@V?$allocator@D@2@@std@@V?$allocator@V?$basic_string@DU?$char_traits@D@std@@V?$allocator@D@2@@std@@@2@@std@@QAE@ABV01@@Z 0044e5e0 f i inputspec.obj
 0001:0004d6d0       ??$?5DU?$char_traits@D@std@@V?$allocator@D@1@@std@@YAAAV?$basic_istream@DU?$char_traits@D@std@@@0@AAV10@AAV?$basic_string@DU?$char_traits@D@std@@V?$allocator@D@2@@0@@Z 0044e6d0 f i inputspec.obj
 0001:0004d890       ??0InputSpecTokens@@AAE@V?$vector@V?$basic_string@DU?$char_traits@D@std@@V?$allocator@D@2@@std@@V?$allocator@V?$basic_string@DU?$char_traits@D@std@@V?$allocator@D@2@@std@@@2@@std@@@Z 0044e890 f   inputspec.obj
 0001:0004d920       ??1InputSpecTokens@@QAE@XZ 0044e920 f   inputspec.obj
 0001:0004d930       ??0InputSpecTokens@@QAE@V?$basic_string@DU?$char_traits@D@std@@V?$allocator@D@2@@std@@@Z 0044e930 f   inputspec.obj
 0001:0004db10       ??RInputSpecTokens@@QBE?AV?$auto_ptr@VInputSpecTokens@@@std@@HH@Z 0044eb10 f   inputspec.obj
 0001:0004dc80       ?getKeyNames@@YAPBQBDXZ    0044ec80 f   keynames.obj
 0001:0004dc90       ?signX@Movement2D@@QAEHXZ  0044ec90 f   movement2d.obj
 0001:0004dcb0       ?signY@Movement2D@@QAEHXZ  0044ecb0 f   movement2d.obj
 0001:0004dcd0       ?signZ@Movement3D@@QAEHXZ  0044ecd0 f   movement2d.obj
 0001:0004dcf0       ??0DPadMovement@@QAE@W4ControlType@@00000H@Z 0044ecf0 f   movement2d.obj
 0001:0004dd40       ?Advance@DPadMovement@@UAEXXZ 0044ed40 f   movement2d.obj
 0001:0004de00       ??0TargetCursor@@QAE@XZ    0044ee00 f   targetcursor.obj
 0001:0004de20       ?SetMousePos@TargetCursor@@QAEXHH@Z 0044ee20 f   targetcursor.obj
 0001:0004de50       ?MoveCursor@TargetCursor@@QAEXHH@Z 0044ee50 f   targetcursor.obj
 0001:0004de80       ??BUnicodeString@@QBEPBDXZ 0044ee80 f   unicode_string1.obj
 0001:0004de80       ?velZ@Movement3D@@UAEHXZ   0044ee80 f   movement2d.obj
 0001:0004de80       ?dX@TargetCursor@@QBEHXZ   0044ee80 f   targetcursor.obj
 0001:0004de90       ?dZ@TargetCursor@@QBEHXZ   0044ee90 f   targetcursor.obj
 0001:0004dea0       ?Advance@TargetCursor@@QAEXXZ 0044eea0 f   targetcursor.obj
 0001:0004dfa0       ??RControlEventFunctor@@UAE_NXZ 0044efa0 f   transform.obj
 0001:0004dfc0       ??0ControlEventFunctor@@QAE@W4ControlType@@@Z 0044efc0 f   transform.obj
 0001:0004dfe0       ?noun@ControlEventFunctor@@QAE?AV?$basic_string@DU?$char_traits@D@std@@V?$allocator@D@2@@std@@XZ 0044efe0 f   transform.obj
 0001:0004e090       ?WindowHasFocus@W32EventHandler@@UAE_NXZ 0044f090 f   win32_eventhandler.obj
 0001:0004e0a0       ?getW32EventHandler@@YAPAVW32EventHandler@@XZ 0044f0a0 f   win32_eventhandler.obj
 0001:0004e0c0       ?ResetWindowHandle@W32EventHandler@@QAEXXZ 0044f0c0 f   win32_eventhandler.obj
 0001:0004e150       ??$_Remove_copy@PAPAVW32EventProcessor@@V?$_Vector_iterator@PAVW32EventProcessor@@V?$allocator@PAVW32EventProcessor@@@std@@@std@@PAV1@@std@@YA?AV?$_Vector_iterator@PAVW32EventProcessor@@V?$allocator@PAVW32EventProcessor@@@std@@@0@PAPAVW32EventProcessor@@0V10@ABQAV2@U_Range_checked_iterator_tag@0@@Z 0044f150 f i win32_eventhandler.obj
 0001:0004e1e0       ??$remove@V?$_Vector_iterator@PAVW32EventProcessor@@V?$allocator@PAVW32EventProcessor@@@std@@@std@@PAVW32EventProcessor@@@std@@YA?AV?$_Vector_iterator@PAVW32EventProcessor@@V?$allocator@PAVW32EventProcessor@@@std@@@0@V10@0ABQAVW32EventProcessor@@@Z 0044f1e0 f i win32_eventhandler.obj
 0001:0004e2b0       ?WndProc@W32EventHandler@@UAGJPAUHWND__@@IIJ@Z 0044f2b0 f   win32_eventhandler.obj
 0001:0004e4b0       ?RemoveEventProcessor@W32EventHandler@@QAEXPAVW32EventProcessor@@@Z 0044f4b0 f   win32_eventhandler.obj
 0001:0004e500       ??0W32EventHandler@@QAE@XZ 0044f500 f   win32_eventhandler.obj
 0001:0004e530       ?push_back@?$vector@PAVInputDriver@@V?$allocator@PAVInputDriver@@@std@@@std@@QAEXABQAVInputDriver@@@Z 0044f530 f i input.obj
 0001:0004e530       ?push_back@?$vector@PAV?$basic_string@DU?$char_traits@D@std@@V?$allocator@D@2@@std@@V?$allocator@PAV?$basic_string@DU?$char_traits@D@std@@V?$allocator@D@2@@std@@@2@@std@@QAEXABQAV?$basic_string@DU?$char_traits@D@std@@V?$allocator@D@2@@2@@Z 0044f530 f i inputdriver_prefs.obj
 0001:0004e530       ?push_back@?$vector@PAVHelpIcon@@V?$allocator@PAVHelpIcon@@@std@@@std@@QAEXABQAVHelpIcon@@@Z 0044f530 f i control_help.obj
 0001:0004e530       ?push_back@?$vector@PAVW32EventProcessor@@V?$allocator@PAVW32EventProcessor@@@std@@@std@@QAEXABQAVW32EventProcessor@@@Z 0044f530 f i win32_eventhandler.obj
 0001:0004e530       ?push_back@?$vector@PBUInputSpec@@V?$allocator@PBUInputSpec@@@std@@@std@@QAEXABQBUInputSpec@@@Z 0044f530 f i control_bindings.obj
 0001:0004e5a0       ?AddEventProcessor@W32EventHandler@@QAEXPAVW32EventProcessor@@@Z 0044f5a0 f   win32_eventhandler.obj
 0001:0004e5e0       ??1NetLib@@QAE@XZ          0044f5e0 f   net_lib.obj
 0001:0004e5f0       ?Initialise@NetLib@@QAE_NXZ 0044f5f0 f   net_lib.obj
 0001:0004e680       ?IpAddressToStr@@YAXABUin_addr@@PAD@Z 0044f680 f   net_lib.obj
 0001:0004e6b0       ?GetLocalHostIP@@YAXPADH@Z 0044f6b0 f   net_lib.obj
 0001:0004e860       ??0NetMutex@@QAE@XZ        0044f860 f   net_mutex_win32.obj
 0001:0004e880       ??1NetMutex@@QAE@XZ        0044f880 f   net_mutex_win32.obj
 0001:0004e8a0       ?TryLock@NetMutex@@QAE_NXZ 0044f8a0 f   net_mutex_win32.obj
 0001:0004e8c0       ?Lock@NetMutex@@QAEXXZ     0044f8c0 f   net_mutex_win32.obj
 0001:0004e8e0       ?Unlock@NetMutex@@QAEXXZ   0044f8e0 f   net_mutex_win32.obj
 0001:0004e900       ??0NetEvent@@QAE@XZ        0044f900 f   net_mutex_win32.obj
 0001:0004e920       ??1NetEvent@@QAE@XZ        0044f920 f   net_mutex_win32.obj
 0001:0004e930       ?Signal@NetEvent@@QAEXXZ   0044f930 f   net_mutex_win32.obj
 0001:0004e940       ?Wait@NetEvent@@QAE_NN@Z   0044f940 f   net_mutex_win32.obj
 0001:0004e990       ??0NetSocket@@QAE@XZ       0044f990 f   net_socket.obj
 0001:0004ea20       ??1NetSocket@@QAE@XZ       0044fa20 f   net_socket.obj
 0001:0004ea40       ?GetLocalAddress@NetSocket@@QAE?AUsockaddr_in@@XZ 0044fa40 f   net_socket.obj
 0001:0004ea70       ?Connect@NetSocket@@IAE?AW4NetRetCode@@XZ 0044fa70 f   net_socket.obj
 0001:0004ec10       ?Connect@NetSocket@@QAE?AW4NetRetCode@@PBDG@Z 0044fc10 f   net_socket.obj
 0001:0004ec90       _gai_strerrorA             0044fc90 f i net_socket_listener.obj
 0001:0004ecc0       _WspiapiStrdup@4           0044fcc0 f i net_socket_listener.obj
 0001:0004ed10       _WspiapiParseV4Address@8   0044fd10 f i net_socket_listener.obj
 0001:0004ed60       _WspiapiNewAddrInfo@16     0044fd60 f i net_socket_listener.obj
 0001:0004edd0       _WspiapiQueryDNS@24        0044fdd0 f i net_socket_listener.obj
 0001:0004eec0       _WspiapiLookupNode@24      0044fec0 f i net_socket_listener.obj
 0001:0004f050       _WspiapiClone@8            00450050 f i net_socket_listener.obj
 0001:0004f0f0       _WspiapiLegacyFreeAddrInfo@4 004500f0 f i net_socket_listener.obj
 0001:0004f140       _WspiapiLegacyGetAddrInfo@16 00450140 f i net_socket_listener.obj
 0001:0004f430       ?GetPort@NetSocketListener@@QBEHXZ 00450430 f   net_socket_listener.obj
 0001:0004f440       ?EnableBroadcast@NetSocketListener@@QAE?AW4NetRetCode@@XZ 00450440 f   net_socket_listener.obj
 0001:0004f470       ?StopListening@NetSocketListener@@QAEXXZ 00450470 f   net_socket_listener.obj
 0001:0004f4b0       _WspiapiLegacyGetNameInfo@28 004504b0 f i net_socket_listener.obj
 0001:0004f760       _WspiapiLoad@4             00450760 f i net_socket_listener.obj
 0001:0004f910       _WspiapiGetAddrInfo@16     00450910 f i net_socket_listener.obj
 0001:0004f950       _WspiapiFreeAddrInfo@4     00450950 f i net_socket_listener.obj
 0001:0004f970       ?Bind@NetSocketListener@@QAE?AW4NetRetCode@@XZ 00450970 f   net_socket_listener.obj
 0001:0004fc20       ?StartListening@NetSocketListener@@QAE?AW4NetRetCode@@P6GKPAVNetUdpPacket@@@Z@Z 00450c20 f   net_socket_listener.obj
 0001:0004fda0       ??1NetSocketListener@@QAE@XZ 00450da0 f   net_socket_listener.obj
 0001:0004fe50       ?GetBoundSocketHandle@NetSocketListener@@QAEIXZ 00450e50 f   net_socket_listener.obj
 0001:0004fe70       ??0NetSocketListener@@QAE@GABV?$basic_string@DU?$char_traits@D@std@@V?$allocator@D@2@@std@@0@Z 00450e70 f   net_socket_listener.obj
 0001:0004ff30       ?WriteData@NetSocketSession@@QAE?AW4NetRetCode@@PBXHPAH@Z 00450f30 f   net_socket_session.obj
 0001:0004ff80       ??0NetSocketSession@@QAE@AAVNetSocketListener@@PBDI@Z 00450f80 f   net_socket_session.obj
 0001:000500d0       ?NetStartThread@@YA?AW4NetRetCode@@P6GKPAX@Z0@Z 004510d0 f   net_thread_win32.obj
 0001:00050110       ?NetGetCurrentThreadId@@YAKXZ 00451110 f   net_thread_win32.obj
 0001:00050120       ??0NetUdpPacket@@QAE@XZ    00451120 f   net_udp_packet.obj
 0001:00050150       ?GetPort@NetUdpPacket@@QAEHXZ 00451150 f   net_udp_packet.obj
 0001:00050160       ?Authentication_GenerateKey@@YAXPADH_N1@Z 00451160 f   authentication.obj
 0001:00050180       ?Authentication_SaveKey@@YAXPBD0@Z 00451180 f   authentication.obj
 0001:000501d0       ?Authentication_SetHashToken@@YAXH@Z 004511d0 f   authentication.obj
 0001:00050200       ?Authentication_GetHashToken@@YAHXZ 00451200 f   authentication.obj
 0001:00050210       ?Authentication_GetKeyHash@@YAXPAD0H@Z 00451210 f   authentication.obj
 0001:00050230       ?Authentication_IsHashKey@@YA_NPBD@Z 00451230 f   authentication.obj
 0001:00050250       ?Authentication_GetStatusString@@YAPBDH@Z 00451250 f   authentication.obj
 0001:000502e0       ?Authentication_GetStatusStringLanguagePhrase@@YAPBDH@Z 004512e0 f   authentication.obj
 0001:00050370       ?Authentication_SimpleKeyCheck@@YAHPBDH@Z 00451370 f   authentication.obj
 0001:000503c0       ?Authentication_GetKeyId@@YAHPAD@Z 004513c0 f   authentication.obj
 0001:00050460       ?Authentication_GetStatus@@YAHPBD@Z 00451460 f   authentication.obj
 0001:00050500       ?Authentication_SetStatus@@YAXPBDHH@Z 00451500 f   authentication.obj
 0001:00050660       ?Authentication_IsDemoKey@@YA_NPBD@Z 00451660 f   authentication.obj
 0001:00050980       ?Authentication_RequestStatus@@YAXPBDHH0@Z 00451980 f   authentication.obj
 0001:00050b00       ?Authentication_LoadKey@@YAXPADPBD@Z 00451b00 f   authentication.obj
 0001:00050ba0       ?Authentication_SetKey@@YAXPBD@Z 00451ba0 f   authentication.obj
 0001:00050c70       ?Authentication_GetKey@@YAXPAD@Z 00451c70 f   authentication.obj
 0001:00050ce0       ?Authentication_GetKeyHash@@YAXPAD@Z 00451ce0 f   authentication.obj
 0001:00050d40       ?MatchMaker_LocateService@@YAXPBDH@Z 00451d40 f   matchmaker.obj
 0001:00050d80       ?MatchMaker_RequestConnection@@YAXPAVNetSocketListener@@PBDHPAVDirectory@@@Z 00451d80 f   matchmaker.obj
 0001:000511b0       ?MatchMaker_StopRequestingIdentity@@YAXPAVNetSocketListener@@@Z 004521b0 f   matchmaker.obj
 0001:00051260       ?MatchMaker_GetIdentity@@YA_NPAVNetSocketListener@@PADPAH@Z 00452260 f   matchmaker.obj
 0001:00051330       ?MatchMaker_ReceiveMessage@@YA_NPAVNetSocketListener@@PAVDirectory@@@Z 00452330 f   matchmaker.obj
 0001:000516e0       ?MatchMaker_StartRequestingIdentity@@YAXPAVNetSocketListener@@@Z 004526e0 f   matchmaker.obj
 0001:000517f0       ?MetaServer_SendDirectory@@YA_NPAVDirectory@@PAVNetSocketSession@@@Z 004527f0 f   metaserver.obj
 0001:00051870       ?MetaServer_SendToMetaServer@@YA_NPAVDirectory@@@Z 00452870 f   metaserver.obj
 0001:00051890       ?MetaServer_Initialise@@YAXXZ 00452890 f   metaserver.obj
 0001:00051920       ?MetaServer_Disconnect@@YAXXZ 00452920 f   metaserver.obj
 0001:000519a0       ?MetaServer_IsConnected@@YA_NXZ 004529a0 f   metaserver.obj
 0001:000519b0       ?MetaServer_SetServerProperties@@YAXPAVDirectory@@@Z 004529b0 f   metaserver.obj
 0001:00051a90       ?MetaServer_SetClientProperties@@YAXPAVDirectory@@@Z 00452a90 f   metaserver.obj
 0001:00051b40       ?MetaServer_GetClientProperties@@YAPAVDirectory@@XZ 00452b40 f   metaserver.obj
 0001:00051e30       ?MetaServer_StopRegisteringOverWAN@@YAXXZ 00452e30 f   metaserver.obj
 0001:00051fa0       ?MetaServer_StartRegisteringOverLAN@@YAXXZ 00452fa0 f   metaserver.obj
 0001:000520c0       ?MetaServer_StopRegisteringOverLAN@@YAXXZ 004530c0 f   metaserver.obj
 0001:00052110       ?MetaServer_IsRegisteringOverWAN@@YA_NXZ 00453110 f   metaserver.obj
 0001:00052130       ?MetaServer_IsRegisteringOverLAN@@YA_NXZ 00453130 f   metaserver.obj
 0001:00052140       ?MetaServer_RequestServerListWAN@@YAXH@Z 00453140 f   metaserver.obj
 0001:00052240       ?MetaServer_HasReceivedListWAN@@YA_NXZ 00453240 f   metaserver.obj
 0001:00052250       ?Empty@?$LList@PAVMineCart@@@@QAEXXZ 00453250 f i mine.obj
 0001:00052250       ?Empty@?$LList@PAVSoundEventBlueprint@@@@QAEXXZ 00453250 f i soundsystem.obj
 0001:00052250       ?Empty@?$LList@PAVRunningProgram@@@@QAEXXZ 00453250 f i level_file.obj
 0001:00052250       ?Empty@?$LList@PAVLocationMarker@@@@QAEXXZ 00453250 f i app.obj
 0001:00052250       ?Empty@?$LList@PAVBuildingPort@@@@QAEXXZ 00453250 f i building.obj
 0001:00052250       ?Empty@?$LList@PAVEclButton@@@@QAEXXZ 00453250 f i darwinia_window.obj
 0001:00052250       ?Empty@?$LList@PAVInstantUnit@@@@QAEXXZ 00453250 f i level_file.obj
 0001:00052250       ?Empty@?$LList@PAVUnicodeString@@@@QAEXXZ 00453250 f i helpandoptions_windows.obj
 0001:00052250       ?Empty@?$LList@PAVIFrame@@@@QAEXXZ 00453250 f i ClientToServer.obj
 0001:00052250       ?Empty@?$LList@PAVSpawnBuildingLink@@@@QAEXXZ 00453250 f i spawnpoint.obj
 0001:00052250       ?Empty@?$LList@PAVAuthenticationResult@@@@QAEXXZ 00453250 f i authentication.obj
 0001:00052250       ?Empty@?$LList@PAUIncubatorIncoming@@@@QAEXXZ 00453250 f i incubator.obj
 0001:00052250       ?Empty@?$LList@PAVAchievementButton@@@@QAEXXZ 00453250 f i GameMenuWindow.obj
 0001:00052250       ?Empty@?$LList@PAVEclWindow@@@@QAEXXZ 00453250 f i eclipse:eclipse.obj
 0001:00052250       ?Empty@?$LList@PAVGameServerButton@@@@QAEXXZ 00453250 f i GameMenuWindow.obj
 0001:00052250       ?Empty@?$LList@PAUOnScreenAidInfo@ControlHelpSystem@@@@QAEXXZ 00453250 f i control_help.obj
 0001:00052250       ?Empty@?$LList@PAVWorldObjectId@@@@QAEXXZ 00453250 f i sound_instance.obj
 0001:00052250       ?Empty@?$LList@PAVLandscapeFlattenArea@@@@QAEXXZ 00453250 f i level_file.obj
 0001:00052250       ?Empty@?$LList@PAVAnimatedPanelObject@@@@QAEXXZ 00453250 f i animatedpanel.obj
 0001:00052250       ?Empty@?$LList@PAUAntObjective@@@@QAEXXZ 00453250 f i anthill.obj
 0001:00052250       ?Empty@?$LList@PAVCameraMount@@@@QAEXXZ 00453250 f i level_file.obj
 0001:00052250       ?Empty@?$LList@PAVWayPoint@@@@QAEXXZ 00453250 f i routing_system.obj
 0001:00052250       ?Empty@?$LList@PAVTask@@@@QAEXXZ 00453250 f i taskmanager.obj
 0001:00052250       ?Empty@?$LList@PAUNeighbourInfo@@@@QAEXXZ 00453250 f i wallbuster.obj
 0001:00052250       ?Empty@?$LList@PAURoutingTableEntry@@@@QAEXXZ 00453250 f i routing_system.obj
 0001:00052250       ?Empty@?$LList@PAVBuilding@@@@QAEXXZ 00453250 f i level_file.obj
 0001:00052250       ?Empty@?$LList@PAUGameServer@@@@QAEXXZ 00453250 f i metaserver.obj
 0001:00052250       ?Empty@?$LList@PAUPowerSurge@@@@QAEXXZ 00453250 f i generator.obj
 0001:00052250       ?Empty@?$LList@PAVGlobalEvent@@@@QAEXXZ 00453250 f i global_world.obj
 0001:00052250       ?Empty@?$LList@PAVLight@@@@QAEXXZ 00453250 f i level_file.obj
 0001:00052250       ?Empty@?$LList@PAVDirectory@@@@QAEXXZ 00453250 f i ClientToServer.obj
 0001:00052250       ?Empty@?$LList@PAVDropDownOptionData@@@@QAEXXZ 00453250 f i drop_down_menu.obj
 0001:00052250       ?Empty@?$LList@PAVGlobalEventCondition@@@@QAEXXZ 00453250 f i global_world.obj
 0001:00052250       ?Empty@?$LList@PAVShapeFragment@@@@QAEXXZ 00453250 f i shape.obj
 0001:00052250       ?Empty@?$LList@PAVLandscapeTile@@@@QAEXXZ 00453250 f i level_file.obj
 0001:00052250       ?Empty@?$LList@PAVDspHandle@@@@QAEXXZ 00453250 f i sound_instance.obj
 0001:00052250       ?Empty@?$LList@PAVRoute@@@@QAEXXZ 00453250 f i level_file.obj
 0001:00052250       ?Empty@?$LList@PAVDelayedJob@@@@QAEXXZ 00453250 f i app.obj
 0001:00052250       ?Empty@?$LList@PAVHistoricWayPoint@@@@QAEXXZ 00453250 f i insertion_squad.obj
 0001:00052250       ?Empty@?$LList@PAVScreenZone@@@@QAEXXZ 00453250 f i taskmanager_interface_gestures.obj
 0001:00052250       ?Empty@?$LList@PAVCameraAnimation@@@@QAEXXZ 00453250 f i level_file.obj
 0001:00052250       ?Empty@?$LList@PAVGlobalLocation@@@@QAEXXZ 00453250 f i global_world.obj
 0001:00052250       ?Empty@?$LList@PAVUnprocessedSpirit@@@@QAEXXZ 00453250 f i spiritreceiver.obj
 0001:00052250       ?Empty@?$LList@PAUMetaServerData@@@@QAEXXZ 00453250 f i metaserver.obj
 0001:00052250       ?Empty@?$LList@PAVDirtyRect@@@@QAEXXZ 00453250 f i eclipse:eclipse.obj
 0001:00052250       ?Empty@?$LList@PAVServerToClientLetter@@@@QAEXXZ 00453250 f i Server.obj
 0001:00052250       ?Empty@?$LList@PAVShamanIcon@@@@QAEXXZ 00453250 f i app.obj
 0001:00052250       ?Empty@?$LList@M@@QAEXXZ   00453250 f i global_internet.obj
 0001:00052250       ?Empty@?$LList@PAUChatMessage@@@@QAEXXZ 00453250 f i GameMenuWindow.obj
 0001:00052250       ?Empty@?$LList@PAVGlobalEventAction@@@@QAEXXZ 00453250 f i global_world.obj
 0001:00052250       ?Empty@?$LList@PAD@@QAEXXZ 00453250 f i filedialog.obj
 0001:00052250       ?Empty@?$LList@PAVShapeMarker@@@@QAEXXZ 00453250 f i shape.obj
 0001:00052250       ?Empty@?$LList@PAVVector3@@@@QAEXXZ 00453250 f i engineer.obj
 0001:00052250       ?Empty@?$LList@PAVKeyboardShortcut@@@@QAEXXZ 00453250 f i taskmanager_interface_gestures.obj
 0001:00052250       ?Empty@?$LList@PAURRSolarPanelInfo@@@@QAEXXZ 00453250 f i ai.obj
 0001:00052250       ?Empty@?$LList@PAVJob@@@@QAEXXZ 00453250 f i loading_screen.obj
 0001:00052250       ?Empty@?$LList@PAVRadarDish@@@@QAEXXZ 00453250 f i ai.obj
 0001:00052250       ?Empty@?$LList@PAVMouseCursorMarker@@@@QAEXXZ 00453250 f i gamecursor.obj
 0001:00052250       ?Empty@?$LList@PAVRunnable@@@@QAEXXZ 00453250 f i work_queue.obj
 0001:00052250       ?Empty@?$LList@PAVResolution@@@@QAEXXZ 00453250 f i window_manager.obj
 0001:00052250       ?Empty@?$LList@PAVExplosion@@@@QAEXXZ 00453250 f i explosion.obj
 0001:00052250       ?Empty@?$LList@PAVGlobalBuilding@@@@QAEXXZ 00453250 f i global_world.obj
 0001:00052250       ?Empty@?$LList@PAVSyncDiff@@@@QAEXXZ 00453250 f i team.obj
 0001:00052250       ?Empty@?$LList@PAVViriiHistory@@@@QAEXXZ 00453250 f i virii.obj
 0001:00052250       ?Empty@?$LList@H@@QAEXXZ   00453250 f i filedialog.obj
 0001:000522a0       ?MetaServer_UpdateServerList@@YAXPADH_NPAVDirectory@@@Z 004532a0 f   metaserver.obj
 0001:000525b0       ?MetaServer_DelistServer@@YAXPBDHPAVDirectory@@@Z 004535b0 f   metaserver.obj
 0001:00052760       ?MetaServer_PurgeServerList@@YAXXZ 00453760 f   metaserver.obj
 0001:00052800       ?MetaServer_GetServerList@@YAPAV?$LList@PAVDirectory@@@@_N00H@Z 00453800 f   metaserver.obj
 0001:000529b0       ?ReceiveMetaServerData@@YAXPAVDirectory@@@Z 004539b0 f   metaserver.obj
 0001:00052b40       ?ReceiveDirectory@@YAXPAVDirectory@@@Z 00453b40 f   metaserver.obj
 0001:00053070       ?MetaServer_RequestData@@YAPAVDirectory@@PBD0@Z 00454070 f   metaserver.obj
 0001:00053400       ?MetaServer_GetServerTTL@@YAHXZ 00454400 f   metaserver.obj
 0001:00053690       ?MetaServer_StartRegisteringOverWAN@@YAXXZ 00454690 f   metaserver.obj
 0001:000536c0       ?MetaServer_Connect@@YAXPBDHH@Z 004546c0 f   metaserver.obj
 0001:000539c0       ?MetaServer_Connect@@YAXPBDH@Z 004549c0 f   metaserver.obj
 0001:000539e0       ?ReadFileData@@YAHPAVBinaryReader@@HPAD@Z 004549e0 f   filecrc.obj
 0001:00053a30       ?FileCRC@@YAHPAVBinaryReader@@@Z 00454a30 f   filecrc.obj
 0001:00053a70       ?HashData@@YAXPBDHPAD@Z    00454a70 f   hash.obj
 0001:00053b30       ?iv_trunc_low_nibble@@YANN@Z 00454b30 f   math_stubs.obj
 0001:00053b40       ?iv_atof@@YANPBD@Z         00454b40 f   math_stubs.obj
 0001:00053b60       ?AppSeedRandom@@YAXI@Z     00454b60 f   random_number.obj
 0001:00053b70       ?AppRandom@@YAHXZ          00454b70 f   random_number.obj
 0001:00053b90       ?syncrandseed@@YAXK@Z      00454b90 f   random_number.obj
 0001:00053c00       ?_syncrand@@YAKXZ          00454c00 f   random_number.obj
 0001:00053d20       ?_syncfrand@@YANN@Z        00454d20 f   random_number.obj
 0001:00053d50       ?_syncsfrand@@YANN@Z       00454d50 f   random_number.obj
 0001:00053d80       ?frand@@YANN@Z             00454d80 f   random_number.obj
 0001:00053db0       ?sfrand@@YANN@Z            00454db0 f   random_number.obj
 0001:00053df0       ??1?$basic_ofstream@DU?$char_traits@D@std@@@std@@UAE@XZ 00454df0 f i random_number.obj
 0001:00053e60       ??_D?$basic_ofstream@DU?$char_traits@D@std@@@std@@QAEXXZ 00454e60 f i random_number.obj
 0001:00053e80       ??_G?$basic_ofstream@DU?$char_traits@D@std@@@std@@UAEPAXI@Z 00454e80 f i random_number.obj
 0001:00053e80       ??_E?$basic_ofstream@DU?$char_traits@D@std@@@std@@UAEPAXI@Z 00454e80 f i random_number.obj
 0001:00053ec0       ??0?$basic_ofstream@DU?$char_traits@D@std@@@std@@QAE@PBDHH@Z 00454ec0 f i random_number.obj
 0001:00054000       ?SetName@Directory@@QAEXPBD@Z 00455000 f   directory.obj
 0001:00054040       ?GetFirstSubDir@Directory@@SAPADPBD@Z 00455040 f   directory.obj
 0001:000540c0       ?GetOtherSubDirs@Directory@@SAPADPBD@Z 004550c0 f   directory.obj
 0001:00054120       ?HexDumpData@@YAXPBDHH@Z   00455120 f   directory.obj
 0001:00054280       ?SetData@DirectoryData@@QAEXPBHH@Z 00455280 f   directory.obj
 0001:000542e0       ?SetData@DirectoryData@@QAEXPBV1@@Z 004552e0 f   directory.obj
 0001:00054410       ??8DirectoryData@@QBE_NABV0@@Z 00455410 f   directory.obj
 0001:000545f0       ??A?$DArray@PAVDirectoryData@@@@QBEABQAVDirectoryData@@H@Z 004555f0 f i directory.obj
 0001:000545f0       ??A?$DArray@PAVDirectory@@@@QBEABQAVDirectory@@H@Z 004555f0 f i directory.obj
 0001:000545f0       ??A?$DArray@PAVIFrameEntity@@@@QBEABQAVIFrameEntity@@H@Z 004555f0 f i iframe.obj
 0001:00054660       ??$_Allocate@H@std@@YAPAHIPAH@Z 00455660 f i directory.obj
 0001:00054660       ??$_Allocate@PAV?$basic_string@DU?$char_traits@D@std@@V?$allocator@D@2@@std@@@std@@YAPAPAV?$basic_string@DU?$char_traits@D@std@@V?$allocator@D@2@@0@IPAPAV10@@Z 00455660 f i inputdriver_prefs.obj
 0001:00054660       ??$_Allocate@PAVHelpIcon@@@std@@YAPAPAVHelpIcon@@IPAPAV1@@Z 00455660 f i control_help.obj
 0001:00054660       ??$_Allocate@PBUInputSpec@@@std@@YAPAPBUInputSpec@@IPAPBU1@@Z 00455660 f i control_bindings.obj
 0001:00054660       ??$_Allocate@PAVInputDriver@@@std@@YAPAPAVInputDriver@@IPAPAV1@@Z 00455660 f i input.obj
 0001:00054660       ??$_Allocate@PAVW32EventProcessor@@@std@@YAPAPAVW32EventProcessor@@IPAPAV1@@Z 00455660 f i win32_eventhandler.obj
 0001:00054660       ??$_Allocate@I@std@@YAPAIIPAI@Z 00455660 f i routing_system.obj
 0001:00054660       ??$_Allocate@PAV?$auto_vector@$$CBUInputSpec@@@@@std@@YAPAPAV?$auto_vector@$$CBUInputSpec@@@@IPAPAV1@@Z 00455660 f i inputdriver_chord.obj
 0001:000546c0       ?_Init@strstreambuf@std@@IAEXHPAD0H@Z 004556c0 f i directory.obj
 0001:00054790       ?GetDirectory@Directory@@QBEPAV1@PBD@Z 00455790 f   directory.obj
 0001:000548c0       ?RemoveDirectoryA@Directory@@QAEXPBD@Z 004558c0 f   directory.obj
 0001:00054940       ?GetData@Directory@@QBEPAVDirectoryData@@PBD@Z 00455940 f   directory.obj
 0001:000549e0       ??_GDirectoryData@@QAEPAXI@Z 004559e0 f i directory.obj
 0001:00054a40       ?HasData@Directory@@QBE_NPBDH@Z 00455a40 f   directory.obj
 0001:00054a90       ??0DirectoryData@@QAE@XZ   00455a90 f   directory.obj
 0001:00054ae0       ?EmptyAndDelete@?$DArray@PAVDirectoryData@@@@QAEXXZ 00455ae0 f i directory.obj
 0001:00054c10       ?overflow@strstreambuf@std@@MAEHH@Z 00455c10 f i directory.obj
 0001:00054dd0       ?pbackfail@strstreambuf@std@@MAEHH@Z 00455dd0 f i directory.obj
 0001:00054e20       ?underflow@strstreambuf@std@@MAEHXZ 00455e20 f i directory.obj
 0001:00054e80       ?seekoff@strstreambuf@std@@MAE?AV?$fpos@H@2@JHH@Z 00455e80 f i directory.obj
 0001:00054fe0       ?seekpos@strstreambuf@std@@MAE?AV?$fpos@H@2@V32@H@Z 00455fe0 f i directory.obj
 0001:000550b0       ??1strstreambuf@std@@UAE@XZ 004560b0 f i directory.obj
 0001:00055140       ??_Gstrstreambuf@std@@UAEPAXI@Z 00456140 f i directory.obj
 0001:00055140       ??_Estrstreambuf@std@@UAEPAXI@Z 00456140 f i directory.obj
 0001:00055160       ??1istrstream@std@@UAE@XZ  00456160 f i directory.obj
 0001:000551d0       ??_Distrstream@std@@QAEXXZ 004561d0 f i directory.obj
 0001:000551f0       ??1ostrstream@std@@UAE@XZ  004561f0 f i directory.obj
 0001:00055260       ??_Dostrstream@std@@QAEXXZ 00456260 f i directory.obj
 0001:00055280       ??0Directory@@QAE@XZ       00456280 f   directory.obj
 0001:00055300       ??0Directory@@QAE@ABV0@@Z  00456300 f   directory.obj
 0001:000553b0       ??8Directory@@QBE_NABV0@@Z 004563b0 f   directory.obj
 0001:000553f0       ??9Directory@@QBE_NABV0@@Z 004563f0 f   directory.obj
 0001:00055440       ??1Directory@@QAE@XZ       00456440 f   directory.obj
 0001:000554f0       ?GetDataInt@Directory@@QBEHPBD@Z 004564f0 f   directory.obj
 0001:00055530       ?GetDataULLong@Directory@@QBE_KPBD@Z 00456530 f   directory.obj
 0001:00055570       ?GetDataFloat@Directory@@QBEMPBD@Z 00456570 f   directory.obj
 0001:000555b0       ?GetDataString@Directory@@QBEPADPBD@Z 004565b0 f   directory.obj
 0001:000555f0       ?GetDataUnicode@Directory@@QBEPAGPBD@Z 004565f0 f   directory.obj
 0001:00055630       ?GetDataBool@Directory@@QBE_NPBD@Z 00456630 f   directory.obj
 0001:00055660       ?GetDataVoid@Directory@@QBEPAXPBDPAH@Z 00456660 f   directory.obj
 0001:000556a0       ?GetDataInts@Directory@@QBEPAHPBDPAI@Z 004566a0 f   directory.obj
 0001:000556e0       ?RemoveData@Directory@@QAEXPBD@Z 004566e0 f   directory.obj
 0001:000557c0       ?EmptyAndDelete@?$DArray@PAVDirectory@@@@QAEXXZ 004567c0 f i directory.obj
 0001:000558d0       ??$_Copy_opt@PAHV?$_Vector_iterator@HV?$allocator@H@std@@@std@@Urandom_access_iterator_tag@2@@std@@YA?AV?$_Vector_iterator@HV?$allocator@H@std@@@0@PAH0V10@Urandom_access_iterator_tag@0@U_Scalar_ptr_iterator_tag@0@U_Range_checked_iterator_tag@0@@Z 004568d0 f i directory.obj
 0001:00055980       ??_Eistrstream@std@@UAEPAXI@Z 00456980 f i directory.obj
 0001:00055980       ??_Gistrstream@std@@UAEPAXI@Z 00456980 f i directory.obj
 0001:000559c0       ??_Eostrstream@std@@UAEPAXI@Z 004569c0 f i directory.obj
 0001:000559c0       ??_Gostrstream@std@@UAEPAXI@Z 004569c0 f i directory.obj
 0001:00055a00       ?AddDirectory@Directory@@QAEXPAV1@@Z 00456a00 f   directory.obj
 0001:00055a40       ?CopyData@Directory@@QAEXPBV1@_N1@Z 00456a40 f   directory.obj
 0001:00055c50       ?CreateData@Directory@@QAEXPBDH@Z 00456c50 f   directory.obj
 0001:00055d30       ?CreateData@Directory@@QAEXPBD_K@Z 00456d30 f   directory.obj
 0001:00055e20       ?CreateData@Directory@@QAEXPBDM@Z 00456e20 f   directory.obj
 0001:00055f00       ?CreateData@Directory@@QAEXPBDD@Z 00456f00 f   directory.obj
 0001:00055fe0       ?CreateData@Directory@@QAEXPBD0@Z 00456fe0 f   directory.obj
 0001:000560e0       ?CreateData@Directory@@QAEXPBD_N@Z 004570e0 f   directory.obj
 0001:000561c0       ?CreateData@Directory@@QAEXPBDPBXH@Z 004571c0 f   directory.obj
 0001:000562d0       ?CreateData@Directory@@QAEXPBDPBHH@Z 004572d0 f   directory.obj
 0001:000563c0       ?CreateData@Directory@@QAEXPBDPBG@Z 004573c0 f   directory.obj
 0001:000564b0       ?CreateData@Directory@@QAEXPBDABVUnicodeString@@@Z 004574b0 f   directory.obj
 0001:000564c0       ?GetDataChar@Directory@@QBEDPBD@Z 004574c0 f   directory.obj
 0001:000564c0       ?GetDataUChar@Directory@@QBEEPBD@Z 004574c0 f   directory.obj
 0001:000564e0       ?CreateData@Directory@@QAEXPBDE@Z 004574e0 f   directory.obj
 0001:000564f0       ?erase@?$vector@PBUInputSpec@@V?$allocator@PBUInputSpec@@@std@@@std@@QAE?AV?$_Vector_iterator@PBUInputSpec@@V?$allocator@PBUInputSpec@@@std@@@2@V?$_Vector_const_iterator@PBUInputSpec@@V?$allocator@PBUInputSpec@@@std@@@2@0@Z 004574f0 f i control_bindings.obj
 0001:000564f0       ?erase@?$vector@PAV?$basic_string@DU?$char_traits@D@std@@V?$allocator@D@2@@std@@V?$allocator@PAV?$basic_string@DU?$char_traits@D@std@@V?$allocator@D@2@@std@@@2@@std@@QAE?AV?$_Vector_iterator@PAV?$basic_string@DU?$char_traits@D@std@@V?$allocator@D@2@@std@@V?$allocator@PAV?$basic_string@DU?$char_traits@D@std@@V?$allocator@D@2@@std@@@2@@2@V?$_Vector_const_iterator@PAV?$basic_string@DU?$char_traits@D@std@@V?$allocator@D@2@@std@@V?$allocator@PAV?$basic_string@DU?$char_traits@D@std@@V?$allocator@D@2@@std@@@2@@2@0@Z 004574f0 f i inputdriver_prefs.obj
 0001:000564f0       ?erase@?$vector@HV?$allocator@H@std@@@std@@QAE?AV?$_Vector_iterator@HV?$allocator@H@std@@@2@V?$_Vector_const_iterator@HV?$allocator@H@std@@@2@0@Z 004574f0 f i directory.obj
 0001:000564f0       ?erase@?$vector@PAV?$auto_vector@$$CBUInputSpec@@@@V?$allocator@PAV?$auto_vector@$$CBUInputSpec@@@@@std@@@std@@QAE?AV?$_Vector_iterator@PAV?$auto_vector@$$CBUInputSpec@@@@V?$allocator@PAV?$auto_vector@$$CBUInputSpec@@@@@std@@@2@V?$_Vector_const_iterator@PAV?$auto_vector@$$CBUInputSpec@@@@V?$allocator@PAV?$auto_vector@$$CBUInputSpec@@@@@std@@@2@0@Z 004574f0 f i inputdriver_chord.obj
 0001:000564f0       ?erase@?$vector@IV?$allocator@I@std@@@std@@QAE?AV?$_Vector_iterator@IV?$allocator@I@std@@@2@V?$_Vector_const_iterator@IV?$allocator@I@std@@@2@0@Z 004574f0 f i routing_system.obj
 0001:00056580       ?resize@?$vector@HV?$allocator@H@std@@@std@@QAEXIH@Z 00457580 f i directory.obj
 0001:00056630       ??0istrstream@std@@QAE@PADH@Z 00457630 f i iframe.obj
 0001:00056630       ??0istrstream@std@@QAE@PBDH@Z 00457630 f i directory.obj
 0001:00056720       ??0ostrstream@std@@QAE@XZ  00457720 f i directory.obj
 0001:00056820       ?GetDataInts@Directory@@QBE_NPBDAAV?$vector@HV?$allocator@H@std@@@std@@@Z 00457820 f   directory.obj
 0001:000568b0       ?get@?$basic_istream@DU?$char_traits@D@std@@@std@@QAEHXZ 004578b0 f i directory.obj
 0001:000569f0       ??$ReadNumbersData@H@@YAPAHAAV?$basic_istream@DU?$char_traits@D@std@@@std@@PAII@Z 004579f0 f i directory.obj
 0001:00056aa0       ??$ReadNetworkValue@_K@@YAAAV?$basic_istream@DU?$char_traits@D@std@@@std@@AAV01@AA_K@Z 00457aa0 f i directory.obj
 0001:00056ac0       ??$WriteNumbersData@H@@YAXAAV?$basic_ostream@DU?$char_traits@D@std@@@std@@PBHII@Z 00457ac0 f i directory.obj
 0001:00056b30       ?Read@DirectoryData@@QAE_NAAV?$basic_istream@DU?$char_traits@D@std@@@std@@@Z 00457b30 f   directory.obj
 0001:00056ce0       ?Write@DirectoryData@@QBEXAAV?$basic_ostream@DU?$char_traits@D@std@@@std@@@Z 00457ce0 f   directory.obj
 0001:00056e30       ?Read@Directory@@QAE_NAAV?$basic_istream@DU?$char_traits@D@std@@@std@@@Z 00457e30 f   directory.obj
 0001:00057020       ?Write@Directory@@QBEXAAV?$basic_ostream@DU?$char_traits@D@std@@@std@@@Z 00458020 f   directory.obj
 0001:000571b0       ?Read@Directory@@QAE_NPBDH@Z 004581b0 f   directory.obj
 0001:00057390       ?Write@Directory@@QBEPADAAH@Z 00458390 f   directory.obj
 0001:000574c0       ??0UnicodeString@@QAE@XZ   004584c0 f   unicode_string1.obj
 0001:000574f0       ??0UnicodeString@@QAE@H@Z  004584f0 f   unicode_string1.obj
 0001:00057540       ??1UnicodeString@@QAE@XZ   00458540 f   unicode_string1.obj
 0001:00057570       ??8UnicodeString@@QBE_NABV0@@Z 00458570 f   unicode_string1.obj
 0001:000575d0       ??9UnicodeString@@QBE_NABV0@@Z 004585d0 f   unicode_string1.obj
 0001:00057630       ??MUnicodeString@@QBE_NABV0@@Z 00458630 f   unicode_string1.obj
 0001:000576e0       ?StrStr@UnicodeString@@QAEPAGABV1@@Z 004586e0 f   unicode_string1.obj
 0001:00057700       ?StrCmp@UnicodeString@@QBEHABV1@_N@Z 00458700 f   unicode_string1.obj
 0001:00057760       ?FirstPositionOf@UnicodeString@@QAEHG@Z 00458760 f   unicode_string1.obj
 0001:00057790       ?LastPositionOf@UnicodeString@@QAEHG@Z 00458790 f   unicode_string1.obj
 0001:000577c0       ?CopyUnicodeToCharArray@UnicodeString@@QAEXXZ 004587c0 f   unicode_string1.obj
 0001:00057820       ?Length@UnicodeString@@QBEHXZ 00458820 f   unicode_string1.obj
 0001:00057830       ?WcsLen@UnicodeString@@QBEHXZ 00458830 f   unicode_string1.obj
 0001:00057850       ?Resize@UnicodeString@@QAEXH@Z 00458850 f   unicode_string1.obj
 0001:000578d0       ?Trim@UnicodeString@@QAEXXZ 004588d0 f   unicode_string1.obj
 0001:00057930       ?swprintf@UnicodeString@@QAAHPBGZZ 00458930 f   unicode_string1.obj
 0001:00057960       ?StrOffsetCmp@UnicodeString@@QBEHABV1@H_N@Z 00458960 f   unicode_string1.obj
 0001:000579b0       ??0UnicodeString@@QAE@PBD@Z 004589b0 f   unicode_string1.obj
 0001:00057a30       ??0UnicodeString@@QAE@ABV0@@Z 00458a30 f   unicode_string1.obj
 0001:00057a90       ?Init@UnicodeString@@IAEXHPBGH@Z 00458a90 f   unicode_string1.obj
 0001:00057b10       ??HUnicodeString@@QBE?AV0@ABV0@@Z 00458b10 f   unicode_string1.obj
 0001:00057c30       ??4UnicodeString@@QAEAAV0@ABV0@@Z 00458c30 f   unicode_string1.obj
 0001:00057cb0       ?ReplaceStringFlag@UnicodeString@@QAEXGABV1@@Z 00458cb0 f   unicode_string1.obj
 0001:00057dc0       ?StrUpr@UnicodeString@@QAEXXZ 00458dc0 f   unicode_string1.obj
 0001:00057de0       ?StrLwr@UnicodeString@@QAEXXZ 00458de0 f   unicode_string1.obj
 0001:00057e00       ?LastHanCharacter@UnicodeString@@QAEHXZ 00458e00 f   unicode_string1.obj
 0001:00057e50       ?Truncate@UnicodeString@@QAEXH@Z 00458e50 f   unicode_string1.obj
 0001:00057e70       ??0UnicodeString@@QAE@HPAGH@Z 00458e70 f   unicode_string1.obj
 0001:00057ea0       ??0UnicodeString@@QAE@PBG@Z 00458ea0 f   unicode_string1.obj
 0001:00057ef0       ??0UnicodeTextReader@@QAE@XZ 00458ef0 f   unicode_text_stream_reader1.obj
 0001:00057fb0       ??1UnicodeTextReader@@UAE@XZ 00458fb0 f   unicode_text_stream_reader1.obj
 0001:00058040       ?DoubleMaxLineLen@UnicodeTextReader@@MAEXXZ 00459040 f   unicode_text_stream_reader1.obj
 0001:00058090       ?ReadLine@UnicodeTextReader@@UAE_NXZ 00459090 f   unicode_text_stream_reader1.obj
 0001:00058100       ?TokenAvailable@UnicodeTextReader@@UAE_NXZ 00459100 f   unicode_text_stream_reader1.obj
 0001:00058150       ?GetNextUnicodeToken@UnicodeTextReader@@UAEABVUnicodeString@@XZ 00459150 f   unicode_text_stream_reader1.obj
 0001:000582b0       ?GetRestOfUnicodeLine@UnicodeTextReader@@UAEABVUnicodeString@@XZ 004592b0 f   unicode_text_stream_reader1.obj
 0001:000583a0       ?ReadUnicodeLine@UnicodeTextReader@@MAEPAGPAGI@Z 004593a0 f   unicode_text_stream_reader1.obj
 0001:000583c0       ?SetSeperatorChars@UnicodeTextReader@@UAEXPBD@Z 004593c0 f   unicode_text_stream_reader1.obj
 0001:00058420       ?SetDefaultSeperatorChars@UnicodeTextReader@@UAEXXZ 00459420 f   unicode_text_stream_reader1.obj
 0001:00058450       ?CleanLine@UnicodeTextReader@@UAEXXZ 00459450 f   unicode_text_stream_reader1.obj
 0001:00058610       ?IsOpen@UnicodeTextFileReader@@UBE_NXZ 00459610 f   unicode_text_stream_reader1.obj
 0001:00058640       ?ReadLine@UnicodeTextFileReader@@UAE_NXZ 00459640 f   unicode_text_stream_reader1.obj
 0001:000586e0       ?ReadUnicodeLine@UnicodeTextFileReader@@MAEPAGPAGI@Z 004596e0 f   unicode_text_stream_reader1.obj
 0001:00058770       ?ReadUnicodeChar@UnicodeTextFileReader@@MAEGXZ 00459770 f   unicode_text_stream_reader1.obj
 0001:000587d0       ?IsOpen@UnicodeTextDataReader@@UBE_NXZ 004597d0 f   unicode_text_stream_reader1.obj
 0001:000587e0       ?ReadLine@UnicodeTextDataReader@@UAE_NXZ 004597e0 f   unicode_text_stream_reader1.obj
 0001:00058940       ?ReadUnicodeLine@UnicodeTextDataReader@@MAEPAGPAGI@Z 00459940 f   unicode_text_stream_reader1.obj
 0001:00058980       ?ReadUnicodeChar@UnicodeTextDataReader@@MAEGXZ 00459980 f   unicode_text_stream_reader1.obj
 0001:000589d0       ??_GUnicodeTextFileReader@@UAEPAXI@Z 004599d0 f i unicode_text_stream_reader1.obj
 0001:000589d0       ??_EUnicodeTextFileReader@@UAEPAXI@Z 004599d0 f i unicode_text_stream_reader1.obj
 0001:00058a10       ??0UnicodeTextFileReader@@QAE@PBD@Z 00459a10 f   unicode_text_stream_reader1.obj
 0001:00058b70       ??0UnicodeTextDataReader@@QAE@PBDI0@Z 00459b70 f   unicode_text_stream_reader1.obj
 0001:00058c50       ??_EUnicodeTextDataReader@@UAEPAXI@Z 00459c50 f i unicode_text_stream_reader1.obj
 0001:00058c50       ??_EUnicodeTextReader@@UAEPAXI@Z 00459c50 f i unicode_text_stream_reader1.obj
 0001:00058c50       ??_GUnicodeTextDataReader@@UAEPAXI@Z 00459c50 f i unicode_text_stream_reader1.obj
 0001:00058c50       ??_GUnicodeTextReader@@UAEPAXI@Z 00459c50 f i unicode_text_stream_reader1.obj
 0001:00058c70       ?Render@DustBall@@UAEXN@Z  00459c70 f   dustball.obj
 0001:00058d30       ??0DustBall@@QAE@XZ        00459d30 f   dustball.obj
 0001:00058dd0       ?Advance@DustBall@@UAE_NXZ 00459dd0 f   dustball.obj
 0001:000592c0       ??0Flag@@QAE@XZ            0045a2c0 f   flag.obj
 0001:00059370       ?Initialise@Flag@@QAEXXZ   0045a370 f   flag.obj
 0001:000597a0       ?SetTexture@Flag@@QAEXH@Z  0045a7a0 f   flag.obj
 0001:000597b0       ?SetPosition@Flag@@QAEXABVVector3@@@Z 0045a7b0 f   flag.obj
 0001:000597e0       ?SetTarget@Flag@@QAEXABVVector3@@@Z 0045a7e0 f   flag.obj
 0001:00059810       ?SetOrientation@Flag@@QAEXABVVector3@@0@Z 0045a810 f   flag.obj
 0001:00059850       ?SetSize@Flag@@QAEXN@Z     0045a850 f   flag.obj
 0001:00059860       ?SetViewFlipped@Flag@@QAEX_N@Z 0045a860 f   flag.obj
 0001:00059870       ?RayHit@Flag@@QAE_NABVVector3@@0@Z 0045a870 f   flag.obj
 0001:00059a30       ?Render@Flag@@QAEXHPAD@Z   0045aa30 f   flag.obj
 0001:0005abb0       ?iv_abs@@YANN@Z            0045bbb0 f i lightning.obj
 0001:0005abd0       ??0Lightning@@QAE@XZ       0045bbd0 f   lightning.obj
 0001:0005ac00       ??$_Allocate@VWorldObjectId@@@std@@YAPAVWorldObjectId@@IPAV1@@Z 0045bc00 f i lightning.obj
 0001:0005ac60       ?GetData@?$Array2D@N@@QBEABNGG@Z 0045bc60 f i lightning.obj
 0001:0005aca0       ??A?$vector@VWorldObjectId@@V?$allocator@VWorldObjectId@@@std@@@std@@QAEAAVWorldObjectId@@I@Z 0045bca0 f i lightning.obj
 0001:0005acd0       ?GetValue@?$SurfaceMap2D@N@@QBENNN@Z 0045bcd0 f i lightning.obj
 0001:0005ae90       ?Render@Lightning@@UAEXN@Z 0045be90 f   lightning.obj
 0001:0005b4e0       ?Advance@Lightning@@UAE_NXZ 0045c4e0 f   lightning.obj
 0001:0005b880       ??0Randomiser@@QAE@XZ      0045c880 f   randomiser.obj
 0001:0005b8b0       ?Advance@Randomiser@@UAE_NXZ 0045c8b0 f   randomiser.obj
 0001:0005ba30       ?Render@Randomiser@@UAEXN@Z 0045ca30 f   randomiser.obj
 0001:0005bbc0       ??0Snow@@QAE@XZ            0045cbc0 f   snow.obj
 0001:0005bc90       ?Render@Snow@@UAEXN@Z      0045cc90 f   snow.obj
 0001:0005bd50       ??$min@N@std@@YAABNABN0@Z  0045cd50 f i snow.obj
 0001:0005bd70       ?Advance@Snow@@UAE_NXZ     0045cd70 f   snow.obj
 0001:0005c030       ??0Spirit@@QAE@XZ          0045d030 f   spirit.obj
 0001:0005c110       ??1Spirit@@UAE@XZ          0045d110 f   spirit.obj
 0001:0005c120       ?SkipStage@Spirit@@QAEXXZ  0045d120 f   spirit.obj
 0001:0005c130       ?AddToGlobalWorld@Spirit@@QAEXXZ 0045d130 f   spirit.obj
 0001:0005c150       ?CollectorArrives@Spirit@@QAEXXZ 0045d150 f   spirit.obj
 0001:0005c170       ?Harvest@Spirit@@QAEXVWorldObjectId@@@Z 0045d170 f   spirit.obj
 0001:0005c1b0       ?InEgg@Spirit@@QAEXXZ      0045d1b0 f   spirit.obj
 0001:0005c1e0       ??$?0URandomFloat@@U0@U0@@Vector3@@QAE@URandomFloat@@00@Z 0045d1e0 f i spirit.obj
 0001:0005c220       ?Begin@Spirit@@QAEXXZ      0045d220 f   spirit.obj
 0001:0005c2d0       ?SearchForNearbyEggs@Spirit@@IAEXXZ 0045d2d0 f   spirit.obj
 0001:0005c3e0       ?CollectorDrops@Spirit@@QAEXXZ 0045d3e0 f   spirit.obj
 0001:0005c440       ?EggDestroyed@Spirit@@QAEXXZ 0045d440 f   spirit.obj
 0001:0005c490       ?RenderWithoutGlBegin@Spirit@@QAEXN@Z 0045d490 f   spirit.obj
 0001:0005ca10       ?NumNearbyEggs@Spirit@@QAEHXZ 0045da10 f   spirit.obj
 0001:0005ca50       ?PushFromBuildings@Spirit@@QAEXXZ 0045da50 f   spirit.obj
 0001:0005cc10       ?Render@Spirit@@UAEXN@Z    0045dc10 f   spirit.obj
 0001:0005cc80       ?Advance@Spirit@@UAE_NXZ   0045dc80 f   spirit.obj
 0001:0005d230       ??0ThrowableWeapon@@QAE@HABVVector3@@0N@Z 0045e230 f   weapons.obj
 0001:0005d3e0       ?TriggerSoundEvent@ThrowableWeapon@@IAEXPAD@Z 0045e3e0 f   weapons.obj
 0001:0005d440       ?Render@ThrowableWeapon@@UAEXN@Z 0045e440 f   weapons.obj
 0001:0005da50       ?GetMaxForce@ThrowableWeapon@@SANH@Z 0045ea50 f   weapons.obj
 0001:0005daa0       ?GetApproxMaxRange@ThrowableWeapon@@SANN@Z 0045eaa0 f   weapons.obj
 0001:0005dac0       ?RemoveForce@ThrowableWeapon@@QAEXXZ 0045eac0 f   weapons.obj
 0001:0005dad0       ?ResetForce@ThrowableWeapon@@QAEXXZ 0045ead0 f   weapons.obj
 0001:0005dae0       ??0Grenade@@QAE@ABVVector3@@0N@Z 0045eae0 f   weapons.obj
 0001:0005db90       ??0AirStrikeMarker@@QAE@ABVVector3@@0N@Z 0045eb90 f   weapons.obj
 0001:0005dc30       ??0ControllerGrenade@@QAE@ABVVector3@@0N@Z 0045ec30 f   weapons.obj
 0001:0005dcc0       ?Initialise@Rocket@@QAEXXZ 0045ecc0 f   weapons.obj
 0001:0005dce0       ?Explode@Rocket@@QAEXXZ    0045ece0 f   weapons.obj
 0001:0005dfa0       ?Render@Rocket@@UAEXN@Z    0045efa0 f   weapons.obj
 0001:0005e240       ?Initialise@Laser@@UAEXN@Z 0045f240 f   weapons.obj
 0001:0005e270       ??0Shockwave@@QAE@HN@Z     0045f270 f   weapons.obj
 0001:0005e2b0       ??0MuzzleFlash@@QAE@ABVVector3@@0NN@Z 0045f2b0 f   weapons.obj
 0001:0005e320       ?Advance@MuzzleFlash@@UAE_NXZ 0045f320 f   weapons.obj
 0001:0005e390       ??0TurretShell@@QAE@N@Z    0045f390 f   weapons.obj
 0001:0005e3d0       ?ExplodeShape@TurretShell@@QAEXM@Z 0045f3d0 f   weapons.obj
 0001:0005e4f0       ??0PulseWave@@QAE@XZ       0045f4f0 f   weapons.obj
 0001:0005e520       ?Advance@PulseWave@@UAE_NXZ 0045f520 f   weapons.obj
 0001:0005e560       ??0FlameGrenade@@QAE@ABVVector3@@0N@Z 0045f560 f   weapons.obj
 0001:0005e5f0       ??0TurretEmptyShell@@QAE@ABVVector3@@00@Z 0045f5f0 f   weapons.obj
 0001:0005e700       ?Render@TurretEmptyShell@@UAEXN@Z 0045f700 f   weapons.obj
 0001:0005e850       ??A?$DArray@PAVCreditsDarwinian@@@@QAEAAPAVCreditsDarwinian@@H@Z 0045f850 f i credits_loader.obj
 0001:0005e850       ??A?$DArray@PAVRoute@@@@QAEAAPAVRoute@@H@Z 0045f850 f i routing_system.obj
 0001:0005e850       ??A?$DArray@PAVWorldObject@@@@QAEAAPAVWorldObject@@H@Z 0045f850 f i crate.obj
 0001:0005e850       ??A?$DArray@PAVServerTeam@@@@QAEAAPAVServerTeam@@H@Z 0045f850 f i Server.obj
 0001:0005e850       ??A?$DArray@PAVSoundInstance@@@@QAEAAPAVSoundInstance@@H@Z 0045f850 f i soundsystem.obj
 0001:0005e850       ??A?$DArray@PAVCreditsItem@@@@QAEAAPAVCreditsItem@@H@Z 0045f850 f i credits_loader.obj
 0001:0005e850       ??A?$DArray@PAVDirectory@@@@QAEAAPAVDirectory@@H@Z 0045f850 f i directory.obj
 0001:0005e850       ??A?$DArray@PAVEntityGridCacheElement@@@@QAEAAPAVEntityGridCacheElement@@H@Z 0045f850 f i entity_grid_cache.obj
 0001:0005e850       ??A?$DArray@PAVUnit@@@@QAEAAPAVUnit@@H@Z 0045f850 f i teleport.obj
 0001:0005e850       ??A?$DArray@PAVDspBlueprint@@@@QAEAAPAVDspBlueprint@@H@Z 0045f850 f i sound_instance.obj
 0001:0005e850       ??A?$DArray@PAVEntity@@@@QAEAAPAVEntity@@H@Z 0045f850 f i goddish.obj
 0001:0005e850       ??A?$DArray@PAVWaterTriangleStrip@@@@QAEAAPAVWaterTriangleStrip@@H@Z 0045f850 f i water.obj
 0001:0005e850       ??A?$DArray@PAVTaskSource@@@@QAEAAPAVTaskSource@@H@Z 0045f850 f i taskmanager.obj
 0001:0005e850       ??A?$DArray@PAVBuilding@@@@QAEAAPAVBuilding@@H@Z 0045f850 f i weapons.obj
 0001:0005e850       ??A?$DArray@PAVMultiwiniaGameBlueprint@@@@QAEAAPAVMultiwiniaGameBlueprint@@H@Z 0045f850 f i helpandoptions_windows.obj
 0001:0005e850       ??A?$DArray@PAVSampleGroup@@@@QAEAAPAVSampleGroup@@H@Z 0045f850 f i soundsystem.obj
 0001:0005e850       ??A?$DArray@PAVMultiwiniaGameParameter@@@@QAEAAPAVMultiwiniaGameParameter@@H@Z 0045f850 f i GameMenuWindow.obj
 0001:0005e850       ??A?$DArray@PAVServerToClient@@@@QAEAAPAVServerToClient@@H@Z 0045f850 f i network_window.obj
 0001:0005e850       ??A?$DArray@PAVSoundSourceBlueprint@@@@QAEAAPAVSoundSourceBlueprint@@H@Z 0045f850 f i soundsystem.obj
 0001:0005e850       ??A?$DArray@PAUMatchMakerListener@@@@QAEAAPAUMatchMakerListener@@H@Z 0045f850 f i matchmaker.obj
 0001:0005e850       ??A?$DArray@PAUIFrameUnit@@@@QAEAAPAUIFrameUnit@@H@Z 0045f850 f i iframe.obj
 0001:0005e850       ??A?$DArray@PAVIFrameEntity@@@@QAEAAPAVIFrameEntity@@H@Z 0045f850 f i iframe.obj
 0001:0005e850       ??A?$DArray@H@@QAEAAHH@Z   0045f850 f i radardish.obj
 0001:0005e850       ??A?$DArray@PAVRouteNode@@@@QAEAAPAVRouteNode@@H@Z 0045f850 f i routing_system.obj
 0001:0005e850       ??A?$DArray@PAVDirectoryData@@@@QAEAAPAVDirectoryData@@H@Z 0045f850 f i metaserver.obj
 0001:0005e850       ??A?$DArray@PAVMapData@@@@QAEAAPAVMapData@@H@Z 0045f850 f i networkvalue.obj
 0001:0005e850       ??A?$DArray@PAVDspParameterBlueprint@@@@QAEAAPAVDspParameterBlueprint@@H@Z 0045f850 f i soundsystem.obj
 0001:0005e850       ??A?$DArray@PAVLandTriangleStrip@@@@QAEAAPAVLandTriangleStrip@@H@Z 0045f850 f i landscape_renderer.obj
 0001:0005e8c0       ??$?0USymmetricRandomFloat@@U0@U0@@Vector3@@QAE@USymmetricRandomFloat@@00@Z 0045f8c0 f i weapons.obj
 0001:0005e900       ?Initialise@ThrowableWeapon@@QAEXXZ 0045f900 f   weapons.obj
 0001:0005e910       ??0Rocket@@QAE@VVector3@@0@Z 0045f910 f   weapons.obj
 0001:0005ea20       ?Render@Laser@@UAEXN@Z     0045fa20 f   weapons.obj
 0001:0005eec0       ?Render@Shockwave@@UAEXN@Z 0045fec0 f   weapons.obj
 0001:0005f6d0       ?Render@MuzzleFlash@@UAEXN@Z 004606d0 f   weapons.obj
 0001:0005fab0       ?Render@TurretShell@@UAEXN@Z 00460ab0 f   weapons.obj
 0001:0005fd80       ??_GPulseWave@@UAEPAXI@Z   00460d80 f i weapons.obj
 0001:0005fd80       ??_EPulseWave@@UAEPAXI@Z   00460d80 f i weapons.obj
 0001:0005fdb0       ?GetValue@?$SurfaceMap2D@VVector3@@@@QBE?AVVector3@@NN@Z 00460db0 f i weapons.obj
 0001:00060070       ?Advance@ThrowableWeapon@@UAE_NXZ 00461070 f   weapons.obj
 0001:00060290       ?Advance@Grenade@@UAE_NXZ  00461290 f   weapons.obj
 0001:00060370       ?Advance@AirStrikeMarker@@UAE_NXZ 00461370 f   weapons.obj
 0001:00060510       ?Advance@ControllerGrenade@@UAE_NXZ 00461510 f   weapons.obj
 0001:00060770       ?Advance@Shockwave@@UAE_NXZ 00461770 f   weapons.obj
 0001:00060a40       ?Render@PulseWave@@UAEXN@Z 00461a40 f   weapons.obj
 0001:000613a0       ?Advance@FlameGrenade@@UAE_NXZ 004623a0 f   weapons.obj
 0001:00061740       ?Advance@TurretEmptyShell@@UAE_NXZ 00462740 f   weapons.obj
 0001:00061940       ?Empty@?$LList@VVector3@@@@QAEXXZ 00462940 f i weapons.obj
 0001:00061990       ?Advance@Rocket@@UAE_NXZ   00462990 f   weapons.obj
 0001:00061d40       ?Advance@Laser@@UAE_NXZ    00462d40 f   weapons.obj
 0001:00062620       ?Advance@TurretShell@@UAE_NXZ 00463620 f   weapons.obj
 0001:00062f10       ?Damaged@Fireball@@QAE_NH@Z 00463f10 f   weapons.obj
 0001:00062f60       ??1?$LList@VVector3@@@@QAE@XZ 00463f60 f i weapons.obj
 0001:00062f70       ??0Fireball@@QAE@XZ        00463f70 f   weapons.obj
 0001:00062fc0       ?Advance@Fireball@@UAE_NXZ 00463fc0 f   weapons.obj
 0001:000634d0       ??_EFireball@@UAEPAXI@Z    004644d0 f i weapons.obj
 0001:000634d0       ??_GFireball@@UAEPAXI@Z    004644d0 f i weapons.obj
 0001:00063500       ??0WorldObjectId@@QAE@XZ   00464500 f   worldobject.obj
 0001:00063520       ?Set@WorldObjectId@@QAEXEHHH@Z 00464520 f   worldobject.obj
 0001:00063590       ?SetInvalid@WorldObjectId@@QAEXXZ 00464590 f   worldobject.obj
 0001:000635a0       ??9WorldObjectId@@QBE_NABV0@@Z 004645a0 f   worldobject.obj
 0001:000635d0       ??8WorldObjectId@@QBE_NABV0@@Z 004645d0 f   worldobject.obj
 0001:00063600       ??4WorldObjectId@@QAEABV0@ABV0@@Z 00464600 f   worldobject.obj
 0001:00063620       ?GenerateUniqueId@WorldObjectId@@QAEXXZ 00464620 f   worldobject.obj
 0001:00063630       ?ResetUniqueIdSeed@WorldObjectId@@SAXXZ 00464630 f   worldobject.obj
 0001:00063640       ??0WorldObject@@QAE@XZ     00464640 f   worldobject.obj
 0001:00063680       ??1WorldObject@@UAE@XZ     00464680 f   worldobject.obj
 0001:00063690       ?LogState@WorldObject@@UAEPADPAD@Z 00464690 f   worldobject.obj
 0001:00063730       ?SetColour@Light@@QAEXQAN@Z 00464730 f   worldobject.obj
 0001:00063750       ?SetFront@Light@@QAEXQAN@Z 00464750 f   worldobject.obj
 0001:00063770       ?Normalise@Light@@QAEXXZ   00464770 f   worldobject.obj
 0001:000637c0       ??0WorldObjectId@@QAE@EHHH@Z 004647c0 f   worldobject.obj
 0001:000637f0       ??_EWorldObject@@UAEPAXI@Z 004647f0 f i worldobject.obj
 0001:000637f0       ??_GWorldObject@@UAEPAXI@Z 004647f0 f i worldobject.obj
 0001:00063810       ??0Light@@QAE@XZ           00464810 f   worldobject.obj
 0001:00063840       ?BounceOffLandscape@WorldObject@@QAEXXZ 00464840 f   worldobject.obj
 0001:00063940       ?RenderAlphas@AIObjective@@UAEXN@Z 00464940 f   aiobjective.obj
 0001:00063960       ?Write@AIObjective@@UAEXPAVTextWriter@@@Z 00464960 f   aiobjective.obj
 0001:00063990       ??0AIObjectiveMarker@@QAE@XZ 00464990 f   aiobjective.obj
 0001:00063a40       ?Initialise@AIObjectiveMarker@@UAEXPAVBuilding@@@Z 00464a40 f   aiobjective.obj
 0001:00063a90       ?AdvanceStandard@AIObjectiveMarker@@QAEXXZ 00464a90 f   aiobjective.obj
 0001:00063dd0       ?AdvanceRocketRiot@AIObjectiveMarker@@QAEXXZ 00464dd0 f   aiobjective.obj
 0001:00063e70       ?AdvanceDefensive@AIObjectiveMarker@@QAEXXZ 00464e70 f   aiobjective.obj
 0001:00064080       ?RenderAlphas@AIObjectiveMarker@@UAEXN@Z 00465080 f   aiobjective.obj
 0001:000640c0       ?SetBuildingLink@AIObjectiveMarker@@UAEXH@Z 004650c0 f   aiobjective.obj
 0001:000640d0       ?GetBuildingLink@AIObjectiveMarker@@UAEHXZ 004650d0 f   aiobjective.obj
 0001:000640e0       ?Read@AIObjectiveMarker@@UAEXPAVTextReader@@_N@Z 004650e0 f   aiobjective.obj
 0001:00064170       ?Write@AIObjectiveMarker@@UAEXPAVTextWriter@@@Z 00465170 f   aiobjective.obj
 0001:000641e0       ?InitialiseObjectives@AIObjective@@SAXXZ 004651e0 f   aiobjective.obj
 0001:00064320       ?Advance@AIObjectiveMarker@@UAE_NXZ 00465320 f   aiobjective.obj
 0001:00064510       ??0AIObjective@@QAE@XZ     00465510 f   aiobjective.obj
 0001:00064580       ?AdvanceDefensive@AIObjective@@QAEXXZ 00465580 f   aiobjective.obj
 0001:00064630       ?AdvanceStandard@AIObjective@@QAEXXZ 00465630 f   aiobjective.obj
 0001:00064760       ??_GAIObjective@@UAEPAXI@Z 00465760 f i aiobjective.obj
 0001:00064760       ??_EAIObjective@@UAEPAXI@Z 00465760 f i aiobjective.obj
 0001:00064790       ?Advance@AIObjective@@UAE_NXZ 00465790 f   aiobjective.obj
 0001:000647f0       ?Initialise@AntHill@@UAEXPAVBuilding@@@Z 004657f0 f   anthill.obj
 0001:00064830       ?Destroy@AntHill@@UAEXN@Z  00465830 f   anthill.obj
 0001:00064850       ??0AntObjective@@QAE@XZ    00465850 f i anthill.obj
 0001:00064870       ?Render@AntHill@@UAEXN@Z   00465870 f   anthill.obj
 0001:000649f0       ?Read@AntHill@@UAEXPAVTextReader@@_N@Z 004659f0 f   anthill.obj
 0001:00064a50       ?Write@AntHill@@UAEXPAVTextWriter@@@Z 00465a50 f   anthill.obj
 0001:00064a80       ?GetPointer@?$DArray@VSpirit@@@@QBEPAVSpirit@@H@Z 00465a80 f i anthill.obj
 0001:00064af0       ?Damage@AntHill@@UAEXN@Z   00465af0 f   anthill.obj
 0001:00064d60       ?PopulationLocked@AntHill@@IAE_NXZ 00465d60 f   anthill.obj
 0001:00064ed0       ?SearchForScoutArea@AntHill@@IAE_NAAVVector3@@@Z 00465ed0 f   anthill.obj
 0001:00064fb0       ?SpawnAnt@AntHill@@IAEXAAVVector3@@VWorldObjectId@@@Z 00465fb0 f   anthill.obj
 0001:00065230       ?Burn@AntHill@@QAEXXZ      00466230 f   anthill.obj
 0001:00065300       ??0AntHill@@QAE@XZ         00466300 f   anthill.obj
 0001:000653e0       ??1AntHill@@UAE@XZ         004663e0 f   anthill.obj
 0001:00065410       ?SearchingArea@AntHill@@IAE_NVVector3@@@Z 00466410 f   anthill.obj
 0001:000654a0       ?TargettedEntity@AntHill@@IAE_NVWorldObjectId@@@Z 004664a0 f   anthill.obj
 0001:00065500       ?SearchForSpirits@AntHill@@IAE_NAAVVector3@@@Z 00466500 f   anthill.obj
 0001:00065610       ?SearchForDarwinians@AntHill@@IAE_NAAVVector3@@AAVWorldObjectId@@@Z 00466610 f   anthill.obj
 0001:00065780       ?SearchForEnemies@AntHill@@IAE_NAAVVector3@@AAVWorldObjectId@@@Z 00466780 f   anthill.obj
 0001:000658e0       ?Advance@AntHill@@UAE_NXZ  004668e0 f   anthill.obj
 0001:00065e00       ?ListSoundEvents@AntHill@@UAEXPAV?$LList@PAD@@@Z 00466e00 f   anthill.obj
 0001:00065e30       ??_EAntHill@@UAEPAXI@Z     00466e30 f i anthill.obj
 0001:00065e30       ??_GAntHill@@UAEPAXI@Z     00466e30 f i anthill.obj
 0001:00065e70       ?IsValid@WorldObjectId@@QBE_NXZ 00466e70 f i blueprintstore.obj
 0001:00065e90       ??0BlueprintBuilding@@QAE@XZ 00466e90 f   blueprintstore.obj
 0001:00065ef0       ?Initialise@BlueprintBuilding@@UAEXPAVBuilding@@@Z 00466ef0 f   blueprintstore.obj
 0001:00065fa0       ?Advance@BlueprintBuilding@@UAE_NXZ 00466fa0 f   blueprintstore.obj
 0001:00066020       ?GetMarker@BlueprintBuilding@@QAE?AVMatrix34@@N@Z 00467020 f   blueprintstore.obj
 0001:000660e0       ?IsInView@BlueprintBuilding@@UAE_NXZ 004670e0 f   blueprintstore.obj
 0001:000661d0       ?Render@BlueprintBuilding@@UAEXN@Z 004671d0 f   blueprintstore.obj
 0001:00066250       ?Read@Powerstation@@UAEXPAVTextReader@@_N@Z 00467250 f   powerstation.obj
 0001:00066250       ?Read@BlueprintBuilding@@UAEXPAVTextReader@@_N@Z 00467250 f   blueprintstore.obj
 0001:00066250       ?Read@AIObjective@@UAEXPAVTextReader@@_N@Z 00467250 f   aiobjective.obj
 0001:00066250       ?Read@ReceiverBuilding@@UAEXPAVTextReader@@_N@Z 00467250 f   spiritreceiver.obj
 0001:00066250       ?Read@PowerBuilding@@UAEXPAVTextReader@@_N@Z 00467250 f   generator.obj
 0001:00066250       ?Read@MineBuilding@@UAEXPAVTextReader@@_N@Z 00467250 f   mine.obj
 0001:00066250       ?Read@ControlStation@@UAEXPAVTextReader@@_N@Z 00467250 f   controlstation.obj
 0001:00066280       ??0BlueprintStore@@QAE@XZ  00467280 f   blueprintstore.obj
 0001:00066300       ?GetObjectiveCounter@BlueprintStore@@UAEXAAVUnicodeString@@@Z 00467300 f   blueprintstore.obj
 0001:000663d0       ?Initialise@BlueprintStore@@UAEXPAVBuilding@@@Z 004673d0 f   blueprintstore.obj
 0001:00066410       ?GetNumInfected@BlueprintStore@@QAEHXZ 00467410 f   blueprintstore.obj
 0001:00066460       ?GetNumClean@BlueprintStore@@QAEHXZ 00467460 f   blueprintstore.obj
 0001:000664b0       ?GetDisplay@BlueprintStore@@QAEXAAVVector3@@00AAN@Z 004674b0 f   blueprintstore.obj
 0001:00066620       ?Render@BlueprintStore@@UAEXN@Z 00467620 f   blueprintstore.obj
 0001:00066640       ??0BlueprintConsole@@QAE@XZ 00467640 f   blueprintstore.obj
 0001:000666c0       ?Initialise@BlueprintConsole@@UAEXPAVBuilding@@@Z 004676c0 f   blueprintstore.obj
 0001:000666e0       ?Read@BlueprintConsole@@UAEXPAVTextReader@@_N@Z 004676e0 f   blueprintstore.obj
 0001:00066730       ?Write@BlueprintConsole@@UAEXPAVTextWriter@@@Z 00467730 f   blueprintstore.obj
 0001:00066770       ?Advance@BlueprintConsole@@UAE_NXZ 00467770 f   blueprintstore.obj
 0001:000667c0       ?Render@BlueprintConsole@@UAEXN@Z 004677c0 f   blueprintstore.obj
 0001:00066810       ??0BlueprintRelay@@QAE@XZ  00467810 f   blueprintstore.obj
 0001:00066890       ?Initialise@BlueprintRelay@@UAEXPAVBuilding@@@Z 00467890 f   blueprintstore.obj
 0001:00066900       ?SetDetail@BlueprintRelay@@UAEXH@Z 00467900 f   blueprintstore.obj
 0001:00066970       ?Advance@BlueprintRelay@@UAE_NXZ 00467970 f   blueprintstore.obj
 0001:00066a90       ?Render@BlueprintRelay@@UAEXN@Z 00467a90 f   blueprintstore.obj
 0001:00066ac0       ?Read@BlueprintRelay@@UAEXPAVTextReader@@_N@Z 00467ac0 f   blueprintstore.obj
 0001:00066b10       ?Write@BlueprintRelay@@UAEXPAVTextWriter@@@Z 00467b10 f   blueprintstore.obj
 0001:00066b60       ?RenderAlphas@BlueprintBuilding@@UAEXN@Z 00467b60 f   blueprintstore.obj
 0001:00066ef0       ?SendBlueprint@BlueprintBuilding@@UAEXH_N@Z 00467ef0 f   blueprintstore.obj
 0001:00066f70       ?SendBlueprint@BlueprintStore@@UAEXH_N@Z 00467f70 f   blueprintstore.obj
 0001:00067000       ?Advance@BlueprintStore@@UAE_NXZ 00468000 f   blueprintstore.obj
 0001:00067170       ?RenderAlphas@BlueprintStore@@UAEXN@Z 00468170 f   blueprintstore.obj
 0001:00067860       ?RenderPorts@BlueprintConsole@@UAEXXZ 00468860 f   blueprintstore.obj
 0001:00067cd0       ?SetBridgeType@Bridge@@QAEXH@Z 00468cd0 f   bridge.obj
 0001:00067d70       ?Render@Bridge@@UAEXN@Z    00468d70 f   bridge.obj
 0001:00067db0       ?RenderAlphas@Bridge@@UAEXN@Z 00468db0 f   bridge.obj
 0001:00067f40       ?Advance@Bridge@@UAE_NXZ   00468f40 f   bridge.obj
 0001:00067f70       ?GetAvailablePosition@Bridge@@QAE_NAAVVector3@@0@Z 00468f70 f   bridge.obj
 0001:00067ff0       ?BeginOperation@Bridge@@QAEXXZ 00468ff0 f   bridge.obj
 0001:00068000       ?EndOperation@Bridge@@QAEXXZ 00469000 f   bridge.obj
 0001:00068010       ?GetBuildingLink@Bridge@@UAEHXZ 00469010 f   bridge.obj
 0001:00068020       ?SetBuildingLink@Bridge@@UAEXH@Z 00469020 f   bridge.obj
 0001:00068030       ?Read@Bridge@@UAEXPAVTextReader@@_N@Z 00469030 f   bridge.obj
 0001:00068080       ?Write@Bridge@@UAEXPAVTextWriter@@@Z 00469080 f   bridge.obj
 0001:000680c0       ?ReadyToSend@Bridge@@UAE_NXZ 004690c0 f   bridge.obj
 0001:00068120       ?GetStartPoint@Bridge@@UAE?AVVector3@@XZ 00469120 f   bridge.obj
 0001:00068190       ?GetEndPoint@Bridge@@UAE?AVVector3@@XZ 00469190 f   bridge.obj
 0001:00068200       ?GetExit@Bridge@@UAE_NAAVVector3@@0@Z 00469200 f   bridge.obj
 0001:000682a0       ?Initialise@Bridge@@UAEXPAVBuilding@@@Z 004692a0 f   bridge.obj
 0001:000682e0       ?UpdateEntityInTransit@Bridge@@UAE_NPAVEntity@@@Z 004692e0 f   bridge.obj
 0001:00068760       ?Empty@?$LList@VWorldObjectId@@@@QAEXXZ 00469760 f i bridge.obj
 0001:000687b0       ??1?$LList@VWorldObjectId@@@@QAE@XZ 004697b0 f i bridge.obj
 0001:000687c0       ??1Teleport@@UAE@XZ        004697c0 f i bridge.obj
 0001:000687e0       ??0Bridge@@QAE@XZ          004697e0 f   bridge.obj
 0001:000688d0       ??0RayPackage@@QAE@ABVVector3@@0N@Z 004698d0 f i building.obj
 0001:00068960       ?Advance@Building@@UAE_NXZ 00469960 f   building.obj
 0001:00068980       ?SetShape@Building@@UAEXPAVShape@@@Z 00469980 f   building.obj
 0001:00068990       ?ReprogramComplete@Building@@UAEXXZ 00469990 f   building.obj
 0001:000689e0       ?SetTeamId@Building@@UAEXH@Z 004699e0 f   building.obj
 0001:00068a30       ?IsInView@Building@@UAE_NXZ 00469a30 f   building.obj
 0001:00068a60       ?Render@Building@@UAEXN@Z  00469a60 f   building.obj
 0001:00068b50       ?RenderAlphas@Building@@UAEXN@Z 00469b50 f   building.obj
 0001:00068b70       ?RenderHitCheck@Building@@UAEXXZ 00469b70 f   building.obj
 0001:00068bf0       ?RenderLink@Building@@UAEXXZ 00469bf0 f   building.obj
 0001:00068cd0       ?Damage@Building@@UAEXN@Z  00469cd0 f   building.obj
 0001:00068cf0       ?Destroy@Building@@UAEXN@Z 00469cf0 f   building.obj
 0001:00068e30       ?DoesRayHit@Building@@UAE_NABVVector3@@0NPAV2@1@Z 00469e30 f   building.obj
 0001:00068ee0       ?DoesSphereHit@Building@@UAE_NABVVector3@@N@Z 00469ee0 f   building.obj
 0001:00068fd0       ?DoesShapeHit@Building@@UAE_NPAVShape@@VMatrix34@@@Z 00469fd0 f   building.obj
 0001:00069080       ?GetNumPortsOccupied@Building@@UAEHXZ 0046a080 f   building.obj
 0001:000690e0       ?GetObjectiveCounter@Building@@UAEXAAVUnicodeString@@@Z 0046a0e0 f   building.obj
 0001:00069150       ?Read@Building@@UAEXPAVTextReader@@_N@Z 0046a150 f   building.obj
 0001:00069220       ?BuildingIsBlocked@Building@@SA_NH@Z 0046a220 f   building.obj
 0001:00069330       ?CreateBuilding@Building@@SAPAV1@H@Z 0046a330 f   building.obj
 0001:0006a1c0       ?GetTypeName@Building@@SAPADH@Z 0046b1c0 f   building.obj
 0001:0006a1e0       ?LogState@Building@@UAEPADPAD@Z 0046b1e0 f   building.obj
 0001:0006a310       ?PushFromBuilding@Building@@QAE?AVVector3@@ABV2@N@Z 0046b310 f   building.obj
 0001:0006a430       ?GetNumPorts@Building@@UAEHXZ 0046b430 f   building.obj
 0001:0006a440       ?Write@Building@@UAEXPAVTextWriter@@@Z 0046b440 f   building.obj
 0001:0006a510       ?CreateBuilding@Building@@SAPAV1@PAD@Z 0046b510 f   building.obj
 0001:0006a570       ?GetTypeId@Building@@SAHPBD@Z 0046b570 f   building.obj
 0001:0006a5c0       ?RenderPorts@Building@@UAEXXZ 0046b5c0 f   building.obj
 0001:0006aa90       ?EvaluatePorts@Building@@UAEXXZ 0046ba90 f   building.obj
 0001:0006ac30       ?GetPortOccupant@Building@@UAE?AVWorldObjectId@@H@Z 0046bc30 f   building.obj
 0001:0006ac90       ?GetPortPosition@Building@@UAE_NHAAVVector3@@0@Z 0046bc90 f   building.obj
 0001:0006acf0       ?OperatePort@Building@@UAEXHH@Z 0046bcf0 f   building.obj
 0001:0006ad40       ?GetPortOperatorCount@Building@@UAEHHH@Z 0046bd40 f   building.obj
 0001:0006ad80       ?ListSoundEvents@Building@@UAEXPAV?$LList@PAD@@@Z 0046bd80 f   building.obj
 0001:0006adf0       ??0Building@@QAE@XZ        0046bdf0 f   building.obj
 0001:0006afc0       ??1Building@@UAE@XZ        0046bfc0 f   building.obj
 0001:0006b000       ?SetShapeLights@Building@@QAEXPAVShapeFragment@@@Z 0046c000 f   building.obj
 0001:0006b100       ?SetShapePorts@Building@@QAEXPAVShapeFragment@@@Z 0046c100 f   building.obj
 0001:0006b380       ?RenderLights@Building@@UAEXXZ 0046c380 f   building.obj
 0001:0006b7b0       ??_EBuilding@@UAEPAXI@Z    0046c7b0 f i building.obj
 0001:0006b7b0       ??_GBuilding@@UAEPAXI@Z    0046c7b0 f i building.obj
 0001:0006b800       ?Initialise@Building@@UAEXPAV1@@Z 0046c800 f   building.obj
 0001:0006b990       ?SetDetail@Building@@UAEXH@Z 0046c990 f   building.obj
 0001:0006ba80       ??0CarryableBuilding@@QAE@XZ 0046ca80 f   carryablebuilding.obj
 0001:0006bb10       ??1FuelBuilding@@UAE@XZ    0046cb10 f i rocket.obj
 0001:0006bb10       ??1Triffid@@UAE@XZ         0046cb10 f i crate.obj
 0001:0006bb10       ??1ChessPiece@@UAE@XZ      0046cb10 f i chess.obj
 0001:0006bb10       ??1CarryableBuilding@@UAE@XZ 0046cb10 f i carryablebuilding.obj
 0001:0006bb10       ??1GunTurret@@UAE@XZ       0046cb10 f i crate.obj
 0001:0006bb10       ??1Statue@@UAE@XZ          0046cb10 f i statue.obj
 0001:0006bb10       ??1BlueprintBuilding@@UAE@XZ 0046cb10 f i blueprintstore.obj
 0001:0006bb10       ??1Spam@@UAE@XZ            0046cb10 f i goddish.obj
 0001:0006bb20       ?Initialise@CarryableBuilding@@UAEXPAVBuilding@@@Z 0046cb20 f   carryablebuilding.obj
 0001:0006bb20       ?Initialise@Spam@@UAEXPAVBuilding@@@Z 0046cb20 f   spam.obj
 0001:0006bb20       ?Initialise@GodDish@@UAEXPAVBuilding@@@Z 0046cb20 f   goddish.obj
 0001:0006bb30       ?SetShape@CarryableBuilding@@UAEXPAVShape@@@Z 0046cb30 f   carryablebuilding.obj
 0001:0006bb40       ?SetWaypoint@CarryableBuilding@@UAEXABVVector3@@H@Z 0046cb40 f   carryablebuilding.obj
 0001:0006bb80       ?IsCarryableBuilding@CarryableBuilding@@SA_NH@Z 0046cb80 f   carryablebuilding.obj
 0001:0006bba0       ?CalculateCollisions@CarryableBuilding@@QAEPAHABVVector3@@AAHAAN@Z 0046cba0 f   carryablebuilding.obj
 0001:0006bcc0       ?GetCarryPosition@CarryableBuilding@@QAE?AVVector3@@H@Z 0046ccc0 f   carryablebuilding.obj
 0001:0006bdc0       ?GetSpeedScale@CarryableBuilding@@QAENXZ 0046cdc0 f   carryablebuilding.obj
 0001:0006bf50       ?CalculateOwnership@CarryableBuilding@@QAEXXZ 0046cf50 f   carryablebuilding.obj
 0001:0006c170       ?Render@CarryableBuilding@@UAEXN@Z 0046d170 f   carryablebuilding.obj
 0001:0006c3c0       ?FollowRoute@CarryableBuilding@@QAEXXZ 0046d3c0 f   carryablebuilding.obj
 0001:0006c4e0       ?Advance@CarryableBuilding@@UAE_NXZ 0046d4e0 f   carryablebuilding.obj
 0001:0006cae0       ?ListSoundEvents@CarryableBuilding@@UAEXPAV?$LList@PAD@@@Z 0046dae0 f   carryablebuilding.obj
 0001:0006cb30       ??0Cave@@QAE@XZ            0046db30 f   cave.obj
 0001:0006cc50       ?Damage@Cave@@UAEXN@Z      0046dc50 f   cave.obj
 0001:0006ccb0       ?Advance@Cave@@UAE_NXZ     0046dcb0 f   cave.obj
 0001:0006ce30       ??0ChessBase@@QAE@XZ       0046de30 f   chess.obj
 0001:0006ced0       ?Initialise@JumpPad@@UAEXPAVBuilding@@@Z 0046ded0 f   jumppad.obj
 0001:0006ced0       ?Initialise@ChessBase@@UAEXPAVBuilding@@@Z 0046ded0 f   chess.obj
 0001:0006cf00       ?Read@ChessBase@@UAEXPAVTextReader@@_N@Z 0046df00 f   chess.obj
 0001:0006cf60       ?Write@ChessBase@@UAEXPAVTextWriter@@@Z 0046df60 f   chess.obj
 0001:0006cfa0       ??0ChessPiece@@QAE@XZ      0046dfa0 f   chess.obj
 0001:0006d020       ?Advance@ChessPiece@@UAE_NXZ 0046e020 f   chess.obj
 0001:0006d040       ?HandleCollision@ChessPiece@@UAEXN@Z 0046e040 f   chess.obj
 0001:0006d0a0       ?Initialise@ChessPiece@@UAEXPAVBuilding@@@Z 0046e0a0 f   chess.obj
 0001:0006d0e0       ?Render@ChessBase@@UAEXN@Z 0046e0e0 f   chess.obj
 0001:0006d520       ?SpawnPiece@ChessBase@@QAEXN@Z 0046e520 f   chess.obj
 0001:0006d8c0       ?HandleSuccess@ChessPiece@@QAEXXZ 0046e8c0 f   chess.obj
 0001:0006d940       ?Advance@ChessBase@@UAE_NXZ 0046e940 f   chess.obj
 0001:0006dff0       ??0CloneLab@@QAE@XZ        0046eff0 f   clonelab.obj
 0001:0006e070       ?Initialise@CloneLab@@UAEXPAVBuilding@@@Z 0046f070 f   clonelab.obj
 0001:0006e080       ?Read@CloneLab@@UAEXPAVTextReader@@_N@Z 0046f080 f   clonelab.obj
 0001:0006e090       ?Write@CloneLab@@UAEXPAVTextWriter@@@Z 0046f090 f   clonelab.obj
 0001:0006e0a0       ?RecalculateOwnership@CloneLab@@QAEXXZ 0046f0a0 f   clonelab.obj
 0001:0006e0a0       ?RecalculateOwnership@BlueprintConsole@@QAEXXZ 0046f0a0 f   blueprintstore.obj
 0001:0006e210       ?InitialiseAITarget@CloneLab@@QAEXXZ 0046f210 f   clonelab.obj
 0001:0006e390       ?Advance@CloneLab@@UAE_NXZ 0046f390 f   clonelab.obj
 0001:0006e460       ??_GCloneLab@@UAEPAXI@Z    0046f460 f i clonelab.obj
 0001:0006e460       ??_ECloneLab@@UAEPAXI@Z    0046f460 f i clonelab.obj
 0001:0006e4c0       ??0ConstructionYard@@QAE@XZ 0046f4c0 f   constructionyard.obj
 0001:0006e670       ?AddPrimitive@ConstructionYard@@QAE_NXZ 0046f670 f   constructionyard.obj
 0001:0006e690       ?AddPowerSurge@ConstructionYard@@QAEXXZ 0046f690 f   constructionyard.obj
 0001:0006e6a0       ??0DisplayScreen@@QAE@XZ   0046f6a0 f   constructionyard.obj
 0001:0006e7b0       ?ValidIndex@?$LList@VWorldObjectId@@@@QBE_NH@Z 0046f7b0 f i constructionyard.obj
 0001:0006e7d0       ?GetRungMatrix1@ConstructionYard@@QAE?AVMatrix34@@XZ 0046f7d0 f   constructionyard.obj
 0001:0006e920       ?GetRungMatrix2@ConstructionYard@@QAE?AVMatrix34@@XZ 0046f920 f   constructionyard.obj
 0001:0006ea80       ?Render@ConstructionYard@@UAEXN@Z 0046fa80 f   constructionyard.obj
 0001:0006ec00       ?RenderAlphas@ConstructionYard@@UAEXN@Z 0046fc00 f   constructionyard.obj
 0001:0006f910       ?RenderAlphas@DisplayScreen@@UAEXN@Z 00470910 f   constructionyard.obj
 0001:0006ff60       ?GetItem@?$LList@VWorldObjectId@@@@IBEPAV?$LListItem@VWorldObjectId@@@@H@Z 00470f60 f i constructionyard.obj
 0001:0006fff0       ?IsPopulationLocked@ConstructionYard@@IAE_NXZ 00470ff0 f   constructionyard.obj
 0001:00070060       ?Advance@ConstructionYard@@UAE_NXZ 00471060 f   constructionyard.obj
 0001:00070280       ??0ControlStation@@QAE@XZ  00471280 f   controlstation.obj
 0001:00070300       ?Initialise@AIObjective@@UAEXPAVBuilding@@@Z 00471300 f   aiobjective.obj
 0001:00070300       ?Initialise@PowerBuilding@@UAEXPAVBuilding@@@Z 00471300 f   generator.obj
 0001:00070300       ?Initialise@ReceiverBuilding@@UAEXPAVBuilding@@@Z 00471300 f   spiritreceiver.obj
 0001:00070300       ?Initialise@TrunkPort@@UAEXPAVBuilding@@@Z 00471300 f   trunkport.obj
 0001:00070300       ?Initialise@ControlStation@@UAEXPAVBuilding@@@Z 00471300 f   controlstation.obj
 0001:00070320       ?RecalculateOwnership@ControlStation@@QAEXXZ 00471320 f   controlstation.obj
 0001:000704b0       ?GetBuildingLink@FenceSwitch@@UAEHXZ 004714b0 f   switch.obj
 0001:000704b0       ?GetBuildingLink@ReceiverBuilding@@UAEHXZ 004714b0 f   spiritreceiver.obj
 0001:000704b0       ?GetBuildingLink@MineBuilding@@UAEHXZ 004714b0 f   mine.obj
 0001:000704b0       ?GetBuildingLink@PowerBuilding@@UAEHXZ 004714b0 f   generator.obj
 0001:000704b0       ?GetBuildingLink@ControlStation@@UAEHXZ 004714b0 f   controlstation.obj
 0001:000704b0       ?GetBuildingLink@DynamicBase@@UAEHXZ 004714b0 f   generichub.obj
 0001:000704b0       ?GetBuildingLink@AIObjective@@UAEHXZ 004714b0 f   aiobjective.obj
 0001:000704b0       ?GetBuildingLink@BlueprintBuilding@@UAEHXZ 004714b0 f   blueprintstore.obj
 0001:000704b0       ?GetBuildingLink@Powerstation@@UAEHXZ 004714b0 f   powerstation.obj
 0001:000704c0       ?PerformDepthSort@ControlStation@@UAE_NAAVVector3@@@Z 004714c0 f   controlstation.obj
 0001:00070500       ?Write@ControlStation@@UAEXPAVTextWriter@@@Z 00471500 f   controlstation.obj
 0001:00070530       ?IsInView@ControlStation@@UAE_NXZ 00471530 f   controlstation.obj
 0001:00070550       ??_EWallBuster@@UAEPAXI@Z  00471550 f i wallbuster.obj
 0001:00070550       ??_GControlTower@@UAEPAXI@Z 00471550 f i controltower.obj
 0001:00070550       ??_GGodDish@@UAEPAXI@Z     00471550 f i goddish.obj
 0001:00070550       ??_EChessPiece@@UAEPAXI@Z  00471550 f i chess.obj
 0001:00070550       ??_EBlueprintBuilding@@UAEPAXI@Z 00471550 f i blueprintstore.obj
 0001:00070550       ??_EStatue@@UAEPAXI@Z      00471550 f i statue.obj
 0001:00070550       ??_GBlueprintBuilding@@UAEPAXI@Z 00471550 f i blueprintstore.obj
 0001:00070550       ??_EGunTurret@@UAEPAXI@Z   00471550 f i gunturret.obj
 0001:00070550       ??_EPowerstation@@UAEPAXI@Z 00471550 f i powerstation.obj
 0001:00070550       ??_ELibrary@@UAEPAXI@Z     00471550 f i library.obj
 0001:00070550       ??_ESmokeMarker@@UAEPAXI@Z 00471550 f i smokemarker.obj
 0001:00070550       ??_EFuelGenerator@@UAEPAXI@Z 00471550 f i rocket.obj
 0001:00070550       ??_ELaserFence@@UAEPAXI@Z  00471550 f i laserfence.obj
 0001:00070550       ??_GPortal@@UAEPAXI@Z      00471550 f i portal.obj
 0001:00070550       ??_EFeedingTube@@UAEPAXI@Z 00471550 f i feedingtube.obj
 0001:00070550       ??_GFeedingTube@@UAEPAXI@Z 00471550 f i feedingtube.obj
 0001:00070550       ??_EFuelPipe@@UAEPAXI@Z    00471550 f i rocket.obj
 0001:00070550       ??_GDynamicBase@@UAEPAXI@Z 00471550 f i generichub.obj
 0001:00070550       ??_GCarryableBuilding@@UAEPAXI@Z 00471550 f i carryablebuilding.obj
 0001:00070550       ??_EJumpPad@@UAEPAXI@Z     00471550 f i jumppad.obj
 0001:00070550       ??_EPortal@@UAEPAXI@Z      00471550 f i portal.obj
 0001:00070550       ??_EUpgradePort@@UAEPAXI@Z 00471550 f i upgrade_port.obj
 0001:00070550       ??_GScriptTrigger@@UAEPAXI@Z 00471550 f i scripttrigger.obj
 0001:00070550       ??_ECarryableBuilding@@UAEPAXI@Z 00471550 f i carryablebuilding.obj
 0001:00070550       ??_GLaserFence@@UAEPAXI@Z  00471550 f i laserfence.obj
 0001:00070550       ??_GChessPiece@@UAEPAXI@Z  00471550 f i chess.obj
 0001:00070550       ??_EAIObjectiveMarker@@UAEPAXI@Z 00471550 f i aiobjective.obj
 0001:00070550       ??_GWallBuster@@UAEPAXI@Z  00471550 f i wallbuster.obj
 0001:00070550       ??_GBlueprintStore@@UAEPAXI@Z 00471550 f i blueprintstore.obj
 0001:00070550       ??_GEruptionMarker@@UAEPAXI@Z 00471550 f i eruptionmarker.obj
 0001:00070550       ??_GLibrary@@UAEPAXI@Z     00471550 f i library.obj
 0001:00070550       ??_GTriffid@@UAEPAXI@Z     00471550 f i triffid.obj
 0001:00070550       ??_ESafeArea@@UAEPAXI@Z    00471550 f i safearea.obj
 0001:00070550       ??_EDynamicBase@@UAEPAXI@Z 00471550 f i generichub.obj
 0001:00070550       ??_EDynamicHub@@UAEPAXI@Z  00471550 f i generichub.obj
 0001:00070550       ??_GConstructionYard@@UAEPAXI@Z 00471550 f i constructionyard.obj
 0001:00070550       ??_GSmokeMarker@@UAEPAXI@Z 00471550 f i smokemarker.obj
 0001:00070550       ??_EResearchItem@@UAEPAXI@Z 00471550 f i researchitem.obj
 0001:00070550       ??_EChessBase@@UAEPAXI@Z   00471550 f i chess.obj
 0001:00070550       ??_EDisplayScreen@@UAEPAXI@Z 00471550 f i constructionyard.obj
 0001:00070550       ??_GDynamicNode@@UAEPAXI@Z 00471550 f i generichub.obj
 0001:00070550       ??_EFuelBuilding@@UAEPAXI@Z 00471550 f i rocket.obj
 0001:00070550       ??_GAIObjectiveMarker@@UAEPAXI@Z 00471550 f i aiobjective.obj
 0001:00070550       ??_EControlTower@@UAEPAXI@Z 00471550 f i controltower.obj
 0001:00070550       ??_GWall@@UAEPAXI@Z        00471550 f i wall.obj
 0001:00070550       ??_GPowerstation@@UAEPAXI@Z 00471550 f i powerstation.obj
 0001:00070550       ??_GDynamicHub@@UAEPAXI@Z  00471550 f i generichub.obj
 0001:00070550       ??_GAISpawnPoint@@UAEPAXI@Z 00471550 f i ai.obj
 0001:00070550       ??_GFuelGenerator@@UAEPAXI@Z 00471550 f i rocket.obj
 0001:00070550       ??_GUpgradePort@@UAEPAXI@Z 00471550 f i upgrade_port.obj
 0001:00070550       ??_EEruptionMarker@@UAEPAXI@Z 00471550 f i eruptionmarker.obj
 0001:00070550       ??_GBlueprintRelay@@UAEPAXI@Z 00471550 f i blueprintstore.obj
 0001:00070550       ??_GStatue@@UAEPAXI@Z      00471550 f i statue.obj
 0001:00070550       ??_GGunTurret@@UAEPAXI@Z   00471550 f i gunturret.obj
 0001:00070550       ??_EStaticShape@@UAEPAXI@Z 00471550 f i staticshape.obj
 0001:00070550       ??_EBlueprintStore@@UAEPAXI@Z 00471550 f i blueprintstore.obj
 0001:00070550       ??_GBlueprintConsole@@UAEPAXI@Z 00471550 f i blueprintstore.obj
 0001:00070550       ??_EPrimaryUpgradePort@@UAEPAXI@Z 00471550 f i upgrade_port.obj
 0001:00070550       ??_EBlueprintConsole@@UAEPAXI@Z 00471550 f i blueprintstore.obj
 0001:00070550       ??_GJumpPad@@UAEPAXI@Z     00471550 f i jumppad.obj
 0001:00070550       ??_EGodDish@@UAEPAXI@Z     00471550 f i goddish.obj
 0001:00070550       ??_EFuelStation@@UAEPAXI@Z 00471550 f i rocket.obj
 0001:00070550       ??_EWall@@UAEPAXI@Z        00471550 f i wall.obj
 0001:00070550       ??_EFenceSwitch@@UAEPAXI@Z 00471550 f i switch.obj
 0001:00070550       ??_GDisplayScreen@@UAEPAXI@Z 00471550 f i constructionyard.obj
 0001:00070550       ??_EControlStation@@UAEPAXI@Z 00471550 f i controlstation.obj
 0001:00070550       ??_GResearchItem@@UAEPAXI@Z 00471550 f i researchitem.obj
 0001:00070550       ??_ETriffid@@UAEPAXI@Z     00471550 f i triffid.obj
 0001:00070550       ??_EScriptTrigger@@UAEPAXI@Z 00471550 f i scripttrigger.obj
 0001:00070550       ??_GSafeArea@@UAEPAXI@Z    00471550 f i safearea.obj
 0001:00070550       ??_GFuelPipe@@UAEPAXI@Z    00471550 f i rocket.obj
 0001:00070550       ??_ESpam@@UAEPAXI@Z        00471550 f i spam.obj
 0001:00070550       ??_EDynamicNode@@UAEPAXI@Z 00471550 f i generichub.obj
 0001:00070550       ??_GFuelStation@@UAEPAXI@Z 00471550 f i rocket.obj
 0001:00070550       ??_EBlueprintRelay@@UAEPAXI@Z 00471550 f i blueprintstore.obj
 0001:00070550       ??_ECave@@UAEPAXI@Z        00471550 f i cave.obj
 0001:00070550       ??_GStaticShape@@UAEPAXI@Z 00471550 f i staticshape.obj
 0001:00070550       ??_GControlStation@@UAEPAXI@Z 00471550 f i controlstation.obj
 0001:00070550       ??_GFuelBuilding@@UAEPAXI@Z 00471550 f i rocket.obj
 0001:00070550       ??_ESpawnPopulationLock@@UAEPAXI@Z 00471550 f i spawnpoint.obj
 0001:00070550       ??_GPrimaryUpgradePort@@UAEPAXI@Z 00471550 f i upgrade_port.obj
 0001:00070550       ??_GSpam@@UAEPAXI@Z        00471550 f i spam.obj
 0001:00070550       ??_EAISpawnPoint@@UAEPAXI@Z 00471550 f i ai.obj
 0001:00070550       ??_GSpawnPopulationLock@@UAEPAXI@Z 00471550 f i spawnpoint.obj
 0001:00070550       ??_GFenceSwitch@@UAEPAXI@Z 00471550 f i switch.obj
 0001:00070550       ??_GChessBase@@UAEPAXI@Z   00471550 f i chess.obj
 0001:00070550       ??_EConstructionYard@@UAEPAXI@Z 00471550 f i constructionyard.obj
 0001:00070550       ??_GCave@@UAEPAXI@Z        00471550 f i cave.obj
 0001:00070570       ?Advance@ControlStation@@UAE_NXZ 00471570 f   controlstation.obj
 0001:00070580       ?RenderAlphas@ControlStation@@UAEXN@Z 00471580 f   controlstation.obj
 0001:00070af0       ?RenderPorts@CloneLab@@UAEXXZ 00471af0 f   clonelab.obj
 0001:00070af0       ?RenderPorts@ControlStation@@UAEXXZ 00471af0 f   controlstation.obj
 0001:00070af0       ?RenderPorts@SpawnPoint@@UAEXXZ 00471af0 f   spawnpoint.obj
 0001:00070f00       ?LinkToPulseBomb@ControlStation@@QAEXH@Z 00471f00 f   controlstation.obj
 0001:00070f60       ??0ControlTower@@QAE@XZ    00471f60 f   controltower.obj
 0001:00071210       ?Initialise@ControlTower@@UAEXPAVBuilding@@@Z 00472210 f   controltower.obj
 0001:00071230       ?GetAvailablePosition@ControlTower@@QAEHAAVVector3@@0@Z 00472230 f   controltower.obj
 0001:000712d0       ?GetConsolePosition@ControlTower@@QAEXHAAVVector3@@@Z 004722d0 f   controltower.obj
 0001:00071350       ?BeginReprogram@ControlTower@@QAEXH@Z 00472350 f   controltower.obj
 0001:00071380       ?Reprogram@ControlTower@@QAE_NH@Z 00472380 f   controltower.obj
 0001:000714f0       ?EndReprogram@ControlTower@@QAEXH@Z 004724f0 f   controltower.obj
 0001:00071520       ?Render@ControlTower@@UAEXN@Z 00472520 f   controltower.obj
 0001:00071560       ?IsInView@ControlTower@@UAE_NXZ 00472560 f   controltower.obj
 0001:000715f0       ?ListSoundEvents@ControlTower@@UAEXPAV?$LList@PAD@@@Z 004725f0 f   controltower.obj
 0001:00071600       ?Read@ControlTower@@UAEXPAVTextReader@@_N@Z 00472600 f   controltower.obj
 0001:00071630       ?Write@ControlTower@@UAEXPAVTextWriter@@@Z 00472630 f   controltower.obj
 0001:00071660       ?GetBuildingLink@ControlTower@@UAEHXZ 00472660 f   controltower.obj
 0001:00071670       ?SetBuildingLink@ControlTower@@UAEXH@Z 00472670 f   controltower.obj
 0001:00071680       ?Advance@ControlTower@@UAE_NXZ 00472680 f   controltower.obj
 0001:000719d0       ?RenderAlphas@ControlTower@@UAEXN@Z 004729d0 f   controltower.obj
 0001:00072570       ??0Crate@@QAE@XZ           00473570 f   crate.obj
 0001:00072640       ??1Crate@@UAE@XZ           00473640 f   crate.obj
 0001:000726b0       ?Initialise@Crate@@UAEXPAVBuilding@@@Z 004736b0 f   crate.obj
 0001:000726e0       ?SetDetail@Crate@@UAEXH@Z  004736e0 f   crate.obj
 0001:00072780       ?StopCaptureSounds@Crate@@QAEXXZ 00473780 f   crate.obj
 0001:000727c0       ?GetPercentCaptured@Crate@@QAENXZ 004737c0 f   crate.obj
 0001:000727e0       ?Render@Spam@@UAEXN@Z      004737e0 f   spam.obj
 0001:000727e0       ?Render@Crate@@UAEXN@Z     004737e0 f   crate.obj
 0001:00072910       ?DoesRayHit@Crate@@UAE_NABVVector3@@0NPAV2@1@Z 00473910 f   crate.obj
 0001:00072920       ?GetName@Crate@@SAPADH@Z   00473920 f   crate.obj
 0001:00072a70       ?GetNameTranslated@Crate@@SAXHAAVUnicodeString@@@Z 00473a70 f   crate.obj
 0001:00072b60       ?TriggerSoundEvent@Crate@@SAXHABVVector3@@H@Z 00473b60 f   crate.obj
 0001:00072b90       ?RunSpawnMania@Crate@@SAXXZ 00473b90 f   crate.obj
 0001:00072c90       ?RunBitzkreig@Crate@@SAXXZ 00473c90 f   crate.obj
 0001:00072db0       ?RunCrateMania@Crate@@SAXXZ 00473db0 f   crate.obj
 0001:00072ef0       ?RunRocketDarwinians@Crate@@SAXH@Z 00473ef0 f   crate.obj
 0001:00072fe0       ?RunSlowDownTime@Crate@@SAXXZ 00473fe0 f   crate.obj
 0001:00073060       ?RunSpeedUpTime@Crate@@SAXXZ 00474060 f   crate.obj
 0001:000730e0       ?LogState@Crate@@UAEPADPAD@Z 004740e0 f   crate.obj
 0001:00073190       ??_ECrate@@UAEPAXI@Z       00474190 f i crate.obj
 0001:00073190       ??_GCrate@@UAEPAXI@Z       00474190 f i crate.obj
 0001:000731b0       ?IsValid@Crate@@SA_NH@Z    004741b0 f   crate.obj
 0001:00073350       ?CaptureCrate@Crate@@SAXHH@Z 00474350 f   crate.obj
 0001:00073540       ?RenderGlow@Crate@@QAEXN@Z 00474540 f   crate.obj
 0001:00073d30       ?RunEggs@Crate@@SAXABVVector3@@H@Z 00474d30 f   crate.obj
 0001:00074070       ?RunDarwinians@Crate@@SAXABVVector3@@H@Z 00475070 f   crate.obj
 0001:00074330       ?RecalculateOwnership@Crate@@QAEHAAH@Z 00475330 f   crate.obj
 0001:000744b0       ?RenderBubble@Crate@@QAEXN@Z 004754b0 f   crate.obj
 0001:00074cc0       ?RenderGroundMarker@Crate@@QAEXN@Z 00475cc0 f   crate.obj
 0001:000753e0       ?IsInView@Crate@@UAE_NXZ   004763e0 f   crate.obj
 0001:000754b0       ?RunAirStrike@Crate@@SA?AVWorldObjectId@@ABVVector3@@H_N@Z 004764b0 f   crate.obj
 0001:00075870       ?RunNuke@Crate@@SAXABVVector3@@H@Z 00476870 f   crate.obj
 0001:00075d30       ?RunSubversion@Crate@@SAXABVVector3@@HH@Z 00476d30 f   crate.obj
 0001:00075f10       ?RunBooster@Crate@@SAXABVVector3@@HH@Z 00476f10 f   crate.obj
 0001:000760f0       ?RunHotFeet@Crate@@SAXABVVector3@@HH@Z 004770f0 f   crate.obj
 0001:000762d0       ?RunPlague@Crate@@SAXABVVector3@@H@Z 004772d0 f   crate.obj
 0001:000763f0       ?RunMeteorShower@Crate@@SAXABVVector3@@H@Z 004773f0 f   crate.obj
 0001:00076710       ?RunRage@Crate@@SAXABVVector3@@HH@Z 00477710 f   crate.obj
 0001:000768f0       ?RunSpaceShip@Crate@@SAXXZ 004778f0 f   crate.obj
 0001:00076ad0       ?PushFromObstructions@Crate@@QAE?AVVector3@@V2@@Z 00477ad0 f   crate.obj
 0001:00076cb0       ?ListSoundEvents@Crate@@UAEXPAV?$LList@PAD@@@Z 00477cb0 f   crate.obj
 0001:00076e70       ?AdvanceFloating@Crate@@QAEXXZ 00477e70 f   crate.obj
 0001:000771a0       ?RenderAlphas@Crate@@UAEXN@Z 004781a0 f   crate.obj
 0001:00077210       ?GenerateTrees@Crate@@KAXVVector3@@@Z 00478210 f   crate.obj
 0001:000776c0       ?GenerateEvilTrees@Crate@@KAXVVector3@@@Z 004786c0 f   crate.obj
 0001:00077a20       ?RunGunTurret@Crate@@SA?AVWorldObjectId@@ABVVector3@@HH@Z 00478a20 f   crate.obj
 0001:00077c30       ?RunInfection@Crate@@SAXABVVector3@@H@Z 00478c30 f   crate.obj
 0001:00077eb0       ?RunMagicalForest@Crate@@SAXABVVector3@@H@Z 00478eb0 f   crate.obj
 0001:00077ff0       ?RunDarkForest@Crate@@SAXABVVector3@@H@Z 00478ff0 f   crate.obj
 0001:00078190       ?RunAntNest@Crate@@SAXABVVector3@@H@Z 00479190 f   crate.obj
 0001:00078530       ?RunRandomiser@Crate@@SAXABVVector3@@H@Z 00479530 f   crate.obj
 0001:00078650       ?RunTriffids@Crate@@SAXABVVector3@@H@Z 00479650 f   crate.obj
 0001:000789c0       ?CaptureCrate@Crate@@QAEXXZ 004799c0 f   crate.obj
 0001:00078e30       ?RunUncapturedCrate@Crate@@QAEXH@Z 00479e30 f   crate.obj
 0001:00079200       ?AdvanceOnGround@Crate@@QAEXXZ 0047a200 f   crate.obj
 0001:000797f0       ?Advance@Crate@@UAE_NXZ    0047a7f0 f   crate.obj
 0001:00079820       ??0EruptionMarker@@QAE@XZ  0047a820 f   eruptionmarker.obj
 0001:00079850       ?Advance@EruptionMarker@@UAE_NXZ 0047a850 f   eruptionmarker.obj
 0001:000799c0       ?RenderAlphas@Factory@@UAEXN@Z 0047a9c0 f   factory.obj
 0001:000799f0       ?SetTeamId@Factory@@UAEXH@Z 0047a9f0 f   factory.obj
 0001:00079a10       ?Write@Factory@@UAEXPAVTextWriter@@@Z 0047aa10 f   factory.obj
 0001:00079a10       ?Write@FeedingTube@@UAEXPAVTextWriter@@@Z 0047aa10 f   feedingtube.obj
 0001:00079a40       ?Initialise@Factory@@UAEXPAVBuilding@@@Z 0047aa40 f   factory.obj
 0001:00079bb0       ?Render@Factory@@UAEXN@Z   0047abb0 f   factory.obj
 0001:00079ce0       ?AdvanceStateCreating@Factory@@QAEXXZ 0047ace0 f   factory.obj
 0001:00079f20       ?Advance@Factory@@UAE_NXZ  0047af20 f   factory.obj
 0001:00079f90       ??1SpiritStore@@QAE@XZ     0047af90 f i factory.obj
 0001:00079fe0       ??0Factory@@QAE@XZ         0047afe0 f   factory.obj
 0001:0007a0a0       ??1Factory@@UAE@XZ         0047b0a0 f i factory.obj
 0001:0007a140       ??_GFactory@@UAEPAXI@Z     0047b140 f i factory.obj
 0001:0007a140       ??_EFactory@@UAEPAXI@Z     0047b140 f i factory.obj
 0001:0007a160       ??0FeedingTube@@QAE@XZ     0047b160 f   feedingtube.obj
 0001:0007a260       ?Initialise@FeedingTube@@UAEXPAVBuilding@@@Z 0047b260 f   feedingtube.obj
 0001:0007a2a0       ?GetDishPos@FeedingTube@@IAE?AVVector3@@N@Z 0047b2a0 f   feedingtube.obj
 0001:0007a310       ?GetDishFront@FeedingTube@@IAE?AVVector3@@N@Z 0047b310 f   feedingtube.obj
 0001:0007a450       ?GetForwardsClippingDir@FeedingTube@@IAE?AVVector3@@NPAV1@@Z 0047b450 f   feedingtube.obj
 0001:0007a630       ?Render@Incubator@@UAEXN@Z 0047b630 f   incubator.obj
 0001:0007a630       ?Render@SpawnPoint@@UAEXN@Z 0047b630 f   spawnpoint.obj
 0001:0007a630       ?Render@TrackJunction@@UAEXN@Z 0047b630 f   mine.obj
 0001:0007a630       ?Render@FenceSwitch@@UAEXN@Z 0047b630 f   switch.obj
 0001:0007a630       ?Render@RadarDish@@UAEXN@Z 0047b630 f   radardish.obj
 0001:0007a630       ?Render@FuelStation@@UAEXN@Z 0047b630 f   rocket.obj
 0001:0007a630       ?Render@Powerstation@@UAEXN@Z 0047b630 f   powerstation.obj
 0001:0007a630       ?Render@GodDish@@UAEXN@Z   0047b630 f   goddish.obj
 0001:0007a630       ?Render@FeedingTube@@UAEXN@Z 0047b630 f   feedingtube.obj
 0001:0007a630       ?Render@SpawnBuilding@@UAEXN@Z 0047b630 f   spawnpoint.obj
 0001:0007a650       ?GetEndPoint@FeedingTube@@QAE?AVVector3@@XZ 0047b650 f   feedingtube.obj
 0001:0007a6e0       ?SetBuildingLink@FeedingTube@@UAEXH@Z 0047b6e0 f   feedingtube.obj
 0001:0007a710       ?IsInView@FeedingTube@@UAE_NXZ 0047b710 f   feedingtube.obj
 0001:0007a800       ?Advance@FeedingTube@@UAE_NXZ 0047b800 f   feedingtube.obj
 0001:0007a900       ?RenderSignal@FeedingTube@@IAEXNNN@Z 0047b900 f   feedingtube.obj
 0001:0007b2b0       ?RenderAlphas@FeedingTube@@UAEXN@Z 0047c2b0 f   feedingtube.obj
 0001:0007b370       ?GetPowerLocation@PowerBuilding@@QAE?AVVector3@@XZ 0047c370 f   generator.obj
 0001:0007b490       ?Render@PowerBuilding@@UAEXN@Z 0047c490 f   generator.obj
 0001:0007b4e0       ?GetObjectiveCounter@Generator@@UAEXAAVUnicodeString@@@Z 0047c4e0 f   generator.obj
 0001:0007b590       ?ReprogramComplete@Generator@@UAEXXZ 0047c590 f   generator.obj
 0001:0007b5b0       ?Render@Generator@@UAEXN@Z 0047c5b0 f   generator.obj
 0001:0007b7d0       ?Initialise@PylonStart@@UAEXPAVBuilding@@@Z 0047c7d0 f   generator.obj
 0001:0007b800       ?Read@PylonStart@@UAEXPAVTextReader@@_N@Z 0047c800 f   generator.obj
 0001:0007b850       ?Write@PylonStart@@UAEXPAVTextWriter@@@Z 0047c850 f   generator.obj
 0001:0007b890       ?TriggerSurge@PylonEnd@@UAEXNH@Z 0047c890 f   generator.obj
 0001:0007b900       ?RecalculateOwnership@SolarPanel@@QAEXXZ 0047c900 f   generator.obj
 0001:0007ba50       ?RenderPorts@SolarPanel@@UAEXXZ 0047ca50 f   generator.obj
 0001:0007bd90       ?Render@PowerSplitter@@UAEXN@Z 0047cd90 f   generator.obj
 0001:0007bdf0       ?TriggerSurge@PowerBuilding@@UAEXNH@Z 0047cdf0 f   generator.obj
 0001:0007be40       ?TriggerSurge@Generator@@UAEXNH@Z 0047ce40 f   generator.obj
 0001:0007bea0       ?Initialise@SolarPanel@@UAEXPAVBuilding@@@Z 0047cea0 f   generator.obj
 0001:0007bf50       ?Render@SolarPanel@@UAEXN@Z 0047cf50 f   generator.obj
 0001:0007c020       ?RenderAlphas@PowerBuilding@@UAEXN@Z 0047d020 f   generator.obj
 0001:0007d1c0       ?Advance@PowerBuilding@@UAE_NXZ 0047e1c0 f   generator.obj
 0001:0007d2a0       ?Advance@Generator@@UAE_NXZ 0047e2a0 f   generator.obj
 0001:0007d3e0       ?Advance@Pylon@@UAE_NXZ    0047e3e0 f   generator.obj
 0001:0007d3f0       ?Advance@PylonStart@@UAE_NXZ 0047e3f0 f   generator.obj
 0001:0007d4d0       ?RenderAlphas@PylonStart@@UAEXN@Z 0047e4d0 f   generator.obj
 0001:0007d590       ?RenderAlphas@SolarPanel@@UAEXN@Z 0047e590 f   generator.obj
 0001:0007dc20       ?ListSoundEvents@SolarPanel@@UAEXPAV?$LList@PAD@@@Z 0047ec20 f   generator.obj
 0001:0007dc20       ?ListSoundEvents@DynamicNode@@UAEXPAV?$LList@PAD@@@Z 0047ec20 f   generichub.obj
 0001:0007dc60       ?SetBuildingLink@PowerSplitter@@UAEXH@Z 0047ec60 f   generator.obj
 0001:0007dc80       ?Read@PowerSplitter@@UAEXPAVTextReader@@_N@Z 0047ec80 f   generator.obj
 0001:0007dd40       ??1PowerBuilding@@UAE@XZ   0047ed40 f   generator.obj
 0001:0007dd70       ??0Generator@@QAE@XZ       0047ed70 f   generator.obj
 0001:0007deb0       ??0Pylon@@QAE@XZ           0047eeb0 f   generator.obj
 0001:0007df50       ??0PylonStart@@QAE@XZ      0047ef50 f   generator.obj
 0001:0007e000       ??0PylonEnd@@QAE@XZ        0047f000 f   generator.obj
 0001:0007e0a0       ??0SolarPanel@@QAE@XZ      0047f0a0 f   generator.obj
 0001:0007e240       ?Advance@SolarPanel@@UAE_NXZ 0047f240 f   generator.obj
 0001:0007e3b0       ??0PowerSplitter@@QAE@XZ   0047f3b0 f   generator.obj
 0001:0007e470       ?Initialise@PowerSplitter@@UAEXPAVBuilding@@@Z 0047f470 f   generator.obj
 0001:0007e530       ?TriggerSurge@PowerSplitter@@UAEXNH@Z 0047f530 f   generator.obj
 0001:0007e5b0       ?RenderAlphas@PowerSplitter@@UAEXN@Z 0047f5b0 f   generator.obj
 0001:0007e6c0       ?Write@PowerSplitter@@UAEXPAVTextWriter@@@Z 0047f6c0 f   generator.obj
 0001:0007e730       ??_GPowerBuilding@@UAEPAXI@Z 0047f730 f i generator.obj
 0001:0007e730       ??_ESolarPanel@@UAEPAXI@Z  0047f730 f i generator.obj
 0001:0007e730       ??_GSolarPanel@@UAEPAXI@Z  0047f730 f i generator.obj
 0001:0007e730       ??_EPylonStart@@UAEPAXI@Z  0047f730 f i generator.obj
 0001:0007e730       ??_GGenerator@@UAEPAXI@Z   0047f730 f i generator.obj
 0001:0007e730       ??_EPylonEnd@@UAEPAXI@Z    0047f730 f i generator.obj
 0001:0007e730       ??_GPylonStart@@UAEPAXI@Z  0047f730 f i generator.obj
 0001:0007e730       ??_GPylon@@UAEPAXI@Z       0047f730 f i generator.obj
 0001:0007e730       ??_EPylon@@UAEPAXI@Z       0047f730 f i generator.obj
 0001:0007e730       ??_EPowerBuilding@@UAEPAXI@Z 0047f730 f i generator.obj
 0001:0007e730       ??_GPylonEnd@@UAEPAXI@Z    0047f730 f i generator.obj
 0001:0007e730       ??_EGenerator@@UAEPAXI@Z   0047f730 f i generator.obj
 0001:0007e770       ??_GPowerSplitter@@UAEPAXI@Z 0047f770 f i generator.obj
 0001:0007e770       ??_EPowerSplitter@@UAEPAXI@Z 0047f770 f i generator.obj
 0001:0007e7c0       ?Render@DynamicBase@@UAEXN@Z 0047f7c0 f   generichub.obj
 0001:0007e820       ?Write@DynamicBase@@UAEXPAVTextWriter@@@Z 0047f820 f   generichub.obj
 0001:0007e860       ?SetShapeName@DynamicBase@@QAEXPAD@Z 0047f860 f   generichub.obj
 0001:0007e930       ??0DynamicHub@@QAE@XZ      0047f930 f   generichub.obj
 0001:0007e9a0       ?ReprogramComplete@DynamicHub@@UAEXXZ 0047f9a0 f   generichub.obj
 0001:0007e9c0       ?Render@DynamicHub@@UAEXN@Z 0047f9c0 f   generichub.obj
 0001:0007e9e0       ?ActivateLink@DynamicHub@@QAEXXZ 0047f9e0 f   generichub.obj
 0001:0007ea00       ?Write@DynamicHub@@UAEXPAVTextWriter@@@Z 0047fa00 f   generichub.obj
 0001:0007ea80       ?GetObjectiveCounter@DynamicHub@@UAEXAAVUnicodeString@@@Z 0047fa80 f   generichub.obj
 0001:0007eb40       ??0DynamicNode@@QAE@XZ     0047fb40 f   generichub.obj
 0001:0007eba0       ?RenderPorts@DynamicNode@@UAEXXZ 0047fba0 f   generichub.obj
 0001:0007ebb0       ?RenderAlphas@DynamicNode@@UAEXN@Z 0047fbb0 f   generichub.obj
 0001:0007ebd0       ?ReprogramComplete@DynamicNode@@UAEXXZ 0047fbd0 f   generichub.obj
 0001:0007ec30       ?Write@DynamicNode@@UAEXPAVTextWriter@@@Z 0047fc30 f   generichub.obj
 0001:0007eca0       ?Initialise@DynamicBase@@UAEXPAVBuilding@@@Z 0047fca0 f   generichub.obj
 0001:0007ecd0       ?Read@DynamicBase@@UAEXPAVTextReader@@_N@Z 0047fcd0 f   generichub.obj
 0001:0007ed10       ?Initialise@DynamicHub@@UAEXPAVBuilding@@@Z 0047fd10 f   generichub.obj
 0001:0007ed70       ?Advance@DynamicHub@@UAE_NXZ 0047fd70 f   generichub.obj
 0001:0007ef00       ?ChangeScore@DynamicHub@@QAE_NH@Z 0047ff00 f   generichub.obj
 0001:0007ef40       ?Read@DynamicHub@@UAEXPAVTextReader@@_N@Z 0047ff40 f   generichub.obj
 0001:0007efc0       ?Initialise@DynamicNode@@UAEXPAVBuilding@@@Z 0047ffc0 f   generichub.obj
 0001:0007f010       ?Read@DynamicNode@@UAEXPAVTextReader@@_N@Z 00480010 f   generichub.obj
 0001:0007f080       ?Render@DynamicNode@@UAEXN@Z 00480080 f   generichub.obj
 0001:0007f130       ?ListSoundEvents@PowerBuilding@@UAEXPAV?$LList@PAD@@@Z 00480130 f   generator.obj
 0001:0007f130       ?ListSoundEvents@DynamicBase@@UAEXPAV?$LList@PAD@@@Z 00480130 f   generichub.obj
 0001:0007f160       ?ListSoundEvents@Generator@@UAEXPAV?$LList@PAD@@@Z 00480160 f   generator.obj
 0001:0007f160       ?ListSoundEvents@DynamicHub@@UAEXPAV?$LList@PAD@@@Z 00480160 f   generichub.obj
 0001:0007f1a0       ?Advance@DynamicNode@@UAE_NXZ 004801a0 f   generichub.obj
 0001:0007f380       ??0GodDish@@QAE@XZ         00480380 f   goddish.obj
 0001:0007f410       ?Advance@GodDish@@UAE_NXZ  00480410 f   goddish.obj
 0001:0007f460       ?IsInView@GodDish@@UAE_NXZ 00480460 f   goddish.obj
 0001:0007f480       ?DeActivate@GodDish@@QAEXXZ 00480480 f   goddish.obj
 0001:0007f4d0       ?RenderAlphas@GodDish@@UAEXN@Z 004804d0 f   goddish.obj
 0001:0007fd10       ?Activate@GodDish@@QAEXXZ  00480d10 f   goddish.obj
 0001:0007fdb0       ?TriggerSpam@GodDish@@QAEXXZ 00480db0 f   goddish.obj
 0001:0007fe20       ?ListSoundEvents@GodDish@@UAEXPAV?$LList@PAD@@@Z 00480e20 f   goddish.obj
 0001:0007fe60       ?SpawnSpam@GodDish@@QAEX_N@Z 00480e60 f   goddish.obj
 0001:0007ffa0       ?HorizontalAndNormalise@Vector3@@QAEXXZ 00480fa0 f i gunturret.obj
 0001:0007ffe0       ?RegisterKill@GunTurret@@QAEXHH@Z 00480fe0 f   gunturret.obj
 0001:00080050       ?SetDetail@GunTurret@@UAEXH@Z 00481050 f   gunturret.obj
 0001:00080090       ?ExplodeBody@GunTurret@@QAEXXZ 00481090 f   gunturret.obj
 0001:000801a0       ?SearchForRandomPos@GunTurret@@IAEXXZ 004811a0 f   gunturret.obj
 0001:000802e0       ?GetReloadTime@GunTurret@@QAENXZ 004812e0 f   gunturret.obj
 0001:00080330       ?GetMinRange@GunTurret@@QAENXZ 00481330 f   gunturret.obj
 0001:00080380       ?GetMaxRange@GunTurret@@QAENXZ 00481380 f   gunturret.obj
 0001:000803e0       ?GetTarget@GunTurret@@QAE?AVVector3@@XZ 004813e0 f   gunturret.obj
 0001:00080420       ?IsInView@GunTurret@@UAE_NXZ 00481420 f   gunturret.obj
 0001:00080450       ?RenderPorts@GunTurret@@UAEXXZ 00481450 f   gunturret.obj
 0001:00080830       ?DoesRayHit@GunTurret@@UAE_NABVVector3@@0NPAV2@1@Z 00481830 f   gunturret.obj
 0001:00080aa0       ?SetTarget@GunTurret@@QAEXVVector3@@@Z 00481aa0 f   gunturret.obj
 0001:00080ad0       ?GetTurretTypeName@GunTurret@@SAPADH@Z 00481ad0 f   gunturret.obj
 0001:00080b20       ?Read@GunTurret@@UAEXPAVTextReader@@_N@Z 00481b20 f   gunturret.obj
 0001:00080bc0       ?Write@GunTurret@@UAEXPAVTextWriter@@@Z 00481bc0 f   gunturret.obj
 0001:00080c60       ?Advance@GunTurretTarget@@UAE_NXZ 00481c60 f   gunturret.obj
 0001:00080cf0       ??0GunTurret@@QAE@XZ       00481cf0 f   gunturret.obj
 0001:00081070       ?Initialise@GunTurret@@UAEXPAVBuilding@@@Z 00482070 f   gunturret.obj
 0001:00081200       ?RecalculateOwnership@GunTurret@@IAEXXZ 00482200 f   gunturret.obj
 0001:00081680       ?Render@GunTurret@@UAEXN@Z 00482680 f   gunturret.obj
 0001:00081e60       ?ClearLOS@GunTurret@@IAE_NABVVector3@@@Z 00482e60 f   gunturret.obj
 0001:00082080       ?SearchForTargets@GunTurret@@IAE_NXZ 00483080 f   gunturret.obj
 0001:00082310       ?ListSoundEvents@GunTurret@@UAEXPAV?$LList@PAD@@@Z 00483310 f   gunturret.obj
 0001:000823a0       ?ConvertColours@@YAXPAVShapeFragment@@VRGBAColour@@@Z 004833a0 f   gunturret.obj
 0001:00082450       ?SetupTeamShapes@GunTurret@@SAXXZ 00483450 f   gunturret.obj
 0001:00082650       ?Damage@GunTurret@@UAEXN@Z 00483650 f   gunturret.obj
 0001:000826b0       ?PrimaryFire@GunTurret@@QAEXXZ 004836b0 f   gunturret.obj
 0001:00083080       ?Advance@GunTurret@@UAE_NXZ 00484080 f   gunturret.obj
 0001:00083dd0       ?GetDockPoint@Incubator@@QAEXAAVVector3@@0@Z 00484dd0 f   incubator.obj
 0001:00083e80       ?Read@Incubator@@UAEXPAVTextReader@@_N@Z 00484e80 f   incubator.obj
 0001:00083ec0       ?Write@Incubator@@UAEXPAVTextWriter@@@Z 00484ec0 f   incubator.obj
 0001:00083ef0       ??A?$DArray@VSpirit@@@@QAEAAVSpirit@@H@Z 00484ef0 f i incubator.obj
 0001:00083f60       ??_ESpirit@@UAEPAXI@Z      00484f60 f i incubator.obj
 0001:00083fc0       ??4WorldObject@@QAEAAV0@ABV0@@Z 00484fc0 f i incubator.obj
 0001:00084020       ?NumSpiritsInside@Incubator@@QAEHXZ 00485020 f   incubator.obj
 0001:00084030       ??4Spirit@@QAEAAV0@ABV0@@Z 00485030 f i incubator.obj
 0001:00084160       ?RemoveData@?$LList@PAVCamAnimNode@@@@QAEXH@Z 00485160 f i level_file.obj
 0001:00084160       ?RemoveData@?$LList@PAVServerToClientLetter@@@@QAEXH@Z 00485160 f i Server.obj
 0001:00084160       ?RemoveData@?$LList@PAVMineCart@@@@QAEXH@Z 00485160 f i mine.obj
 0001:00084160       ?RemoveData@?$LList@PAVDirtyRect@@@@QAEXH@Z 00485160 f i eclipse:eclipse.obj
 0001:00084160       ?RemoveData@?$LList@PAVDelayedJob@@@@QAEXH@Z 00485160 f i app.obj
 0001:00084160       ?RemoveData@?$LList@PAVTask@@@@QAEXH@Z 00485160 f i teleport.obj
 0001:00084160       ?RemoveData@?$LList@PAVUnicodeString@@@@QAEXH@Z 00485160 f i helpandoptions_windows.obj
 0001:00084160       ?RemoveData@?$LList@PAVRunningProgram@@@@QAEXH@Z 00485160 f i level_file.obj
 0001:00084160       ?RemoveData@?$LList@PAVCameraMount@@@@QAEXH@Z 00485160 f i level_file.obj
 0001:00084160       ?RemoveData@?$LList@PAUPowerSurge@@@@QAEXH@Z 00485160 f i generator.obj
 0001:00084160       ?RemoveData@?$LList@PAVWorldObjectId@@@@QAEXH@Z 00485160 f i sound_instance.obj
 0001:00084160       ?RemoveData@?$LList@PAVGlobalEventCondition@@@@QAEXH@Z 00485160 f i global_world.obj
 0001:00084160       ?RemoveData@?$LList@PAVKeyboardShortcut@@@@QAEXH@Z 00485160 f i taskmanager_interface_icons.obj
 0001:00084160       ?RemoveData@?$LList@PAVDropDownOptionData@@@@QAEXH@Z 00485160 f i drop_down_menu.obj
 0001:00084160       ?RemoveData@?$LList@PAVShamanIcon@@@@QAEXH@Z 00485160 f i shaman_interface.obj
 0001:00084160       ?RemoveData@?$LList@PAVHistoricWayPoint@@@@QAEXH@Z 00485160 f i insertion_squad.obj
 0001:00084160       ?RemoveData@?$LList@PAVMouseCursorMarker@@@@QAEXH@Z 00485160 f i gamecursor.obj
 0001:00084160       ?RemoveData@?$LList@PAVInstantUnit@@@@QAEXH@Z 00485160 f i level_file.obj
 0001:00084160       ?RemoveData@?$LList@PAUAntObjective@@@@QAEXH@Z 00485160 f i anthill.obj
 0001:00084160       ?RemoveData@?$LList@PAVBuildingPort@@@@QAEXH@Z 00485160 f i building.obj
 0001:00084160       ?RemoveData@?$LList@PAVViriiHistory@@@@QAEXH@Z 00485160 f i virii.obj
 0001:00084160       ?RemoveData@?$LList@PAVGlobalEventAction@@@@QAEXH@Z 00485160 f i global_world.obj
 0001:00084160       ?RemoveData@?$LList@PAVScreenZone@@@@QAEXH@Z 00485160 f i taskmanager_interface_gestures.obj
 0001:00084160       ?RemoveData@?$LList@PAUIncubatorIncoming@@@@QAEXH@Z 00485160 f i incubator.obj
 0001:00084160       ?RemoveData@?$LList@PAVEclButton@@@@QAEXH@Z 00485160 f i prefs_keybindings_window.obj
 0001:00084160       ?RemoveData@?$LList@PAUChatMessage@@@@QAEXH@Z 00485160 f i GameMenuWindow.obj
 0001:00084160       ?RemoveData@?$LList@PAVLight@@@@QAEXH@Z 00485160 f i level_file.obj
 0001:00084160       ?RemoveData@?$LList@PAVCameraAnimation@@@@QAEXH@Z 00485160 f i level_file.obj
 0001:00084160       ?RemoveData@?$LList@PAVSpawnBuildingSpirit@@@@QAEXH@Z 00485160 f i spawnpoint.obj
 0001:00084160       ?RemoveData@?$LList@PAVDspHandle@@@@QAEXH@Z 00485160 f i sound_instance.obj
 0001:00084160       ?RemoveData@?$LList@PAVSpawnBuildingLink@@@@QAEXH@Z 00485160 f i spawnpoint.obj
 0001:00084160       ?RemoveData@?$LList@PAVBuilding@@@@QAEXH@Z 00485160 f i level_file.obj
 0001:00084160       ?RemoveData@?$LList@PAVLocationMarker@@@@QAEXH@Z 00485160 f i markersystem.obj
 0001:00084160       ?RemoveData@?$LList@PAVVector3@@@@QAEXH@Z 00485160 f i engineer.obj
 0001:00084160       ?RemoveData@?$LList@PAVEclWindow@@@@QAEXH@Z 00485160 f i eclipse:eclipse.obj
 0001:00084160       ?RemoveData@?$LList@PAUOnScreenAidInfo@ControlHelpSystem@@@@QAEXH@Z 00485160 f i control_help.obj
 0001:00084160       ?RemoveData@?$LList@PAVGlobalLocation@@@@QAEXH@Z 00485160 f i global_world.obj
 0001:00084160       ?RemoveData@?$LList@PAVAnimatedPanelObject@@@@QAEXH@Z 00485160 f i animatedpanel.obj
 0001:00084160       ?RemoveData@?$LList@PAVRoute@@@@QAEXH@Z 00485160 f i level_file.obj
 0001:00084160       ?RemoveData@?$LList@PAUGameServer@@@@QAEXH@Z 00485160 f i metaserver.obj
 0001:00084160       ?RemoveData@?$LList@PAVLandscapeFlattenArea@@@@QAEXH@Z 00485160 f i level_file.obj
 0001:00084160       ?RemoveData@?$LList@PAVExplosion@@@@QAEXH@Z 00485160 f i explosion.obj
 0001:00084160       ?RemoveData@?$LList@PAVSyncDiff@@@@QAEXH@Z 00485160 f i multiwinia.obj
 0001:00084160       ?RemoveData@?$LList@PAVDirectory@@@@QAEXH@Z 00485160 f i ClientToServer.obj
 0001:00084160       ?RemoveData@?$LList@PAD@@QAEXH@Z 00485160 f i filedialog.obj
 0001:00084160       ?RemoveData@?$LList@PAURoutingTableEntry@@@@QAEXH@Z 00485160 f i routing_system.obj
 0001:00084160       ?RemoveData@?$LList@H@@QAEXH@Z 00485160 f i filedialog.obj
 0001:00084160       ?RemoveData@?$LList@PAVSoundEventBlueprint@@@@QAEXH@Z 00485160 f i soundsystem.obj
 0001:00084160       ?RemoveData@?$LList@PAVWayPoint@@@@QAEXH@Z 00485160 f i routing_system.obj
 0001:00084160       ?RemoveData@?$LList@PAURRSolarPanelInfo@@@@QAEXH@Z 00485160 f i ai.obj
 0001:00084160       ?RemoveData@?$LList@PAVGameServerButton@@@@QAEXH@Z 00485160 f i GameMenuWindow.obj
 0001:00084160       ?RemoveData@?$LList@M@@QAEXH@Z 00485160 f i global_internet.obj
 0001:00084160       ?RemoveData@?$LList@PAVIFrame@@@@QAEXH@Z 00485160 f i ClientToServer.obj
 0001:00084160       ?RemoveData@?$LList@PAVUnprocessedSpirit@@@@QAEXH@Z 00485160 f i spiritreceiver.obj
 0001:00084160       ?RemoveData@?$LList@PAVAnimatedPanelKeyframe@@@@QAEXH@Z 00485160 f i animatedpanel.obj
 0001:00084160       ?RemoveData@?$LList@PAVLandscapeTile@@@@QAEXH@Z 00485160 f i landscape.obj
 0001:00084160       ?RemoveData@?$LList@PAUNeighbourInfo@@@@QAEXH@Z 00485160 f i clonelab.obj
 0001:00084160       ?RemoveData@?$LList@PAVJob@@@@QAEXH@Z 00485160 f i loading_screen.obj
 0001:00084160       ?RemoveData@?$LList@PAVShapeFragment@@@@QAEXH@Z 00485160 f i shape.obj
 0001:00084160       ?RemoveData@?$LList@PAVGlobalBuilding@@@@QAEXH@Z 00485160 f i global_world.obj
 0001:00084160       ?RemoveData@?$LList@PAVRunnable@@@@QAEXH@Z 00485160 f i work_queue.obj
 0001:00084160       ?RemoveData@?$LList@PAVShapeMarker@@@@QAEXH@Z 00485160 f i shape.obj
 0001:00084160       ?RemoveData@?$LList@PAVGlobalEvent@@@@QAEXH@Z 00485160 f i global_world.obj
 0001:00084220       ?SetSize@?$FastDArray@VSpirit@@@@QAEXH@Z 00485220 f i incubator.obj
 0001:00084520       ??0Incubator@@QAE@XZ       00485520 f   incubator.obj
 0001:000848c0       ??1Incubator@@UAE@XZ       004858c0 f   incubator.obj
 0001:00084970       ?SpawnEntity@Incubator@@QAEXXZ 00485970 f   incubator.obj
 0001:00084ce0       ?RenderAlphas@Incubator@@UAEXN@Z 00485ce0 f   incubator.obj
 0001:00085150       ?ListSoundEvents@Incubator@@UAEXPAV?$LList@PAD@@@Z 00486150 f   incubator.obj
 0001:00085190       ??_GIncubator@@UAEPAXI@Z   00486190 f i incubator.obj
 0001:00085190       ??_EIncubator@@UAEPAXI@Z   00486190 f i incubator.obj
 0001:000851b0       ?Advance@Incubator@@UAE_NXZ 004861b0 f   incubator.obj
 0001:000852f0       ?GetNextFree@?$FastDArray@VSpirit@@@@QAEHXZ 004862f0 f i incubator.obj
 0001:00085350       ?Initialise@Incubator@@UAEXPAVBuilding@@@Z 00486350 f   incubator.obj
 0001:00085590       ?AddSpirit@Incubator@@QAEXPAVSpirit@@@Z 00486590 f   incubator.obj
 0001:00085740       ??0JumpPad@@QAE@XZ         00486740 f   jumppad.obj
 0001:00085770       ?Write@JumpPad@@UAEXPAVTextWriter@@@Z 00486770 f   jumppad.obj
 0001:000857c0       ?Read@JumpPad@@UAEXPAVTextReader@@_N@Z 004867c0 f   jumppad.obj
 0001:00085810       ?DoesRayHit@ResearchItem@@UAE_NABVVector3@@0NPAV2@1@Z 00486810 f   researchitem.obj
 0001:00085810       ?DoesRayHit@JumpPad@@UAE_NABVVector3@@0NPAV2@1@Z 00486810 f   jumppad.obj
 0001:00085810       ?DoesRayHit@Portal@@UAE_NABVVector3@@0NPAV2@1@Z 00486810 f   portal.obj
 0001:00085850       ?Advance@JumpPad@@UAE_NXZ  00486850 f   jumppad.obj
 0001:00085a20       ?RenderAlphas@JumpPad@@UAEXN@Z 00486a20 f   jumppad.obj
 0001:00085ea0       ??0LaserFence@@QAE@XZ      00486ea0 f   laserfence.obj
 0001:00086040       ?Initialise@LaserFence@@UAEXPAVBuilding@@@Z 00487040 f   laserfence.obj
 0001:000860c0       ?SetDetail@LaserFence@@UAEXH@Z 004870c0 f   laserfence.obj
 0001:000860d0       ?Render@LaserFence@@UAEXN@Z 004870d0 f   laserfence.obj
 0001:00086190       ?GetFenceFullHeight@LaserFence@@QAENXZ 00487190 f   laserfence.obj
 0001:000862c0       ?IsInView@LaserFence@@UAE_NXZ 004872c0 f   laserfence.obj
 0001:000862f0       ?PerformDepthSort@LaserFence@@UAE_NAAVVector3@@@Z 004872f0 f   laserfence.obj
 0001:00086330       ?Enable@LaserFence@@QAEXXZ 00487330 f   laserfence.obj
 0001:00086390       ?Disable@LaserFence@@QAEXXZ 00487390 f   laserfence.obj
 0001:000863f0       ?Toggle@LaserFence@@QAEXXZ 004873f0 f   laserfence.obj
 0001:00086440       ?IsEnabled@LaserFence@@QAE_NXZ 00487440 f   laserfence.obj
 0001:00086460       ?Read@LaserFence@@UAEXPAVTextReader@@_N@Z 00487460 f   laserfence.obj
 0001:000864e0       ?Write@LaserFence@@UAEXPAVTextWriter@@@Z 004874e0 f   laserfence.obj
 0001:00086540       ?GetBuildingLink@LaserFence@@UAEHXZ 00487540 f   laserfence.obj
 0001:00086550       ?SetBuildingLink@LaserFence@@UAEXH@Z 00487550 f   laserfence.obj
 0001:00086560       ?Electrocute@LaserFence@@QAEXABVVector3@@@Z 00487560 f   laserfence.obj
 0001:00086580       ?DoesShapeHit@LaserFence@@UAE_NPAVShape@@VMatrix34@@@Z 00487580 f   laserfence.obj
 0001:000865b0       ?GetTopPosition@LaserFence@@QAE?AVVector3@@XZ 004875b0 f   laserfence.obj
 0001:00086690       ?SetSolarLinked@LaserFence@@QAEXXZ 00487690 f   laserfence.obj
 0001:000866f0       ?Spark@LaserFence@@QAEXXZ  004876f0 f   laserfence.obj
 0001:00086930       ?Advance@LaserFence@@UAE_NXZ 00487930 f   laserfence.obj
 0001:00086c00       ?RenderAlphas@LaserFence@@UAEXN@Z 00487c00 f   laserfence.obj
 0001:000874e0       ?DoesSphereHit@LaserFence@@UAE_NABVVector3@@N@Z 004884e0 f   laserfence.obj
 0001:000877c0       ?DoesRayHit@LaserFence@@UAE_NABVVector3@@0NPAV2@1@Z 004887c0 f   laserfence.obj
 0001:00087bb0       ?ProvidePower@LaserFence@@QAEXXZ 00488bb0 f   laserfence.obj
 0001:00087be0       ?ListSoundEvents@LaserFence@@UAEXPAV?$LList@PAD@@@Z 00488be0 f   laserfence.obj
 0001:00087c20       ??0Library@@QAE@XZ         00488c20 f   library.obj
 0001:00087cd0       ?Advance@Library@@UAE_NXZ  00488cd0 f   library.obj
 0001:00087ea0       ?IsInView@MineBuilding@@UAE_NXZ 00488ea0 f   mine.obj
 0001:00087f90       ?GetTrackMarker2@MineBuilding@@QAE?AVVector3@@XZ 00488f90 f   mine.obj
 0001:00088130       ?Read@TrackStart@@UAEXPAVTextReader@@_N@Z 00489130 f   mine.obj
 0001:00088130       ?Read@TrackEnd@@UAEXPAVTextReader@@_N@Z 00489130 f   mine.obj
 0001:00088180       ?Write@TrackEnd@@UAEXPAVTextWriter@@@Z 00489180 f   mine.obj
 0001:00088180       ?Write@TrackStart@@UAEXPAVTextWriter@@@Z 00489180 f   mine.obj
 0001:000881c0       ?GetObjectiveCounter@Refinery@@UAEXAAVUnicodeString@@@Z 004891c0 f   mine.obj
 0001:00088280       ?GetTrackMarker1@MineBuilding@@QAE?AVVector3@@XZ 00489280 f   mine.obj
 0001:00088420       ?RenderAlphas@MineBuilding@@UAEXN@Z 00489420 f   mine.obj
 0001:00088950       ?TriggerCart@MineBuilding@@UAEXPAVMineCart@@N@Z 00489950 f   mine.obj
 0001:00088970       ?RenderAlphas@TrackEnd@@UAEXN@Z 00489970 f   mine.obj
 0001:00088970       ?RenderAlphas@TrackStart@@UAEXN@Z 00489970 f   mine.obj
 0001:00088a30       ?TriggerCart@Refinery@@UAEXPAVMineCart@@N@Z 00489a30 f   mine.obj
 0001:00088b20       ?TriggerCart@Mine@@UAEXPAVMineCart@@N@Z 00489b20 f   mine.obj
 0001:00088c30       ??0MineBuilding@@QAE@XZ    00489c30 f   mine.obj
 0001:00088fc0       ??1MineBuilding@@UAE@XZ    00489fc0 f i mine.obj
 0001:00088fe0       ?Initialise@MineBuilding@@UAEXPAVBuilding@@@Z 00489fe0 f   mine.obj
 0001:00089110       ?ListSoundEvents@MineBuilding@@UAEXPAV?$LList@PAD@@@Z 0048a110 f   mine.obj
 0001:00089140       ?RefinerySpeed@MineBuilding@@KANXZ 0048a140 f   mine.obj
 0001:000892a0       ??0TrackLink@@QAE@XZ       0048a2a0 f   mine.obj
 0001:00089320       ?SetBuildingLink@TrackJunction@@UAEXH@Z 0048a320 f   mine.obj
 0001:00089340       ?Read@TrackJunction@@UAEXPAVTextReader@@_N@Z 0048a340 f   mine.obj
 0001:00089400       ??0TrackStart@@QAE@XZ      0048a400 f   mine.obj
 0001:00089480       ??0TrackEnd@@QAE@XZ        0048a480 f   mine.obj
 0001:00089500       ?Initialise@TrackStart@@UAEXPAVBuilding@@@Z 0048a500 f   mine.obj
 0001:00089500       ?Initialise@TrackEnd@@UAEXPAVBuilding@@@Z 0048a500 f   mine.obj
 0001:00089520       ??0Refinery@@QAE@XZ        0048a520 f   mine.obj
 0001:00089750       ??0Mine@@QAE@XZ            0048a750 f   mine.obj
 0001:000898c0       ?RenderCart@MineBuilding@@QAEXPAVMineCart@@N@Z 0048a8c0 f   mine.obj
 0001:00089fe0       ?Advance@MineBuilding@@UAE_NXZ 0048afe0 f   mine.obj
 0001:0008a110       ?Advance@TrackLink@@UAE_NXZ 0048b110 f   mine.obj
 0001:0008a120       ??0TrackJunction@@QAE@XZ   0048b120 f   mine.obj
 0001:0008a1c0       ?Initialise@TrackJunction@@UAEXPAVBuilding@@@Z 0048b1c0 f   mine.obj
 0001:0008a270       ?RenderLink@TrackJunction@@UAEXXZ 0048b270 f   mine.obj
 0001:0008a390       ?TriggerCart@TrackJunction@@UAEXPAVMineCart@@N@Z 0048b390 f   mine.obj
 0001:0008a3f0       ?Write@TrackJunction@@UAEXPAVTextWriter@@@Z 0048b3f0 f   mine.obj
 0001:0008a460       ?Advance@TrackStart@@UAE_NXZ 0048b460 f   mine.obj
 0001:0008a4f0       ?Advance@TrackEnd@@UAE_NXZ 0048b4f0 f   mine.obj
 0001:0008a5d0       ??_GTrackStart@@UAEPAXI@Z  0048b5d0 f i mine.obj
 0001:0008a5d0       ??_ETrackLink@@UAEPAXI@Z   0048b5d0 f i mine.obj
 0001:0008a5d0       ??_GMine@@UAEPAXI@Z        0048b5d0 f i mine.obj
 0001:0008a5d0       ??_EMineBuilding@@UAEPAXI@Z 0048b5d0 f i mine.obj
 0001:0008a5d0       ??_EMine@@UAEPAXI@Z        0048b5d0 f i mine.obj
 0001:0008a5d0       ??_GMineBuilding@@UAEPAXI@Z 0048b5d0 f i mine.obj
 0001:0008a5d0       ??_GTrackLink@@UAEPAXI@Z   0048b5d0 f i mine.obj
 0001:0008a5d0       ??_GTrackEnd@@UAEPAXI@Z    0048b5d0 f i mine.obj
 0001:0008a5d0       ??_ETrackEnd@@UAEPAXI@Z    0048b5d0 f i mine.obj
 0001:0008a5d0       ??_GRefinery@@UAEPAXI@Z    0048b5d0 f i mine.obj
 0001:0008a5d0       ??_ETrackStart@@UAEPAXI@Z  0048b5d0 f i mine.obj
 0001:0008a5d0       ??_ERefinery@@UAEPAXI@Z    0048b5d0 f i mine.obj
 0001:0008a600       ?Advance@Refinery@@UAE_NXZ 0048b600 f   mine.obj
 0001:0008a650       ?Render@MineBuilding@@UAEXN@Z 0048b650 f   mine.obj
 0001:0008a6c0       ??_ETrackJunction@@UAEPAXI@Z 0048b6c0 f i mine.obj
 0001:0008a6c0       ??_GTrackJunction@@UAEPAXI@Z 0048b6c0 f i mine.obj
 0001:0008a700       ?Render@Refinery@@UAEXN@Z  0048b700 f   mine.obj
 0001:0008abc0       ?Render@Mine@@UAEXN@Z      0048bbc0 f   mine.obj
 0001:0008ad50       ?SetDetail@MultiwiniaZone@@UAEXH@Z 0048bd50 f   multiwiniazone.obj
 0001:0008ad70       ?GetBaseTeamId@MultiwiniaZone@@QAEHXZ 0048bd70 f   multiwiniazone.obj
 0001:0008ad90       ?DoesRayHit@ScriptTrigger@@UAE_NABVVector3@@0NPAV2@1@Z 0048bd90 f   scripttrigger.obj
 0001:0008ad90       ?DoesRayHit@EruptionMarker@@UAE_NABVVector3@@0NPAV2@1@Z 0048bd90 f   eruptionmarker.obj
 0001:0008ad90       ?DoesRayHit@SafeArea@@UAE_NABVVector3@@0NPAV2@1@Z 0048bd90 f   safearea.obj
 0001:0008ad90       ?DoesRayHit@CarryableBuilding@@UAE_NABVVector3@@0NPAV2@1@Z 0048bd90 f   carryablebuilding.obj
 0001:0008ad90       ?DoesRayHit@MultiwiniaZone@@UAE_NABVVector3@@0NPAV2@1@Z 0048bd90 f   multiwiniazone.obj
 0001:0008ad90       ?DoesRayHit@RestrictionZone@@UAE_NABVVector3@@0NPAV2@1@Z 0048bd90 f   restrictionzone.obj
 0001:0008ad90       ?DoesRayHit@AIObjectiveMarker@@UAE_NABVVector3@@0NPAV2@1@Z 0048bd90 f   aiobjective.obj
 0001:0008ad90       ?DoesRayHit@AIObjective@@UAE_NABVVector3@@0NPAV2@1@Z 0048bd90 f   aiobjective.obj
 0001:0008add0       ?IsBlitzkriegBaseZone@MultiwiniaZone@@QAE_NXZ 0048bdd0 f   multiwiniazone.obj
 0001:0008adf0       ?Advance_CaptureTheStatue@MultiwiniaZone@@IAEXXZ 0048bdf0 f   multiwiniazone.obj
 0001:0008b010       ?GetNumZones@MultiwiniaZone@@SAHH@Z 0048c010 f   multiwiniazone.obj
 0001:0008b080       ?Advance_KingOfTheHill@MultiwiniaZone@@IAEXXZ 0048c080 f   multiwiniazone.obj
 0001:0008b260       ?RenderZoneEdge@MultiwiniaZone@@QAEXNNVRGBAColour@@_N@Z 0048c260 f   multiwiniazone.obj
 0001:0008ba50       ?Read@MultiwiniaZone@@UAEXPAVTextReader@@_N@Z 0048ca50 f   multiwiniazone.obj
 0001:0008bb10       ?ListSoundEvents@MultiwiniaZone@@UAEXPAV?$LList@PAD@@@Z 0048cb10 f   multiwiniazone.obj
 0001:0008bb40       ??0MultiwiniaZone@@QAE@XZ  0048cb40 f   multiwiniazone.obj
 0001:0008bc00       ??1MultiwiniaZone@@UAE@XZ  0048cc00 f   multiwiniazone.obj
 0001:0008bc60       ?Initialise@MultiwiniaZone@@UAEXPAVBuilding@@@Z 0048cc60 f   multiwiniazone.obj
 0001:0008bd90       ?GetBlitzkriegPriority@MultiwiniaZone@@KANHH@Z 0048cd90 f   multiwiniazone.obj
 0001:0008bed0       ?RenderAlphas@MultiwiniaZone@@UAEXN@Z 0048ced0 f   multiwiniazone.obj
 0001:0008c380       ?GetBuildingLink@MultiwiniaZone@@UAEHXZ 0048d380 f   multiwiniazone.obj
 0001:0008c3b0       ?IsBlitzkriegZoneLocked@MultiwiniaZone@@QAE_NXZ 0048d3b0 f   multiwiniazone.obj
 0001:0008c460       ?SetBuildingLink@MultiwiniaZone@@UAEXH@Z 0048d460 f   multiwiniazone.obj
 0001:0008c510       ?Write@MultiwiniaZone@@UAEXPAVTextWriter@@@Z 0048d510 f   multiwiniazone.obj
 0001:0008c590       ??_GMultiwiniaZone@@UAEPAXI@Z 0048d590 f i multiwiniazone.obj
 0001:0008c590       ??_EMultiwiniaZone@@UAEPAXI@Z 0048d590 f i multiwiniazone.obj
 0001:0008c5b0       ?Advance_Blitzkrieg@MultiwiniaZone@@IAEXXZ 0048d5b0 f   multiwiniazone.obj
 0001:0008ca90       ?Advance@MultiwiniaZone@@UAE_NXZ 0048da90 f   multiwiniazone.obj
 0001:0008cb90       ?RenderBlitzkrieg@MultiwiniaZone@@IAEXXZ 0048db90 f   multiwiniazone.obj
 0001:0008cff0       ?Render@MultiwiniaZone@@UAEXN@Z 0048dff0 f   multiwiniazone.obj
 0001:0008d070       ??0Portal@@QAE@XZ          0048e070 f   portal.obj
 0001:0008d0c0       ?AdvanceStateThrashing@Portal@@IAEXXZ 0048e0c0 f   portal.obj
 0001:0008d100       ?AdvanceStateCooldown@Portal@@IAEXXZ 0048e100 f   portal.obj
 0001:0008d130       ?GetPortalCenter@Portal@@QAE?AVVector3@@XZ 0048e130 f   portal.obj
 0001:0008d1a0       ?AdvanceStateExpanding@Portal@@IAEXXZ 0048e1a0 f   portal.obj
 0001:0008d3c0       ?AdvanceStateExploding@Portal@@IAEXXZ 0048e3c0 f   portal.obj
 0001:0008d440       ?RenderExplosionBuildup@Portal@@IAEXN@Z 0048e440 f   portal.obj
 0001:0008dc90       ?RenderBeam@Portal@@SAXVVector3@@0@Z 0048ec90 f   portal.obj
 0001:0008e3c0       ?AdvanceFinalSummon@Portal@@IAEXXZ 0048f3c0 f   portal.obj
 0001:0008e4d0       ?RenderBeam@Portal@@IAEXXZ 0048f4d0 f   portal.obj
 0001:0008e590       ?Advance@Portal@@UAE_NXZ   0048f590 f   portal.obj
 0001:0008e5e0       ?RenderAlphas@Portal@@UAEXN@Z 0048f5e0 f   portal.obj
 0001:0008ec60       ??0Powerstation@@QAE@XZ    0048fc60 f   powerstation.obj
 0001:0008ece0       ?Initialise@Powerstation@@UAEXPAVBuilding@@@Z 0048fce0 f   powerstation.obj
 0001:0008ed20       ?Advance@Powerstation@@UAE_NXZ 0048fd20 f   powerstation.obj
 0001:0008edd0       ?Render@PulseBomb@@UAEXN@Z 0048fdd0 f   pulsebomb.obj
 0001:0008ef70       ?Read@PulseBomb@@UAEXPAVTextReader@@_N@Z 0048ff70 f   pulsebomb.obj
 0001:0008eff0       ?DoesRayHit@PulseBomb@@UAE_NABVVector3@@0NPAV2@1@Z 0048fff0 f   pulsebomb.obj
 0001:0008f100       ?DoesSphereHit@PulseBomb@@UAE_NABVVector3@@N@Z 00490100 f   pulsebomb.obj
 0001:0008f270       ?DoesShapeHit@PulseBomb@@UAE_NPAVShape@@VMatrix34@@@Z 00490270 f   pulsebomb.obj
 0001:0008f380       ?RenderCountdown@PulseBomb@@QAEXN@Z 00490380 f   pulsebomb.obj
 0001:0008fa30       ?Destroy@PulseBomb@@QAEXXZ 00490a30 f   pulsebomb.obj
 0001:0008fba0       ?SetDetail@PulseBomb@@UAEXH@Z 00490ba0 f   pulsebomb.obj
 0001:0008fcb0       ??0PulseBomb@@QAE@XZ       00490cb0 f   pulsebomb.obj
 0001:0008fd90       ??1PulseBomb@@UAE@XZ       00490d90 f   pulsebomb.obj
 0001:0008fe20       ?Initialise@PulseBomb@@UAEXPAVBuilding@@@Z 00490e20 f   pulsebomb.obj
 0001:0008fef0       ?Advance@PulseBomb@@UAE_NXZ 00490ef0 f   pulsebomb.obj
 0001:000901d0       ?RenderAlphas@PulseBomb@@UAEXN@Z 004911d0 f   pulsebomb.obj
 0001:00090850       ?Write@PulseBomb@@UAEXPAVTextWriter@@@Z 00491850 f   pulsebomb.obj
 0001:000908d0       ?SetBuildingLink@PulseBomb@@UAEXH@Z 004918d0 f   pulsebomb.obj
 0001:00090980       ??_GPulseBomb@@UAEPAXI@Z   00491980 f i pulsebomb.obj
 0001:00090980       ??_EPulseBomb@@UAEPAXI@Z   00491980 f i pulsebomb.obj
 0001:000909a0       ?SetDetail@RadarDish@@UAEXH@Z 004919a0 f   radardish.obj
 0001:00090a30       ?GetEntrance@RadarDish@@UAE_NAAVVector3@@0@Z 00491a30 f   radardish.obj
 0001:00090a80       ?GetDishPos@RadarDish@@QAE?AVVector3@@N@Z 00491a80 f   radardish.obj
 0001:00090af0       ?GetDishFront@RadarDish@@QAE?AVVector3@@N@Z 00491af0 f   radardish.obj
 0001:00090c30       ?Connected@RadarDish@@UAE_NXZ 00491c30 f   radardish.obj
 0001:00090c60       ?GetConnectedDishId@RadarDish@@QAEHXZ 00491c60 f   radardish.obj
 0001:00090c70       ?ReadyToSend@RadarDish@@UAE_NXZ 00491c70 f   radardish.obj
 0001:00090ca0       ?GetStartPoint@RadarDish@@UAE?AVVector3@@XZ 00491ca0 f   radardish.obj
 0001:00090cc0       ?GetEndPoint@RadarDish@@UAE?AVVector3@@XZ 00491cc0 f   radardish.obj
 0001:00090d50       ?GetExit@RadarDish@@UAE_NAAVVector3@@0@Z 00491d50 f   radardish.obj
 0001:00090df0       ?DoesSphereHit@FeedingTube@@UAE_NABVVector3@@N@Z 00491df0 f   feedingtube.obj
 0001:00090df0       ?DoesSphereHit@RadarDish@@UAE_NABVVector3@@N@Z 00491df0 f   radardish.obj
 0001:00090e70       ?NotAligned@RadarDish@@QAE_NXZ 00491e70 f   radardish.obj
 0001:00090e90       ?Initialise@RadarDish@@UAEXPAVBuilding@@@Z 00491e90 f   radardish.obj
 0001:00090f20       ?Aim@RadarDish@@QAEXVVector3@@@Z 00491f20 f   radardish.obj
 0001:00091170       ?RenderSignal@RadarDish@@IAEXNNN@Z 00492170 f   radardish.obj
 0001:00091b90       ?UpdateEntityInTransit@RadarDish@@UAE_NPAVEntity@@@Z 00492b90 f   radardish.obj
 0001:00091fd0       ?Write@RadarDish@@UAEXPAVTextWriter@@@Z 00492fd0 f   radardish.obj
 0001:00092050       ?CountValidLinks@RadarDish@@QAEHXZ 00493050 f   radardish.obj
 0001:00092060       ?ClearLinks@RadarDish@@QAEXXZ 00493060 f   radardish.obj
 0001:000920a0       ?ValidReceiverDish@RadarDish@@QAE_NH@Z 004930a0 f   radardish.obj
 0001:00092130       ?RenderAlphas@RadarDish@@UAEXN@Z 00493130 f   radardish.obj
 0001:000923e0       ?ListSoundEvents@RadarDish@@UAEXPAV?$LList@PAD@@@Z 004933e0 f   radardish.obj
 0001:000923e0       ?ListSoundEvents@FeedingTube@@UAEXPAV?$LList@PAD@@@Z 004933e0 f   feedingtube.obj
 0001:00092440       ?Read@RadarDish@@UAEXPAVTextReader@@_N@Z 00493440 f   radardish.obj
 0001:00092530       ?SetBuildingLink@RadarDish@@UAEXH@Z 00493530 f   radardish.obj
 0001:00092530       ?AddValidLink@RadarDish@@QAEXH@Z 00493530 f   radardish.obj
 0001:00092550       ??1RadarDish@@UAE@XZ       00493550 f   radardish.obj
 0001:00092630       ?AdvanceAITarget@RadarDish@@QAEXXZ 00493630 f   radardish.obj
 0001:00092860       ??0RadarDish@@QAE@XZ       00493860 f   radardish.obj
 0001:00092ad0       ??_ERadarDish@@UAEPAXI@Z   00493ad0 f i radardish.obj
 0001:00092ad0       ??_GRadarDish@@UAEPAXI@Z   00493ad0 f i radardish.obj
 0001:00092af0       ?Advance@RadarDish@@UAE_NXZ 00493af0 f   radardish.obj
 0001:000932c0       ??0ResearchItem@@QAE@XZ    004942c0 f   researchitem.obj
 0001:00093450       ?Initialise@ResearchItem@@UAEXPAVBuilding@@@Z 00494450 f   researchitem.obj
 0001:00093480       ?NeedsReprogram@ResearchItem@@QAE_NXZ 00494480 f   researchitem.obj
 0001:000934a0       ?GetReprogrammed@ResearchItem@@QAENXZ 004944a0 f   researchitem.obj
 0001:000934b0       ?Reprogram@ResearchItem@@QAE_NXZ 004944b0 f   researchitem.obj
 0001:000934f0       ?GetEndPositions@ResearchItem@@QAEXAAVVector3@@0@Z 004944f0 f   researchitem.obj
 0001:00093580       ?Read@ResearchItem@@UAEXPAVTextReader@@_N@Z 00494580 f   researchitem.obj
 0001:000935e0       ?Write@ResearchItem@@UAEXPAVTextWriter@@@Z 004945e0 f   researchitem.obj
 0001:00093630       ?Render@ResearchItem@@UAEXN@Z 00494630 f   researchitem.obj
 0001:00093850       ?RenderAlphas@ResearchItem@@UAEXN@Z 00494850 f   researchitem.obj
 0001:000944f0       ?IsInView@ResearchItem@@UAE_NXZ 004954f0 f   researchitem.obj
 0001:00094570       ?SetDetail@ResearchItem@@UAEXH@Z 00495570 f   researchitem.obj
 0001:00094610       ?Advance@ResearchItem@@UAE_NXZ 00495610 f   researchitem.obj
 0001:00094870       ?ListSoundEvents@ResearchItem@@UAEXPAV?$LList@PAD@@@Z 00495870 f   researchitem.obj
 0001:000948a0       ??0RestrictionZone@@QAE@XZ 004958a0 f   restrictionzone.obj
 0001:000948d0       ?Reprogram@Building@@UAEXN@Z 004958d0 f   building.obj
 0001:000948d0       ?Render@Entity@@UAEXN@Z    004958d0 f   entity.obj
 0001:000948d0       ?RenderAlphas@EruptionMarker@@UAEXN@Z 004958d0 f   eruptionmarker.obj
 0001:000948d0       ?HandleCollision@CarryableBuilding@@UAEXN@Z 004958d0 f   carryablebuilding.obj
 0001:000948d0       ?Render@GunTurretTarget@@UAEXN@Z 004958d0 f   gunturret.obj
 0001:000948d0       ?RenderAlphas@RestrictionZone@@UAEXN@Z 004958d0 f   restrictionzone.obj
 0001:000948d0       ?SetChannelFrequency@SoundLibrary3dNoSound@@UAEXHH@Z 004958d0 f   soundsystem.obj
 0001:000948d0       ?SetChannelVolume@SoundLibrary3dNoSound@@UAEXHM@Z 004958d0 f   soundsystem.obj
 0001:000948d0       ?Render@SpawnPopulationLock@@UAEXN@Z 004958d0 f   spawnpoint.obj
 0001:000948d0       ?RenderAlphas@PylonEnd@@UAEXN@Z 004958d0 f   generator.obj
 0001:000948d0       ?Render@JumpPad@@UAEXN@Z   004958d0 f   jumppad.obj
 0001:000948d0       ?Render@WorldObject@@UAEXN@Z 004958d0 f   worldobject.obj
 0001:000948d0       ?Render@Tree@@UAEXN@Z      004958d0 f   tree.obj
 0001:000948d0       ?SetChannelMinDistance@SoundLibrary3dNoSound@@UAEXHM@Z 004958d0 f   soundsystem.obj
 0001:000948d0       ?RenderAlphas@GunTurret@@UAEXN@Z 004958d0 f   gunturret.obj
 0001:000948d0       ?SetChannel3DMode@SoundLibrary3dNoSound@@UAEXHH@Z 004958d0 f   soundsystem.obj
 0001:000948e0       ?Read@RestrictionZone@@UAEXPAVTextReader@@_N@Z 004958e0 f   restrictionzone.obj
 0001:00094940       ?Write@RestrictionZone@@UAEXPAVTextWriter@@@Z 00495940 f   restrictionzone.obj
 0001:00094990       ?Initialise@RestrictionZone@@UAEXPAVBuilding@@@Z 00495990 f   restrictionzone.obj
 0001:00094a20       ?IsRestricted@RestrictionZone@@SA_NVVector3@@_N@Z 00495a20 f   restrictionzone.obj
 0001:00094b00       ??_ERestrictionZone@@UAEPAXI@Z 00495b00 f i restrictionzone.obj
 0001:00094b00       ??_GRestrictionZone@@UAEPAXI@Z 00495b00 f i restrictionzone.obj
 0001:00094b50       ??0FuelBuilding@@QAE@XZ    00495b50 f   rocket.obj
 0001:00094bf0       ?Initialise@FuelBuilding@@UAEXPAVBuilding@@@Z 00495bf0 f   rocket.obj
 0001:00094c10       ?GetFuelPosition@FuelBuilding@@QAE?AVVector3@@XZ 00495c10 f   rocket.obj
 0001:00094d20       ?Advance@FuelBuilding@@UAE_NXZ 00495d20 f   rocket.obj
 0001:00094d80       ?IsInView@FuelBuilding@@UAE_NXZ 00495d80 f   rocket.obj
 0001:00094ea0       ?Render@FuelBuilding@@UAEXN@Z 00495ea0 f   rocket.obj
 0001:00095030       ?Read@FuelBuilding@@UAEXPAVTextReader@@_N@Z 00496030 f   rocket.obj
 0001:00095030       ?Read@FeedingTube@@UAEXPAVTextReader@@_N@Z 00496030 f   feedingtube.obj
 0001:00095030       ?Read@Factory@@UAEXPAVTextReader@@_N@Z 00496030 f   factory.obj
 0001:00095060       ?Write@FuelBuilding@@UAEXPAVTextWriter@@@Z 00496060 f   rocket.obj
 0001:00095090       ?GetBuildingLink@FeedingTube@@UAEHXZ 00496090 f   feedingtube.obj
 0001:00095090       ?GetBuildingLink@FuelBuilding@@UAEHXZ 00496090 f   rocket.obj
 0001:000950a0       ?SetBuildingLink@FuelBuilding@@UAEXH@Z 004960a0 f   rocket.obj
 0001:000950b0       ?Destroy@FuelBuilding@@UAEXN@Z 004960b0 f   rocket.obj
 0001:00095230       ??0FuelGenerator@@QAE@XZ   00496230 f   rocket.obj
 0001:00095350       ?ProvideSurge@FuelGenerator@@QAEXXZ 00496350 f   rocket.obj
 0001:00095370       ?GetPumpPos@FuelGenerator@@IAE?AVVector3@@XZ 00496370 f   rocket.obj
 0001:000953e0       ?Render@FuelGenerator@@UAEXN@Z 004963e0 f   rocket.obj
 0001:000954a0       ?GetObjectiveCounter@FuelGenerator@@UAEXAAVUnicodeString@@@Z 004964a0 f   rocket.obj
 0001:00095550       ??0FuelPipe@@QAE@XZ        00496550 f   rocket.obj
 0001:000955d0       ?Advance@FuelPipe@@UAE_NXZ 004965d0 f   rocket.obj
 0001:00095680       ??0FuelStation@@QAE@XZ     00496680 f   rocket.obj
 0001:00095790       ?IsLoading@FuelStation@@QAE_NXZ 00496790 f   rocket.obj
 0001:000957c0       ?GetEntrance@FuelStation@@QAE?AVVector3@@XZ 004967c0 f   rocket.obj
 0001:00095830       ??0EscapeRocket@@QAE@XZ    00496830 f   rocket.obj
 0001:00095a30       ?SetupSounds@EscapeRocket@@IAEXXZ 00496a30 f   rocket.obj
 0001:00095d00       ?GetObjectiveCounter@EscapeRocket@@UAEXAAVUnicodeString@@@Z 00496d00 f   rocket.obj
 0001:00095dd0       ?IsSpectacle@EscapeRocket@@QAE_NXZ 00496dd0 f   rocket.obj
 0001:00095e10       ?IsInView@EscapeRocket@@UAE_NXZ 00496e10 f   rocket.obj
 0001:00095e30       ?Damage@EscapeRocket@@UAEXN@Z 00496e30 f   rocket.obj
 0001:00095f40       ?SafeToLaunch@EscapeRocket@@QAE_NXZ 00496f40 f   rocket.obj
 0001:00095fd0       ?Render@EscapeRocket@@UAEXN@Z 00496fd0 f   rocket.obj
 0001:00096050       ?Read@EscapeRocket@@UAEXPAVTextReader@@_N@Z 00497050 f   rocket.obj
 0001:000960e0       ?Write@EscapeRocket@@UAEXPAVTextWriter@@@Z 004970e0 f   rocket.obj
 0001:00096140       ?GetStateId@EscapeRocket@@SAHPAD@Z 00497140 f   rocket.obj
 0001:00096180       ?DoesRayHit@EscapeRocket@@UAE_NABVVector3@@0NPAV2@1@Z 00497180 f   rocket.obj
 0001:000961d0       ?ProvideFuel@FuelBuilding@@UAEXN@Z 004971d0 f   rocket.obj
 0001:00096270       ?RenderAlphas@FuelBuilding@@UAEXN@Z 00497270 f   rocket.obj
 0001:00096760       ?Advance@FuelGenerator@@UAE_NXZ 00497760 f   rocket.obj
 0001:00096ac0       ?RenderAlphas@FuelGenerator@@UAEXN@Z 00497ac0 f   rocket.obj
 0001:00096ae0       ?BoardRocket@FuelStation@@QAE_NVWorldObjectId@@@Z 00497ae0 f   rocket.obj
 0001:00096c70       ?RenderAlphas@FuelStation@@UAEXN@Z 00497c70 f   rocket.obj
 0001:00097790       ??1EscapeRocket@@UAE@XZ    00498790 f   rocket.obj
 0001:00097810       ?ProvideFuel@EscapeRocket@@UAEXN@Z 00498810 f   rocket.obj
 0001:00097840       ?Refuel@EscapeRocket@@IAEXXZ 00498840 f   rocket.obj
 0001:000979d0       ?AdvanceExploding@EscapeRocket@@IAEXXZ 004989d0 f   rocket.obj
 0001:00097eb0       ?SetupSpectacle@EscapeRocket@@IAEXXZ 00498eb0 f   rocket.obj
 0001:00098000       ?RenderAlphas@EscapeRocket@@UAEXN@Z 00499000 f   rocket.obj
 0001:00098a40       ??_GEscapeRocket@@UAEPAXI@Z 00499a40 f i rocket.obj
 0001:00098a40       ??_EEscapeRocket@@UAEPAXI@Z 00499a40 f i rocket.obj
 0001:00098a60       ?AdvanceIgnition@EscapeRocket@@IAEXXZ 00499a60 f   rocket.obj
 0001:00098b20       ?AdvanceFlight@EscapeRocket@@IAEXXZ 00499b20 f   rocket.obj
 0001:00098c30       ?SetupAttackers@EscapeRocket@@IAEXXZ 00499c30 f   rocket.obj
 0001:00098ec0       ?ListSoundEvents@FuelGenerator@@UAEXPAV?$LList@PAD@@@Z 00499ec0 f   rocket.obj
 0001:00098f00       ?ListSoundEvents@FuelPipe@@UAEXPAV?$LList@PAD@@@Z 00499f00 f   rocket.obj
 0001:00098f30       ?ListSoundEvents@FuelStation@@UAEXPAV?$LList@PAD@@@Z 00499f30 f   rocket.obj
 0001:00098f60       ?ListSoundEvents@EscapeRocket@@UAEXPAV?$LList@PAD@@@Z 00499f60 f   rocket.obj
 0001:00099000       ?AdvanceRefueling@EscapeRocket@@IAEXXZ 0049a000 f   rocket.obj
 0001:000991a0       ?AdvanceLoading@EscapeRocket@@IAEXXZ 0049a1a0 f   rocket.obj
 0001:00099310       ?AdvanceReady@EscapeRocket@@IAEXXZ 0049a310 f   rocket.obj
 0001:000994d0       ?AdvanceCountdown@EscapeRocket@@IAEXXZ 0049a4d0 f   rocket.obj
 0001:00099550       ?Advance@EscapeRocket@@UAE_NXZ 0049a550 f   rocket.obj
 0001:00099850       ?Advance@FuelStation@@UAE_NXZ 0049a850 f   rocket.obj
 0001:00099b20       ?ConvertFragmentColours@@YAXPAVShapeFragment@@VRGBAColour@@@Z 0049ab20 f   rocket.obj
 0001:00099bd0       ?Initialise@EscapeRocket@@UAEXPAVBuilding@@@Z 0049abd0 f   rocket.obj
 0001:00099c90       ??0SafeArea@@QAE@XZ        0049ac90 f   safearea.obj
 0001:00099ce0       ?DoesSphereHit@ResearchItem@@UAE_NABVVector3@@N@Z 0049ace0 f   researchitem.obj
 0001:00099ce0       ?DoesSphereHit@EruptionMarker@@UAE_NABVVector3@@N@Z 0049ace0 f   eruptionmarker.obj
 0001:00099ce0       ?DoesSphereHit@AIObjective@@UAE_NABVVector3@@N@Z 0049ace0 f   aiobjective.obj
 0001:00099ce0       ?DoesSphereHit@SafeArea@@UAE_NABVVector3@@N@Z 0049ace0 f   safearea.obj
 0001:00099ce0       ?DoesSphereHit@MultiwiniaZone@@UAE_NABVVector3@@N@Z 0049ace0 f   multiwiniazone.obj
 0001:00099ce0       ?DoesSphereHit@Crate@@UAE_NABVVector3@@N@Z 0049ace0 f   crate.obj
 0001:00099ce0       ?DoesSphereHit@RestrictionZone@@UAE_NABVVector3@@N@Z 0049ace0 f   restrictionzone.obj
 0001:00099ce0       ?DoesSphereHit@SpawnPopulationLock@@UAE_NABVVector3@@N@Z 0049ace0 f   spawnpoint.obj
 0001:00099ce0       ?DoesSphereHit@JumpPad@@UAE_NABVVector3@@N@Z 0049ace0 f   jumppad.obj
 0001:00099ce0       ?DoesSphereHit@AITarget@@UAE_NABVVector3@@N@Z 0049ace0 f   ai.obj
 0001:00099ce0       ?DoesSphereHit@ScriptTrigger@@UAE_NABVVector3@@N@Z 0049ace0 f   scripttrigger.obj
 0001:00099ce0       ?DoesSphereHit@CarryableBuilding@@UAE_NABVVector3@@N@Z 0049ace0 f   carryablebuilding.obj
 0001:00099ce0       ?DoesSphereHit@AIObjectiveMarker@@UAE_NABVVector3@@N@Z 0049ace0 f   aiobjective.obj
 0001:00099ce0       ?DoesSphereHit@EscapeRocket@@UAE_NABVVector3@@N@Z 0049ace0 f   rocket.obj
 0001:00099ce0       ?DoesSphereHit@Portal@@UAE_NABVVector3@@N@Z 0049ace0 f   portal.obj
 0001:00099ce0       ?DoesSphereHit@AISpawnPoint@@UAE_NABVVector3@@N@Z 0049ace0 f   ai.obj
 0001:00099cf0       ?GetObjectiveCounter@SafeArea@@UAEXAAVUnicodeString@@@Z 0049acf0 f   safearea.obj
 0001:00099d90       ?Read@SafeArea@@UAEXPAVTextReader@@_N@Z 0049ad90 f   safearea.obj
 0001:00099df0       ?Write@SafeArea@@UAEXPAVTextWriter@@@Z 0049adf0 f   safearea.obj
 0001:00099e50       ?Initialise@SafeArea@@UAEXPAVBuilding@@@Z 0049ae50 f   safearea.obj
 0001:00099ec0       ?Advance@SafeArea@@UAE_NXZ 0049aec0 f   safearea.obj
 0001:0009a050       ?Render@SafeArea@@UAEXN@Z  0049b050 f   safearea.obj
 0001:0009a1c0       ?GetVel@Camera@@QAE?AVVector3@@XZ 0049b1c0 f i scripttrigger.obj
 0001:0009a200       ??0ScriptTrigger@@QAE@XZ   0049b200 f   scripttrigger.obj
 0001:0009a260       ?Initialise@ScriptTrigger@@UAEXPAVBuilding@@@Z 0049b260 f   scripttrigger.obj
 0001:0009a2c0       ?Trigger@ScriptTrigger@@QAEXXZ 0049b2c0 f   scripttrigger.obj
 0001:0009a310       ?GetBuildingLink@ScriptTrigger@@UAEHXZ 0049b310 f   scripttrigger.obj
 0001:0009a320       ?SetBuildingLink@ScriptTrigger@@UAEXH@Z 0049b320 f   scripttrigger.obj
 0001:0009a330       ?Read@ScriptTrigger@@UAEXPAVTextReader@@_N@Z 0049b330 f   scripttrigger.obj
 0001:0009a430       ?Write@ScriptTrigger@@UAEXPAVTextWriter@@@Z 0049b430 f   scripttrigger.obj
 0001:0009a520       ?RenderAlphas@ScriptTrigger@@UAEXN@Z 0049b520 f   scripttrigger.obj
 0001:0009a660       ?Advance@ScriptTrigger@@UAE_NXZ 0049b660 f   scripttrigger.obj
 0001:0009a960       ??0SmokeMarker@@QAE@XZ     0049b960 f   smokemarker.obj
 0001:0009a980       ?Advance@SmokeMarker@@UAE_NXZ 0049b980 f   smokemarker.obj
 0001:0009aa70       ??0Spam@@QAE@XZ            0049ba70 f   spam.obj
 0001:0009ab50       ?Destroy@Spam@@UAEXN@Z     0049bb50 f   spam.obj
 0001:0009ab70       ?SendFromHeaven@Spam@@QAEXXZ 0049bb70 f   spam.obj
 0001:0009ab80       ?SetAsResearch@Spam@@QAEXXZ 0049bb80 f   spam.obj
 0001:0009abb0       ?SearchForEntities@SpamInfection@@IAE_NXZ 0049bbb0 f   spam.obj
 0001:0009ac50       ?Damage@Spam@@UAEXN@Z      0049bc50 f   spam.obj
 0001:0009ada0       ?RenderAlphas@Spam@@UAEXN@Z 0049bda0 f   spam.obj
 0001:0009b6e0       ?PutDataAtStart@?$LList@VVector3@@@@QAEXABVVector3@@@Z 0049c6e0 f i spam.obj
 0001:0009b750       ?GetItem@?$LList@VVector3@@@@IBEPAV?$LListItem@VVector3@@@@H@Z 0049c750 f i spam.obj
 0001:0009b7e0       ?SetDetail@Spam@@UAEXH@Z   0049c7e0 f   spam.obj
 0001:0009b880       ?SearchForRandomPosition@SpamInfection@@IAE_NXZ 0049c880 f   spam.obj
 0001:0009b9c0       ?SearchForSpirits@SpamInfection@@IAE_NXZ 0049c9c0 f   spam.obj
 0001:0009bb10       ?RemoveData@?$LList@VVector3@@@@QAEXH@Z 0049cb10 f i spam.obj
 0001:0009bbd0       ?ListSoundEvents@Spam@@UAEXPAV?$LList@PAD@@@Z 0049cbd0 f   spam.obj
 0001:0009bc20       ??0SpamInfection@@QAE@XZ   0049cc20 f   spam.obj
 0001:0009bd10       ?AdvanceToTargetPosition@SpamInfection@@IAE_NXZ 0049cd10 f   spam.obj
 0001:0009be80       ?Render@SpamInfection@@UAEXN@Z 0049ce80 f   spam.obj
 0001:0009c510       ?SpawnInfection@Spam@@QAEXXZ 0049d510 f   spam.obj
 0001:0009c760       ?Advance@Spam@@UAE_NXZ     0049d760 f   spam.obj
 0001:0009caf0       ??_ESpamInfection@@UAEPAXI@Z 0049daf0 f i spam.obj
 0001:0009caf0       ??_GSpamInfection@@UAEPAXI@Z 0049daf0 f i spam.obj
 0001:0009cb20       ?AdvanceIdle@SpamInfection@@IAEXXZ 0049db20 f   spam.obj
 0001:0009cbc0       ?AdvanceAttackingEntity@SpamInfection@@IAEXXZ 0049dbc0 f   spam.obj
 0001:0009ce20       ?AdvanceAttackingSpirit@SpamInfection@@IAEXXZ 0049de20 f   spam.obj
 0001:0009d040       ?Advance@SpamInfection@@UAE_NXZ 0049e040 f   spam.obj
 0001:0009d090       ?RenderSpirit@SpawnBuilding@@QAEXABVVector3@@H@Z 0049e090 f   spawnpoint.obj
 0001:0009d460       ?GetSpiritLink@SpawnBuilding@@QAE?AVVector3@@XZ 0049e460 f   spawnpoint.obj
 0001:0009d5c0       ?Read@SpawnBuilding@@UAEXPAVTextReader@@_N@Z 0049e5c0 f   spawnpoint.obj
 0001:0009d610       ?GetMasterSpawnPoint@MasterSpawnPoint@@SAPAV1@XZ 0049e610 f   spawnpoint.obj
 0001:0009d640       ?RequestSpirit@MasterSpawnPoint@@QAEXH@Z 0049e640 f   spawnpoint.obj
 0001:0009d680       ?Render@MasterSpawnPoint@@UAEXN@Z 0049e680 f   spawnpoint.obj
 0001:0009d6b0       ?RecalculateOwnership@SpawnPoint@@QAEXXZ 0049e6b0 f   spawnpoint.obj
 0001:0009d8e0       ?SpawnDarwinian@SpawnPoint@@QAEXXZ 0049e8e0 f   spawnpoint.obj
 0001:0009daa0       ?PerformDepthSort@SpawnPoint@@UAE_NAAVVector3@@@Z 0049eaa0 f   spawnpoint.obj
 0001:0009daa0       ?PerformDepthSort@FuelStation@@UAE_NAAVVector3@@@Z 0049eaa0 f   rocket.obj
 0001:0009daa0       ?PerformDepthSort@TrunkPort@@UAE_NAAVVector3@@@Z 0049eaa0 f   trunkport.obj
 0001:0009dad0       ?CalculateHandicap@SpawnPoint@@SANH@Z 0049ead0 f   spawnpoint.obj
 0001:0009dc80       ??0SpawnPopulationLock@@QAE@XZ 0049ec80 f   spawnpoint.obj
 0001:0009dd50       ?Initialise@SpawnPopulationLock@@UAEXPAVBuilding@@@Z 0049ed50 f   spawnpoint.obj
 0001:0009dd90       ?Read@SpawnPopulationLock@@UAEXPAVTextReader@@_N@Z 0049ed90 f   spawnpoint.obj
 0001:0009dde0       ?Write@SpawnPopulationLock@@UAEXPAVTextWriter@@@Z 0049ede0 f   spawnpoint.obj
 0001:0009de20       ?DoesShapeHit@SafeArea@@UAE_NPAVShape@@VMatrix34@@@Z 0049ee20 f   safearea.obj
 0001:0009de20       ?DoesShapeHit@Crate@@UAE_NPAVShape@@VMatrix34@@@Z 0049ee20 f   crate.obj
 0001:0009de20       ?DoesShapeHit@SpawnPopulationLock@@UAE_NPAVShape@@VMatrix34@@@Z 0049ee20 f   spawnpoint.obj
 0001:0009de20       ?DoesShapeHit@RestrictionZone@@UAE_NPAVShape@@VMatrix34@@@Z 0049ee20 f   restrictionzone.obj
 0001:0009de20       ?DoesShapeHit@AITarget@@UAE_NPAVShape@@VMatrix34@@@Z 0049ee20 f   ai.obj
 0001:0009de20       ?DoesShapeHit@JumpPad@@UAE_NPAVShape@@VMatrix34@@@Z 0049ee20 f   jumppad.obj
 0001:0009de20       ?DoesShapeHit@ResearchItem@@UAE_NPAVShape@@VMatrix34@@@Z 0049ee20 f   researchitem.obj
 0001:0009de20       ?DoesShapeHit@MultiwiniaZone@@UAE_NPAVShape@@VMatrix34@@@Z 0049ee20 f   multiwiniazone.obj
 0001:0009de20       ?DoesShapeHit@AIObjective@@UAE_NPAVShape@@VMatrix34@@@Z 0049ee20 f   aiobjective.obj
 0001:0009de20       ?DoesShapeHit@EruptionMarker@@UAE_NPAVShape@@VMatrix34@@@Z 0049ee20 f   eruptionmarker.obj
 0001:0009de20       ?DoesShapeHit@EscapeRocket@@UAE_NPAVShape@@VMatrix34@@@Z 0049ee20 f   rocket.obj
 0001:0009de20       ?DoesShapeHit@CarryableBuilding@@UAE_NPAVShape@@VMatrix34@@@Z 0049ee20 f   carryablebuilding.obj
 0001:0009de20       ?DoesShapeHit@Portal@@UAE_NPAVShape@@VMatrix34@@@Z 0049ee20 f   portal.obj
 0001:0009de20       ?DoesShapeHit@AISpawnPoint@@UAE_NPAVShape@@VMatrix34@@@Z 0049ee20 f   ai.obj
 0001:0009de20       ?DoesShapeHit@SmokeMarker@@UAE_NPAVShape@@VMatrix34@@@Z 0049ee20 f   smokemarker.obj
 0001:0009de20       ?DoesShapeHit@ScriptTrigger@@UAE_NPAVShape@@VMatrix34@@@Z 0049ee20 f   scripttrigger.obj
 0001:0009de20       ?DoesShapeHit@AIObjectiveMarker@@UAE_NPAVShape@@VMatrix34@@@Z 0049ee20 f   aiobjective.obj
 0001:0009de30       ?Reset@SpawnPopulationLock@@SAXXZ 0049ee30 f   spawnpoint.obj
 0001:0009de50       ?GetObjectiveCounter@MasterSpawnPoint@@UAEXAAVUnicodeString@@@Z 0049ee50 f   spawnpoint.obj
 0001:0009df20       ?PopulationLocked@SpawnPoint@@IAE_NXZ 0049ef20 f   spawnpoint.obj
 0001:0009e1a0       ?Advance@SpawnPopulationLock@@UAE_NXZ 0049f1a0 f   spawnpoint.obj
 0001:0009e350       ?RenderAlphas@SpawnPopulationLock@@UAEXN@Z 0049f350 f   spawnpoint.obj
 0001:0009e5f0       ?ListSoundEvents@SpawnPoint@@UAEXPAV?$LList@PAD@@@Z 0049f5f0 f   spawnpoint.obj
 0001:0009e630       ??0SpawnBuilding@@QAE@XZ   0049f630 f   spawnpoint.obj
 0001:0009e690       ?Initialise@SpawnBuilding@@UAEXPAVBuilding@@@Z 0049f690 f   spawnpoint.obj
 0001:0009e6f0       ?IsInView@SpawnBuilding@@UAE_NXZ 0049f6f0 f   spawnpoint.obj
 0001:0009e940       ?RenderAlphas@SpawnBuilding@@UAEXN@Z 0049f940 f   spawnpoint.obj
 0001:0009f1b0       ?SetBuildingLink@SpawnBuilding@@UAEXH@Z 004a01b0 f   spawnpoint.obj
 0001:0009f2a0       ?TriggerSpirit@SpawnBuilding@@UAEXPAVSpawnBuildingSpirit@@N@Z 004a02a0 f   spawnpoint.obj
 0001:0009f3b0       ?Advance@SpawnBuilding@@UAE_NXZ 004a03b0 f   spawnpoint.obj
 0001:0009f4c0       ?Write@SpawnBuilding@@UAEXPAVTextWriter@@@Z 004a04c0 f   spawnpoint.obj
 0001:0009f520       ?RenderAlphas@MasterSpawnPoint@@UAEXN@Z 004a0520 f   spawnpoint.obj
 0001:0009f550       ?Initialise@SpawnPoint@@UAEXPAVBuilding@@@Z 004a0550 f   spawnpoint.obj
 0001:0009f580       ?TriggerSpirit@SpawnPoint@@UAEXPAVSpawnBuildingSpirit@@N@Z 004a0580 f   spawnpoint.obj
 0001:0009f5c0       ?Advance@SpawnPoint@@UAE_NXZ 004a05c0 f   spawnpoint.obj
 0001:0009f890       ?RenderAlphas@SpawnPoint@@UAEXN@Z 004a0890 f   spawnpoint.obj
 0001:0009fe70       ?ExploreLinks@SpawnBuilding@@QAEPAV?$LList@H@@XZ 004a0e70 f   spawnpoint.obj
 0001:000a0000       ?Advance@MasterSpawnPoint@@UAE_NXZ 004a1000 f   spawnpoint.obj
 0001:000a0130       ?EmptyAndDelete@?$LList@PAVSpawnBuildingLink@@@@QAEXXZ 004a1130 f i spawnpoint.obj
 0001:000a01e0       ??1SpawnBuilding@@UAE@XZ   004a11e0 f   spawnpoint.obj
 0001:000a0210       ??0SpawnLink@@QAE@XZ       004a1210 f   spawnpoint.obj
 0001:000a0290       ??0MasterSpawnPoint@@QAE@XZ 004a1290 f   spawnpoint.obj
 0001:000a0310       ??0SpawnPoint@@QAE@XZ      004a1310 f   spawnpoint.obj
 0001:000a0490       ??_GSpawnBuilding@@UAEPAXI@Z 004a1490 f i spawnpoint.obj
 0001:000a0490       ??_ESpawnPoint@@UAEPAXI@Z  004a1490 f i spawnpoint.obj
 0001:000a0490       ??_GMasterSpawnPoint@@UAEPAXI@Z 004a1490 f i spawnpoint.obj
 0001:000a0490       ??_EMasterSpawnPoint@@UAEPAXI@Z 004a1490 f i spawnpoint.obj
 0001:000a0490       ??_ESpawnLink@@UAEPAXI@Z   004a1490 f i spawnpoint.obj
 0001:000a0490       ??_ESpawnBuilding@@UAEPAXI@Z 004a1490 f i spawnpoint.obj
 0001:000a0490       ??_GSpawnPoint@@UAEPAXI@Z  004a1490 f i spawnpoint.obj
 0001:000a0490       ??_GSpawnLink@@UAEPAXI@Z   004a1490 f i spawnpoint.obj
 0001:000a04d0       ?GetSpiritLocation@ReceiverBuilding@@UAE?AVVector3@@XZ 004a14d0 f   spiritreceiver.obj
 0001:000a05f0       ?IsInView@ReceiverBuilding@@UAE_NXZ 004a15f0 f   spiritreceiver.obj
 0001:000a05f0       ?IsInView@PowerBuilding@@UAE_NXZ 004a15f0 f   generator.obj
 0001:000a06e0       ?Render@ReceiverBuilding@@UAEXN@Z 004a16e0 f   spiritreceiver.obj
 0001:000a06e0       ?Render@SpiritProcessor@@UAEXN@Z 004a16e0 f   spiritreceiver.obj
 0001:000a0720       ?SetBuildingLink@BlueprintBuilding@@UAEXH@Z 004a1720 f   blueprintstore.obj
 0001:000a0720       ?SetBuildingLink@Powerstation@@UAEXH@Z 004a1720 f   powerstation.obj
 0001:000a0720       ?SetBuildingLink@ReceiverBuilding@@UAEXH@Z 004a1720 f   spiritreceiver.obj
 0001:000a0720       ?SetBuildingLink@ControlStation@@UAEXH@Z 004a1720 f   controlstation.obj
 0001:000a0720       ?SetBuildingLink@PowerBuilding@@UAEXH@Z 004a1720 f   generator.obj
 0001:000a0720       ?SetBuildingLink@AIObjective@@UAEXH@Z 004a1720 f   aiobjective.obj
 0001:000a0720       ?SetBuildingLink@MineBuilding@@UAEXH@Z 004a1720 f   mine.obj
 0001:000a0720       ?SetBuildingLink@DynamicBase@@UAEXH@Z 004a1720 f   generichub.obj
 0001:000a0730       ?BeginRenderUnprocessedSpirits@ReceiverBuilding@@SAXXZ 004a1730 f   spiritreceiver.obj
 0001:000a07f0       ?RenderUnprocessedSpirit@ReceiverBuilding@@SAXABVVector3@@N@Z 004a17f0 f   spiritreceiver.obj
 0001:000a0f00       ?EndRenderUnprocessedSpirits@ReceiverBuilding@@SAXXZ 004a1f00 f   spiritreceiver.obj
 0001:000a0f70       ?GetObjectiveCounter@SpiritProcessor@@UAEXAAVUnicodeString@@@Z 004a1f70 f   spiritreceiver.obj
 0001:000a1010       ?RenderPorts@SpiritReceiver@@UAEXXZ 004a2010 f   spiritreceiver.obj
 0001:000a13d0       ??0UnprocessedSpirit@@QAE@XZ 004a23d0 f   spiritreceiver.obj
 0001:000a14a0       ?GetSpiritProcessor@ReceiverBuilding@@SAPAVSpiritProcessor@@XZ 004a24a0 f   spiritreceiver.obj
 0001:000a1530       ?GetSpiritLocation@SpiritReceiver@@UAE?AVVector3@@XZ 004a2530 f   spiritreceiver.obj
 0001:000a1640       ?GetLife@UnprocessedSpirit@@QAENXZ 004a2640 f   spiritreceiver.obj
 0001:000a16e0       ?Render@UnprocessedSpirit@@UAEXN@Z 004a26e0 f   spiritreceiver.obj
 0001:000a1f70       ?PutDataAtStart@?$LList@N@@QAEXABN@Z 004a2f70 f i spiritreceiver.obj
 0001:000a1fd0       ?GetItem@?$LList@N@@IBEPAV?$LListItem@N@@H@Z 004a2fd0 f i spiritreceiver.obj
 0001:000a2060       ?Empty@?$LList@N@@QAEXXZ   004a3060 f i spiritreceiver.obj
 0001:000a20b0       ?TriggerSpirit@ReceiverBuilding@@UAEXN@Z 004a30b0 f   spiritreceiver.obj
 0001:000a20e0       ?TriggerSpirit@SpiritProcessor@@UAEXN@Z 004a30e0 f   spiritreceiver.obj
 0001:000a2120       ?Initialise@SpiritReceiver@@UAEXPAVBuilding@@@Z 004a3120 f   spiritreceiver.obj
 0001:000a21c0       ?Render@SpiritReceiver@@UAEXN@Z 004a31c0 f   spiritreceiver.obj
 0001:000a2350       ?Advance@UnprocessedSpirit@@UAE_NXZ 004a3350 f   spiritreceiver.obj
 0001:000a2680       ??1?$LList@N@@QAE@XZ       004a3680 f i spiritreceiver.obj
 0001:000a2690       ?RemoveData@?$LList@N@@QAEXH@Z 004a3690 f i spiritreceiver.obj
 0001:000a2750       ??1ReceiverBuilding@@UAE@XZ 004a3750 f i spiritreceiver.obj
 0001:000a2770       ?ListSoundEvents@ReceiverBuilding@@UAEXPAV?$LList@PAD@@@Z 004a3770 f   spiritreceiver.obj
 0001:000a27a0       ?RenderAlphas@ReceiverBuilding@@UAEXN@Z 004a37a0 f   spiritreceiver.obj
 0001:000a2c30       ?Advance@ReceiverBuilding@@UAE_NXZ 004a3c30 f   spiritreceiver.obj
 0001:000a2cc0       ??0SpiritProcessor@@QAE@XZ 004a3cc0 f   spiritreceiver.obj
 0001:000a2da0       ?Initialise@SpiritProcessor@@UAEXPAVBuilding@@@Z 004a3da0 f   spiritreceiver.obj
 0001:000a2f70       ?Advance@SpiritProcessor@@UAE_NXZ 004a3f70 f   spiritreceiver.obj
 0001:000a3240       ?RenderAlphas@SpiritProcessor@@UAEXN@Z 004a4240 f   spiritreceiver.obj
 0001:000a3320       ??0ReceiverLink@@QAE@XZ    004a4320 f   spiritreceiver.obj
 0001:000a33c0       ?Advance@ReceiverLink@@UAE_NXZ 004a43c0 f   spiritreceiver.obj
 0001:000a33d0       ??0ReceiverSpiritSpawner@@QAE@XZ 004a43d0 f   spiritreceiver.obj
 0001:000a3470       ?Advance@ReceiverSpiritSpawner@@UAE_NXZ 004a4470 f   spiritreceiver.obj
 0001:000a34b0       ??0SpiritReceiver@@QAE@XZ  004a44b0 f   spiritreceiver.obj
 0001:000a36a0       ?Advance@SpiritReceiver@@UAE_NXZ 004a46a0 f   spiritreceiver.obj
 0001:000a38b0       ?RenderAlphas@SpiritReceiver@@UAEXN@Z 004a48b0 f   spiritreceiver.obj
 0001:000a38e0       ??_ESpiritProcessor@@UAEPAXI@Z 004a48e0 f i spiritreceiver.obj
 0001:000a38e0       ??_GSpiritProcessor@@UAEPAXI@Z 004a48e0 f i spiritreceiver.obj
 0001:000a3920       ??_EReceiverLink@@UAEPAXI@Z 004a4920 f i spiritreceiver.obj
 0001:000a3920       ??_GReceiverSpiritSpawner@@UAEPAXI@Z 004a4920 f i spiritreceiver.obj
 0001:000a3920       ??_GReceiverLink@@UAEPAXI@Z 004a4920 f i spiritreceiver.obj
 0001:000a3920       ??_ESpiritReceiver@@UAEPAXI@Z 004a4920 f i spiritreceiver.obj
 0001:000a3920       ??_EReceiverSpiritSpawner@@UAEPAXI@Z 004a4920 f i spiritreceiver.obj
 0001:000a3920       ??_GSpiritReceiver@@UAEPAXI@Z 004a4920 f i spiritreceiver.obj
 0001:000a3950       ?NumSpirits@SpiritStore@@QAEHXZ 004a4950 f   spiritstore.obj
 0001:000a3960       ?RemoveSpirits@SpiritStore@@QAEXH@Z 004a4960 f   spiritstore.obj
 0001:000a39a0       ?Advance@SpiritStore@@QAEXXZ 004a49a0 f   spiritstore.obj
 0001:000a39e0       ?Render@SpiritStore@@QAEXN@Z 004a49e0 f   spiritstore.obj
 0001:000a41c0       ??0SpiritStore@@QAE@XZ     004a51c0 f   spiritstore.obj
 0001:000a4200       ?AddSpirit@SpiritStore@@QAEXPAVSpirit@@@Z 004a5200 f   spiritstore.obj
 0001:000a42a0       ?Initialise@SpiritStore@@QAEXHHVVector3@@NNN@Z 004a52a0 f   spiritstore.obj
 0001:000a4390       ??0StaticShape@@QAE@XZ     004a5390 f   staticshape.obj
 0001:000a43d0       ?SetShapeName@StaticShape@@QAEXPAD@Z 004a53d0 f   staticshape.obj
 0001:000a4510       ?DoesRayHit@StaticShape@@UAE_NABVVector3@@0NPAV2@1@Z 004a5510 f   staticshape.obj
 0001:000a4620       ?DoesSphereHit@StaticShape@@UAE_NABVVector3@@N@Z 004a5620 f   staticshape.obj
 0001:000a4790       ?DoesShapeHit@StaticShape@@UAE_NPAVShape@@VMatrix34@@@Z 004a5790 f   staticshape.obj
 0001:000a48a0       ?Render@StaticShape@@UAEXN@Z 004a58a0 f   staticshape.obj
 0001:000a49b0       ?Advance@DynamicBase@@UAE_NXZ 004a59b0 f   generichub.obj
 0001:000a49b0       ?Advance@StaticShape@@UAE_NXZ 004a59b0 f   staticshape.obj
 0001:000a49c0       ?Read@StaticShape@@UAEXPAVTextReader@@_N@Z 004a59c0 f   staticshape.obj
 0001:000a4a00       ?Write@StaticShape@@UAEXPAVTextWriter@@@Z 004a5a00 f   staticshape.obj
 0001:000a4a50       ?Initialise@StaticShape@@UAEXPAVBuilding@@@Z 004a5a50 f   staticshape.obj
 0001:000a4a80       ?SetDetail@StaticShape@@UAEXH@Z 004a5a80 f   staticshape.obj
 0001:000a4b90       ??0Statue@@QAE@XZ          004a5b90 f   statue.obj
 0001:000a4be0       ?Initialise@Statue@@UAEXPAVBuilding@@@Z 004a5be0 f   statue.obj
 0001:000a4d00       ?Render@Statue@@UAEXN@Z    004a5d00 f   statue.obj
 0001:000a4fc0       ?Destroy@Statue@@QAEXXZ    004a5fc0 f   statue.obj
 0001:000a5010       ?Advance@Statue@@UAE_NXZ   004a6010 f   statue.obj
 0001:000a54e0       ??0FenceSwitch@@QAE@XZ     004a64e0 f   switch.obj
 0001:000a55a0       ?Initialise@FenceSwitch@@UAEXPAVBuilding@@@Z 004a65a0 f   switch.obj
 0001:000a5620       ?SetDetail@FenceSwitch@@UAEXH@Z 004a6620 f   switch.obj
 0001:000a5650       ?SetBuildingLink@FenceSwitch@@UAEXH@Z 004a6650 f   switch.obj
 0001:000a5680       ?Read@FenceSwitch@@UAEXPAVTextReader@@_N@Z 004a6680 f   switch.obj
 0001:000a5750       ?Write@FenceSwitch@@UAEXPAVTextWriter@@@Z 004a6750 f   switch.obj
 0001:000a57f0       ?RenderLink@FenceSwitch@@UAEXXZ 004a67f0 f   switch.obj
 0001:000a58d0       ?Switch@FenceSwitch@@QAEXXZ 004a68d0 f   switch.obj
 0001:000a5940       ?GetConnectionLocation@FenceSwitch@@QAE?AVVector3@@XZ 004a6940 f   switch.obj
 0001:000a5a30       ?IsInView@FenceSwitch@@UAE_NXZ 004a6a30 f   switch.obj
 0001:000a5c20       ?RenderConnection@FenceSwitch@@QAEXVVector3@@_N@Z 004a6c20 f   switch.obj
 0001:000a5f10       ?RenderAlphas@FenceSwitch@@UAEXN@Z 004a6f10 f   switch.obj
 0001:000a6000       ?Advance@FenceSwitch@@UAE_NXZ 004a7000 f   switch.obj
 0001:000a6310       ?RenderLights@FenceSwitch@@UAEXXZ 004a7310 f   switch.obj
 0001:000a6730       ?SetShape@Teleport@@UAEXPAVShape@@@Z 004a7730 f   teleport.obj
 0001:000a67b0       ?IsInView@Teleport@@UAE_NXZ 004a77b0 f   teleport.obj
 0001:000a68a0       ?RenderSpirit@Teleport@@IAEXABVVector3@@H@Z 004a78a0 f   teleport.obj
 0001:000a6c00       ?Connected@Teleport@@UAE_NXZ 004a7c00 f   teleport.obj
 0001:000a6c00       ?IsOpen@UnicodeTextReader@@UBE_NXZ 004a7c00 f   unicode_text_stream_reader1.obj
 0001:000a6c00       ?AdviseCreateControlHelpGreen@TaskManagerInterfaceGestures@@UAE_NXZ 004a7c00 f   taskmanager_interface_gestures.obj
 0001:000a6c00       ?IsSelectable@Unit@@UAE_NXZ 004a7c00 f   unit.obj
 0001:000a6c00       ??BTextWriter@@UBE_NXZ     004a7c00 f   text_file_writer.obj
 0001:000a6c00       ?Advance@RestrictionZone@@UAE_NXZ 004a7c00 f   restrictionzone.obj
 0001:000a6c00       ?AdviseCreateControlHelpBlue@TaskManagerInterfaceIcons@@UAE_NXZ 004a7c00 f   taskmanager_interface_icons.obj
 0001:000a6c00       ?AdviseCreateControlHelpBlue@TaskManagerInterfaceGestures@@UAE_NXZ 004a7c00 f   taskmanager_interface_gestures.obj
 0001:000a6c00       ?Hardware3DSupport@SoundLibrary3dNoSound@@UAE_NXZ 004a7c00 f   soundsystem.obj
 0001:000a6c00       ?Hardware3DSupport@SoundLibrary3dSoftware@@UAE_NXZ 004a7c00 f   sound_library_3d_software.obj
 0001:000a6c00       ?IsLink@@YA_NI@Z           004a7c00 f   unrar:filefn.obj
 0001:000a6c00       ?Advance@WorldObject@@UAE_NXZ 004a7c00 f   worldobject.obj
 0001:000a6c00       ?IsSelectable@Entity@@UAE_NXZ 004a7c00 f   entity.obj
 0001:000a6c10       ?ReadyToSend@Teleport@@UAE_NXZ 004a7c10 f   teleport.obj
 0001:000a6c30       ?GetEntrance@Teleport@@UAE_NAAVVector3@@0@Z 004a7c30 f   teleport.obj
 0001:000a6cb0       ?GetExit@Teleport@@UAE_NAAVVector3@@0@Z 004a7cb0 f   teleport.obj
 0001:000a6cc0       ?GetEndPoint@Teleport@@UAE?AVVector3@@XZ 004a7cc0 f   teleport.obj
 0001:000a6cc0       ?GetStartPoint@Teleport@@UAE?AVVector3@@XZ 004a7cc0 f   teleport.obj
 0001:000a6ce0       ?UpdateEntityInTransit@Teleport@@UAE_NPAVEntity@@@Z 004a7ce0 f   teleport.obj
 0001:000a6cf0       ??4Entity@@QAEAAV0@ABV0@@Z 004a7cf0 f i teleport.obj
 0001:000a6e50       ?PutDataAtStart@?$LList@UTeleportMap@@@@QAEXABUTeleportMap@@@Z 004a7e50 f i teleport.obj
 0001:000a6ec0       ?PutDataAtEnd@?$LList@VWorldObjectId@@@@QAEXABVWorldObjectId@@@Z 004a7ec0 f i teleport.obj
 0001:000a6f60       ?GetItem@?$LList@UTeleportMap@@@@IBEPAV?$LListItem@UTeleportMap@@@@H@Z 004a7f60 f i teleport.obj
 0001:000a6ff0       ?Empty@?$LList@UTeleportMap@@@@QAEXXZ 004a7ff0 f i teleport.obj
 0001:000a7040       ?RemoveData@?$LList@VWorldObjectId@@@@QAEXH@Z 004a8040 f i teleport.obj
 0001:000a7100       ?RemoveData@?$LList@UTeleportMap@@@@QAEXH@Z 004a8100 f i teleport.obj
 0001:000a71c0       ??0Teleport@@QAE@XZ        004a81c0 f   teleport.obj
 0001:000a7210       ?Advance@Teleport@@UAE_NXZ 004a8210 f   teleport.obj
 0001:000a7340       ?RenderAlphas@Teleport@@UAEXN@Z 004a8340 f   teleport.obj
 0001:000a7460       ?EnterTeleport@Teleport@@QAEXVWorldObjectId@@_N@Z 004a8460 f   teleport.obj
 0001:000a7a70       ??_ETeleport@@UAEPAXI@Z    004a8a70 f i teleport.obj
 0001:000a7a70       ??_EBridge@@UAEPAXI@Z      004a8a70 f i bridge.obj
 0001:000a7a70       ??_GTeleport@@UAEPAXI@Z    004a8a70 f i teleport.obj
 0001:000a7a70       ??_GBridge@@UAEPAXI@Z      004a8a70 f i bridge.obj
 0001:000a7aa0       ??0Tree@@QAE@XZ            004a8aa0 f   tree.obj
 0001:000a7b70       ?Initialise@Tree@@UAEXPAVBuilding@@@Z 004a8b70 f   tree.obj
 0001:000a7c90       ?Clone@Tree@@QAEXPAV1@@Z   004a8c90 f   tree.obj
 0001:000a7d40       ?GetActualHeight@Tree@@IAENN@Z 004a8d40 f   tree.obj
 0001:000a7de0       ?DeleteDisplayLists@Tree@@QAEXXZ 004a8de0 f   tree.obj
 0001:000a7e30       ?PerformDepthSort@Tree@@UAE_NAAVVector3@@@Z 004a8e30 f   tree.obj
 0001:000a7e70       ?RenderHitCheck@Tree@@UAEXXZ 004a8e70 f   tree.obj
 0001:000a7f40       ?Damage@Tree@@UAEXN@Z      004a8f40 f   tree.obj
 0001:000a7ff0       ?DoesSphereHit@Tree@@UAE_NABVVector3@@N@Z 004a8ff0 f   tree.obj
 0001:000a80a0       ?DoesShapeHit@Tree@@UAE_NPAVShape@@VMatrix34@@@Z 004a90a0 f   tree.obj
 0001:000a8180       ?DoesRayHit@Tree@@UAE_NABVVector3@@0NPAV2@1@Z 004a9180 f   tree.obj
 0001:000a8250       ?RenderBranch@Tree@@IAEXVVector3@@0H_N11@Z 004a9250 f   tree.obj
 0001:000a8910       ?Read@Tree@@UAEXPAVTextReader@@_N@Z 004a9910 f   tree.obj
 0001:000a8a50       ?Write@Tree@@UAEXPAVTextWriter@@@Z 004a9a50 f   tree.obj
 0001:000a8b70       ?SetFireAmount@Tree@@QAEXN@Z 004a9b70 f   tree.obj
 0001:000a8b80       ?IsOnFire@Tree@@QAE_NXZ    004a9b80 f   tree.obj
 0001:000a8ba0       ?GetBurnRange@Tree@@QAENXZ 004a9ba0 f   tree.obj
 0001:000a8bc0       ?IsInView@Tree@@UAE_NXZ    004a9bc0 f   tree.obj
 0001:000a8bf0       ?LogState@Tree@@UAEPADPAD@Z 004a9bf0 f   tree.obj
 0001:000a8d40       ??1Tree@@UAE@XZ            004a9d40 f   tree.obj
 0001:000a8de0       ?GenerateBranches@Tree@@IAEXXZ 004a9de0 f   tree.obj
 0001:000a8e90       ?GenerateLeaves@Tree@@IAEXXZ 004a9e90 f   tree.obj
 0001:000a8f40       ?Generate@Tree@@QAEXXZ     004a9f40 f   tree.obj
 0001:000a92c0       ?RenderAlphas@Tree@@UAEXN@Z 004aa2c0 f   tree.obj
 0001:000a9e20       ??_GTree@@UAEPAXI@Z        004aae20 f i tree.obj
 0001:000a9e20       ??_ETree@@UAEPAXI@Z        004aae20 f i tree.obj
 0001:000a9e40       ?SetDetail@Tree@@UAEXH@Z   004aae40 f   tree.obj
 0001:000a9f10       ?PushFromObstructions@@YA?AVVector3@@V1@@Z 004aaf10 f   tree.obj
 0001:000aa0b0       ?ListSoundEvents@Tree@@UAEXPAV?$LList@PAD@@@Z 004ab0b0 f   tree.obj
 0001:000aa110       ?CreateAnotherTree@Tree@@QAEXXZ 004ab110 f   tree.obj
 0001:000aa520       ?Advance@Tree@@UAE_NXZ     004ab520 f   tree.obj
 0001:000ab1b0       ??0Triffid@@QAE@XZ         004ac1b0 f   triffid.obj
 0001:000ab3e0       ?Damage@Triffid@@UAEXN@Z   004ac3e0 f   triffid.obj
 0001:000ab440       ?Read@Triffid@@UAEXPAVTextReader@@_N@Z 004ac440 f   triffid.obj
 0001:000ab560       ?Write@Triffid@@UAEXPAVTextWriter@@@Z 004ac560 f   triffid.obj
 0001:000ab630       ??0TriffidEgg@@QAE@XZ      004ac630 f   triffid.obj
 0001:000ab720       ?Begin@TriffidEgg@@UAEXXZ  004ac720 f   triffid.obj
 0001:000ab740       ?ChangeHealth@TriffidEgg@@UAE_NHH@Z 004ac740 f   triffid.obj
 0001:000ab830       ?RenderPixelEffect@TriffidEgg@@UAE_NN@Z 004ac830 f   triffid.obj
 0001:000ab850       ?SetTimer@TriffidEgg@@QAEXN@Z 004ac850 f   triffid.obj
 0001:000ab870       ?GetHead@Triffid@@QAE?AVMatrix34@@N@Z 004ac870 f   triffid.obj
 0001:000abdf0       ?DoesRayHit@Triffid@@UAE_NABVVector3@@0NPAV2@1@Z 004acdf0 f   triffid.obj
 0001:000abe60       ?Render@Triffid@@UAEXN@Z   004ace60 f   triffid.obj
 0001:000ac280       ?RenderAlphas@Triffid@@UAEXN@Z 004ad280 f   triffid.obj
 0001:000ac5b0       ?Spawn@TriffidEgg@@QAEXXZ  004ad5b0 f   triffid.obj
 0001:000aced0       ?Render@TriffidEgg@@UAEXN@Z 004aded0 f   triffid.obj
 0001:000ad280       ?Initialise@Triffid@@UAEXPAVBuilding@@@Z 004ae280 f   triffid.obj
 0001:000ad3b0       ?Advance@TriffidEgg@@UAE_NPAVUnit@@@Z 004ae3b0 f   triffid.obj
 0001:000ad730       ?ListSoundEvents@Triffid@@UAEXPAV?$LList@PAD@@@Z 004ae730 f   triffid.obj
 0001:000ad770       ?ListSoundEvents@TriffidEgg@@UAEXPAV?$LList@PAD@@@Z 004ae770 f   triffid.obj
 0001:000ad7b0       ?Launch@Triffid@@QAEXXZ    004ae7b0 f   triffid.obj
 0001:000ada80       ?Advance@Triffid@@UAE_NXZ  004aea80 f   triffid.obj
 0001:000adf40       ??0TrunkPort@@QAE@XZ       004aef40 f   trunkport.obj
 0001:000ae100       ?SetDetail@TrunkPort@@UAEXH@Z 004af100 f   trunkport.obj
 0001:000ae450       ?Advance@TrunkPort@@UAE_NXZ 004af450 f   trunkport.obj
 0001:000ae4b0       ?RenderAlphas@TrunkPort@@UAEXN@Z 004af4b0 f   trunkport.obj
 0001:000aef50       ?Read@TrunkPort@@UAEXPAVTextReader@@_N@Z 004aff50 f   trunkport.obj
 0001:000aef90       ?Write@BlueprintBuilding@@UAEXPAVTextWriter@@@Z 004aff90 f   blueprintstore.obj
 0001:000aef90       ?Write@Powerstation@@UAEXPAVTextWriter@@@Z 004aff90 f   powerstation.obj
 0001:000aef90       ?Write@TrunkPort@@UAEXPAVTextWriter@@@Z 004aff90 f   trunkport.obj
 0001:000aef90       ?Write@ReceiverBuilding@@UAEXPAVTextWriter@@@Z 004aff90 f   spiritreceiver.obj
 0001:000aef90       ?Write@PowerBuilding@@UAEXPAVTextWriter@@@Z 004aff90 f   generator.obj
 0001:000aef90       ?Write@MineBuilding@@UAEXPAVTextWriter@@@Z 004aff90 f   mine.obj
 0001:000aefc0       ??_ETrunkPort@@UAEPAXI@Z   004affc0 f i trunkport.obj
 0001:000aefc0       ??_GTrunkPort@@UAEPAXI@Z   004affc0 f i trunkport.obj
 0001:000af000       ?Render@TrunkPort@@UAEXN@Z 004b0000 f   trunkport.obj
 0001:000af530       ?PopulationLocked@TrunkPort@@QAE_NXZ 004b0530 f   trunkport.obj
 0001:000af760       ?ListSoundEvents@TrunkPort@@UAEXPAV?$LList@PAD@@@Z 004b0760 f   trunkport.obj
 0001:000af790       ?ReprogramComplete@TrunkPort@@UAEXXZ 004b0790 f   trunkport.obj
 0001:000af810       ??0UpgradePort@@QAE@XZ     004b0810 f   upgrade_port.obj
 0001:000af890       ??0PrimaryUpgradePort@@QAE@XZ 004b0890 f   upgrade_port.obj
 0001:000af910       ?ReprogramComplete@PrimaryUpgradePort@@UAEXXZ 004b0910 f   upgrade_port.obj
 0001:000af950       ??0Wall@@QAE@XZ            004b0950 f   wall.obj
 0001:000af9f0       ?Initialise@Wall@@UAEXPAVBuilding@@@Z 004b09f0 f   wall.obj
 0001:000afa10       ?Advance@Wall@@UAE_NXZ     004b0a10 f   wall.obj
 0001:000afa60       ?Damage@Wall@@UAEXN@Z      004b0a60 f   wall.obj
 0001:000afad0       ?DoesSphereHit@Wall@@UAE_NABVVector3@@N@Z 004b0ad0 f   wall.obj
 0001:000afcc0       ?DoesShapeHit@Wall@@UAE_NPAVShape@@VMatrix34@@@Z 004b0cc0 f   wall.obj
 0001:000afdd0       ?GetBuildingLink@AISpawnPoint@@UAEHXZ 004b0dd0 f   ai.obj
 0001:000afdd0       ?GetBuildingLink@Wall@@UAEHXZ 004b0dd0 f   wall.obj
 0001:000afde0       ?Read@Wall@@UAEXPAVTextReader@@_N@Z 004b0de0 f   wall.obj
 0001:000afe20       ?Write@Wall@@UAEXPAVTextWriter@@@Z 004b0e20 f   wall.obj
 0001:000afe50       ?Render@Wall@@UAEXN@Z      004b0e50 f   wall.obj
 0001:000afff0       ?SetDetail@Wall@@UAEXH@Z   004b0ff0 f   wall.obj
 0001:000b0100       ?DoesRayHit@Wall@@UAE_NABVVector3@@0NPAV2@1@Z 004b1100 f   wall.obj
 0001:000b0430       ?Initialise@WallBuster@@UAEXPAVBuilding@@@Z 004b1430 f   wallbuster.obj
 0001:000b0460       ?Render@WallBuster@@UAEXN@Z 004b1460 f   wallbuster.obj
 0001:000b04b0       ?ExplodeShape@ChessPiece@@QAEXN@Z 004b14b0 f   chess.obj
 0001:000b04b0       ?ExplodeShape@WallBuster@@QAEXN@Z 004b14b0 f   wallbuster.obj
 0001:000b04b0       ?ExplodeShape@Statue@@QAEXN@Z 004b14b0 f   statue.obj
 0001:000b0570       ??0WallBuster@@QAE@XZ      004b1570 f   wallbuster.obj
 0001:000b0630       ?BreakWalls@WallBuster@@QAEXXZ 004b1630 f   wallbuster.obj
 0001:000b06f0       ?RunAI@WallBuster@@QAEXPAVAI@@@Z 004b16f0 f   wallbuster.obj
 0001:000b0960       ?Destroy@WallBuster@@QAEXXZ 004b1960 f   wallbuster.obj
 0001:000b09b0       ?Advance@WallBuster@@UAE_NXZ 004b19b0 f   wallbuster.obj
 0001:000b0bf0       ?Begin@AI@@UAEXXZ          004b1bf0 f   ai.obj
 0001:000b0c40       ?Initialise@AITarget@@UAEXPAVBuilding@@@Z 004b1c40 f   ai.obj
 0001:000b0c90       ?SetBuildingLink@AITarget@@UAEXH@Z 004b1c90 f   ai.obj
 0001:000b0cc0       ?GetRange@AITarget@@QAENXZ 004b1cc0 f   ai.obj
 0001:000b0d30       ?RecalculateOwnership@AITarget@@QAEXXZ 004b1d30 f   ai.obj
 0001:000b0dc0       ?GetBuildingLink@AITarget@@UAEHXZ 004b1dc0 f   ai.obj
 0001:000b0dd0       ?Read@AITarget@@UAEXPAVTextReader@@_N@Z 004b1dd0 f   ai.obj
 0001:000b0e60       ?Write@AITarget@@UAEXPAVTextWriter@@@Z 004b1e60 f   ai.obj
 0001:000b0ec0       ??0AISpawnPoint@@QAE@XZ    004b1ec0 f   ai.obj
 0001:000b0f30       ?Initialise@AISpawnPoint@@UAEXPAVBuilding@@@Z 004b1f30 f   ai.obj
 0001:000b0fb0       ?SetBuildingLink@AISpawnPoint@@UAEXH@Z 004b1fb0 f   ai.obj
 0001:000b0fb0       ?SetBuildingLink@Wall@@UAEXH@Z 004b1fb0 f   wall.obj
 0001:000b0fc0       ?Read@AISpawnPoint@@UAEXPAVTextReader@@_N@Z 004b1fc0 f   ai.obj
 0001:000b1080       ?Write@AISpawnPoint@@UAEXPAVTextWriter@@@Z 004b2080 f   ai.obj
 0001:000b10d0       ?FindNearestTarget@AI@@SAHABVVector3@@_N1@Z 004b20d0 f   ai.obj
 0001:000b11f0       ?Render@AI@@UAEXN@Z        004b21f0 f   ai.obj
 0001:000b1330       ?AdvanceUnitAI@AI@@IAEXXZ  004b2330 f   ai.obj
 0001:000b1390       ?CountPanels@@YAHABVVector3@@N@Z 004b2390 f   ai.obj
 0001:000b1440       ?RunNuke@AI@@IAEXH@Z       004b2440 f   ai.obj
 0001:000b1550       ?PushFromTurrets@@YA?AVVector3@@V1@@Z 004b2550 f   ai.obj
 0001:000b1720       ?RunMeteor@AI@@IAEXH@Z     004b2720 f   ai.obj
 0001:000b18e0       ?IsImportant@AITarget@@QAE_NAAH@Z 004b28e0 f   ai.obj
 0001:000b19e0       ?PopulationLocked@AISpawnPoint@@IAE_NXZ 004b29e0 f   ai.obj
 0001:000b1ae0       ?RenderAlphas@AISpawnPoint@@UAEXN@Z 004b2ae0 f   ai.obj
 0001:000b1c60       ?GetItem@?$LList@VTaskTargetArea@@@@IBEPAV?$LListItem@VTaskTargetArea@@@@H@Z 004b2c60 f i ai.obj
 0001:000b1c60       ?GetItem@?$LList@UBurnPatch@@@@IBEPAV?$LListItem@UBurnPatch@@@@H@Z 004b2c60 f i landscape_renderer.obj
 0001:000b1c60       ?GetItem@?$LList@UShamanTargetArea@@@@IBEPAV?$LListItem@UShamanTargetArea@@@@H@Z 004b2c60 f i shaman.obj
 0001:000b1cf0       ?AdvanceCaptureTheStatueAI@AI@@IAEXXZ 004b2cf0 f   ai.obj
 0001:000b1fc0       ?RecountTeams@AITarget@@QAEXXZ 004b2fc0 f   ai.obj
 0001:000b2270       ?IsImportant@AITarget@@QAE_NXZ 004b3270 f   ai.obj
 0001:000b2280       ?SearchForOfficers@AI@@QAEHVVector3@@N_N1@Z 004b3280 f   ai.obj
 0001:000b2380       ?AdvanceSpecialsAI@AI@@IAEXXZ 004b3380 f   ai.obj
 0001:000b23f0       ?AdvanceRocketRiotAI@AI@@IAEXXZ 004b33f0 f   ai.obj
 0001:000b2510       ?Advance@AISpawnPoint@@UAE_NXZ 004b3510 f   ai.obj
 0001:000b2720       ?EmptyAndDelete@?$LList@PAVInstantUnit@@@@QAEXXZ 004b3720 f i level_file.obj
 0001:000b2720       ?EmptyAndDelete@?$LList@PAUAntObjective@@@@QAEXXZ 004b3720 f i anthill.obj
 0001:000b2720       ?EmptyAndDelete@?$LList@PAVLandscapeFlattenArea@@@@QAEXXZ 004b3720 f i level_file.obj
 0001:000b2720       ?EmptyAndDelete@?$LList@PAVAnimatedPanelKeyframe@@@@QAEXXZ 004b3720 f i animatedpanel.obj
 0001:000b2720       ?EmptyAndDelete@?$LList@PAVShamanIcon@@@@QAEXXZ 004b3720 f i shaman_interface.obj
 0001:000b2720       ?EmptyAndDelete@?$LList@PAVSpawnBuildingSpirit@@@@QAEXXZ 004b3720 f i spawnpoint.obj
 0001:000b2720       ?EmptyAndDelete@?$LList@PAVBuildingPort@@@@QAEXXZ 004b3720 f i building.obj
 0001:000b2720       ?EmptyAndDelete@?$LList@PAVWorldObjectId@@@@QAEXXZ 004b3720 f i sound_instance.obj
 0001:000b2720       ?EmptyAndDelete@?$LList@PAVRunningProgram@@@@QAEXXZ 004b3720 f i level_file.obj
 0001:000b2720       ?EmptyAndDelete@?$LList@PAVLight@@@@QAEXXZ 004b3720 f i level_file.obj
 0001:000b2720       ?EmptyAndDelete@?$LList@PAVDirtyRect@@@@QAEXXZ 004b3720 f i eclipse:eclipse.obj
 0001:000b2720       ?EmptyAndDelete@?$LList@PAVGlobalLocation@@@@QAEXXZ 004b3720 f i global_world.obj
 0001:000b2720       ?EmptyAndDelete@?$LList@PAVViriiHistory@@@@QAEXXZ 004b3720 f i virii.obj
 0001:000b2720       ?EmptyAndDelete@?$LList@PAVDspHandle@@@@QAEXXZ 004b3720 f i sound_instance.obj
 0001:000b2720       ?EmptyAndDelete@?$LList@PAURoutingTableEntry@@@@QAEXXZ 004b3720 f i routing_system.obj
 0001:000b2720       ?EmptyAndDelete@?$LList@PAVLocationMarker@@@@QAEXXZ 004b3720 f i markersystem.obj
 0001:000b2720       ?EmptyAndDelete@?$LList@PAVVector3@@@@QAEXXZ 004b3720 f i nuke.obj
 0001:000b2720       ?EmptyAndDelete@?$LList@PAURRSolarPanelInfo@@@@QAEXXZ 004b3720 f i ai.obj
 0001:000b2720       ?EmptyAndDelete@?$LList@PAVHistoricWayPoint@@@@QAEXXZ 004b3720 f i insertion_squad.obj
 0001:000b2720       ?EmptyAndDelete@?$LList@PAVScreenZone@@@@QAEXXZ 004b3720 f i taskmanager_interface_gestures.obj
 0001:000b2720       ?EmptyAndDelete@?$LList@PAVGlobalBuilding@@@@QAEXXZ 004b3720 f i global_world.obj
 0001:000b2720       ?EmptyAndDelete@?$LList@PAD@@QAEXXZ 004b3720 f i filedialog.obj
 0001:000b2720       ?EmptyAndDelete@?$LList@PAUPowerSurge@@@@QAEXXZ 004b3720 f i generator.obj
 0001:000b2720       ?EmptyAndDelete@?$LList@PAVCameraMount@@@@QAEXXZ 004b3720 f i level_file.obj
 0001:000b2720       ?EmptyAndDelete@?$LList@PAUNeighbourInfo@@@@QAEXXZ 004b3720 f i clonelab.obj
 0001:000b2760       ??0AI@@QAE@XZ              004b3760 f   ai.obj
 0001:000b28a0       ?FindTargetBuilding@AI@@QAEHHH@Z 004b38a0 f   ai.obj
 0001:000b2ff0       ?AdvanceSinglePlayerAI@AI@@IAEXXZ 004b3ff0 f   ai.obj
 0001:000b3500       ?AdvanceAssaultAI@AI@@IAEXXZ 004b4500 f   ai.obj
 0001:000b3a20       ?AdvanceRadarDishAI@AI@@IAEXXZ 004b4a20 f   ai.obj
 0001:000b4040       ?RunArmour@AI@@IAEXH@Z     004b5040 f   ai.obj
 0001:000b4230       ?RunHarvester@AI@@IAEXH@Z  004b5230 f   ai.obj
 0001:000b4230       ?RunEngineer@AI@@IAEXH@Z   004b5230 f   ai.obj
 0001:000b4390       ?RunAirStrike@AI@@IAEXH@Z  004b5390 f   ai.obj
 0001:000b4630       ?RunTank@AI@@IAEXH@Z       004b5630 f   ai.obj
 0001:000b4860       ?RunPowerup@AI@@IAEXVVector3@@@Z 004b5860 f   ai.obj
 0001:000b48d0       ?RunGunTurretRocketRiot@AI@@IAEXH@Z 004b58d0 f   ai.obj
 0001:000b4dc0       ?RunGunTurretBlitzkrieg@AI@@IAEXH@Z 004b5dc0 f   ai.obj
 0001:000b53c0       ?RunSpam@AI@@IAEXH@Z       004b63c0 f   ai.obj
 0001:000b5560       ?RunForest@AI@@IAEXH@Z     004b6560 f   ai.obj
 0001:000b5740       ?RunEggs@AI@@IAEXH@Z       004b6740 f   ai.obj
 0001:000b59f0       ?RunPlague@AI@@IAEXH@Z     004b69f0 f   ai.obj
 0001:000b5bb0       ?RunDarkForest@AI@@IAEXH@Z 004b6bb0 f   ai.obj
 0001:000b5bb0       ?RunAntNest@AI@@IAEXH@Z    004b6bb0 f   ai.obj
 0001:000b5dd0       ??0AITarget@@QAE@XZ        004b6dd0 f   ai.obj
 0001:000b5f60       ??1AITarget@@UAE@XZ        004b6f60 f   ai.obj
 0001:000b5f90       ?RecalculateNeighbours@AITarget@@QAEXXZ 004b6f90 f   ai.obj
 0001:000b6330       ?IsNearTo@AITarget@@QAENH@Z 004b7330 f   ai.obj
 0001:000b63e0       ?NeedsDefending@AITarget@@QAE_NH@Z 004b73e0 f   ai.obj
 0001:000b6510       ?RecalculatePriorityAssault@AITarget@@AAEXXZ 004b7510 f   ai.obj
 0001:000b66d0       ?RecalculatePriorityCTS@AITarget@@AAEXXZ 004b76d0 f   ai.obj
 0001:000b68d0       ?RecalculatePriorityStandard@AITarget@@AAEXXZ 004b78d0 f   ai.obj
 0001:000b6bb0       ?RecalculatePriorityRocketRiot@AITarget@@AAEXXZ 004b7bb0 f   ai.obj
 0001:000b6de0       ?RecalculatePriority@AITarget@@QAEXXZ 004b7de0 f   ai.obj
 0001:000b6e80       ?Render@AITarget@@UAEXN@Z  004b7e80 f   ai.obj
 0001:000b7040       ?RenderAlphas@AITarget@@UAEXN@Z 004b8040 f   ai.obj
 0001:000b7260       ??_GAI@@UAEPAXI@Z          004b8260 f i ai.obj
 0001:000b7260       ??_EAI@@UAEPAXI@Z          004b8260 f i ai.obj
 0001:000b72b0       ?AdvanceOfficerAI@AI@@IAEXXZ 004b82b0 f   ai.obj
 0001:000b75a0       ?RunSquad@AI@@IAEXH@Z      004b85a0 f   ai.obj
 0001:000b77f0       ?RunPowerup@AI@@IAEXXZ     004b87f0 f   ai.obj
 0001:000b79d0       ?RunGunTurret@AI@@IAEXH@Z  004b89d0 f   ai.obj
 0001:000b7df0       ??_EAITarget@@UAEPAXI@Z    004b8df0 f i ai.obj
 0001:000b7df0       ??_GAITarget@@UAEPAXI@Z    004b8df0 f i ai.obj
 0001:000b7e30       ?Advance@AITarget@@UAE_NXZ 004b8e30 f   ai.obj
 0001:000b7e80       ?AdvanceCurrentTasks@AI@@IAEXXZ 004b8e80 f   ai.obj
 0001:000b8040       ?AdvanceMultiwiniaAI@AI@@IAEXXZ 004b9040 f   ai.obj
 0001:000b8de0       ?Advance@AI@@UAE_NPAVUnit@@@Z 004b9de0 f   ai.obj
 0001:000b9110       ?AdvanceToTargetPosition@AirstrikeUnit@@QAE_NVVector3@@@Z 004ba110 f   airstrike.obj
 0001:000b93a0       ?Render@AirstrikeUnit@@UAEXN@Z 004ba3a0 f   airstrike.obj
 0001:000b93c0       ??0SpaceInvader@@QAE@XZ    004ba3c0 f   airstrike.obj
 0001:000b9470       ??A?$DArray@VVector3@@@@QAEAAVVector3@@H@Z 004ba470 f i airstrike.obj
 0001:000b94e0       ?ChangeHealth@SpaceInvader@@UAE_NHH@Z 004ba4e0 f   airstrike.obj
 0001:000b9690       ?Render@SpaceInvader@@UAEXN@Z 004ba690 f   airstrike.obj
 0001:000b9890       ?SetSize@?$DArray@VVector3@@@@QAEXH@Z 004ba890 f i airstrike.obj
 0001:000b9b80       ??0AirstrikeUnit@@QAE@HHHABVVector3@@@Z 004bab80 f   airstrike.obj
 0001:000b9ce0       ?Advance@AirstrikeUnit@@UAE_NH@Z 004bace0 f   airstrike.obj
 0001:000b9e30       ?ListSoundEvents@SpaceInvader@@UAEXPAV?$LList@PAD@@@Z 004bae30 f   airstrike.obj
 0001:000b9e60       ?PutData@?$DArray@VVector3@@@@QAEHABVVector3@@@Z 004bae60 f i airstrike.obj
 0001:000b9ed0       ?Begin@AirstrikeUnit@@UAEXXZ 004baed0 f   airstrike.obj
 0001:000ba350       ?Advance@SpaceInvader@@UAE_NPAVUnit@@@Z 004bb350 f   airstrike.obj
 0001:000ba710       ??0Armour@@QAE@XZ          004bb710 f   armour.obj
 0001:000ba890       ??1Armour@@UAE@XZ          004bb890 f   armour.obj
 0001:000ba930       ?IsUnloading@Armour@@QAE_NXZ 004bb930 f   armour.obj
 0001:000ba980       ?Capacity@Armour@@QAEHXZ   004bb980 f   armour.obj
 0001:000ba9e0       ?GetNumPassengers@Armour@@QAEHXZ 004bb9e0 f   armour.obj
 0001:000ba9f0       ?GetSpeed@Armour@@QAENXZ   004bb9f0 f   armour.obj
 0001:000baa00       ?ToggleLoading@Armour@@QAEXXZ 004bba00 f   armour.obj
 0001:000baab0       ?ToggleConversionAction@Armour@@QAEXXZ 004bbab0 f   armour.obj
 0001:000bab70       ?RemovePassenger@Armour@@QAEXXZ 004bbb70 f   armour.obj
 0001:000baba0       ?GetEntrance@Armour@@QAEXAAVVector3@@0@Z 004bbba0 f   armour.obj
 0001:000bac20       ?Render@Armour@@UAEXN@Z    004bbc20 f   armour.obj
 0001:000bb050       ?RegisterPassenger@Armour@@QAEXXZ 004bc050 f   armour.obj
 0001:000bb060       ?RayHit@Armour@@UAE_NABVVector3@@0@Z 004bc060 f   armour.obj
 0001:000bb270       ??_GArmour@@UAEPAXI@Z      004bc270 f i armour.obj
 0001:000bb270       ??_EArmour@@UAEPAXI@Z      004bc270 f i armour.obj
 0001:000bb290       ?ChangeHealth@Armour@@UAE_NHH@Z 004bc290 f   armour.obj
 0001:000bb4a0       ?FindPickupPoint@Armour@@IAEXPAVAI@@@Z 004bc4a0 f   armour.obj
 0001:000bb740       ?SetDirectOrders@Armour@@QAEXXZ 004bc740 f   armour.obj
 0001:000bb780       ?IsLoading@Armour@@QAE_NXZ 004bc780 f   armour.obj
 0001:000bb7c0       ?AddPassenger@Armour@@QAEXXZ 004bc7c0 f   armour.obj
 0001:000bb7f0       ?AdvanceToTargetPos@Armour@@QAEXXZ 004bc7f0 f   armour.obj
 0001:000bbdc0       ?CountApproachingDarwinians@Armour@@IAEHXZ 004bcdc0 f   armour.obj
 0001:000bbe80       ?PreventLoadOverlap@Armour@@IAE_NXZ 004bce80 f   armour.obj
 0001:000bbfb0       ?SetWayPoint@Armour@@QAEXABVVector3@@@Z 004bcfb0 f   armour.obj
 0001:000bc050       ?SetConversionPoint@Armour@@QAEXABVVector3@@@Z 004bd050 f   armour.obj
 0001:000bc0e0       ?DetectCollisions@Armour@@QAEXXZ 004bd0e0 f   armour.obj
 0001:000bc5e0       ?RunMobileBombAI@Armour@@IAEXPAVAI@@@Z 004bd5e0 f   armour.obj
 0001:000bc780       ?RRValidPickupPoint@Armour@@IAE_NABVVector3@@@Z 004bd780 f   armour.obj
 0001:000bc8b0       ?SetOrders@Armour@@QAEXABVVector3@@@Z 004bd8b0 f   armour.obj
 0001:000bc930       ?ListSoundEvents@Armour@@UAEXPAV?$LList@PAD@@@Z 004bd930 f   armour.obj
 0001:000bc980       ?IsRouteClear@Armour@@IAE_NABVVector3@@@Z 004bd980 f   armour.obj
 0001:000bcb90       ?IsRouteClear@Armour@@SA_NABVVector3@@0@Z 004bdb90 f   armour.obj
 0001:000bcd50       ?CreateRoute@Armour@@IAEXABVVector3@@@Z 004bdd50 f   armour.obj
 0001:000bcdb0       ?FollowRoute@Armour@@UAEXXZ 004bddb0 f   armour.obj
 0001:000bcf30       ?ConvertShapeColours@@YAXPAVShapeFragment@@VRGBAColour@@@Z 004bdf30 f   armour.obj
 0001:000bcfe0       ?Begin@Armour@@UAEXXZ      004bdfe0 f   armour.obj
 0001:000bd240       ?ConvertToGunTurret@Armour@@QAEXXZ 004be240 f   armour.obj
 0001:000bd3a0       ?Advance@Armour@@UAE_NPAVUnit@@@Z 004be3a0 f   armour.obj
 0001:000bd6e0       ?AISetConversionPoint@Armour@@IAEXABVVector3@@@Z 004be6e0 f   armour.obj
 0001:000bd830       ?GetBlitzkriegDropPoint@Armour@@IAEXPAVBuilding@@@Z 004be830 f   armour.obj
 0001:000bd990       ?RunAssaultAI@Armour@@IAEXPAVAI@@@Z 004be990 f   armour.obj
 0001:000bddf0       ?RunStandardAI@Armour@@IAEXPAVAI@@@Z 004bedf0 f   armour.obj
 0001:000be200       ?FindIdleDarwinians@Armour@@IAEXXZ 004bf200 f   armour.obj
 0001:000be3b0       ?RRFindPickupPoint@Armour@@IAEXXZ 004bf3b0 f   armour.obj
 0001:000be540       ?RRFindDropoffPoint@Armour@@IAEXPAVAI@@@Z 004bf540 f   armour.obj
 0001:000be8f0       ?RunRocketRiotAI@Armour@@IAEXPAVAI@@@Z 004bf8f0 f   armour.obj
 0001:000beb00       ?RunBlitzkriegAI@Armour@@IAEXPAVAI@@@Z 004bfb00 f   armour.obj
 0001:000bf1c0       ?RunAI@Armour@@UAEXPAVAI@@@Z 004c01c0 f   armour.obj
 0001:000bf270       ??0ArmyAnt@@QAE@XZ         004c0270 f   armyant.obj
 0001:000bf300       ?SetShape@ArmyAnt@@QAEXXZ  004c0300 f   armyant.obj
 0001:000bf480       ?SearchForEnemies@ArmyAnt@@IAE_NXZ 004c0480 f   armyant.obj
 0001:000bf530       ?Render@ArmyAnt@@UAEXN@Z   004c0530 f   armyant.obj
 0001:000bf6a0       ?Begin@ArmyAnt@@UAEXXZ     004c06a0 f   armyant.obj
 0001:000bf7a0       ?ChangeHealth@ArmyAnt@@UAE_NHH@Z 004c07a0 f   armyant.obj
 0001:000bf8e0       ?OrderReturnToBase@ArmyAnt@@QAEXXZ 004c08e0 f   armyant.obj
 0001:000bf970       ?SearchForSpirits@ArmyAnt@@IAE_NXZ 004c0970 f   armyant.obj
 0001:000bfa80       ?SearchForAntHill@ArmyAnt@@IAE_NXZ 004c0a80 f   armyant.obj
 0001:000bfba0       ?SearchForRandomPosition@ArmyAnt@@IAE_NXZ 004c0ba0 f   armyant.obj
 0001:000bfd40       ?AdvanceToTargetPosition@ArmyAnt@@IAE_NXZ 004c0d40 f   armyant.obj
 0001:000c0030       ?GetCarryMarker@ArmyAnt@@QAEXAAVVector3@@0@Z 004c1030 f   armyant.obj
 0001:000c00d0       ?AdvanceScoutArea@ArmyAnt@@IAE_NXZ 004c10d0 f   armyant.obj
 0001:000c0140       ?AdvanceCollectSpirit@ArmyAnt@@IAE_NXZ 004c1140 f   armyant.obj
 0001:000c0220       ?AdvanceCollectEntity@ArmyAnt@@IAE_NXZ 004c1220 f   armyant.obj
 0001:000c02f0       ?AdvanceAttackEnemy@ArmyAnt@@IAE_NXZ 004c12f0 f   armyant.obj
 0001:000c04c0       ?AdvanceReturnToBase@ArmyAnt@@IAE_NXZ 004c14c0 f   armyant.obj
 0001:000c05d0       ?AdvanceBaseDestroyed@ArmyAnt@@IAE_NXZ 004c15d0 f   armyant.obj
 0001:000c05f0       ?Advance@ArmyAnt@@UAE_NPAVUnit@@@Z 004c15f0 f   armyant.obj
 0001:000c07a0       ?GetSize@Centipede@@QAEHXZ 004c17a0 f   centipede.obj
 0001:000c0860       ?SearchForTargetEnemy@Centipede@@IAE_NXZ 004c1860 f   centipede.obj
 0001:000c0910       ?Begin@Centipede@@UAEXXZ   004c1910 f   centipede.obj
 0001:000c0c80       ?Panic@Centipede@@IAEXN@Z  004c1c80 f   centipede.obj
 0001:000c0d30       ?ChangeHealth@Centipede@@UAE_NHH@Z 004c1d30 f   centipede.obj
 0001:000c0f60       ?Attack@Centipede@@UAEXABVVector3@@@Z 004c1f60 f   centipede.obj
 0001:000c11c0       ?SearchForRetreatPosition@Centipede@@IAE_NXZ 004c21c0 f   centipede.obj
 0001:000c1440       ?SearchForSpirits@Centipede@@IAE_NXZ 004c2440 f   centipede.obj
 0001:000c15c0       ?SearchForRandomPosition@Centipede@@IAE_NXZ 004c25c0 f   centipede.obj
 0001:000c1760       ?AdvanceToTargetPosition@Centipede@@IAE_NXZ 004c2760 f   centipede.obj
 0001:000c1b10       ?Render@Centipede@@UAEXN@Z 004c2b10 f   centipede.obj
 0001:000c1d30       ?RenderPixelEffect@Centipede@@UAE_NN@Z 004c2d30 f   centipede.obj
 0001:000c1f10       ??0Centipede@@QAE@XZ       004c2f10 f   centipede.obj
 0001:000c1fe0       ?RecordHistoryPosition@Centipede@@IAEXXZ 004c2fe0 f   centipede.obj
 0001:000c2020       ?GetTrailPosition@Centipede@@IAE_NAAVVector3@@0H@Z 004c3020 f   centipede.obj
 0001:000c2130       ?ListSoundEvents@Centipede@@UAEXPAV?$LList@PAD@@@Z 004c3130 f   centipede.obj
 0001:000c2180       ??_ECentipede@@UAEPAXI@Z   004c3180 f i centipede.obj
 0001:000c2180       ??_GCentipede@@UAEPAXI@Z   004c3180 f i centipede.obj
 0001:000c21b0       ?EatSpirits@Centipede@@IAEXXZ 004c31b0 f   centipede.obj
 0001:000c25d0       ?Advance@Centipede@@UAE_NPAVUnit@@@Z 004c35d0 f   centipede.obj
 0001:000c2b80       ??0Darwinian@@QAE@XZ       004c3b80 f   darwinian.obj
 0001:000c2d90       ?WatchSpectacle@Darwinian@@QAEXH@Z 004c3d90 f   darwinian.obj
 0001:000c2db0       ?CastShadow@Darwinian@@QAEXH@Z 004c3db0 f   darwinian.obj
 0001:000c2dc0       ?AdvanceCapturedByAnt@Darwinian@@IAE_NXZ 004c3dc0 f   darwinian.obj
 0001:000c2e90       ?AdvanceOperatingPort@Darwinian@@IAE_NXZ 004c3e90 f   darwinian.obj
 0001:000c2f00       ?GetCrateOffset@@YA?AVVector3@@H@Z 004c3f00 f   darwinian.obj
 0001:000c2fa0       ?BoardRocket@Darwinian@@QAEXH@Z 004c3fa0 f   darwinian.obj
 0001:000c2fc0       ?AttackBuilding@Darwinian@@QAEXH@Z 004c3fc0 f   darwinian.obj
 0001:000c2fe0       ?IsInFormation@Darwinian@@QAEPAVOfficer@@XZ 004c3fe0 f   darwinian.obj
 0001:000c3050       ?IsSelectable@Darwinian@@UAE_NXZ 004c4050 f   darwinian.obj
 0001:000c3070       ?TakeControl@Darwinian@@QAEXH@Z 004c4070 f   darwinian.obj
 0001:000c3180       ?LoseControl@Darwinian@@QAEXXZ 004c4180 f   darwinian.obj
 0001:000c3280       ?AntCapture@Darwinian@@QAEXVWorldObjectId@@@Z 004c4280 f   darwinian.obj
 0001:000c32b0       ?IsInView@Darwinian@@UAE_NXZ 004c42b0 f   darwinian.obj
 0001:000c32d0       ?AdvanceInWater@Darwinian@@IAE_NXZ 004c42d0 f   darwinian.obj
 0001:000c32f0       ?SetFire@Darwinian@@QAEXXZ 004c42f0 f   darwinian.obj
 0001:000c3340       ?IsOnFire@Darwinian@@QAE_NXZ 004c4340 f   darwinian.obj
 0001:000c3350       ?Abduct@Darwinian@@QAEXVWorldObjectId@@@Z 004c4350 f   darwinian.obj
 0001:000c3370       ?SetTexture@@YAXPBD@Z      004c4370 f i darwinian.obj
 0001:000c33a0       ?SetBooster@Darwinian@@QAEXH@Z 004c43a0 f   darwinian.obj
 0001:000c3500       ?GiveHotFeet@Darwinian@@QAEXH@Z 004c4500 f   darwinian.obj
 0001:000c36d0       ?Infect@Darwinian@@QAEXXZ  004c46d0 f   darwinian.obj
 0001:000c3750       ?GiveMindControl@Darwinian@@QAEXH@Z 004c4750 f   darwinian.obj
 0001:000c38b0       ?GiveRage@Darwinian@@QAEXH@Z 004c48b0 f   darwinian.obj
 0001:000c3a80       ?HasRage@Darwinian@@IAE_NXZ 004c4a80 f   darwinian.obj
 0001:000c3ab0       ?LogState@Darwinian@@UAEPADPAD@Z 004c4ab0 f   darwinian.obj
 0001:000c3bd0       ??0BoxKite@@QAE@XZ         004c4bd0 f   darwinian.obj
 0001:000c3cc0       ?Advance@BoxKite@@UAE_NXZ  004c4cc0 f   darwinian.obj
 0001:000c3e30       ?Release@BoxKite@@QAEXXZ   004c4e30 f   darwinian.obj
 0001:000c3e50       ?Render@BoxKite@@UAEXN@Z   004c4e50 f   darwinian.obj
 0001:000c43e0       ?LogState@BoxKite@@UAEPADPAD@Z 004c53e0 f   darwinian.obj
 0001:000c4460       ??$?0USymmetricRandomFloat@@HU0@@Vector3@@QAE@USymmetricRandomFloat@@H0@Z 004c5460 f i darwinian.obj
 0001:000c4490       ?Begin@Darwinian@@UAEXXZ   004c5490 f   darwinian.obj
 0001:000c4550       ?ChangeHealth@Darwinian@@UAE_NHH@Z 004c5550 f   darwinian.obj
 0001:000c4600       ?FireDamage@Darwinian@@QAEXHH@Z 004c5600 f   darwinian.obj
 0001:000c4690       ?FindNearestUsefulBuilding@Darwinian@@IAEHAAN@Z 004c5690 f   darwinian.obj
 0001:000c47a0       ?AdvanceInVortex@Darwinian@@IAE_NXZ 004c57a0 f   darwinian.obj
 0001:000c4ab0       ?AdvanceBeingAbducted@Darwinian@@IAE_NXZ 004c5ab0 f   darwinian.obj
 0001:000c4e30       ?FireSubversion@Darwinian@@QAEXABVVector3@@@Z 004c5e30 f   darwinian.obj
 0001:000c4f60       ?AdvanceInsideArmour@Darwinian@@IAE_NXZ 004c5f60 f   darwinian.obj
 0001:000c51a0       ?SearchForRandomPosition@Darwinian@@IAE_NXZ 004c61a0 f   darwinian.obj
 0001:000c52c0       ?SearchForCrates@Darwinian@@IAE_NXZ 004c62c0 f   darwinian.obj
 0001:000c5520       ?SearchForFlags@Darwinian@@IAE_NXZ 004c6520 f   darwinian.obj
 0001:000c5710       ?SearchForSpirits@Darwinian@@IAE_NXZ 004c6710 f   darwinian.obj
 0001:000c5880       ?AdvanceToTargetPosition@Darwinian@@IAE_NXZ 004c6880 f   darwinian.obj
 0001:000c5d70       ?AdvanceOnFire@Darwinian@@IAE_NXZ 004c6d70 f   darwinian.obj
 0001:000c6050       ?AdvanceInfection@Darwinian@@IAE_NXZ 004c7050 f   darwinian.obj
 0001:000c63d0       ?OrbitPortal@Darwinian@@IAEXXZ 004c73d0 f   darwinian.obj
 0001:000c6860       ?Render@Darwinian@@QAEXNN@Z 004c7860 f   darwinian.obj
 0001:000ca580       ?FindNearestUsefulOfficer@Darwinian@@IAE?AVWorldObjectId@@AAN@Z 004cb580 f   darwinian.obj
 0001:000ca6b0       ?AdvanceWatchingSpectacle@Darwinian@@IAE_NXZ 004cb6b0 f   darwinian.obj
 0001:000ca940       ?AdvanceApproachingCarriableBuilding@Darwinian@@IAE_NXZ 004cb940 f   darwinian.obj
 0001:000caa90       ?AdvanceCarryingBuilding@Darwinian@@IAE_NXZ 004cba90 f   darwinian.obj
 0001:000cac50       ?AdvanceApproachingArmour@Darwinian@@IAE_NXZ 004cbc50 f   darwinian.obj
 0001:000cae20       ?AdvanceCombat@Darwinian@@IAE_NXZ 004cbe20 f   darwinian.obj
 0001:000cba70       ?AdvanceApproachingPort@Darwinian@@IAE_NXZ 004cca70 f   darwinian.obj
 0001:000cbb90       ?AdvanceOpeningCrate@Darwinian@@IAE_NXZ 004ccb90 f   darwinian.obj
 0001:000cbdb0       ?AdvanceRaisingFlag@Darwinian@@IAE_NXZ 004ccdb0 f   darwinian.obj
 0001:000cbe50       ?AdvanceUnderControl@Darwinian@@IAE_NXZ 004cce50 f   darwinian.obj
 0001:000cc0b0       ?AdvanceFollowingOrders@Darwinian@@IAE_NXZ 004cd0b0 f   darwinian.obj
 0001:000cc270       ?AdvanceFollowingShaman@Darwinian@@IAE_NXZ 004cd270 f   darwinian.obj
 0001:000cc4f0       ?AdvanceFollowingOfficer@Darwinian@@IAE_NXZ 004cd4f0 f   darwinian.obj
 0001:000cc9d0       ?AdvanceBoardingRocket@Darwinian@@IAE_NXZ 004cd9d0 f   darwinian.obj
 0001:000ccae0       ?AdvanceAttackingBuilding@Darwinian@@IAE_NXZ 004cdae0 f   darwinian.obj
 0001:000ccc50       ?FollowRoute@Darwinian@@UAEXXZ 004cdc50 f   darwinian.obj
 0001:000cce30       ?GiveOrders@Darwinian@@QAEXABVVector3@@H@Z 004cde30 f   darwinian.obj
 0001:000cd130       ?SearchForThreats@Darwinian@@IAE_NXZ 004ce130 f   darwinian.obj
 0001:000cde00       ?BeginVictoryDance@Darwinian@@IAE_NXZ 004cee00 f   darwinian.obj
 0001:000cded0       ?PushFromObstructions@Darwinian@@UAE?AVVector3@@ABV2@_N@Z 004ceed0 f   darwinian.obj
 0001:000ce620       ?AdvanceHotFeet@Darwinian@@IAEXXZ 004cf620 f   darwinian.obj
 0001:000ce7b0       ?ListSoundEvents@Darwinian@@UAEXPAV?$LList@PAD@@@Z 004cf7b0 f   darwinian.obj
 0001:000ce890       ?AdvanceIdle@Darwinian@@IAE_NXZ 004cf890 f   darwinian.obj
 0001:000ceb00       ?AdvanceWorshipSpirit@Darwinian@@IAE_NXZ 004cfb00 f   darwinian.obj
 0001:000cefb0       ?SearchForArmour@Darwinian@@IAE_NXZ 004cffb0 f   darwinian.obj
 0001:000cf1b0       ?SearchForOfficers@Darwinian@@IAE_NXZ 004d01b0 f   darwinian.obj
 0001:000cf8c0       ?SearchForPorts@Darwinian@@IAE_NXZ 004d08c0 f   darwinian.obj
 0001:000cfde0       ?SearchForCarryableBuilding@Darwinian@@IAE_NXZ 004d0de0 f   darwinian.obj
 0001:000d0050       ?AdvanceSacraficing@Darwinian@@IAE_NXZ 004d1050 f   darwinian.obj
 0001:000d0550       ?SearchForNewTask@Darwinian@@IAE_NXZ 004d1550 f   darwinian.obj
 0001:000d0730       ?Advance@Darwinian@@UAE_NPAVUnit@@@Z 004d1730 f   darwinian.obj
 0001:000d0ec0       ??0DropShip@@QAE@XZ        004d1ec0 f   dropship.obj
 0001:000d0f90       ??_GSquadie@@UAEPAXI@Z     004d1f90 f i insertion_squad.obj
 0001:000d0f90       ??_EEgg@@UAEPAXI@Z         004d1f90 f i egg.obj
 0001:000d0f90       ??_ELander@@UAEPAXI@Z      004d1f90 f i lander.obj
 0001:000d0f90       ??_ESporeGenerator@@UAEPAXI@Z 004d1f90 f i sporegenerator.obj
 0001:000d0f90       ??_GArmyAnt@@UAEPAXI@Z     004d1f90 f i armyant.obj
 0001:000d0f90       ??_ESquadie@@UAEPAXI@Z     004d1f90 f i insertion_squad.obj
 0001:000d0f90       ??_ESpaceShip@@UAEPAXI@Z   004d1f90 f i spaceship.obj
 0001:000d0f90       ??_GTriffidEgg@@UAEPAXI@Z  004d1f90 f i triffid.obj
 0001:000d0f90       ??_GSpaceShip@@UAEPAXI@Z   004d1f90 f i spaceship.obj
 0001:000d0f90       ??_GDarwinian@@UAEPAXI@Z   004d1f90 f i darwinian.obj
 0001:000d0f90       ??_GEgg@@UAEPAXI@Z         004d1f90 f i egg.obj
 0001:000d0f90       ??_ESpaceInvader@@UAEPAXI@Z 004d1f90 f i airstrike.obj
 0001:000d0f90       ??_EDarwinian@@UAEPAXI@Z   004d1f90 f i darwinian.obj
 0001:000d0f90       ??_EArmyAnt@@UAEPAXI@Z     004d1f90 f i armyant.obj
 0001:000d0f90       ??_GSpaceInvader@@UAEPAXI@Z 004d1f90 f i airstrike.obj
 0001:000d0f90       ??_ETriffidEgg@@UAEPAXI@Z  004d1f90 f i triffid.obj
 0001:000d0f90       ??_GLander@@UAEPAXI@Z      004d1f90 f i lander.obj
 0001:000d0f90       ??_GDropShip@@UAEPAXI@Z    004d1f90 f i dropship.obj
 0001:000d0f90       ??_EDropShip@@UAEPAXI@Z    004d1f90 f i dropship.obj
 0001:000d0f90       ??_GSporeGenerator@@UAEPAXI@Z 004d1f90 f i sporegenerator.obj
 0001:000d0fb0       ?RenderBeam@DropShip@@QAEXN@Z 004d1fb0 f   dropship.obj
 0001:000d1220       ?AdvanceToTargetPos@DropShip@@QAE_NXZ 004d2220 f   dropship.obj
 0001:000d14c0       ?Advance@DropShip@@UAE_NPAVUnit@@@Z 004d24c0 f   dropship.obj
 0001:000d16b0       ?Render@DropShip@@UAEXN@Z  004d26b0 f   dropship.obj
 0001:000d18a0       ??0Egg@@QAE@XZ             004d28a0 f   egg.obj
 0001:000d18d0       ?ChangeHealth@Egg@@UAE_NHH@Z 004d28d0 f   egg.obj
 0001:000d1930       ?Render@Egg@@UAEXN@Z       004d2930 f   egg.obj
 0001:000d25b0       ?Advance@Egg@@UAE_NPAVUnit@@@Z 004d35b0 f   egg.obj
 0001:000d2840       ?Fertilise@Egg@@QAEXH@Z    004d3840 f   egg.obj
 0001:000d28e0       ?Begin@Engineer@@UAEXXZ    004d38e0 f   engineer.obj
 0001:000d2980       ?SetWaypoint@Engineer@@QAEXABVVector3@@@Z 004d3980 f   engineer.obj
 0001:000d29c0       ?GetMaxSpirits@Engineer@@QAEHXZ 004d39c0 f   engineer.obj
 0001:000d2a10       ?SearchForRandomPosition@Engineer@@IAE_NXZ 004d3a10 f   engineer.obj
 0001:000d2aa0       ?AdvanceResearching@Engineer@@IAE_NXZ 004d3aa0 f   engineer.obj
 0001:000d3080       ?AdvanceReprogramming@Engineer@@IAE_NXZ 004d4080 f   engineer.obj
 0001:000d3450       ?EndBridge@Engineer@@QAEXXZ 004d4450 f   engineer.obj
 0001:000d34b0       ?AdvanceOperatingBridge@Engineer@@IAE_NXZ 004d44b0 f   engineer.obj
 0001:000d34f0       ?GetCurrentAction@Engineer@@QAEPADXZ 004d44f0 f   engineer.obj
 0001:000d3560       ?GetNumSpirits@Engineer@@QAEHXZ 004d4560 f   engineer.obj
 0001:000d3570       ?SearchForControlTowers@Engineer@@IAE_NXZ 004d4570 f   engineer.obj
 0001:000d36d0       ?SearchForBridges@Engineer@@IAE_NXZ 004d46d0 f   engineer.obj
 0001:000d3840       ?ChangeHealth@Engineer@@UAE_NHH@Z 004d4840 f   engineer.obj
 0001:000d39f0       ?SearchForIncubator@Engineer@@IAE_NXZ 004d49f0 f   engineer.obj
 0001:000d3ba0       ?RunAI@Engineer@@UAEXPAVAI@@@Z 004d4ba0 f   engineer.obj
 0001:000d3d20       ?SearchForSpirits@Engineer@@IAE_NXZ 004d4d20 f   engineer.obj
 0001:000d3e60       ?SearchForResearchItems@Engineer@@IAE_NXZ 004d4e60 f   engineer.obj
 0001:000d4020       ?AdvanceToTargetPos@Engineer@@IAE_NXZ 004d5020 f   engineer.obj
 0001:000d4320       ?AdvanceIdle@Engineer@@IAE_NXZ 004d5320 f   engineer.obj
 0001:000d43c0       ?AdvanceToWaypoint@Engineer@@IAE_NXZ 004d53c0 f   engineer.obj
 0001:000d4420       ?AdvanceToBridge@Engineer@@IAE_NXZ 004d5420 f   engineer.obj
 0001:000d44a0       ?RenderShape@Engineer@@QAEXN@Z 004d54a0 f   engineer.obj
 0001:000d46d0       ?Render@Engineer@@UAEXN@Z  004d56d0 f   engineer.obj
 0001:000d4c90       ?RenderPixelEffect@Engineer@@UAE_NN@Z 004d5c90 f   engineer.obj
 0001:000d4cc0       ??0Engineer@@QAE@XZ        004d5cc0 f   engineer.obj
 0001:000d4e70       ??1Engineer@@UAE@XZ        004d5e70 f   engineer.obj
 0001:000d4f20       ?CollectSpirit@Engineer@@QAEXH@Z 004d5f20 f   engineer.obj
 0001:000d4f70       ?AdvanceToIncubator@Engineer@@IAE_NXZ 004d5f70 f   engineer.obj
 0001:000d5200       ?AdvanceToControlTower@Engineer@@IAE_NXZ 004d6200 f   engineer.obj
 0001:000d54a0       ?AdvanceToResearchItem@Engineer@@IAE_NXZ 004d64a0 f   engineer.obj
 0001:000d5700       ?ListSoundEvents@Engineer@@UAEXPAV?$LList@PAD@@@Z 004d6700 f   engineer.obj
 0001:000d5760       ??_EEngineer@@UAEPAXI@Z    004d6760 f i engineer.obj
 0001:000d5760       ??_GEngineer@@UAEPAXI@Z    004d6760 f i engineer.obj
 0001:000d5780       ?AdvanceToSpirit@Engineer@@IAE_NXZ 004d6780 f   engineer.obj
 0001:000d5850       ?BeginBridge@Engineer@@QAEXVVector3@@@Z 004d6850 f   engineer.obj
 0001:000d5b80       ?Advance@Engineer@@UAE_NPAVUnit@@@Z 004d6b80 f   engineer.obj
 0001:000d60c0       ?Initialise@EntityBlueprint@@SAXXZ 004d70c0 f   entity.obj
 0001:000d61a0       ?GetStat@EntityBlueprint@@SANEH@Z 004d71a0 f   entity.obj
 0001:000d6210       ??0Entity@@QAE@XZ          004d7210 f   entity.obj
 0001:000d62e0       ??1Entity@@UAE@XZ          004d72e0 f   entity.obj
 0001:000d6300       ?SetType@Entity@@QAEXE@Z   004d7300 f   entity.obj
 0001:000d6380       ?ChangeHealth@Entity@@UAE_NHH@Z 004d7380 f   entity.obj
 0001:000d6480       ?AdvanceDead@Entity@@UAE_NPAVUnit@@@Z 004d7480 f   entity.obj
 0001:000d64f0       ?Begin@Entity@@UAEXXZ      004d74f0 f   entity.obj
 0001:000d6560       ?Advance@Entity@@UAE_NPAVUnit@@@Z 004d7560 f   entity.obj
 0001:000d6780       ?BeginRenderShadow@Entity@@SAXXZ 004d7780 f   entity.obj
 0001:000d6880       ?EndRenderShadow@Entity@@SAXXZ 004d7880 f   entity.obj
 0001:000d68f0       ??0LaserTrooper@@QAE@XZ    004d78f0 f i entity.obj
 0001:000d6930       ?GetTypeName@Entity@@SAPADH@Z 004d7930 f   entity.obj
 0001:000d6950       ?RayHit@Entity@@UAE_NABVVector3@@0@Z 004d7950 f   entity.obj
 0001:000d69f0       ?GetCameraFocusPoint@Entity@@UAE?AVVector3@@XZ 004d79f0 f   entity.obj
 0001:000d6a20       ?SetWaypoint@Entity@@UAEXVVector3@@@Z 004d7a20 f   entity.obj
 0001:000d6a30       ?LogState@Entity@@UAEPADPAD@Z 004d7a30 f   entity.obj
 0001:000d6b20       ?EntityIsBlocked@Entity@@SA_NH@Z 004d7b20 f   entity.obj
 0001:000d6b80       ?Attack@Entity@@UAEXABVVector3@@@Z 004d7b80 f   entity.obj
 0001:000d6cb0       ?NewEntity@Entity@@SAPAV1@H@Z 004d7cb0 f   entity.obj
 0001:000d7310       ??_GEntity@@UAEPAXI@Z      004d8310 f i entity.obj
 0001:000d7310       ??_ELaserTrooper@@UAEPAXI@Z 004d8310 f i entity.obj
 0001:000d7310       ??_EEntity@@UAEPAXI@Z      004d8310 f i entity.obj
 0001:000d7310       ??_GLaserTrooper@@UAEPAXI@Z 004d8310 f i entity.obj
 0001:000d7340       ?GetTypeId@Entity@@SAHPBD@Z 004d8340 f   entity.obj
 0001:000d7380       ?ConvertFragmentColours@Entity@@SAXPAVShapeFragment@@VRGBAColour@@_N@Z 004d8380 f   entity.obj
 0001:000d7570       ?AdvanceInAir@Entity@@UAEXPAVUnit@@@Z 004d8570 f   entity.obj
 0001:000d76b0       ?AdvanceInWater@Entity@@UAEXPAVUnit@@@Z 004d86b0 f   entity.obj
 0001:000d7940       ?PushFromEachOther@Entity@@UAE?AVVector3@@ABV2@@Z 004d8940 f   entity.obj
 0001:000d7b10       ?PushFromCliffs@Entity@@UAE?AVVector3@@ABV2@0@Z 004d8b10 f   entity.obj
 0001:000d7ca0       ?RenderShadow@Entity@@SAXABVVector3@@N@Z 004d8ca0 f   entity.obj
 0001:000d7f60       ?EnterTeleports@Entity@@UAEHH@Z 004d8f60 f   entity.obj
 0001:000d81e0       ?PushFromObstructions@Entity@@UAE?AVVector3@@ABV2@_N@Z 004d91e0 f   entity.obj
 0001:000d85f0       ?ListSoundEvents@Entity@@UAEXPAV?$LList@PAD@@@Z 004d95f0 f   entity.obj
 0001:000d8690       ?FollowRoute@Entity@@UAEXXZ 004d9690 f   entity.obj
 0001:000d8800       ?ConvertShapeColoursToTeam@Entity@@SAXPAVShape@@H_N@Z 004d9800 f   entity.obj
 0001:000d88d0       ?SetupTeamShape@Entity@@QAEXPAD_N@Z 004d98d0 f   entity.obj
 0001:000d8a10       ?SetShape@Entity@@UAEXPAD_N@Z 004d9a10 f   entity.obj
 0001:000d8ad0       ?GetLegRootPos@EntityLeg@@IAE?AVVector3@@XZ 004d9ad0 f   entity_leg.obj
 0001:000d8b50       ?PlantFoot@EntityLeg@@QAEXXZ 004d9b50 f   entity_leg.obj
 0001:000d8b70       ?GetIdealSwingingFootPos@EntityLeg@@IAE?AVVector3@@N@Z 004d9b70 f   entity_leg.obj
 0001:000d8c10       ?Advance@EntityLeg@@QAE_NXZ 004d9c10 f   entity_leg.obj
 0001:000d8ca0       ?AdvanceSpiderPounce@EntityLeg@@QAEXN@Z 004d9ca0 f   entity_leg.obj
 0001:000d8d50       ??0EntityLeg@@QAE@HPAVEntity@@PBD11@Z 004d9d50 f   entity_leg.obj
 0001:000d9020       ?CalcKneePos@EntityLeg@@IAE?AVVector3@@ABV2@00@Z 004da020 f   entity_leg.obj
 0001:000d9250       ?Render@EntityLeg@@QAEXNABVVector3@@@Z 004da250 f   entity_leg.obj
 0001:000d94f0       ?RenderPixelEffect@EntityLeg@@QAE_NNABVVector3@@@Z 004da4f0 f   entity_leg.obj
 0001:000d97d0       ?CalcFootHomePos@EntityLeg@@IAE?AVVector3@@N@Z 004da7d0 f   entity_leg.obj
 0001:000d98d0       ?CalcFootsDesireToMove@EntityLeg@@QAENN@Z 004da8d0 f   entity_leg.obj
 0001:000d9960       ?CalcDesiredFootPos@EntityLeg@@IAE?AVVector3@@N@Z 004da960 f   entity_leg.obj
 0001:000d99f0       ?LiftFoot@EntityLeg@@QAEXN@Z 004da9f0 f   entity_leg.obj
 0001:000d9a70       ?Begin@Harvester@@UAEXXZ   004daa70 f   harvester.obj
 0001:000d9b10       ?SetWaypoint@Harvester@@QAEXABVVector3@@@Z 004dab10 f   harvester.obj
 0001:000d9b50       ?GetMaxSpirits@Harvester@@QAEHXZ 004dab50 f   harvester.obj
 0001:000d9ba0       ?AdvanceEngines@Harvester@@IAEXXZ 004daba0 f   harvester.obj
 0001:000d9e10       ?SearchForRandomPosition@Harvester@@IAE_NXZ 004dae10 f   harvester.obj
 0001:000d9ea0       ?RenderBubble@Harvester@@QAEXN@Z 004daea0 f   harvester.obj
 0001:000da1a0       ?GetHoverHeight@Harvester@@IAENXZ 004db1a0 f   harvester.obj
 0001:000da1f0       ?IsInView@SpiritProcessor@@UAE_NXZ 004db1f0 f   spiritreceiver.obj
 0001:000da1f0       ?IsInView@AirstrikeUnit@@UAE_NXZ 004db1f0 f   airstrike.obj
 0001:000da1f0       ?IsOpen@BinaryDataReader@@UAE_NXZ 004db1f0 f   binary_stream_readers.obj
 0001:000da1f0       ?IsOpen@TextDataReader@@UBE_NXZ 004db1f0 f   text_stream_readers.obj
 0001:000da1f0       ?do_always_noconv@codecvt_base@std@@MBE_NXZ 004db1f0 f   memory_leak.obj
 0001:000da1f0       ?isIdle@InputDriver@@UAE_NXZ 004db1f0 f   inputdriver.obj
 0001:000da1f0       ?IsSelectable@Armour@@UAE_NXZ 004db1f0 f   armour.obj
 0001:000da1f0       ?IsSelectable@InsertionSquad@@UAE_NXZ 004db1f0 f   insertion_squad.obj
 0001:000da1f0       ?IsSelectable@Engineer@@UAE_NXZ 004db1f0 f   engineer.obj
 0001:000da1f0       ?IsInView@CarryableBuilding@@UAE_NXZ 004db1f0 f   carryablebuilding.obj
 0001:000da1f0       ?IsSelectable@Tank@@UAE_NXZ 004db1f0 f   tank.obj
 0001:000da1f0       ?IsSelectable@Shaman@@UAE_NXZ 004db1f0 f   shaman.obj
 0001:000da1f0       ?IsSelectable@Harvester@@UAE_NXZ 004db1f0 f   harvester.obj
 0001:000da1f0       ?AdviseOverSelectableZone@TaskManagerInterfaceGestures@@UAE_NXZ 004db1f0 f   taskmanager_interface_gestures.obj
 0001:000da1f0       ?IsSelectable@Officer@@UAE_NXZ 004db1f0 f   officer.obj
 0001:000da1f0       ?IsInView@Entity@@UAE_NXZ  004db1f0 f   entity.obj
 0001:000da200       ?GetNumSpirits@Harvester@@QAEHXZ 004db200 f   harvester.obj
 0001:000da210       ?ChangeHealth@Harvester@@UAE_NHH@Z 004db210 f   harvester.obj
 0001:000da3d0       ?RunAI@Harvester@@UAEXPAVAI@@@Z 004db3d0 f   harvester.obj
 0001:000da550       ?SearchForIncubator@Harvester@@IAE_NXZ 004db550 f   harvester.obj
 0001:000da680       ?SearchForSpawnPoint@Harvester@@IAE_NXZ 004db680 f   harvester.obj
 0001:000da790       ?SearchForSpirits@Harvester@@IAE_NXZ 004db790 f   harvester.obj
 0001:000da8f0       ?AdvanceToTargetPos@Harvester@@IAE_NXZ 004db8f0 f   harvester.obj
 0001:000dac30       ?AdvanceToWaypoint@Harvester@@IAE_NXZ 004dbc30 f   harvester.obj
 0001:000dac90       ?AdvanceToSpirit@Harvester@@IAE_NXZ 004dbc90 f   harvester.obj
 0001:000dadf0       ?RenderShape@Harvester@@QAEXN@Z 004dbdf0 f   harvester.obj
 0001:000db000       ?RenderPixelEffect@Harvester@@UAE_NN@Z 004dc000 f   harvester.obj
 0001:000db020       ?RenderBeam@Harvester@@QAEXN@Z 004dc020 f   harvester.obj
 0001:000db2c0       ?AdvanceSpirits@Harvester@@IAEXXZ 004dc2c0 f   harvester.obj
 0001:000db760       ?ReleaseSpirits@Harvester@@QAEXXZ 004dc760 f   harvester.obj
 0001:000db880       ?ReleaseGrenades@Harvester@@QAEXXZ 004dc880 f   harvester.obj
 0001:000db960       ?AdvanceIdle@Harvester@@IAE_NXZ 004dc960 f   harvester.obj
 0001:000dba00       ?CollectSpirit@Harvester@@QAEXH@Z 004dca00 f   harvester.obj
 0001:000dba70       ?AdvanceToIncubator@Harvester@@IAE_NXZ 004dca70 f   harvester.obj
 0001:000dbb80       ?AdvanceToSpawnPoint@Harvester@@IAE_NXZ 004dcb80 f   harvester.obj
 0001:000dbd10       ?Render@Harvester@@UAEXN@Z 004dcd10 f   harvester.obj
 0001:000dbe10       ?ListSoundEvents@Harvester@@UAEXPAV?$LList@PAD@@@Z 004dce10 f   harvester.obj
 0001:000dbe60       ??0Harvester@@QAE@XZ       004dce60 f   harvester.obj
 0001:000dc020       ??1Harvester@@UAE@XZ       004dd020 f   harvester.obj
 0001:000dc0e0       ?AdvanceGrenades@Harvester@@IAEXXZ 004dd0e0 f   harvester.obj
 0001:000dc510       ?AdvanceHarvesting@Harvester@@IAE_NXZ 004dd510 f   harvester.obj
 0001:000dc740       ??_EHarvester@@UAEPAXI@Z   004dd740 f i harvester.obj
 0001:000dc740       ??_GHarvester@@UAEPAXI@Z   004dd740 f i harvester.obj
 0001:000dc760       ?Advance@Harvester@@UAE_NPAVUnit@@@Z 004dd760 f   harvester.obj
 0001:000dc8b0       ??0HistoricWayPoint@@QAE@ABVVector3@@@Z 004dd8b0 f i insertion_squad.obj
 0001:000dc8f0       ?Advance@InsertionSquad@@UAE_NH@Z 004dd8f0 f   insertion_squad.obj
 0001:000dc930       ?CycleSecondary@InsertionSquad@@QAEXXZ 004dd930 f   insertion_squad.obj
 0001:000dcb40       ?SetWeaponType@InsertionSquad@@QAEXH@Z 004ddb40 f   insertion_squad.obj
 0001:000dcb50       ??0Squadie@@QAE@XZ         004ddb50 f   insertion_squad.obj
 0001:000dcd00       ?Begin@Squadie@@UAEXXZ     004ddd00 f   insertion_squad.obj
 0001:000dcd10       ?ChangeHealth@Squadie@@UAE_NHH@Z 004ddd10 f   insertion_squad.obj
 0001:000dcde0       ?RunAI@Squadie@@IAEXXZ     004ddde0 f   insertion_squad.obj
 0001:000dcf10       ?FireSecondaryWeapon@Squadie@@QAEXABVVector3@@@Z 004ddf10 f   insertion_squad.obj
 0001:000dd150       ?GetCameraFocusPoint@Squadie@@UAE?AVVector3@@XZ 004de150 f   insertion_squad.obj
 0001:000dd170       ?GetPointMan@InsertionSquad@@QAEPAVEntity@@XZ 004de170 f   insertion_squad.obj
 0001:000dd1b0       ?Attack@Squadie@@UAEXABVVector3@@@Z 004de1b0 f   insertion_squad.obj
 0001:000dd4e0       ?Render@Squadie@@UAEXN@Z   004de4e0 f   insertion_squad.obj
 0001:000dd830       ?RenderPixelEffect@Squadie@@UAE_NN@Z 004de830 f   insertion_squad.obj
 0001:000dd9b0       ?Attack@InsertionSquad@@UAEXVVector3@@_N@Z 004de9b0 f   insertion_squad.obj
 0001:000ddcd0       ?DirectControl@InsertionSquad@@UAEXABVTeamControls@@@Z 004decd0 f   insertion_squad.obj
 0001:000ddf40       ?ListSoundEvents@Squadie@@UAEXPAV?$LList@PAD@@@Z 004def40 f   insertion_squad.obj
 0001:000ddfd0       ?SetWayPoint@InsertionSquad@@UAEXABVVector3@@@Z 004defd0 f   insertion_squad.obj
 0001:000de280       ?GetTargetPos@InsertionSquad@@QAE?AVVector3@@N@Z 004df280 f   insertion_squad.obj
 0001:000de410       ?RunAI@InsertionSquad@@UAEXPAVAI@@@Z 004df410 f   insertion_squad.obj
 0001:000de970       ?Advance@Squadie@@UAE_NPAVUnit@@@Z 004df970 f   insertion_squad.obj
 0001:000deff0       ??0InsertionSquad@@QAE@HHHABVVector3@@@Z 004dfff0 f   insertion_squad.obj
 0001:000df0e0       ??_GInsertionSquad@@UAEPAXI@Z 004e00e0 f i insertion_squad.obj
 0001:000df0e0       ??_EInsertionSquad@@UAEPAXI@Z 004e00e0 f i insertion_squad.obj
 0001:000df120       ??0Lander@@QAE@XZ          004e0120 f   lander.obj
 0001:000df1c0       ?AdvanceLanded@Lander@@QAE_NXZ 004e01c0 f   lander.obj
 0001:000df300       ?AdvanceSailing@Lander@@QAE_NXZ 004e0300 f   lander.obj
 0001:000df3c0       ?Advance@Lander@@UAE_NPAVUnit@@@Z 004e03c0 f   lander.obj
 0001:000df4e0       ?Begin@LaserTrooper@@UAEXXZ 004e04e0 f   lasertrooper.obj
 0001:000df500       ?AdvanceVictoryDance@LaserTrooper@@QAEXXZ 004e0500 f   lasertrooper.obj
 0001:000df560       ?Advance@LaserTrooper@@UAE_NPAVUnit@@@Z 004e0560 f   lasertrooper.obj
 0001:000df7d0       ??0Meteor@@QAE@XZ          004e07d0 f   meteor.obj
 0001:000df870       ?Begin@Meteor@@UAEXXZ      004e0870 f   meteor.obj
 0001:000df890       ??_GMeteor@@UAEPAXI@Z      004e0890 f i meteor.obj
 0001:000df890       ??_EMeteor@@UAEPAXI@Z      004e0890 f i meteor.obj
 0001:000df8c0       ?Render@Meteor@@UAEXN@Z    004e08c0 f   meteor.obj
 0001:000dff90       ?AdvanceToTarget@Meteor@@QAE_NXZ 004e0f90 f   meteor.obj
 0001:000e01d0       ?Advance@Meteor@@UAE_NPAVUnit@@@Z 004e11d0 f   meteor.obj
 0001:000e0420       ?ListSoundEvents@Meteor@@UAEXPAV?$LList@PAD@@@Z 004e1420 f   meteor.obj
 0001:000e0450       ?Begin@Nuke@@UAEXXZ        004e1450 f   nuke.obj
 0001:000e0490       ?Launch@Nuke@@QAEXXZ       004e1490 f   nuke.obj
 0001:000e04f0       ?AdvanceSub@Nuke@@QAE_NXZ  004e14f0 f   nuke.obj
 0001:000e06a0       ?RenderSub@Nuke@@IAEXN@Z   004e16a0 f   nuke.obj
 0001:000e0c00       ?AdvanceToTarget@Nuke@@QAE_NXZ 004e1c00 f   nuke.obj
 0001:000e1190       ?RenderGroundMarker@Nuke@@IAEXXZ 004e2190 f   nuke.obj
 0001:000e1770       ?AdvanceLaunched@Nuke@@QAE_NXZ 004e2770 f   nuke.obj
 0001:000e1810       ?ListSoundEvents@Nuke@@UAEXPAV?$LList@PAD@@@Z 004e2810 f   nuke.obj
 0001:000e1840       ??0Nuke@@QAE@XZ            004e2840 f   nuke.obj
 0001:000e1900       ?Advance@Nuke@@UAE_NPAVUnit@@@Z 004e2900 f   nuke.obj
 0001:000e1970       ?RenderHistory@Nuke@@IAEXN@Z 004e2970 f   nuke.obj
 0001:000e1f90       ??_ENuke@@UAEPAXI@Z        004e2f90 f i nuke.obj
 0001:000e1f90       ??_GNuke@@UAEPAXI@Z        004e2f90 f i nuke.obj
 0001:000e1fd0       ?Render@Nuke@@UAEXN@Z      004e2fd0 f   nuke.obj
 0001:000e2410       ?Begin@Officer@@UAEXXZ     004e3410 f   officer.obj
 0001:000e2660       ?RenderSpirit@Officer@@IAEXABVVector3@@@Z 004e3660 f   officer.obj
 0001:000e2b60       ?RenderShield@Officer@@IAEXN@Z 004e3b60 f   officer.obj
 0001:000e2d20       ?IsInFormationMode@Officer@@QAE_NXZ 004e3d20 f   officer.obj
 0001:000e2d40       ?AdvanceIdle@Officer@@IAE_NXZ 004e3d40 f   officer.obj
 0001:000e2d70       ?AdvanceToTargetPositionInFormation@Officer@@IAE_NXZ 004e3d70 f   officer.obj
 0001:000e2f10       ?CancelOrderSounds@Officer@@QAEXXZ 004e3f10 f   officer.obj
 0001:000e3000       ??1OfficerOrderTrail@@UAE@XZ 004e4000 f i officer.obj
 0001:000e3000       ??1Laser@@UAE@XZ           004e4000 f i location.obj
 0001:000e3000       ??1OfficerOrders@@UAE@XZ   004e4000 f i officer.obj
 0001:000e3000       ??1ThrowableWeapon@@UAE@XZ 004e4000 f i weapons.obj
 0001:000e3000       ??1Grenade@@UAE@XZ         004e4000 f i weapons.obj
 0001:000e3010       ?CancelOrders@Officer@@QAEXXZ 004e4010 f   officer.obj
 0001:000e3040       ?SetFollowMode@Officer@@QAEXXZ 004e4040 f   officer.obj
 0001:000e3070       ?LogState@Officer@@UAEPADPAD@Z 004e4070 f   officer.obj
 0001:000e3160       ??0OfficerOrders@@QAE@XZ   004e4160 f   officer.obj
 0001:000e3190       ??0MultiwiniaOfficerOrders@@QAE@XZ 004e4190 f   officer.obj
 0001:000e31d0       ??0OfficerOrderTrail@@QAE@XZ 004e41d0 f   officer.obj
 0001:000e3210       ?Advance@OfficerOrderTrail@@UAE_NXZ 004e4210 f   officer.obj
 0001:000e3230       ?GetPointer@?$DArray@VOfficerFormation@@@@QBEPAVOfficerFormation@@H@Z 004e4230 f i officer.obj
 0001:000e32a0       ??A?$DArray@VOfficerFormation@@@@QAEAAVOfficerFormation@@H@Z 004e42a0 f i officer.obj
 0001:000e3310       ?SetSize@?$DArray@VOfficerFormation@@@@QAEXH@Z 004e4310 f i officer.obj
 0001:000e3470       ?ChangeHealth@Officer@@UAE_NHH@Z 004e4470 f   officer.obj
 0001:000e3650       ?CalculateBoundingSphere@Officer@@QAEXAAVVector3@@AAN@Z 004e4650 f   officer.obj
 0001:000e3750       ?GetFormationIndex@Officer@@QAEHH@Z 004e4750 f   officer.obj
 0001:000e37b0       ?FormationFull@Officer@@QAE_NXZ 004e47b0 f   officer.obj
 0001:000e3830       ?RegisterWithFormation@Officer@@QAEXH@Z 004e4830 f   officer.obj
 0001:000e38a0       ?IsInFormation@Officer@@QAE_NH@Z 004e48a0 f   officer.obj
 0001:000e3900       ?SetNextMode@Officer@@QAEXXZ 004e4900 f   officer.obj
 0001:000e3b90       ?SetPreviousMode@Officer@@QAEXXZ 004e4b90 f   officer.obj
 0001:000e3e20       ?Render@OfficerOrders@@UAEXN@Z 004e4e20 f   officer.obj
 0001:000e4180       ?Render@OfficerOrderTrail@@UAEXN@Z 004e5180 f   officer.obj
 0001:000e4480       ??0Officer@@QAE@XZ         004e5480 f   officer.obj
 0001:000e45a0       ??1Officer@@UAE@XZ         004e55a0 f   officer.obj
 0001:000e4660       ?RenderShape@Officer@@QAE_NN@Z 004e5660 f   officer.obj
 0001:000e4ce0       ?GetFormationPositionFromIndex@Officer@@SA?AVVector3@@ABV2@H0H@Z 004e5ce0 f   officer.obj
 0001:000e4ee0       ?AdvanceToTargetPosition@Officer@@IAE_NXZ 004e5ee0 f   officer.obj
 0001:000e5310       ?Absorb@Officer@@IAEXXZ    004e6310 f   officer.obj
 0001:000e54f0       ?SetFormation@Officer@@QAEXABVVector3@@@Z 004e64f0 f   officer.obj
 0001:000e5760       ?Advance@OfficerOrders@@UAE_NXZ 004e6760 f   officer.obj
 0001:000e59f0       ?Render@MultiwiniaOfficerOrders@@UAEXN@Z 004e69f0 f   officer.obj
 0001:000e5f20       ?PutData@?$DArray@VOfficerFormation@@@@QAEHABVOfficerFormation@@@Z 004e6f20 f i officer.obj
 0001:000e5fa0       ??_EOfficer@@UAEPAXI@Z     004e6fa0 f i officer.obj
 0001:000e5fa0       ??_GOfficer@@UAEPAXI@Z     004e6fa0 f i officer.obj
 0001:000e5fc0       ?RenderFlag@Officer@@QAEXN@Z 004e6fc0 f   officer.obj
 0001:000e65b0       ?RenderPixelEffect@Officer@@UAE_NN@Z 004e75b0 f   officer.obj
 0001:000e65e0       ?GetFormationPosition@Officer@@QAE?AVVector3@@H@Z 004e75e0 f   officer.obj
 0001:000e6660       ?AdvanceToWaypoint@Officer@@IAE_NXZ 004e7660 f   officer.obj
 0001:000e66f0       ?AdvanceGivingOrders@Officer@@IAE_NXZ 004e76f0 f   officer.obj
 0001:000e6960       ?SetWaypoint@Officer@@QAEXABVVector3@@@Z 004e7960 f   officer.obj
 0001:000e6b40       ?ListSoundEvents@Officer@@UAEXPAV?$LList@PAD@@@Z 004e7b40 f   officer.obj
 0001:000e6bc0       ?IsThereATeleportClose@Officer@@QAE_NABVVector3@@@Z 004e7bc0 f   officer.obj
 0001:000e6cb0       ?IsFormationToggle@Officer@@QAE_NABVVector3@@@Z 004e7cb0 f   officer.obj
 0001:000e6d50       ?FollowRoute@MultiwiniaOfficerOrders@@QAEXXZ 004e7d50 f   officer.obj
 0001:000e6e40       ?Render@Officer@@UAEXN@Z   004e7e40 f   officer.obj
 0001:000e6eb0       ?Advance@Officer@@UAE_NPAVUnit@@@Z 004e7eb0 f   officer.obj
 0001:000e76d0       ?SetOrders@Officer@@QAEXABVVector3@@_N@Z 004e86d0 f   officer.obj
 0001:000e7d60       ?Advance@MultiwiniaOfficerOrders@@UAE_NXZ 004e8d60 f   officer.obj
 0001:000e8120       ?RunAI@Officer@@UAEXPAVAI@@@Z 004e9120 f   officer.obj
 0001:000e8850       ??0Shaman@@QAE@XZ          004e9850 f   shaman.obj
 0001:000e8960       ??1Shaman@@UAE@XZ          004e9960 f   shaman.obj
 0001:000e8a00       ?Begin@Shaman@@UAEXXZ      004e9a00 f   shaman.obj
 0001:000e8a60       ?Advance@Shaman@@UAE_NPAVUnit@@@Z 004e9a60 f   shaman.obj
 0001:000e8a70       ?ChangeHealth@Shaman@@UAE_NHH@Z 004e9a70 f   shaman.obj
 0001:000e8b60       ?GetSummonType@Shaman@@QAEHXZ 004e9b60 f   shaman.obj
 0001:000e8b70       ?CallingDarwinians@Shaman@@QAE_NXZ 004e9b70 f   shaman.obj
 0001:000e8b90       ?ChangeMode@Shaman@@QAEXVVector3@@@Z 004e9b90 f   shaman.obj
 0001:000e8c30       ?EarnedAchievement@App@@QAE_NH@Z 004e9c30 f   app.obj
 0001:000e8c30       ?PerformDepthSort@Building@@UAE_NAAVVector3@@@Z 004e9c30 f   building.obj
 0001:000e8c30       ?CanSummonEntity@Shaman@@QAE_NH@Z 004e9c30 f   shaman.obj
 0001:000e8c30       ?SpecialScroll@DarwiniaButton@@UAE_NH@Z 004e9c30 f   darwinia_window.obj
 0001:000e8c40       ?IsSummonable@Shaman@@SA_NH@Z 004e9c40 f   shaman.obj
 0001:000e8c80       ??_GShaman@@UAEPAXI@Z      004e9c80 f i shaman.obj
 0001:000e8c80       ??_EShaman@@UAEPAXI@Z      004e9c80 f i shaman.obj
 0001:000e8ca0       ?GetNearestPortal@Shaman@@QAEHXZ 004e9ca0 f   shaman.obj
 0001:000e8d70       ?CanCapturePortal@Shaman@@QAE_NXZ 004e9d70 f   shaman.obj
 0001:000e8eb0       ?SetWaypoint@Shaman@@QAEXABVVector3@@@Z 004e9eb0 f   shaman.obj
 0001:000e9020       ?GetTargetArea@Shaman@@QAEPAV?$LList@UShamanTargetArea@@@@XZ 004ea020 f   shaman.obj
 0001:000e9100       ?ValidTeleportPos@Shaman@@QAE_NVVector3@@@Z 004ea100 f   shaman.obj
 0001:000e91a0       ?RenderTeleportTargets@Shaman@@QAEXXZ 004ea1a0 f   shaman.obj
 0001:000e9370       ?TeleportToPos@Shaman@@QAEXVVector3@@@Z 004ea370 f   shaman.obj
 0001:000e9490       ?Render@Shaman@@UAEXN@Z    004ea490 f   shaman.obj
 0001:000e99b0       ?RenderSpirit@SoulDestroyer@@IAEXABVVector3@@N@Z 004ea9b0 f   souldestroyer.obj
 0001:000e9e00       ?SetWaypoint@DropShip@@UAEXVVector3@@@Z 004eae00 f   dropship.obj
 0001:000e9e00       ?SetWaypoint@SoulDestroyer@@UAEXVVector3@@@Z 004eae00 f   souldestroyer.obj
 0001:000e9e30       ??0Zombie@@QAE@XZ          004eae30 f   souldestroyer.obj
 0001:000e9f20       ?Advance@Zombie@@UAE_NXZ   004eaf20 f   souldestroyer.obj
 0001:000ea130       ??A?$DArray@N@@QAEAANH@Z   004eb130 f i souldestroyer.obj
 0001:000ea1a0       ?Panic@SoulDestroyer@@IAEXN@Z 004eb1a0 f   souldestroyer.obj
 0001:000ea200       ?SearchForRetreatPosition@SoulDestroyer@@IAE_NXZ 004eb200 f   souldestroyer.obj
 0001:000ea370       ??_EControllerGrenade@@UAEPAXI@Z 004eb370 f i weapons.obj
 0001:000ea370       ??_ERandomiser@@UAEPAXI@Z  004eb370 f i randomiser.obj
 0001:000ea370       ??_ERocket@@UAEPAXI@Z      004eb370 f i weapons.obj
 0001:000ea370       ??_EUnprocessedSpirit@@UAEPAXI@Z 004eb370 f i spiritreceiver.obj
 0001:000ea370       ??_GTurretShell@@UAEPAXI@Z 004eb370 f i weapons.obj
 0001:000ea370       ??_EGrenade@@UAEPAXI@Z     004eb370 f i weapons.obj
 0001:000ea370       ??_GOfficerOrderTrail@@UAEPAXI@Z 004eb370 f i officer.obj
 0001:000ea370       ??_GMultiwiniaOfficerOrders@@UAEPAXI@Z 004eb370 f i officer.obj
 0001:000ea370       ??_GSnow@@UAEPAXI@Z        004eb370 f i snow.obj
 0001:000ea370       ??_GDustBall@@UAEPAXI@Z    004eb370 f i dustball.obj
 0001:000ea370       ??_ELightning@@UAEPAXI@Z   004eb370 f i lightning.obj
 0001:000ea370       ??_EOfficerOrders@@UAEPAXI@Z 004eb370 f i officer.obj
 0001:000ea370       ??_GLightning@@UAEPAXI@Z   004eb370 f i lightning.obj
 0001:000ea370       ??_ESnow@@UAEPAXI@Z        004eb370 f i snow.obj
 0001:000ea370       ??_EOfficerOrderTrail@@UAEPAXI@Z 004eb370 f i officer.obj
 0001:000ea370       ??_GRocket@@UAEPAXI@Z      004eb370 f i weapons.obj
 0001:000ea370       ??_GShockwave@@UAEPAXI@Z   004eb370 f i weapons.obj
 0001:000ea370       ??_EShockwave@@UAEPAXI@Z   004eb370 f i weapons.obj
 0001:000ea370       ??_GControllerGrenade@@UAEPAXI@Z 004eb370 f i weapons.obj
 0001:000ea370       ??_ETurretEmptyShell@@UAEPAXI@Z 004eb370 f i weapons.obj
 0001:000ea370       ??_ETurretShell@@UAEPAXI@Z 004eb370 f i weapons.obj
 0001:000ea370       ??_GMuzzleFlash@@UAEPAXI@Z 004eb370 f i weapons.obj
 0001:000ea370       ??_GBoxKite@@UAEPAXI@Z     004eb370 f i darwinian.obj
 0001:000ea370       ??_GTurretEmptyShell@@UAEPAXI@Z 004eb370 f i weapons.obj
 0001:000ea370       ??_GGunTurretTarget@@UAEPAXI@Z 004eb370 f i gunturret.obj
 0001:000ea370       ??_EAirStrikeMarker@@UAEPAXI@Z 004eb370 f i weapons.obj
 0001:000ea370       ??_EThrowableWeapon@@UAEPAXI@Z 004eb370 f i weapons.obj
 0001:000ea370       ??_EBoxKite@@UAEPAXI@Z     004eb370 f i darwinian.obj
 0001:000ea370       ??_EMuzzleFlash@@UAEPAXI@Z 004eb370 f i weapons.obj
 0001:000ea370       ??_GOfficerOrders@@UAEPAXI@Z 004eb370 f i officer.obj
 0001:000ea370       ??_EDustBall@@UAEPAXI@Z    004eb370 f i dustball.obj
 0001:000ea370       ??_GRandomiser@@UAEPAXI@Z  004eb370 f i randomiser.obj
 0001:000ea370       ??_EFlameGrenade@@UAEPAXI@Z 004eb370 f i weapons.obj
 0001:000ea370       ??_EZombie@@UAEPAXI@Z      004eb370 f i souldestroyer.obj
 0001:000ea370       ??_GZombie@@UAEPAXI@Z      004eb370 f i souldestroyer.obj
 0001:000ea370       ??_GUnprocessedSpirit@@UAEPAXI@Z 004eb370 f i spiritreceiver.obj
 0001:000ea370       ??_GThrowableWeapon@@UAEPAXI@Z 004eb370 f i weapons.obj
 0001:000ea370       ??_EGunTurretTarget@@UAEPAXI@Z 004eb370 f i gunturret.obj
 0001:000ea370       ??_GGrenade@@UAEPAXI@Z     004eb370 f i weapons.obj
 0001:000ea370       ??_GFlameGrenade@@UAEPAXI@Z 004eb370 f i weapons.obj
 0001:000ea370       ??_EMultiwiniaOfficerOrders@@UAEPAXI@Z 004eb370 f i officer.obj
 0001:000ea370       ??_GAirStrikeMarker@@UAEPAXI@Z 004eb370 f i weapons.obj
 0001:000ea390       ?Render@Zombie@@UAEXN@Z    004eb390 f   souldestroyer.obj
 0001:000ea8a0       ?PutData@?$FastDArray@N@@QAEXABNH@Z 004eb8a0 f i souldestroyer.obj
 0001:000ea900       ?SetSize@?$FastDArray@N@@QAEXH@Z 004eb900 f i souldestroyer.obj
 0001:000eac00       ?Begin@SoulDestroyer@@UAEXXZ 004ebc00 f   souldestroyer.obj
 0001:000eaef0       ?SearchForTargetEnemy@SoulDestroyer@@IAE_NXZ 004ebef0 f   souldestroyer.obj
 0001:000eafe0       ?SearchForRandomPosition@SoulDestroyer@@IAE_NXZ 004ebfe0 f   souldestroyer.obj
 0001:000eb1d0       ?AdvanceToTargetPosition@SoulDestroyer@@IAE_NXZ 004ec1d0 f   souldestroyer.obj
 0001:000eb630       ??0SoulDestroyer@@QAE@XZ   004ec630 f   souldestroyer.obj
 0001:000eb7c0       ??1SoulDestroyer@@UAE@XZ   004ec7c0 f   souldestroyer.obj
 0001:000eb820       ?ChangeHealth@SoulDestroyer@@UAE_NHH@Z 004ec820 f   souldestroyer.obj
 0001:000ebc10       ?RecordHistoryPosition@SoulDestroyer@@IAEXXZ 004ecc10 f   souldestroyer.obj
 0001:000ebd00       ?ListSoundEvents@SoulDestroyer@@UAEXPAV?$LList@PAD@@@Z 004ecd00 f   souldestroyer.obj
 0001:000ebd40       ?RenderShapes@SoulDestroyer@@IAEXN@Z 004ecd40 f   souldestroyer.obj
 0001:000ec190       ?RenderShapesForPixelEffect@SoulDestroyer@@IAEXN@Z 004ed190 f   souldestroyer.obj
 0001:000ec570       ?Render@SoulDestroyer@@UAEXN@Z 004ed570 f   souldestroyer.obj
 0001:000ec9c0       ?RenderPixelEffect@SoulDestroyer@@MAE_NN@Z 004ed9c0 f   souldestroyer.obj
 0001:000eca10       ?PutData@?$FastDArray@N@@QAEHABN@Z 004eda10 f i souldestroyer.obj
 0001:000ecad0       ??_GSoulDestroyer@@UAEPAXI@Z 004edad0 f i souldestroyer.obj
 0001:000ecad0       ??_ESoulDestroyer@@UAEPAXI@Z 004edad0 f i souldestroyer.obj
 0001:000ecaf0       ?Advance@SoulDestroyer@@UAE_NPAVUnit@@@Z 004edaf0 f   souldestroyer.obj
 0001:000eccd0       ?Attack@SoulDestroyer@@UAEXABVVector3@@@Z 004edcd0 f   souldestroyer.obj
 0001:000ed160       ??0SpaceShip@@QAE@XZ       004ee160 f   spaceship.obj
 0001:000ed220       ?Begin@SpaceShip@@UAEXXZ   004ee220 f   spaceship.obj
 0001:000ed250       ?IncreaseAbductees@SpaceShip@@QAEXXZ 004ee250 f   spaceship.obj
 0001:000ed260       ?AdvanceEngines@SpaceShip@@IAEXXZ 004ee260 f   spaceship.obj
 0001:000ed570       ?AdvanceAbducting@SpaceShip@@IAEX_N@Z 004ee570 f   spaceship.obj
 0001:000ed7c0       ?AdvanceDropping@SpaceShip@@IAEXXZ 004ee7c0 f   spaceship.obj
 0001:000eda10       ?AdvanceToTargetPos@SpaceShip@@QAE_NXZ 004eea10 f   spaceship.obj
 0001:000edcf0       ?FindNewTarget@SpaceShip@@QAEXXZ 004eecf0 f   spaceship.obj
 0001:000ede10       ?RenderBeam@SpaceShip@@QAEXN@Z 004eee10 f   spaceship.obj
 0001:000ee150       ?Advance@SpaceShip@@UAE_NPAVUnit@@@Z 004ef150 f   spaceship.obj
 0001:000ee280       ?Render@SpaceShip@@UAEXN@Z 004ef280 f   spaceship.obj
 0001:000ee3f0       ?ListSoundEvents@SpaceShip@@UAEXPAV?$LList@PAD@@@Z 004ef3f0 f   spaceship.obj
 0001:000ee420       ??0Spider@@QAE@XZ          004ef420 f   spider.obj
 0001:000ee5a0       ?Begin@Spider@@UAEXXZ      004ef5a0 f   spider.obj
 0001:000ee7a0       ?CalcWhichFootToMove@Spider@@IAEHXZ 004ef7a0 f   spider.obj
 0001:000ee8a0       ?UpdateLegsPouncing@Spider@@IAEXXZ 004ef8a0 f   spider.obj
 0001:000ee8f0       ?UpdateLegs@Spider@@IAEXXZ 004ef8f0 f   spider.obj
 0001:000eeaa0       ?SearchForEnemies@Spider@@IAE_NXZ 004efaa0 f   spider.obj
 0001:000eeb60       ??_GSpider@@UAEPAXI@Z      004efb60 f i spider.obj
 0001:000eeb60       ??_ESpider@@UAEPAXI@Z      004efb60 f i spider.obj
 0001:000eebb0       ?ChangeHealth@Spider@@UAE_NHH@Z 004efbb0 f   spider.obj
 0001:000eeca0       ?FaceTarget@Spider@@IAE_NXZ 004efca0 f   spider.obj
 0001:000eedc0       ?IsPathOK@Spider@@IAENABVVector3@@@Z 004efdc0 f   spider.obj
 0001:000eeee0       ?DetectCollisions@Spider@@IAEXXZ 004efee0 f   spider.obj
 0001:000ef0e0       ?AdvanceToTarget@Spider@@IAE_NXZ 004f00e0 f   spider.obj
 0001:000ef220       ?AdvanceAttack@Spider@@IAE_NXZ 004f0220 f   spider.obj
 0001:000ef6d0       ?AdvancePouncing@Spider@@IAE_NXZ 004f06d0 f   spider.obj
 0001:000ef9e0       ?SearchForRandomPos@Spider@@IAE_NXZ 004f09e0 f   spider.obj
 0001:000efa80       ?SearchForSpirits@Spider@@IAE_NXZ 004f0a80 f   spider.obj
 0001:000efc70       ?AdvanceEggLaying@Spider@@IAE_NXZ 004f0c70 f   spider.obj
 0001:000efd70       ?Render@Spider@@UAEXN@Z    004f0d70 f   spider.obj
 0001:000f0040       ?RenderPixelEffect@Spider@@UAE_NN@Z 004f1040 f   spider.obj
 0001:000f01d0       ?AdvanceIdle@Spider@@IAE_NXZ 004f11d0 f   spider.obj
 0001:000f0240       ?Advance@Spider@@UAE_NPAVUnit@@@Z 004f1240 f   spider.obj
 0001:000f0320       ?ListSoundEvents@Spider@@UAEXPAV?$LList@PAD@@@Z 004f1320 f   spider.obj
 0001:000f0380       ??0SporeGenerator@@QAE@XZ  004f1380 f   sporegenerator.obj
 0001:000f0400       ?IsInView@Centipede@@UAE_NXZ 004f1400 f   centipede.obj
 0001:000f0400       ?IsInView@Spider@@UAE_NXZ  004f1400 f   spider.obj
 0001:000f0400       ?IsInView@SporeGenerator@@UAE_NXZ 004f1400 f   sporegenerator.obj
 0001:000f0460       ?ChangeHealth@SporeGenerator@@UAE_NHH@Z 004f1460 f   sporegenerator.obj
 0001:000f05c0       ?RenderTail@SporeGenerator@@IAEXABVVector3@@0N@Z 004f15c0 f   sporegenerator.obj
 0001:000f0790       ?Render@SporeGenerator@@UAEXN@Z 004f1790 f   sporegenerator.obj
 0001:000f0ef0       ?RenderPixelEffect@SporeGenerator@@UAE_NN@Z 004f1ef0 f   sporegenerator.obj
 0001:000f1480       ?Begin@SporeGenerator@@UAEXXZ 004f2480 f   sporegenerator.obj
 0001:000f15e0       ?SearchForRandomPos@SporeGenerator@@IAE_NXZ 004f25e0 f   sporegenerator.obj
 0001:000f1810       ?SearchForSpirits@SporeGenerator@@IAE_NXZ 004f2810 f   sporegenerator.obj
 0001:000f1a20       ?AdvanceToTargetPosition@SporeGenerator@@IAE_NXZ 004f2a20 f   sporegenerator.obj
 0001:000f1c70       ?AdvanceIdle@SporeGenerator@@IAE_NXZ 004f2c70 f   sporegenerator.obj
 0001:000f1cd0       ?AdvanceEggLaying@SporeGenerator@@IAE_NXZ 004f2cd0 f   sporegenerator.obj
 0001:000f1ed0       ?AdvancePanic@SporeGenerator@@IAE_NXZ 004f2ed0 f   sporegenerator.obj
 0001:000f1ff0       ?Advance@SporeGenerator@@UAE_NPAVUnit@@@Z 004f2ff0 f   sporegenerator.obj
 0001:000f2040       ?ListSoundEvents@SporeGenerator@@UAEXPAV?$LList@PAD@@@Z 004f3040 f   sporegenerator.obj
 0001:000f2070       ??0Tank@@QAE@XZ            004f3070 f   tank.obj
 0001:000f2170       ??1Tank@@UAE@XZ            004f3170 f   tank.obj
 0001:000f2200       ?ChangeHealth@Tank@@UAE_NHH@Z 004f3200 f   tank.obj
 0001:000f2490       ??_GTank@@UAEPAXI@Z        004f3490 f i tank.obj
 0001:000f2490       ??_ETank@@UAEPAXI@Z        004f3490 f i tank.obj
 0001:000f24b0       ?PrimaryFire@Tank@@QAEXXZ  004f34b0 f   tank.obj
 0001:000f2700       ?Advance@Tank@@UAE_NPAVUnit@@@Z 004f3700 f   tank.obj
 0001:000f2b50       ?SetWayPoint@Tank@@QAEXABVVector3@@@Z 004f3b50 f   tank.obj
 0001:000f2bb0       ?SetAttackTarget@Tank@@QAEXABVVector3@@@Z 004f3bb0 f   tank.obj
 0001:000f2c10       ?Render@Tank@@UAEXN@Z      004f3c10 f   tank.obj
 0001:000f3250       ?RunStandardAI@Tank@@QAEXPAVAI@@@Z 004f4250 f   tank.obj
 0001:000f3480       ?RunTankBattleAI@Tank@@QAEXPAVAI@@@Z 004f4480 f   tank.obj
 0001:000f3600       ?RunAI@Tank@@UAEXPAVAI@@@Z 004f4600 f   tank.obj
 0001:000f3620       ?ConvertShape@@YAXPAVShapeFragment@@VRGBAColour@@@Z 004f4620 f   tank.obj
 0001:000f36d0       ?Begin@Tank@@UAEXXZ        004f46d0 f   tank.obj
 0001:000f3a30       ?AdvanceSwipe@Tentacle@@IAE_NXZ 004f4a30 f   tentacle.obj
 0001:000f3b40       ?SetPortalId@Tentacle@@QAEXH@Z 004f4b40 f   tentacle.obj
 0001:000f3b50       ?Render@Tentacle@@UAEXN@Z  004f4b50 f   tentacle.obj
 0001:000f3e70       ?IsInView@Tentacle@@UAE_NXZ 004f4e70 f   tentacle.obj
 0001:000f3ed0       ?Begin@Tentacle@@UAEXXZ    004f4ed0 f   tentacle.obj
 0001:000f4220       ?AdvanceIdle@Tentacle@@IAE_NXZ 004f5220 f   tentacle.obj
 0001:000f44c0       ?AdvanceSlam@Tentacle@@IAE_NXZ 004f54c0 f   tentacle.obj
 0001:000f48b0       ?HandleGroundCollision@Tentacle@@IAEXXZ 004f58b0 f   tentacle.obj
 0001:000f4a90       ?Attack@Tentacle@@UAEXABVVector3@@@Z 004f5a90 f   tentacle.obj
 0001:000f4bf0       ?RenderPixelEffect@Tentacle@@UAE_NN@Z 004f5bf0 f   tentacle.obj
 0001:000f4dd0       ??0Tentacle@@QAE@XZ        004f5dd0 f   tentacle.obj
 0001:000f4f00       ?RecordHistoryRotation@Tentacle@@IAEXXZ 004f5f00 f   tentacle.obj
 0001:000f4f40       ?GetTrailPosition@Tentacle@@IAE_NAAVVector3@@0H@Z 004f5f40 f   tentacle.obj
 0001:000f4fc0       ??_ETentacle@@UAEPAXI@Z    004f5fc0 f i tentacle.obj
 0001:000f4fc0       ??_GTentacle@@UAEPAXI@Z    004f5fc0 f i tentacle.obj
 0001:000f4ff0       ?Advance@Tentacle@@UAE_NPAVUnit@@@Z 004f5ff0 f   tentacle.obj
 0001:000f5300       ?Begin@Tripod@@UAEXXZ      004f6300 f   tripod.obj
 0001:000f54a0       ?ChangeHealth@Tripod@@MAE_NHH@Z 004f64a0 f   tripod.obj
 0001:000f5520       ?CalcWhichFootToMove@Tripod@@IAEHXZ 004f6520 f   tripod.obj
 0001:000f55f0       ?CalcAttackUpVector@Tripod@@IAE?AVVector3@@XZ 004f65f0 f   tripod.obj
 0001:000f56b0       ?Render@Tripod@@UAEXN@Z    004f66b0 f   tripod.obj
 0001:000f5790       ??0TripodNavData@@QAE@XZ   004f6790 f   tripod.obj
 0001:000f5810       ??0Tripod@@QAE@XZ          004f6810 f   tripod.obj
 0001:000f5900       ??_GTripod@@UAEPAXI@Z      004f6900 f i tripod.obj
 0001:000f5900       ??_ETripod@@UAEPAXI@Z      004f6900 f i tripod.obj
 0001:000f5950       ?DoFallForTwoLegs@Tripod@@IAEXXZ 004f6950 f   tripod.obj
 0001:000f5cd0       ?AdvanceAttack@Tripod@@IAEXXZ 004f6cd0 f   tripod.obj
 0001:000f5fc0       ?FindEntityToAttack@Tripod@@IAE?AVWorldObjectId@@XZ 004f6fc0 f   tripod.obj
 0001:000f6130       ?ChooseDestination@Tripod@@IAE?AVVector2@@XZ 004f7130 f   tripod.obj
 0001:000f6280       ?DoNavigation@Tripod@@IAEXXZ 004f7280 f   tripod.obj
 0001:000f6490       ?AdvanceWalk@Tripod@@IAEXXZ 004f7490 f   tripod.obj
 0001:000f6680       ?AdvancePreAttack@Tripod@@IAEXXZ 004f7680 f   tripod.obj
 0001:000f6840       ?AdvancePostAttack@Tripod@@IAEXXZ 004f7840 f   tripod.obj
 0001:000f6990       ?Advance@Tripod@@UAE_NPAVUnit@@@Z 004f7990 f   tripod.obj
 0001:000f6c00       ??0ViriiUnit@@QAE@HHHABVVector3@@@Z 004f7c00 f   virii.obj
 0001:000f6c40       ?Advance@ViriiUnit@@UAE_NH@Z 004f7c40 f   virii.obj
 0001:000f6c90       ?Begin@Virii@@UAEXXZ       004f7c90 f   virii.obj
 0001:000f6cb0       ?SearchForEnemies@Virii@@IAE_NXZ 004f7cb0 f   virii.obj
 0001:000f6de0       ?AdvanceToTargetPos@Virii@@IAE_NABVVector3@@@Z 004f7de0 f   virii.obj
 0001:000f7080       ?AdvanceAttacking@Virii@@QAE_NXZ 004f8080 f   virii.obj
 0001:000f7240       ?AdvanceToSpirit@Virii@@QAE_NXZ 004f8240 f   virii.obj
 0001:000f7360       ?SearchForSpirits@Virii@@IAE_NXZ 004f8360 f   virii.obj
 0001:000f74d0       ?IsInView@Virii@@UAE_NXZ   004f84d0 f   virii.obj
 0001:000f75b0       ?Render@Virii@@QAEXNHH@Z   004f85b0 f   virii.obj
 0001:000f7e90       ?Render@ViriiUnit@@UAEXN@Z 004f8e90 f   virii.obj
 0001:000f81d0       ??0Virii@@QAE@XZ           004f91d0 f   virii.obj
 0001:000f82d0       ?RecordHistoryPosition@Virii@@IAEX_N@Z 004f92d0 f   virii.obj
 0001:000f8570       ?SearchForIdleDirection@Virii@@IAE_NXZ 004f9570 f   virii.obj
 0001:000f8880       ?ListSoundEvents@Virii@@UAEXPAV?$LList@PAD@@@Z 004f9880 f   virii.obj
 0001:000f88b0       ??_GVirii@@UAEPAXI@Z       004f98b0 f i virii.obj
 0001:000f88b0       ??_EVirii@@UAEPAXI@Z       004f98b0 f i virii.obj
 0001:000f8900       ?FindNearbyEgg@Virii@@IAE?AVWorldObjectId@@ABVVector3@@@Z 004f9900 f   virii.obj
 0001:000f8ab0       ?SearchForEggs@Virii@@IAE_NXZ 004f9ab0 f   virii.obj
 0001:000f8b40       ?AdvanceIdle@Virii@@QAE_NXZ 004f9b40 f   virii.obj
 0001:000f8c00       ?AdvanceToEgg@Virii@@QAE_NXZ 004f9c00 f   virii.obj
 0001:000f8d80       ?Advance@Virii@@UAE_NPAVUnit@@@Z 004f9d80 f   virii.obj
 0001:000f90a0       ?Read@CachedSample@@QAEXPAFII@Z 004fa0a0 f   sample_cache.obj
 0001:000f9150       ?Read@CachedSampleHandle@@QAEIPAFI@Z 004fa150 f   sample_cache.obj
 0001:000f9180       ?Clean@SubAllocator@@QAEXXZ 004fa180 f   unrar:unpack.obj
 0001:000f9180       ?Restart@CachedSampleHandle@@QAEXXZ 004fa180 f   sample_cache.obj
 0001:000f9190       ??$_Uninit_copy@PAU_List_position@?$_Hash@V?$_Hmap_traits@V?$basic_string@DU?$char_traits@D@std@@V?$allocator@D@2@@std@@PAVCachedSample@@V?$hash_compare@V?$basic_string@DU?$char_traits@D@std@@V?$allocator@D@2@@std@@U?$less@V?$basic_string@DU?$char_traits@D@std@@V?$allocator@D@2@@std@@@2@@stdext@@V?$allocator@U?$pair@$$CBV?$basic_string@DU?$char_traits@D@std@@V?$allocator@D@2@@std@@PAVCachedSample@@@std@@@2@$0A@@stdext@@@stdext@@PAU123@V?$allocator@U_List_position@?$_Hash@V?$_Hmap_traits@V?$basic_string@DU?$char_traits@D@std@@V?$allocator@D@2@@std@@PAVCachedSample@@V?$hash_compare@V?$basic_string@DU?$char_traits@D@std@@V?$allocator@D@2@@std@@U?$less@V?$basic_string@DU?$char_traits@D@std@@V?$allocator@D@2@@std@@@2@@stdext@@V?$allocator@U?$pair@$$CBV?$basic_string@DU?$char_traits@D@std@@V?$allocator@D@2@@std@@PAVCachedSample@@@std@@@2@$0A@@stdext@@@stdext@@@std@@@std@@YAPAU_List_position@?$_Hash@V?$_Hmap_traits@V?$basic_string@DU?$char_traits@D@std@@V?$allocator@D@2@@std@@PAVCachedSample@@V?$hash_compare@V?$basic_string@DU?$char_traits@D@std@@V?$allocator@D@2@@std@@U?$less@V?$basic_string@DU?$char_traits@D@std@@V?$allocator@D@2@@std@@@2@@stdext@@V?$allocator@U?$pair@$$CBV?$basic_string@DU?$char_traits@D@std@@V?$allocator@D@2@@std@@PAVCachedSample@@@std@@@2@$0A@@stdext@@@stdext@@PAU123@00AAV?$allocator@U_List_position@?$_Hash@V?$_Hmap_traits@V?$basic_string@DU?$char_traits@D@std@@V?$allocator@D@2@@std@@PAVCachedSample@@V?$hash_compare@V?$basic_string@DU?$char_traits@D@std@@V?$allocator@D@2@@std@@U?$less@V?$basic_string@DU?$char_traits@D@std@@V?$allocator@D@2@@std@@@2@@stdext@@V?$allocator@U?$pair@$$CBV?$basic_string@DU?$char_traits@D@std@@V?$allocator@D@2@@std@@PAVCachedSample@@@std@@@2@$0A@@stdext@@@stdext@@@0@U_Nonscalar_ptr_iterator_tag@0@U_Range_checked_iterator_tag@0@@Z 004fa190 f i sample_cache.obj
 0001:000f9190       ??$_Uninit_copy@PAU_List_position@?$_Hash@V?$_Hmap_traits@V?$basic_string@DU?$char_traits@D@std@@V?$allocator@D@2@@std@@PAUTextureInfo@Resource@@V?$hash_compare@V?$basic_string@DU?$char_traits@D@std@@V?$allocator@D@2@@std@@U?$less@V?$basic_string@DU?$char_traits@D@std@@V?$allocator@D@2@@std@@@2@@stdext@@V?$allocator@U?$pair@$$CBV?$basic_string@DU?$char_traits@D@std@@V?$allocator@D@2@@std@@PAUTextureInfo@Resource@@@std@@@2@$0A@@stdext@@@stdext@@PAU123@V?$allocator@U_List_position@?$_Hash@V?$_Hmap_traits@V?$basic_string@DU?$char_traits@D@std@@V?$allocator@D@2@@std@@PAUTextureInfo@Resource@@V?$hash_compare@V?$basic_string@DU?$char_traits@D@std@@V?$allocator@D@2@@std@@U?$less@V?$basic_string@DU?$char_traits@D@std@@V?$allocator@D@2@@std@@@2@@stdext@@V?$allocator@U?$pair@$$CBV?$basic_string@DU?$char_traits@D@std@@V?$allocator@D@2@@std@@PAUTextureInfo@Resource@@@std@@@2@$0A@@stdext@@@stdext@@@std@@@std@@YAPAU_List_position@?$_Hash@V?$_Hmap_traits@V?$basic_string@DU?$char_traits@D@std@@V?$allocator@D@2@@std@@PAUTextureInfo@Resource@@V?$hash_compare@V?$basic_string@DU?$char_traits@D@std@@V?$allocator@D@2@@std@@U?$less@V?$basic_string@DU?$char_traits@D@std@@V?$allocator@D@2@@std@@@2@@stdext@@V?$allocator@U?$pair@$$CBV?$basic_string@DU?$char_traits@D@std@@V?$allocator@D@2@@std@@PAUTextureInfo@Resource@@@std@@@2@$0A@@stdext@@@stdext@@PAU123@00AAV?$allocator@U_List_position@?$_Hash@V?$_Hmap_traits@V?$basic_string@DU?$char_traits@D@std@@V?$allocator@D@2@@std@@PAUTextureInfo@Resource@@V?$hash_compare@V?$basic_string@DU?$char_traits@D@std@@V?$allocator@D@2@@std@@U?$less@V?$basic_string@DU?$char_traits@D@std@@V?$allocator@D@2@@std@@@2@@stdext@@V?$allocator@U?$pair@$$CBV?$basic_string@DU?$char_traits@D@std@@V?$allocator@D@2@@std@@PAUTextureInfo@Resource@@@std@@@2@$0A@@stdext@@@stdext@@@0@U_Nonscalar_ptr_iterator_tag@0@U_Range_checked_iterator_tag@0@@Z 004fa190 f i resource.obj
 0001:000f91c0       ??1CachedSampleHandle@@QAE@XZ 004fa1c0 f   sample_cache.obj
 0001:000f9240       ?_Buynode@?$list@U?$pair@$$CBV?$basic_string@DU?$char_traits@D@std@@V?$allocator@D@2@@std@@PAUTextureInfo@Resource@@@std@@V?$allocator@U?$pair@$$CBV?$basic_string@DU?$char_traits@D@std@@V?$allocator@D@2@@std@@PAUTextureInfo@Resource@@@std@@@2@@std@@IAEPAU_Node@?$_List_nod@U?$pair@$$CBV?$basic_string@DU?$char_traits@D@std@@V?$allocator@D@2@@std@@PAUTextureInfo@Resource@@@std@@V?$allocator@U?$pair@$$CBV?$basic_string@DU?$char_traits@D@std@@V?$allocator@D@2@@std@@PAUTextureInfo@Resource@@@std@@@2@@2@XZ 004fa240 f i resource.obj
 0001:000f9240       ?_Buynode@?$list@U?$pair@$$CBV?$basic_string@DU?$char_traits@D@std@@V?$allocator@D@2@@std@@PAVCachedSample@@@std@@V?$allocator@U?$pair@$$CBV?$basic_string@DU?$char_traits@D@std@@V?$allocator@D@2@@std@@PAVCachedSample@@@std@@@2@@std@@IAEPAU_Node@?$_List_nod@U?$pair@$$CBV?$basic_string@DU?$char_traits@D@std@@V?$allocator@D@2@@std@@PAVCachedSample@@@std@@V?$allocator@U?$pair@$$CBV?$basic_string@DU?$char_traits@D@std@@V?$allocator@D@2@@std@@PAVCachedSample@@@std@@@2@@2@XZ 004fa240 f i sample_cache.obj
 0001:000f9260       ??$fill@PAU_List_position@?$_Hash@V?$_Hmap_traits@V?$basic_string@DU?$char_traits@D@std@@V?$allocator@D@2@@std@@PAUTextureInfo@Resource@@V?$hash_compare@V?$basic_string@DU?$char_traits@D@std@@V?$allocator@D@2@@std@@U?$less@V?$basic_string@DU?$char_traits@D@std@@V?$allocator@D@2@@std@@@2@@stdext@@V?$allocator@U?$pair@$$CBV?$basic_string@DU?$char_traits@D@std@@V?$allocator@D@2@@std@@PAUTextureInfo@Resource@@@std@@@2@$0A@@stdext@@@stdext@@U123@@std@@YAXPAU_List_position@?$_Hash@V?$_Hmap_traits@V?$basic_string@DU?$char_traits@D@std@@V?$allocator@D@2@@std@@PAUTextureInfo@Resource@@V?$hash_compare@V?$basic_string@DU?$char_traits@D@std@@V?$allocator@D@2@@std@@U?$less@V?$basic_string@DU?$char_traits@D@std@@V?$allocator@D@2@@std@@@2@@stdext@@V?$allocator@U?$pair@$$CBV?$basic_string@DU?$char_traits@D@std@@V?$allocator@D@2@@std@@PAUTextureInfo@Resource@@@std@@@2@$0A@@stdext@@@stdext@@0ABU123@@Z 004fa260 f i resource.obj
 0001:000f9260       ??$fill@PAU_List_position@?$_Hash@V?$_Hmap_traits@V?$basic_string@DU?$char_traits@D@std@@V?$allocator@D@2@@std@@PAVCachedSample@@V?$hash_compare@V?$basic_string@DU?$char_traits@D@std@@V?$allocator@D@2@@std@@U?$less@V?$basic_string@DU?$char_traits@D@std@@V?$allocator@D@2@@std@@@2@@stdext@@V?$allocator@U?$pair@$$CBV?$basic_string@DU?$char_traits@D@std@@V?$allocator@D@2@@std@@PAVCachedSample@@@std@@@2@$0A@@stdext@@@stdext@@U123@@std@@YAXPAU_List_position@?$_Hash@V?$_Hmap_traits@V?$basic_string@DU?$char_traits@D@std@@V?$allocator@D@2@@std@@PAVCachedSample@@V?$hash_compare@V?$basic_string@DU?$char_traits@D@std@@V?$allocator@D@2@@std@@U?$less@V?$basic_string@DU?$char_traits@D@std@@V?$allocator@D@2@@std@@@2@@stdext@@V?$allocator@U?$pair@$$CBV?$basic_string@DU?$char_traits@D@std@@V?$allocator@D@2@@std@@PAVCachedSample@@@std@@@2@$0A@@stdext@@@stdext@@0ABU123@@Z 004fa260 f i sample_cache.obj
 0001:000f9290       ??1CachedSample@@QAE@XZ    004fa290 f   sample_cache.obj
 0001:000f9340       ?lower_bound@?$_Hash@V?$_Hmap_traits@V?$basic_string@DU?$char_traits@D@std@@V?$allocator@D@2@@std@@PAUTextureInfo@Resource@@V?$hash_compare@V?$basic_string@DU?$char_traits@D@std@@V?$allocator@D@2@@std@@U?$less@V?$basic_string@DU?$char_traits@D@std@@V?$allocator@D@2@@std@@@2@@stdext@@V?$allocator@U?$pair@$$CBV?$basic_string@DU?$char_traits@D@std@@V?$allocator@D@2@@std@@PAUTextureInfo@Resource@@@std@@@2@$0A@@stdext@@@stdext@@QAE?AV?$_Iterator@$00@?$list@U?$pair@$$CBV?$basic_string@DU?$char_traits@D@std@@V?$allocator@D@2@@std@@PAUTextureInfo@Resource@@@std@@V?$allocator@U?$pair@$$CBV?$basic_string@DU?$char_traits@D@std@@V?$allocator@D@2@@std@@PAUTextureInfo@Resource@@@std@@@2@@std@@ABV?$basic_string@DU?$char_traits@D@std@@V?$allocator@D@2@@5@@Z 004fa340 f i resource.obj
 0001:000f9340       ?lower_bound@?$_Hash@V?$_Hmap_traits@V?$basic_string@DU?$char_traits@D@std@@V?$allocator@D@2@@std@@PAVCachedSample@@V?$hash_compare@V?$basic_string@DU?$char_traits@D@std@@V?$allocator@D@2@@std@@U?$less@V?$basic_string@DU?$char_traits@D@std@@V?$allocator@D@2@@std@@@2@@stdext@@V?$allocator@U?$pair@$$CBV?$basic_string@DU?$char_traits@D@std@@V?$allocator@D@2@@std@@PAVCachedSample@@@std@@@2@$0A@@stdext@@@stdext@@QAE?AV?$_Iterator@$00@?$list@U?$pair@$$CBV?$basic_string@DU?$char_traits@D@std@@V?$allocator@D@2@@std@@PAVCachedSample@@@std@@V?$allocator@U?$pair@$$CBV?$basic_string@DU?$char_traits@D@std@@V?$allocator@D@2@@std@@PAVCachedSample@@@std@@@2@@std@@ABV?$basic_string@DU?$char_traits@D@std@@V?$allocator@D@2@@5@@Z 004fa340 f i sample_cache.obj
 0001:000f94e0       ?erase@?$vector@U_List_position@?$_Hash@V?$_Hmap_traits@V?$basic_string@DU?$char_traits@D@std@@V?$allocator@D@2@@std@@PAVCachedSample@@V?$hash_compare@V?$basic_string@DU?$char_traits@D@std@@V?$allocator@D@2@@std@@U?$less@V?$basic_string@DU?$char_traits@D@std@@V?$allocator@D@2@@std@@@2@@stdext@@V?$allocator@U?$pair@$$CBV?$basic_string@DU?$char_traits@D@std@@V?$allocator@D@2@@std@@PAVCachedSample@@@std@@@2@$0A@@stdext@@@stdext@@V?$allocator@U_List_position@?$_Hash@V?$_Hmap_traits@V?$basic_string@DU?$char_traits@D@std@@V?$allocator@D@2@@std@@PAVCachedSample@@V?$hash_compare@V?$basic_string@DU?$char_traits@D@std@@V?$allocator@D@2@@std@@U?$less@V?$basic_string@DU?$char_traits@D@std@@V?$allocator@D@2@@std@@@2@@stdext@@V?$allocator@U?$pair@$$CBV?$basic_string@DU?$char_traits@D@std@@V?$allocator@D@2@@std@@PAVCachedSample@@@std@@@2@$0A@@stdext@@@stdext@@@std@@@std@@QAE?AV?$_Vector_iterator@U_List_position@?$_Hash@V?$_Hmap_traits@V?$basic_string@DU?$char_traits@D@std@@V?$allocator@D@2@@std@@PAVCachedSample@@V?$hash_compare@V?$basic_string@DU?$char_traits@D@std@@V?$allocator@D@2@@std@@U?$less@V?$basic_string@DU?$char_traits@D@std@@V?$allocator@D@2@@std@@@2@@stdext@@V?$allocator@U?$pair@$$CBV?$basic_string@DU?$char_traits@D@std@@V?$allocator@D@2@@std@@PAVCachedSample@@@std@@@2@$0A@@stdext@@@stdext@@V?$allocator@U_List_position@?$_Hash@V?$_Hmap_traits@V?$basic_string@DU?$char_traits@D@std@@V?$allocator@D@2@@std@@PAVCachedSample@@V?$hash_compare@V?$basic_string@DU?$char_traits@D@std@@V?$allocator@D@2@@std@@U?$less@V?$basic_string@DU?$char_traits@D@std@@V?$allocator@D@2@@std@@@2@@stdext@@V?$allocator@U?$pair@$$CBV?$basic_string@DU?$char_traits@D@std@@V?$allocator@D@2@@std@@PAVCachedSample@@@std@@@2@$0A@@stdext@@@stdext@@@std@@@2@V?$_Vector_const_iterator@U_List_position@?$_Hash@V?$_Hmap_traits@V?$basic_string@DU?$char_traits@D@std@@V?$allocator@D@2@@std@@PAVCachedSample@@V?$hash_compare@V?$basic_string@DU?$char_traits@D@std@@V?$allocator@D@2@@std@@U?$less@V?$basic_string@DU?$char_traits@D@std@@V?$allocator@D@2@@std@@@2@@stdext@@V?$allocator@U?$pair@$$CBV?$basic_string@DU?$char_traits@D@std@@V?$allocator@D@2@@std@@PAVCachedSample@@@std@@@2@$0A@@stdext@@@stdext@@V?$allocator@U_List_position@?$_Hash@V?$_Hmap_traits@V?$basic_string@DU?$char_traits@D@std@@V?$allocator@D@2@@std@@PAVCachedSample@@V?$hash_compare@V?$basic_string@DU?$char_traits@D@std@@V?$allocator@D@2@@std@@U?$less@V?$basic_string@DU?$char_traits@D@std@@V?$allocator@D@2@@std@@@2@@stdext@@V?$allocator@U?$pair@$$CBV?$basic_string@DU?$char_traits@D@std@@V?$allocator@D@2@@std@@PAVCachedSample@@@std@@@2@$0A@@stdext@@@stdext@@@std@@@2@0@Z 004fa4e0 f i sample_cache.obj
 0001:000f94e0       ?erase@?$vector@U_List_position@?$_Hash@V?$_Hmap_traits@V?$basic_string@DU?$char_traits@D@std@@V?$allocator@D@2@@std@@PAUTextureInfo@Resource@@V?$hash_compare@V?$basic_string@DU?$char_traits@D@std@@V?$allocator@D@2@@std@@U?$less@V?$basic_string@DU?$char_traits@D@std@@V?$allocator@D@2@@std@@@2@@stdext@@V?$allocator@U?$pair@$$CBV?$basic_string@DU?$char_traits@D@std@@V?$allocator@D@2@@std@@PAUTextureInfo@Resource@@@std@@@2@$0A@@stdext@@@stdext@@V?$allocator@U_List_position@?$_Hash@V?$_Hmap_traits@V?$basic_string@DU?$char_traits@D@std@@V?$allocator@D@2@@std@@PAUTextureInfo@Resource@@V?$hash_compare@V?$basic_string@DU?$char_traits@D@std@@V?$allocator@D@2@@std@@U?$less@V?$basic_string@DU?$char_traits@D@std@@V?$allocator@D@2@@std@@@2@@stdext@@V?$allocator@U?$pair@$$CBV?$basic_string@DU?$char_traits@D@std@@V?$allocator@D@2@@std@@PAUTextureInfo@Resource@@@std@@@2@$0A@@stdext@@@stdext@@@std@@@std@@QAE?AV?$_Vector_iterator@U_List_position@?$_Hash@V?$_Hmap_traits@V?$basic_string@DU?$char_traits@D@std@@V?$allocator@D@2@@std@@PAUTextureInfo@Resource@@V?$hash_compare@V?$basic_string@DU?$char_traits@D@std@@V?$allocator@D@2@@std@@U?$less@V?$basic_string@DU?$char_traits@D@std@@V?$allocator@D@2@@std@@@2@@stdext@@V?$allocator@U?$pair@$$CBV?$basic_string@DU?$char_traits@D@std@@V?$allocator@D@2@@std@@PAUTextureInfo@Resource@@@std@@@2@$0A@@stdext@@@stdext@@V?$allocator@U_List_position@?$_Hash@V?$_Hmap_traits@V?$basic_string@DU?$char_traits@D@std@@V?$allocator@D@2@@std@@PAUTextureInfo@Resource@@V?$hash_compare@V?$basic_string@DU?$char_traits@D@std@@V?$allocator@D@2@@std@@U?$less@V?$basic_string@DU?$char_traits@D@std@@V?$allocator@D@2@@std@@@2@@stdext@@V?$allocator@U?$pair@$$CBV?$basic_string@DU?$char_traits@D@std@@V?$allocator@D@2@@std@@PAUTextureInfo@Resource@@@std@@@2@$0A@@stdext@@@stdext@@@std@@@2@V?$_Vector_const_iterator@U_List_position@?$_Hash@V?$_Hmap_traits@V?$basic_string@DU?$char_traits@D@std@@V?$allocator@D@2@@std@@PAUTextureInfo@Resource@@V?$hash_compare@V?$basic_string@DU?$char_traits@D@std@@V?$allocator@D@2@@std@@U?$less@V?$basic_string@DU?$char_traits@D@std@@V?$allocator@D@2@@std@@@2@@stdext@@V?$allocator@U?$pair@$$CBV?$basic_string@DU?$char_traits@D@std@@V?$allocator@D@2@@std@@PAUTextureInfo@Resource@@@std@@@2@$0A@@stdext@@@stdext@@V?$allocator@U_List_position@?$_Hash@V?$_Hmap_traits@V?$basic_string@DU?$char_traits@D@std@@V?$allocator@D@2@@std@@PAUTextureInfo@Resource@@V?$hash_compare@V?$basic_string@DU?$char_traits@D@std@@V?$allocator@D@2@@std@@U?$less@V?$basic_string@DU?$char_traits@D@std@@V?$allocator@D@2@@std@@@2@@stdext@@V?$allocator@U?$pair@$$CBV?$basic_string@DU?$char_traits@D@std@@V?$allocator@D@2@@std@@PAUTextureInfo@Resource@@@std@@@2@$0A@@stdext@@@stdext@@@std@@@2@0@Z 004fa4e0 f i resource.obj
 0001:000f9580       ??$_Umove@PAU_List_position@?$_Hash@V?$_Hmap_traits@V?$basic_string@DU?$char_traits@D@std@@V?$allocator@D@2@@std@@PAUTextureInfo@Resource@@V?$hash_compare@V?$basic_string@DU?$char_traits@D@std@@V?$allocator@D@2@@std@@U?$less@V?$basic_string@DU?$char_traits@D@std@@V?$allocator@D@2@@std@@@2@@stdext@@V?$allocator@U?$pair@$$CBV?$basic_string@DU?$char_traits@D@std@@V?$allocator@D@2@@std@@PAUTextureInfo@Resource@@@std@@@2@$0A@@stdext@@@stdext@@@?$vector@U_List_position@?$_Hash@V?$_Hmap_traits@V?$basic_string@DU?$char_traits@D@std@@V?$allocator@D@2@@std@@PAUTextureInfo@Resource@@V?$hash_compare@V?$basic_string@DU?$char_traits@D@std@@V?$allocator@D@2@@std@@U?$less@V?$basic_string@DU?$char_traits@D@std@@V?$allocator@D@2@@std@@@2@@stdext@@V?$allocator@U?$pair@$$CBV?$basic_string@DU?$char_traits@D@std@@V?$allocator@D@2@@std@@PAUTextureInfo@Resource@@@std@@@2@$0A@@stdext@@@stdext@@V?$allocator@U_List_position@?$_Hash@V?$_Hmap_traits@V?$basic_string@DU?$char_traits@D@std@@V?$allocator@D@2@@std@@PAUTextureInfo@Resource@@V?$hash_compare@V?$basic_string@DU?$char_traits@D@std@@V?$allocator@D@2@@std@@U?$less@V?$basic_string@DU?$char_traits@D@std@@V?$allocator@D@2@@std@@@2@@stdext@@V?$allocator@U?$pair@$$CBV?$basic_string@DU?$char_traits@D@std@@V?$allocator@D@2@@std@@PAUTextureInfo@Resource@@@std@@@2@$0A@@stdext@@@stdext@@@std@@@std@@IAEPAU_List_position@?$_Hash@V?$_Hmap_traits@V?$basic_string@DU?$char_traits@D@std@@V?$allocator@D@2@@std@@PAUTextureInfo@Resource@@V?$hash_compare@V?$basic_string@DU?$char_traits@D@std@@V?$allocator@D@2@@std@@U?$less@V?$basic_string@DU?$char_traits@D@std@@V?$allocator@D@2@@std@@@2@@stdext@@V?$allocator@U?$pair@$$CBV?$basic_string@DU?$char_traits@D@std@@V?$allocator@D@2@@std@@PAUTextureInfo@Resource@@@std@@@2@$0A@@stdext@@@stdext@@PAU234@00@Z 004fa580 f i resource.obj
 0001:000f9580       ??$_Umove@PAU_List_position@?$_Hash@V?$_Hmap_traits@V?$basic_string@DU?$char_traits@D@std@@V?$allocator@D@2@@std@@PAVCachedSample@@V?$hash_compare@V?$basic_string@DU?$char_traits@D@std@@V?$allocator@D@2@@std@@U?$less@V?$basic_string@DU?$char_traits@D@std@@V?$allocator@D@2@@std@@@2@@stdext@@V?$allocator@U?$pair@$$CBV?$basic_string@DU?$char_traits@D@std@@V?$allocator@D@2@@std@@PAVCachedSample@@@std@@@2@$0A@@stdext@@@stdext@@@?$vector@U_List_position@?$_Hash@V?$_Hmap_traits@V?$basic_string@DU?$char_traits@D@std@@V?$allocator@D@2@@std@@PAVCachedSample@@V?$hash_compare@V?$basic_string@DU?$char_traits@D@std@@V?$allocator@D@2@@std@@U?$less@V?$basic_string@DU?$char_traits@D@std@@V?$allocator@D@2@@std@@@2@@stdext@@V?$allocator@U?$pair@$$CBV?$basic_string@DU?$char_traits@D@std@@V?$allocator@D@2@@std@@PAVCachedSample@@@std@@@2@$0A@@stdext@@@stdext@@V?$allocator@U_List_position@?$_Hash@V?$_Hmap_traits@V?$basic_string@DU?$char_traits@D@std@@V?$allocator@D@2@@std@@PAVCachedSample@@V?$hash_compare@V?$basic_string@DU?$char_traits@D@std@@V?$allocator@D@2@@std@@U?$less@V?$basic_string@DU?$char_traits@D@std@@V?$allocator@D@2@@std@@@2@@stdext@@V?$allocator@U?$pair@$$CBV?$basic_string@DU?$char_traits@D@std@@V?$allocator@D@2@@std@@PAVCachedSample@@@std@@@2@$0A@@stdext@@@stdext@@@std@@@std@@IAEPAU_List_position@?$_Hash@V?$_Hmap_traits@V?$basic_string@DU?$char_traits@D@std@@V?$allocator@D@2@@std@@PAVCachedSample@@V?$hash_compare@V?$basic_string@DU?$char_traits@D@std@@V?$allocator@D@2@@std@@U?$less@V?$basic_string@DU?$char_traits@D@std@@V?$allocator@D@2@@std@@@2@@stdext@@V?$allocator@U?$pair@$$CBV?$basic_string@DU?$char_traits@D@std@@V?$allocator@D@2@@std@@PAVCachedSample@@@std@@@2@$0A@@stdext@@@stdext@@PAU234@00@Z 004fa580 f i sample_cache.obj
 0001:000f95b0       ?PickSampleToEvict@CachedSampleManager@@IAE?AV?$_Iterator@$00@?$list@U?$pair@$$CBV?$basic_string@DU?$char_traits@D@std@@V?$allocator@D@2@@std@@PAVCachedSample@@@std@@V?$allocator@U?$pair@$$CBV?$basic_string@DU?$char_traits@D@std@@V?$allocator@D@2@@std@@PAVCachedSample@@@std@@@2@@std@@XZ 004fa5b0 f   sample_cache.obj
 0001:000f9660       ?GetMemoryUsage@CachedSampleManager@@QAEXAAI0@Z 004fa660 f   sample_cache.obj
 0001:000f9720       ??1?$vector@U_List_position@?$_Hash@V?$_Hmap_traits@V?$basic_string@DU?$char_traits@D@std@@V?$allocator@D@2@@std@@PAVCachedSample@@V?$hash_compare@V?$basic_string@DU?$char_traits@D@std@@V?$allocator@D@2@@std@@U?$less@V?$basic_string@DU?$char_traits@D@std@@V?$allocator@D@2@@std@@@2@@stdext@@V?$allocator@U?$pair@$$CBV?$basic_string@DU?$char_traits@D@std@@V?$allocator@D@2@@std@@PAVCachedSample@@@std@@@2@$0A@@stdext@@@stdext@@V?$allocator@U_List_position@?$_Hash@V?$_Hmap_traits@V?$basic_string@DU?$char_traits@D@std@@V?$allocator@D@2@@std@@PAVCachedSample@@V?$hash_compare@V?$basic_string@DU?$char_traits@D@std@@V?$allocator@D@2@@std@@U?$less@V?$basic_string@DU?$char_traits@D@std@@V?$allocator@D@2@@std@@@2@@stdext@@V?$allocator@U?$pair@$$CBV?$basic_string@DU?$char_traits@D@std@@V?$allocator@D@2@@std@@PAVCachedSample@@@std@@@2@$0A@@stdext@@@stdext@@@std@@@std@@QAE@XZ 004fa720 f i sample_cache.obj
 0001:000f9720       ??1?$vector@HV?$allocator@H@std@@@std@@QAE@XZ 004fa720 f i demo_limitations.obj
 0001:000f9720       ??1?$vector@VWorldObjectId@@V?$allocator@VWorldObjectId@@@std@@@std@@QAE@XZ 004fa720 f i lightning.obj
 0001:000f9720       ??1?$vector@PAVInputDriver@@V?$allocator@PAVInputDriver@@@std@@@std@@QAE@XZ 004fa720 f i input.obj
 0001:000f9720       ??1?$vector@PAV?$auto_vector@$$CBUInputSpec@@@@V?$allocator@PAV?$auto_vector@$$CBUInputSpec@@@@@std@@@std@@QAE@XZ 004fa720 f i inputdriver_chord.obj
 0001:000f9720       ??1?$vector@IV?$allocator@I@std@@@std@@QAE@XZ 004fa720 f i routing_system.obj
 0001:000f9720       ??1?$vector@PAV?$basic_string@DU?$char_traits@D@std@@V?$allocator@D@2@@std@@V?$allocator@PAV?$basic_string@DU?$char_traits@D@std@@V?$allocator@D@2@@std@@@2@@std@@QAE@XZ 004fa720 f i inputdriver_prefs.obj
 0001:000f9720       ??1?$vector@PBUInputSpec@@V?$allocator@PBUInputSpec@@@std@@@std@@QAE@XZ 004fa720 f i control_bindings.obj
 0001:000f9720       ??1?$vector@U_List_position@?$_Hash@V?$_Hmap_traits@V?$basic_string@DU?$char_traits@D@std@@V?$allocator@D@2@@std@@PAUTextureInfo@Resource@@V?$hash_compare@V?$basic_string@DU?$char_traits@D@std@@V?$allocator@D@2@@std@@U?$less@V?$basic_string@DU?$char_traits@D@std@@V?$allocator@D@2@@std@@@2@@stdext@@V?$allocator@U?$pair@$$CBV?$basic_string@DU?$char_traits@D@std@@V?$allocator@D@2@@std@@PAUTextureInfo@Resource@@@std@@@2@$0A@@stdext@@@stdext@@V?$allocator@U_List_position@?$_Hash@V?$_Hmap_traits@V?$basic_string@DU?$char_traits@D@std@@V?$allocator@D@2@@std@@PAUTextureInfo@Resource@@V?$hash_compare@V?$basic_string@DU?$char_traits@D@std@@V?$allocator@D@2@@std@@U?$less@V?$basic_string@DU?$char_traits@D@std@@V?$allocator@D@2@@std@@@2@@stdext@@V?$allocator@U?$pair@$$CBV?$basic_string@DU?$char_traits@D@std@@V?$allocator@D@2@@std@@PAUTextureInfo@Resource@@@std@@@2@$0A@@stdext@@@stdext@@@std@@@std@@QAE@XZ 004fa720 f i resource.obj
 0001:000f9760       ?_Incsize@?$list@U?$pair@$$CBV?$basic_string@DU?$char_traits@D@std@@V?$allocator@D@2@@std@@PAUTextureInfo@Resource@@@std@@V?$allocator@U?$pair@$$CBV?$basic_string@DU?$char_traits@D@std@@V?$allocator@D@2@@std@@PAUTextureInfo@Resource@@@std@@@2@@std@@IAEXI@Z 004fa760 f i resource.obj
 0001:000f9760       ?_Incsize@?$list@U?$pair@$$CBV?$basic_string@DU?$char_traits@D@std@@V?$allocator@D@2@@std@@PAVCachedSample@@@std@@V?$allocator@U?$pair@$$CBV?$basic_string@DU?$char_traits@D@std@@V?$allocator@D@2@@std@@PAVCachedSample@@@std@@@2@@std@@IAEXI@Z 004fa760 f i sample_cache.obj
 0001:000f9800       ??$_Construct@U?$pair@$$CBV?$basic_string@DU?$char_traits@D@std@@V?$allocator@D@2@@std@@PAUTextureInfo@Resource@@@std@@U12@@std@@YAXPAU?$pair@$$CBV?$basic_string@DU?$char_traits@D@std@@V?$allocator@D@2@@std@@PAUTextureInfo@Resource@@@0@ABU10@@Z 004fa800 f i resource.obj
 0001:000f9800       ??$_Construct@U?$pair@$$CBV?$basic_string@DU?$char_traits@D@std@@V?$allocator@D@2@@std@@PAVCachedSample@@@std@@U12@@std@@YAXPAU?$pair@$$CBV?$basic_string@DU?$char_traits@D@std@@V?$allocator@D@2@@std@@PAVCachedSample@@@0@ABU10@@Z 004fa800 f i sample_cache.obj
 0001:000f9870       ??0CachedSample@@QAE@PBD@Z 004fa870 f   sample_cache.obj
 0001:000f9a60       ?erase@?$list@U?$pair@$$CBV?$basic_string@DU?$char_traits@D@std@@V?$allocator@D@2@@std@@PAVCachedSample@@@std@@V?$allocator@U?$pair@$$CBV?$basic_string@DU?$char_traits@D@std@@V?$allocator@D@2@@std@@PAVCachedSample@@@std@@@2@@std@@QAE?AV?$_Iterator@$00@12@V?$_Const_iterator@$00@12@@Z 004faa60 f i sample_cache.obj
 0001:000f9a60       ?erase@?$list@U?$pair@$$CBV?$basic_string@DU?$char_traits@D@std@@V?$allocator@D@2@@std@@PAUTextureInfo@Resource@@@std@@V?$allocator@U?$pair@$$CBV?$basic_string@DU?$char_traits@D@std@@V?$allocator@D@2@@std@@PAUTextureInfo@Resource@@@std@@@2@@std@@QAE?AV?$_Iterator@$00@12@V?$_Const_iterator@$00@12@@Z 004faa60 f i resource.obj
 0001:000f9b00       ?erase@?$_Hash@V?$_Hmap_traits@V?$basic_string@DU?$char_traits@D@std@@V?$allocator@D@2@@std@@PAVCachedSample@@V?$hash_compare@V?$basic_string@DU?$char_traits@D@std@@V?$allocator@D@2@@std@@U?$less@V?$basic_string@DU?$char_traits@D@std@@V?$allocator@D@2@@std@@@2@@stdext@@V?$allocator@U?$pair@$$CBV?$basic_string@DU?$char_traits@D@std@@V?$allocator@D@2@@std@@PAVCachedSample@@@std@@@2@$0A@@stdext@@@stdext@@QAE?AV?$_Iterator@$00@?$list@U?$pair@$$CBV?$basic_string@DU?$char_traits@D@std@@V?$allocator@D@2@@std@@PAVCachedSample@@@std@@V?$allocator@U?$pair@$$CBV?$basic_string@DU?$char_traits@D@std@@V?$allocator@D@2@@std@@PAVCachedSample@@@std@@@2@@std@@V?$_Const_iterator@$00@45@@Z 004fab00 f i sample_cache.obj
 0001:000f9b00       ?erase@?$_Hash@V?$_Hmap_traits@V?$basic_string@DU?$char_traits@D@std@@V?$allocator@D@2@@std@@PAUTextureInfo@Resource@@V?$hash_compare@V?$basic_string@DU?$char_traits@D@std@@V?$allocator@D@2@@std@@U?$less@V?$basic_string@DU?$char_traits@D@std@@V?$allocator@D@2@@std@@@2@@stdext@@V?$allocator@U?$pair@$$CBV?$basic_string@DU?$char_traits@D@std@@V?$allocator@D@2@@std@@PAUTextureInfo@Resource@@@std@@@2@$0A@@stdext@@@stdext@@QAE?AV?$_Iterator@$00@?$list@U?$pair@$$CBV?$basic_string@DU?$char_traits@D@std@@V?$allocator@D@2@@std@@PAUTextureInfo@Resource@@@std@@V?$allocator@U?$pair@$$CBV?$basic_string@DU?$char_traits@D@std@@V?$allocator@D@2@@std@@PAUTextureInfo@Resource@@@std@@@2@@std@@V?$_Const_iterator@$00@45@@Z 004fab00 f i resource.obj
 0001:000f9c10       ??1?$list@U?$pair@$$CBV?$basic_string@DU?$char_traits@D@std@@V?$allocator@D@2@@std@@PAVCachedSample@@@std@@V?$allocator@U?$pair@$$CBV?$basic_string@DU?$char_traits@D@std@@V?$allocator@D@2@@std@@PAVCachedSample@@@std@@@2@@std@@QAE@XZ 004fac10 f i sample_cache.obj
 0001:000f9c10       ??1?$list@U?$pair@$$CBV?$basic_string@DU?$char_traits@D@std@@V?$allocator@D@2@@std@@PAUTextureInfo@Resource@@@std@@V?$allocator@U?$pair@$$CBV?$basic_string@DU?$char_traits@D@std@@V?$allocator@D@2@@std@@PAUTextureInfo@Resource@@@std@@@2@@std@@QAE@XZ 004fac10 f i resource.obj
 0001:000f9c10       ??1?$list@V?$basic_string@DU?$char_traits@D@std@@V?$allocator@D@2@@std@@V?$allocator@V?$basic_string@DU?$char_traits@D@std@@V?$allocator@D@2@@std@@@2@@std@@QAE@XZ 004fac10 f i app.obj
 0001:000f9c40       ??0?$vector@U_List_position@?$_Hash@V?$_Hmap_traits@V?$basic_string@DU?$char_traits@D@std@@V?$allocator@D@2@@std@@PAVCachedSample@@V?$hash_compare@V?$basic_string@DU?$char_traits@D@std@@V?$allocator@D@2@@std@@U?$less@V?$basic_string@DU?$char_traits@D@std@@V?$allocator@D@2@@std@@@2@@stdext@@V?$allocator@U?$pair@$$CBV?$basic_string@DU?$char_traits@D@std@@V?$allocator@D@2@@std@@PAVCachedSample@@@std@@@2@$0A@@stdext@@@stdext@@V?$allocator@U_List_position@?$_Hash@V?$_Hmap_traits@V?$basic_string@DU?$char_traits@D@std@@V?$allocator@D@2@@std@@PAVCachedSample@@V?$hash_compare@V?$basic_string@DU?$char_traits@D@std@@V?$allocator@D@2@@std@@U?$less@V?$basic_string@DU?$char_traits@D@std@@V?$allocator@D@2@@std@@@2@@stdext@@V?$allocator@U?$pair@$$CBV?$basic_string@DU?$char_traits@D@std@@V?$allocator@D@2@@std@@PAVCachedSample@@@std@@@2@$0A@@stdext@@@stdext@@@std@@@std@@QAE@ABV?$allocator@U_List_position@?$_Hash@V?$_Hmap_traits@V?$basic_string@DU?$char_traits@D@std@@V?$allocator@D@2@@std@@PAVCachedSample@@V?$hash_compare@V?$basic_string@DU?$char_traits@D@std@@V?$allocator@D@2@@std@@U?$less@V?$basic_string@DU?$char_traits@D@std@@V?$allocator@D@2@@std@@@2@@stdext@@V?$allocator@U?$pair@$$CBV?$basic_string@DU?$char_traits@D@std@@V?$allocator@D@2@@std@@PAVCachedSample@@@std@@@2@$0A@@stdext@@@stdext@@@1@@Z 004fac40 f i sample_cache.obj
 0001:000f9c40       ??0?$vector@U_List_position@?$_Hash@V?$_Hmap_traits@V?$basic_string@DU?$char_traits@D@std@@V?$allocator@D@2@@std@@PAUTextureInfo@Resource@@V?$hash_compare@V?$basic_string@DU?$char_traits@D@std@@V?$allocator@D@2@@std@@U?$less@V?$basic_string@DU?$char_traits@D@std@@V?$allocator@D@2@@std@@@2@@stdext@@V?$allocator@U?$pair@$$CBV?$basic_string@DU?$char_traits@D@std@@V?$allocator@D@2@@std@@PAUTextureInfo@Resource@@@std@@@2@$0A@@stdext@@@stdext@@V?$allocator@U_List_position@?$_Hash@V?$_Hmap_traits@V?$basic_string@DU?$char_traits@D@std@@V?$allocator@D@2@@std@@PAUTextureInfo@Resource@@V?$hash_compare@V?$basic_string@DU?$char_traits@D@std@@V?$allocator@D@2@@std@@U?$less@V?$basic_string@DU?$char_traits@D@std@@V?$allocator@D@2@@std@@@2@@stdext@@V?$allocator@U?$pair@$$CBV?$basic_string@DU?$char_traits@D@std@@V?$allocator@D@2@@std@@PAUTextureInfo@Resource@@@std@@@2@$0A@@stdext@@@stdext@@@std@@@std@@QAE@ABV?$allocator@U_List_position@?$_Hash@V?$_Hmap_traits@V?$basic_string@DU?$char_traits@D@std@@V?$allocator@D@2@@std@@PAUTextureInfo@Resource@@V?$hash_compare@V?$basic_string@DU?$char_traits@D@std@@V?$allocator@D@2@@std@@U?$less@V?$basic_string@DU?$char_traits@D@std@@V?$allocator@D@2@@std@@@2@@stdext@@V?$allocator@U?$pair@$$CBV?$basic_string@DU?$char_traits@D@std@@V?$allocator@D@2@@std@@PAUTextureInfo@Resource@@@std@@@2@$0A@@stdext@@@stdext@@@1@@Z 004fac40 f i resource.obj
 0001:000f9ca0       ?_Buynode@?$list@U?$pair@$$CBV?$basic_string@DU?$char_traits@D@std@@V?$allocator@D@2@@std@@PAVCachedSample@@@std@@V?$allocator@U?$pair@$$CBV?$basic_string@DU?$char_traits@D@std@@V?$allocator@D@2@@std@@PAVCachedSample@@@std@@@2@@std@@IAEPAU_Node@?$_List_nod@U?$pair@$$CBV?$basic_string@DU?$char_traits@D@std@@V?$allocator@D@2@@std@@PAVCachedSample@@@std@@V?$allocator@U?$pair@$$CBV?$basic_string@DU?$char_traits@D@std@@V?$allocator@D@2@@std@@PAVCachedSample@@@std@@@2@@2@PAU342@0ABU?$pair@$$CBV?$basic_string@DU?$char_traits@D@std@@V?$allocator@D@2@@std@@PAVCachedSample@@@2@@Z 004faca0 f i sample_cache.obj
 0001:000f9ca0       ?_Buynode@?$list@U?$pair@$$CBV?$basic_string@DU?$char_traits@D@std@@V?$allocator@D@2@@std@@PAUTextureInfo@Resource@@@std@@V?$allocator@U?$pair@$$CBV?$basic_string@DU?$char_traits@D@std@@V?$allocator@D@2@@std@@PAUTextureInfo@Resource@@@std@@@2@@std@@IAEPAU_Node@?$_List_nod@U?$pair@$$CBV?$basic_string@DU?$char_traits@D@std@@V?$allocator@D@2@@std@@PAUTextureInfo@Resource@@@std@@V?$allocator@U?$pair@$$CBV?$basic_string@DU?$char_traits@D@std@@V?$allocator@D@2@@std@@PAUTextureInfo@Resource@@@std@@@2@@2@PAU342@0ABU?$pair@$$CBV?$basic_string@DU?$char_traits@D@std@@V?$allocator@D@2@@std@@PAUTextureInfo@Resource@@@2@@Z 004faca0 f i resource.obj
 0001:000f9d40       ?CleanUp@CachedSampleManager@@QAEXXZ 004fad40 f   sample_cache.obj
 0001:000f9e60       ?insert@?$list@U?$pair@$$CBV?$basic_string@DU?$char_traits@D@std@@V?$allocator@D@2@@std@@PAVCachedSample@@@std@@V?$allocator@U?$pair@$$CBV?$basic_string@DU?$char_traits@D@std@@V?$allocator@D@2@@std@@PAVCachedSample@@@std@@@2@@std@@QAE?AV?$_Iterator@$00@12@V?$_Const_iterator@$00@12@ABU?$pair@$$CBV?$basic_string@DU?$char_traits@D@std@@V?$allocator@D@2@@std@@PAVCachedSample@@@2@@Z 004fae60 f i sample_cache.obj
 0001:000f9e60       ?insert@?$list@U?$pair@$$CBV?$basic_string@DU?$char_traits@D@std@@V?$allocator@D@2@@std@@PAUTextureInfo@Resource@@@std@@V?$allocator@U?$pair@$$CBV?$basic_string@DU?$char_traits@D@std@@V?$allocator@D@2@@std@@PAUTextureInfo@Resource@@@std@@@2@@std@@QAE?AV?$_Iterator@$00@12@V?$_Const_iterator@$00@12@ABU?$pair@$$CBV?$basic_string@DU?$char_traits@D@std@@V?$allocator@D@2@@std@@PAUTextureInfo@Resource@@@2@@Z 004fae60 f i resource.obj
 0001:000f9ef0       ?_Splice@?$list@U?$pair@$$CBV?$basic_string@DU?$char_traits@D@std@@V?$allocator@D@2@@std@@PAUTextureInfo@Resource@@@std@@V?$allocator@U?$pair@$$CBV?$basic_string@DU?$char_traits@D@std@@V?$allocator@D@2@@std@@PAUTextureInfo@Resource@@@std@@@2@@std@@QAEXV?$_Const_iterator@$00@12@AAV12@00I_N@Z 004faef0 f i resource.obj
 0001:000f9ef0       ?_Splice@?$list@U?$pair@$$CBV?$basic_string@DU?$char_traits@D@std@@V?$allocator@D@2@@std@@PAVCachedSample@@@std@@V?$allocator@U?$pair@$$CBV?$basic_string@DU?$char_traits@D@std@@V?$allocator@D@2@@std@@PAVCachedSample@@@std@@@2@@std@@QAEXV?$_Const_iterator@$00@12@AAV12@00I_N@Z 004faef0 f i sample_cache.obj
 0001:000f9f60       ?EmptyCache@CachedSampleManager@@QAEXXZ 004faf60 f   sample_cache.obj
 0001:000fa080       ?splice@?$list@U?$pair@$$CBV?$basic_string@DU?$char_traits@D@std@@V?$allocator@D@2@@std@@PAUTextureInfo@Resource@@@std@@V?$allocator@U?$pair@$$CBV?$basic_string@DU?$char_traits@D@std@@V?$allocator@D@2@@std@@PAUTextureInfo@Resource@@@std@@@2@@std@@QAEXV?$_Const_iterator@$00@12@AAV12@0@Z 004fb080 f i resource.obj
 0001:000fa080       ?splice@?$list@U?$pair@$$CBV?$basic_string@DU?$char_traits@D@std@@V?$allocator@D@2@@std@@PAVCachedSample@@@std@@V?$allocator@U?$pair@$$CBV?$basic_string@DU?$char_traits@D@std@@V?$allocator@D@2@@std@@PAVCachedSample@@@std@@@2@@std@@QAEXV?$_Const_iterator@$00@12@AAV12@0@Z 004fb080 f i sample_cache.obj
 0001:000fa140       ??0CachedSampleManager@@QAE@XZ 004fb140 f i sample_cache.obj
 0001:000fa1a0       ??1CachedSampleManager@@QAE@XZ 004fb1a0 f   sample_cache.obj
 0001:000fa200       ?_Insert@?$_Hash@V?$_Hmap_traits@V?$basic_string@DU?$char_traits@D@std@@V?$allocator@D@2@@std@@PAUTextureInfo@Resource@@V?$hash_compare@V?$basic_string@DU?$char_traits@D@std@@V?$allocator@D@2@@std@@U?$less@V?$basic_string@DU?$char_traits@D@std@@V?$allocator@D@2@@std@@@2@@stdext@@V?$allocator@U?$pair@$$CBV?$basic_string@DU?$char_traits@D@std@@V?$allocator@D@2@@std@@PAUTextureInfo@Resource@@@std@@@2@$0A@@stdext@@@stdext@@IAE?AU?$pair@V?$_Iterator@$00@?$list@U?$pair@$$CBV?$basic_string@DU?$char_traits@D@std@@V?$allocator@D@2@@std@@PAUTextureInfo@Resource@@@std@@V?$allocator@U?$pair@$$CBV?$basic_string@DU?$char_traits@D@std@@V?$allocator@D@2@@std@@PAUTextureInfo@Resource@@@std@@@2@@std@@_N@std@@ABU?$pair@$$CBV?$basic_string@DU?$char_traits@D@std@@V?$allocator@D@2@@std@@PAUTextureInfo@Resource@@@4@V?$_Iterator@$00@?$list@U?$pair@$$CBV?$basic_string@DU?$char_traits@D@std@@V?$allocator@D@2@@std@@PAUTextureInfo@Resource@@@std@@V?$allocator@U?$pair@$$CBV?$basic_string@DU?$char_traits@D@std@@V?$allocator@D@2@@std@@PAUTextureInfo@Resource@@@std@@@2@@4@@Z 004fb200 f i resource.obj
 0001:000fa200       ?_Insert@?$_Hash@V?$_Hmap_traits@V?$basic_string@DU?$char_traits@D@std@@V?$allocator@D@2@@std@@PAVCachedSample@@V?$hash_compare@V?$basic_string@DU?$char_traits@D@std@@V?$allocator@D@2@@std@@U?$less@V?$basic_string@DU?$char_traits@D@std@@V?$allocator@D@2@@std@@@2@@stdext@@V?$allocator@U?$pair@$$CBV?$basic_string@DU?$char_traits@D@std@@V?$allocator@D@2@@std@@PAVCachedSample@@@std@@@2@$0A@@stdext@@@stdext@@IAE?AU?$pair@V?$_Iterator@$00@?$list@U?$pair@$$CBV?$basic_string@DU?$char_traits@D@std@@V?$allocator@D@2@@std@@PAVCachedSample@@@std@@V?$allocator@U?$pair@$$CBV?$basic_string@DU?$char_traits@D@std@@V?$allocator@D@2@@std@@PAVCachedSample@@@std@@@2@@std@@_N@std@@ABU?$pair@$$CBV?$basic_string@DU?$char_traits@D@std@@V?$allocator@D@2@@std@@PAVCachedSample@@@4@V?$_Iterator@$00@?$list@U?$pair@$$CBV?$basic_string@DU?$char_traits@D@std@@V?$allocator@D@2@@std@@PAVCachedSample@@@std@@V?$allocator@U?$pair@$$CBV?$basic_string@DU?$char_traits@D@std@@V?$allocator@D@2@@std@@PAVCachedSample@@@std@@@2@@4@@Z 004fb200 f i sample_cache.obj
 0001:000fa590       ?_Reinsert@?$_Hash@V?$_Hmap_traits@V?$basic_string@DU?$char_traits@D@std@@V?$allocator@D@2@@std@@PAUTextureInfo@Resource@@V?$hash_compare@V?$basic_string@DU?$char_traits@D@std@@V?$allocator@D@2@@std@@U?$less@V?$basic_string@DU?$char_traits@D@std@@V?$allocator@D@2@@std@@@2@@stdext@@V?$allocator@U?$pair@$$CBV?$basic_string@DU?$char_traits@D@std@@V?$allocator@D@2@@std@@PAUTextureInfo@Resource@@@std@@@2@$0A@@stdext@@@stdext@@IAEXXZ 004fb590 f i resource.obj
 0001:000fa590       ?_Reinsert@?$_Hash@V?$_Hmap_traits@V?$basic_string@DU?$char_traits@D@std@@V?$allocator@D@2@@std@@PAVCachedSample@@V?$hash_compare@V?$basic_string@DU?$char_traits@D@std@@V?$allocator@D@2@@std@@U?$less@V?$basic_string@DU?$char_traits@D@std@@V?$allocator@D@2@@std@@@2@@stdext@@V?$allocator@U?$pair@$$CBV?$basic_string@DU?$char_traits@D@std@@V?$allocator@D@2@@std@@PAVCachedSample@@@std@@@2@$0A@@stdext@@@stdext@@IAEXXZ 004fb590 f i sample_cache.obj
 0001:000fa620       ??A?$hash_map@V?$basic_string@DU?$char_traits@D@std@@V?$allocator@D@2@@std@@PAUTextureInfo@Resource@@V?$hash_compare@V?$basic_string@DU?$char_traits@D@std@@V?$allocator@D@2@@std@@U?$less@V?$basic_string@DU?$char_traits@D@std@@V?$allocator@D@2@@std@@@2@@stdext@@V?$allocator@U?$pair@$$CBV?$basic_string@DU?$char_traits@D@std@@V?$allocator@D@2@@std@@PAUTextureInfo@Resource@@@std@@@2@@stdext@@QAEAAPAUTextureInfo@Resource@@ABV?$basic_string@DU?$char_traits@D@std@@V?$allocator@D@2@@std@@@Z 004fb620 f i resource.obj
 0001:000fa620       ??A?$hash_map@V?$basic_string@DU?$char_traits@D@std@@V?$allocator@D@2@@std@@PAVCachedSample@@V?$hash_compare@V?$basic_string@DU?$char_traits@D@std@@V?$allocator@D@2@@std@@U?$less@V?$basic_string@DU?$char_traits@D@std@@V?$allocator@D@2@@std@@@2@@stdext@@V?$allocator@U?$pair@$$CBV?$basic_string@DU?$char_traits@D@std@@V?$allocator@D@2@@std@@PAVCachedSample@@@std@@@2@@stdext@@QAEAAPAVCachedSample@@ABV?$basic_string@DU?$char_traits@D@std@@V?$allocator@D@2@@std@@@Z 004fb620 f i sample_cache.obj
 0001:000fa720       ?GetSample@CachedSampleManager@@QAEPAVCachedSampleHandle@@PBD@Z 004fb720 f   sample_cache.obj
 0001:000fa840       ??1DspEffect@@UAE@XZ       004fb840 f i sound_filter.obj
 0001:000fa850       ?CalcCoefs@DspResLowPass@@IAEXMMM@Z 004fb850 f   sound_filter.obj
 0001:000fa970       ?SetParameters@DspResLowPass@@UAEXPBM@Z 004fb970 f   sound_filter.obj
 0001:000fa9f0       ?Process@DspResLowPass@@UAEXPAFI@Z 004fb9f0 f   sound_filter.obj
 0001:000fab90       ??0DspBitCrusher@@QAE@H@Z  004fbb90 f   sound_filter.obj
 0001:000fabb0       ?SetParameters@DspBitCrusher@@UAEXPBM@Z 004fbbb0 f   sound_filter.obj
 0001:000fabc0       ?Process@DspBitCrusher@@UAEXPAFI@Z 004fbbc0 f   sound_filter.obj
 0001:000fac60       ??0DspGargle@@QAE@H@Z      004fbc60 f   sound_filter.obj
 0001:000fac90       ?ProcessTriangle@DspGargle@@IAEXPAFI@Z 004fbc90 f   sound_filter.obj
 0001:000fada0       ?ProcessSquare@DspGargle@@IAEXPAFI@Z 004fbda0 f   sound_filter.obj
 0001:000fae50       ?Process@DspGargle@@UAEXPAFI@Z 004fbe50 f   sound_filter.obj
 0001:000faeb0       ?SetParameters@DspGargle@@UAEXPBM@Z 004fbeb0 f   sound_filter.obj
 0001:000faed0       ??0DspEcho@@QAE@H@Z        004fbed0 f   sound_filter.obj
 0001:000fafa0       ?SetParameters@DspEcho@@UAEXPBM@Z 004fbfa0 f   sound_filter.obj
 0001:000fb010       ?Process@DspEcho@@UAEXPAFI@Z 004fc010 f   sound_filter.obj
 0001:000fb180       ??0DspReverb@@QAE@H@Z      004fc180 f   sound_filter.obj
 0001:000fb2c0       ?Process@DspReverb@@UAEXPAFI@Z 004fc2c0 f   sound_filter.obj
 0001:000fb3e0       ??0DspResLowPass@@QAE@H@Z  004fc3e0 f   sound_filter.obj
 0001:000fb470       ??_GDspResLowPass@@UAEPAXI@Z 004fc470 f i sound_filter.obj
 0001:000fb470       ??_GDspGargle@@UAEPAXI@Z   004fc470 f i sound_filter.obj
 0001:000fb470       ??_EDspEffect@@UAEPAXI@Z   004fc470 f i sound_filter.obj
 0001:000fb470       ??_EDspResLowPass@@UAEPAXI@Z 004fc470 f i sound_filter.obj
 0001:000fb470       ??_EDspBitCrusher@@UAEPAXI@Z 004fc470 f i sound_filter.obj
 0001:000fb470       ??_GDspBitCrusher@@UAEPAXI@Z 004fc470 f i sound_filter.obj
 0001:000fb470       ??_GDspEffect@@UAEPAXI@Z   004fc470 f i sound_filter.obj
 0001:000fb470       ??_EDspGargle@@UAEPAXI@Z   004fc470 f i sound_filter.obj
 0001:000fb490       ??_EDspEcho@@UAEPAXI@Z     004fc490 f i sound_filter.obj
 0001:000fb490       ??_GDspEcho@@UAEPAXI@Z     004fc490 f i sound_filter.obj
 0001:000fb4d0       ??_GDspReverb@@UAEPAXI@Z   004fc4d0 f i sound_filter.obj
 0001:000fb4d0       ??_EDspReverb@@UAEPAXI@Z   004fc4d0 f i sound_filter.obj
 0001:000fb510       ??0DspHandle@@QAE@XZ       004fc510 f   sound_instance.obj
 0001:000fb550       ??0SoundInstanceId@@QAE@XZ 004fc550 f   sound_instance.obj
 0001:000fb560       ?GenerateUniqueId@SoundInstanceId@@SAHXZ 004fc560 f   sound_instance.obj
 0001:000fb570       ??8SoundInstanceId@@QBE_NABV0@@Z 004fc570 f   sound_instance.obj
 0001:000fb590       ??4SoundInstanceId@@QAEABV0@ABV0@@Z 004fc590 f   sound_instance.obj
 0001:000fb5b0       ?SetSoundName@SoundInstance@@QAEXPBD@Z 004fc5b0 f   sound_instance.obj
 0001:000fb5d0       ?SetEventName@SoundInstance@@QAEXPBD0@Z 004fc5d0 f   sound_instance.obj
 0001:000fb6b0       ?BeginRelease@SoundInstance@@QAEX_N@Z 004fc6b0 f   sound_instance.obj
 0001:000fb760       ?GetFrequencyModifier@@YAMH@Z 004fc760 f   sound_instance.obj
 0001:000fb7f0       ?IsPlaying@SoundInstance@@QAE_NXZ 004fc7f0 f   sound_instance.obj
 0001:000fb840       ?CalculatePerceivedVolume@SoundInstance@@QAEXXZ 004fc840 f   sound_instance.obj
 0001:000fb940       ?UpdateParameter@SoundInstance@@QAE_NAAVSoundParameter@@@Z 004fc940 f   sound_instance.obj
 0001:000fbba0       ?StopPlaying@SoundInstance@@QAEXXZ 004fcba0 f   sound_instance.obj
 0001:000fbc40       ?Copy@DspHandle@@QAEXPAV1@@Z 004fcc40 f   sound_instance.obj
 0001:000fbca0       ?Advance@DspHandle@@QAEXXZ 004fcca0 f   sound_instance.obj
 0001:000fbd60       ??0SoundInstance@@QAE@XZ   004fcd60 f   sound_instance.obj
 0001:000fbf80       ??1SoundInstance@@QAE@XZ   004fcf80 f   sound_instance.obj
 0001:000fc030       ?Copy@SoundInstance@@QAEXPAV1@@Z 004fd030 f   sound_instance.obj
 0001:000fc2b0       ?PropagateBlueprints@SoundInstance@@QAEXXZ 004fd2b0 f   sound_instance.obj
 0001:000fc720       ?UpdateChannelVolume@SoundInstance@@QAE_NXZ 004fd720 f   sound_instance.obj
 0001:000fc9d0       ?GetAttachedObject@SoundInstance@@QAEPAVWorldObject@@XZ 004fd9d0 f   sound_instance.obj
 0001:000fcc20       ?OpenStream@SoundInstance@@QAEX_N@Z 004fdc20 f   sound_instance.obj
 0001:000fcd80       ?AdvanceLoop@SoundInstance@@QAE_NXZ 004fdd80 f   sound_instance.obj
 0001:000fcec0       ?Update3DPosition@SoundInstance@@QAE_NXZ 004fdec0 f   sound_instance.obj
 0001:000fd080       ?StartPlaying@SoundInstance@@QAE_NH@Z 004fe080 f   sound_instance.obj
 0001:000fd2d0       ?Advance@SoundInstance@@QAE_NXZ 004fe2d0 f   sound_instance.obj
 0001:000fd430       ??0SoundLibrary2d@@QAE@XZ  004fe430 f   sound_library_2d.obj
 0001:000fd440       ??1SoundLibrary2d@@UAE@XZ  004fe440 f   sound_library_2d.obj
 0001:000fd460       ?StartRecordToFile@SoundLibrary3dNoSound@@UAEXPBD@Z 004fe460 f   soundsystem.obj
 0001:000fd460       ?StartRecordToFile@SoundLibrary3d@@UAEXPBD@Z 004fe460 f   sound_library_3d.obj
 0001:000fd460       ?ResetChannel@SoundLibrary3dNoSound@@UAEXH@Z 004fe460 f   soundsystem.obj
 0001:000fd460       ?RunAI@Entity@@UAEXPAVAI@@@Z 004fe460 f   entity.obj
 0001:000fd460       ?SetBuildingLink@Building@@UAEXH@Z 004fe460 f   building.obj
 0001:000fd460       ?DirectControl@Unit@@UAEXABVTeamControls@@@Z 004fe460 f   unit.obj
 0001:000fd460       ?SetCallback@SoundLibrary2dNoSound@@UAEXP6AXPAVStereoSample@@I@Z@Z 004fe460 f   sound_library_2d.obj
 0001:000fd460       ?StartRecordToFile@SoundLibrary2dNoSound@@UAEXPBD@Z 004fe460 f   sound_library_2d.obj
 0001:000fd460       ?SetParameters@DspReverb@@UAEXPBM@Z 004fe460 f   sound_filter.obj
 0001:000fd460       ?imbue@?$basic_streambuf@GU?$char_traits@G@std@@@std@@MAEXABVlocale@2@@Z 004fe460 f   preferences.obj
 0001:000fd460       ?RunAI@Unit@@UAEXPAVAI@@@Z 004fe460 f   unit.obj
 0001:000fd460       ?DisableDspFX@SoundLibrary3dNoSound@@UAEXH@Z 004fe460 f   soundsystem.obj
 0001:000fd460       ?DirectControl@Entity@@UAEXABVTeamControls@@@Z 004fe460 f   entity.obj
 0001:000fd460       ?SummonEntity@Shaman@@QAEXH@Z 004fe460 f   shaman.obj
 0001:000fd460       ?imbue@?$basic_streambuf@DU?$char_traits@D@std@@@std@@MAEXABVlocale@2@@Z 004fe460 f   memory_leak.obj
 0001:000fd470       ??_GSoundLibrary2d@@UAEPAXI@Z 004fe470 f i sound_library_2d.obj
 0001:000fd470       ??_ESoundLibrary2d@@UAEPAXI@Z 004fe470 f i sound_library_2d.obj
 0001:000fd4a0       ??0StereoSample@@QAE@XZ    004fe4a0 f i sound_library_2d_win32.obj
 0001:000fd4b0       ??1SoundLib2dBuf@@QAE@XZ   004fe4b0 f   sound_library_2d_win32.obj
 0001:000fd4e0       ?WaveOutProc@@YGXPAUHWAVEOUT__@@IKKK@Z 004fe4e0 f   sound_library_2d_win32.obj
 0001:000fd510       ??1SoundLibrary2dWin32@@UAE@XZ 004fe510 f   sound_library_2d_win32.obj
 0001:000fd5c0       ?SetCallback@SoundLibrary2dWin32@@UAEXP6AXPAVStereoSample@@I@Z@Z 004fe5c0 f   sound_library_2d_win32.obj
 0001:000fd5d0       ?TopupBuffer@SoundLibrary2dWin32@@UAEXXZ 004fe5d0 f   sound_library_2d_win32.obj
 0001:000fd6f0       ?StartRecordToFile@SoundLibrary2dWin32@@UAEXPBD@Z 004fe6f0 f   sound_library_2d_win32.obj
 0001:000fd720       ?EndRecordToFile@SoundLibrary2dWin32@@UAEXXZ 004fe720 f   sound_library_2d_win32.obj
 0001:000fd740       ??0SoundLib2dBuf@@QAE@XZ   004fe740 f   sound_library_2d_win32.obj
 0001:000fd880       ??0SoundLibrary2dWin32@@QAE@XZ 004fe880 f   sound_library_2d_win32.obj
 0001:000fdaa0       ??_GSoundLibrary2dWin32@@UAEPAXI@Z 004feaa0 f i sound_library_2d_win32.obj
 0001:000fdaa0       ??_ESoundLibrary2dWin32@@UAEPAXI@Z 004feaa0 f i sound_library_2d_win32.obj
 0001:000fdac0       ??1SoundLibrary3d@@UAE@XZ  004feac0 f   sound_library_3d.obj
