 darwinia_d_gl

 Timestamp is 4bd1b01f (Fri Apr 23 15:35:11 2010)

 Preferred load address is 00400000

 Start         Length     Name                   Class
 0001:00000000 00200099H .textbss                DATA
 0002:00000000 004037f2H .text                   CODE
 0002:00403800 000173d9H .text$x                 CODE
 0002:0041abe0 00002587H .text$yc                CODE
 0002:0041d170 00001b8eH .text$yd                CODE
 0003:00000000 00000104H .CRT$XCA                DATA
 0003:00000104 00000160H .CRT$XCC                DATA
 0003:00000264 000001c9H .CRT$XCU                DATA
 0003:00000430 00000104H .CRT$XCZ                DATA
 0003:00000534 00000104H .CRT$XIA                DATA
 0003:00000638 0000011cH .CRT$XIC                DATA
 0003:00000754 00000104H .CRT$XID                DATA
 0003:00000858 00000104H .CRT$XIY                DATA
 0003:0000095c 00000104H .CRT$XIZ                DATA
 0003:00000a60 00000104H .CRT$XPA                DATA
 0003:00000b64 00000109H .CRT$XPX                DATA
 0003:00000c70 00000104H .CRT$XPXA               DATA
 0003:00000d74 00000104H .CRT$XPZ                DATA
 0003:00000e78 00000104H .CRT$XTA                DATA
 0003:00000f7c 00000104H .CRT$XTZ                DATA
 0003:00001080 000c4290H .rdata                  DATA
 0003:000c5310 0000016eH .rdata$debug            DATA
 0003:000c5480 00009353H .rdata$r                DATA
 0003:000ce7d4 00000104H .rtc$IAA                DATA
 0003:000ce8d8 000005a1H .rtc$IMZ                DATA
 0003:000cee7c 00000104H .rtc$IZZ                DATA
 0003:000cef80 00000104H .rtc$TAA                DATA
 0003:000cf084 000005a1H .rtc$TMZ                DATA
 0003:000cf628 00000104H .rtc$TZZ                DATA
 0003:000cf730 0001485eH .xdata$x                DATA
 0003:000e3f8e 00000000H .edata                  DATA
 0004:00000000 0001c043H .data                   DATA
 0004:0001c060 00014490H .bss                    DATA
 0005:00000000 00000118H .idata$2                DATA
 0005:00000118 00000014H .idata$3                DATA
 0005:0000012c 0000089cH .idata$4                DATA
 0005:000009c8 0000089cH .idata$5                DATA
 0005:00001264 00001958H .idata$6                DATA
 0006:00000000 00000020H .didat$2                DATA
 0006:00000020 00000020H .didat$3                DATA
 0006:00000040 00000030H .didat$4                DATA
 0006:00000070 00000030H .didat$5                DATA
 0006:000000a0 00000108H .didat$7                DATA
 0007:00000000 000004a8H .rsrc$01                DATA
 0007:000004b0 0004007cH .rsrc$02                DATA

  Address         Publics by Value              Rva+Base       Lib:Object

 0000:00000000       ___safe_se_handler_table   00000000     <absolute>
 0000:00000000       ___safe_se_handler_count   00000000     <absolute>
 0000:00000000       __except_list              00000000     <absolute>
 0000:00000000       ___ImageBase               00400000     <linker-defined>
 0001:00000000       __enc$textbss$begin        00401000     <linker-defined>
 0001:00200099       __enc$textbss$end          00601099     <linker-defined>
 0002:0001b250       ??_H@YGXPAXIHP6EPAX0@Z@Z   0061d250 f i buildings_window.obj
 0002:0001b2c0       ??0BuildingEditWindow@@QAE@PAD@Z 0061d2c0 f   buildings_window.obj
 0002:0001b330       ??_GBuildingEditWindow@@UAEPAXI@Z 0061d330 f i buildings_window.obj
 0002:0001b330       ??_EBuildingEditWindow@@UAEPAXI@Z 0061d330 f i buildings_window.obj
 0002:0001b3a0       ??1BuildingEditWindow@@UAE@XZ 0061d3a0 f   buildings_window.obj
 0002:0001b410       ?Create@BuildingEditWindow@@UAEXXZ 0061d410 f   buildings_window.obj
 0002:0001da90       ?GetUniqueId@WorldObjectId@@QBEHXZ 0061fa90 f i buildings_window.obj
 0002:0001dad0       ??0ToolButton@@QAE@H@Z     0061fad0 f i buildings_window.obj
 0002:0001db40       ?MouseUp@ToolButton@@UAEXXZ 0061fb40 f i buildings_window.obj
 0002:0001db90       ?Render@ToolButton@@UAEXHH_N0@Z 0061fb90 f i buildings_window.obj
 0002:0001dcf0       ??_GToolButton@@UAEPAXI@Z  0061fcf0 f i buildings_window.obj
 0002:0001dcf0       ??_EToolButton@@UAEPAXI@Z  0061fcf0 f i buildings_window.obj
 0002:0001dd60       ??1ToolButton@@UAE@XZ      0061fd60 f i buildings_window.obj
 0002:0001ddb0       ??1DarwiniaButton@@UAE@XZ  0061fdb0 f i buildings_window.obj
 0002:0001de00       ??0DeleteBuildingButton@@QAE@XZ 0061fe00 f i buildings_window.obj
 0002:0001de70       ?MouseUp@DeleteBuildingButton@@UAEXXZ 0061fe70 f i buildings_window.obj
 0002:0001df80       ??_EDeleteBuildingButton@@UAEPAXI@Z 0061ff80 f i buildings_window.obj
 0002:0001df80       ??_GDeleteBuildingButton@@UAEPAXI@Z 0061ff80 f i buildings_window.obj
 0002:0001dff0       ??1DeleteBuildingButton@@UAE@XZ 0061fff0 f i buildings_window.obj
 0002:0001e040       ??0TeamButton@@QAE@H@Z     00620040 f i buildings_window.obj
 0002:0001e0d0       ?MouseUp@TeamButton@@UAEXXZ 006200d0 f i buildings_window.obj
 0002:0001e160       ?SetTeamId@WorldObjectId@@QAEXE@Z 00620160 f i buildings_window.obj
 0002:0001e1b0       ?Render@TeamButton@@UAEXHH_N0@Z 006201b0 f i buildings_window.obj
 0002:0001e3e0       ?GetTeamId@WorldObjectId@@QBEEXZ 006203e0 f i buildings_window.obj
 0002:0001e420       ??_ETeamButton@@UAEPAXI@Z  00620420 f i buildings_window.obj
 0002:0001e420       ??_GTeamButton@@UAEPAXI@Z  00620420 f i buildings_window.obj
 0002:0001e490       ??1TeamButton@@UAE@XZ      00620490 f i buildings_window.obj
 0002:0001e4e0       ?MouseUp@ClearLinksButton@?FJ@??Create@BuildingEditWindow@@UAEXXZ@UAEXXZ 006204e0 f   buildings_window.obj
 0002:0001e550       ??0CloneBuildingButton@@QAE@XZ 00620550 f i buildings_window.obj
 0002:0001e5b0       ?MouseUp@CloneBuildingButton@@EAEXXZ 006205b0 f i buildings_window.obj
 0002:0001e840       ??0Vector3@@QAE@XZ         00620840 f i buildings_window.obj
 0002:0001e8a0       ??4Vector3@@QAEABV0@ABV0@@Z 006208a0 f i buildings_window.obj
 0002:0001e910       ?SetUniqueId@WorldObjectId@@QAEXH@Z 00620910 f i buildings_window.obj
 0002:0001e960       ??0ClearLinksButton@?FJ@??Create@BuildingEditWindow@@UAEXXZ@QAE@XZ 00620960 f i buildings_window.obj
 0002:0001e9c0       ??_GCloneBuildingButton@@UAEPAXI@Z 006209c0 f i buildings_window.obj
 0002:0001e9c0       ??_ECloneBuildingButton@@UAEPAXI@Z 006209c0 f i buildings_window.obj
 0002:0001ea30       ??_GClearLinksButton@?FJ@??Create@BuildingEditWindow@@UAEXXZ@UAEPAXI@Z 00620a30 f i buildings_window.obj
 0002:0001ea30       ??_EClearLinksButton@?FJ@??Create@BuildingEditWindow@@UAEXXZ@UAEPAXI@Z 00620a30 f i buildings_window.obj
 0002:0001eaa0       ??1CloneBuildingButton@@UAE@XZ 00620aa0 f i buildings_window.obj
 0002:0001eaf0       ??1ClearLinksButton@?FJ@??Create@BuildingEditWindow@@UAEXXZ@UAE@XZ 00620af0 f i buildings_window.obj
 0002:0001eb40       ?Render@BuildingEditWindow@@UAEX_N@Z 00620b40 f   buildings_window.obj
 0002:0001ed40       ??0BuildingsCreateWindow@@QAE@PAD@Z 00620d40 f   buildings_window.obj
 0002:0001edc0       ??_GBuildingsCreateWindow@@UAEPAXI@Z 00620dc0 f i buildings_window.obj
 0002:0001edc0       ??_EBuildingsCreateWindow@@UAEPAXI@Z 00620dc0 f i buildings_window.obj
 0002:0001ee30       ??1BuildingsCreateWindow@@UAE@XZ 00620e30 f   buildings_window.obj
 0002:0001ef10       ?Create@BuildingsCreateWindow@@UAEXXZ 00620f10 f   buildings_window.obj
 0002:0001f1b0       ??0NewBuildingButton@@QAE@XZ 006211b0 f i buildings_window.obj
 0002:0001f210       ?MouseUp@NewBuildingButton@@UAEXXZ 00621210 f i buildings_window.obj
 0002:0001f3f0       ??_GNewBuildingButton@@UAEPAXI@Z 006213f0 f i buildings_window.obj
 0002:0001f3f0       ??_ENewBuildingButton@@UAEPAXI@Z 006213f0 f i buildings_window.obj
 0002:0001f460       ??1NewBuildingButton@@UAE@XZ 00621460 f i buildings_window.obj
 0002:0001f4b0       ?allocate@?$_DebugHeapAllocator@D@std@@QAAPADIPBX@Z 006214b0 f i buildings_window.obj
 0002:0001f570       ??0bad_alloc@std@@QAE@PBD@Z 00621570 f i buildings_window.obj
 0002:0001f5e0       ??1bad_alloc@std@@UAE@XZ   006215e0 f i buildings_window.obj
 0002:0001f640       ??_Gbad_alloc@std@@UAEPAXI@Z 00621640 f i buildings_window.obj
 0002:0001f640       ??_Ebad_alloc@std@@UAEPAXI@Z 00621640 f i buildings_window.obj
 0002:0001f6b0       ?allocate@?$_DebugHeapAllocator@D@std@@QAEPADI@Z 006216b0 f i buildings_window.obj
 0002:0001f770       ?deallocate@?$_DebugHeapAllocator@D@std@@QAEXPADI@Z 00621770 f i buildings_window.obj
 0002:0001f7d0       ??0bad_alloc@std@@QAE@ABV01@@Z 006217d0 f i buildings_window.obj
 0002:0001f840       ??0?$_DebugHeapAllocator@D@std@@QAE@XZ 00621840 f i buildings_window.obj
 0002:0001f8a0       ??0?$allocator@D@std@@QAE@XZ 006218a0 f i buildings_window.obj
 0002:0001f8e0       ??0?$_DebugHeapAllocator@D@std@@QAE@ABV01@@Z 006218e0 f i buildings_window.obj
 0002:0001f940       ??0?$allocator@D@std@@QAE@ABV01@@Z 00621940 f i buildings_window.obj
 0002:0001f980       ??$_DebugHeapDelete@X@std@@YAXPAX@Z 00621980 f i buildings_window.obj
 0002:0001f9e0       ?PutData@?$LList@PAVBuilding@@@@QAEXABQAVBuilding@@@Z 006219e0 f i buildings_window.obj
 0002:0001fa40       ?PutDataAtEnd@?$LList@PAVBuilding@@@@QAEXABQAVBuilding@@@Z 00621a40 f i buildings_window.obj
 0002:0001fbd0       ??0?$LListItem@PAVBuilding@@@@QAE@XZ 00621bd0 f i buildings_window.obj
 0002:0001fc30       ??0BuyNowWindow@@QAE@XZ    00621c30 f   buynow_window.obj
 0002:0001fd80       ??_EBuyNowWindow@@UAEPAXI@Z 00621d80 f i buynow_window.obj
 0002:0001fd80       ??_GBuyNowWindow@@UAEPAXI@Z 00621d80 f i buynow_window.obj
 0002:0001fdf0       ??1BuyNowWindow@@UAE@XZ    00621df0 f i buynow_window.obj
 0002:0001fe40       ?Create@BuyNowWindow@@UAEXXZ 00621e40 f   buynow_window.obj
 0002:000200d0       ??0BuyNowButton@@QAE@XZ    006220d0 f i buynow_window.obj
 0002:00020130       ?MouseUp@BuyNowButton@@EAEXXZ 00622130 f i buynow_window.obj
 0002:000201a0       ??_GBuyNowButton@@UAEPAXI@Z 006221a0 f i buynow_window.obj
 0002:000201a0       ??_EBuyNowButton@@UAEPAXI@Z 006221a0 f i buynow_window.obj
 0002:00020210       ??1BuyNowButton@@UAE@XZ    00622210 f i buynow_window.obj
 0002:00020260       ?Render@BuyNowWindow@@UAEX_N@Z 00622260 f   buynow_window.obj
 0002:00020410       ??0CameraAnimMainEditWindow@@QAE@PAD@Z 00622410 f   camera_anim_window.obj
 0002:00020480       ??_GCameraAnimMainEditWindow@@UAEPAXI@Z 00622480 f i camera_anim_window.obj
 0002:00020480       ??_ECameraAnimMainEditWindow@@UAEPAXI@Z 00622480 f i camera_anim_window.obj
 0002:000204f0       ??1CameraAnimMainEditWindow@@UAE@XZ 006224f0 f   camera_anim_window.obj
 0002:000205f0       ?Create@CameraAnimMainEditWindow@@UAEXXZ 006225f0 f   camera_anim_window.obj
 0002:00020650       ?AddButtons@CameraAnimMainEditWindow@@QAEXXZ 00622650 f   camera_anim_window.obj
 0002:00020b90       ??0NewAnimButton@@QAE@XZ   00622b90 f i camera_anim_window.obj
 0002:00020bf0       ?MouseUp@NewAnimButton@@UAEXXZ 00622bf0 f i camera_anim_window.obj
 0002:00020d80       ??0CameraAnimation@@QAE@XZ 00622d80 f i camera_anim_window.obj
 0002:00020de0       ??0DeleteAnimButton@@QAE@XZ 00622de0 f i camera_anim_window.obj
 0002:00020e40       ?MouseUp@DeleteAnimButton@@UAEXXZ 00622e40 f i camera_anim_window.obj
 0002:00020f90       ??_GCameraAnimation@@QAEPAXI@Z 00622f90 f i camera_anim_window.obj
 0002:00021000       ??1CameraAnimation@@QAE@XZ 00623000 f i camera_anim_window.obj
 0002:000210a0       ??0SelectAnimButton@@QAE@XZ 006230a0 f i camera_anim_window.obj
 0002:00021100       ?MouseUp@SelectAnimButton@@UAEXXZ 00623100 f i camera_anim_window.obj
 0002:000211c0       ??_ENewAnimButton@@UAEPAXI@Z 006231c0 f i camera_anim_window.obj
 0002:000211c0       ??_GNewAnimButton@@UAEPAXI@Z 006231c0 f i camera_anim_window.obj
 0002:00021230       ??_EDeleteAnimButton@@UAEPAXI@Z 00623230 f i camera_anim_window.obj
 0002:00021230       ??_GDeleteAnimButton@@UAEPAXI@Z 00623230 f i camera_anim_window.obj
 0002:000212a0       ??_ESelectAnimButton@@UAEPAXI@Z 006232a0 f i camera_anim_window.obj
 0002:000212a0       ??_GSelectAnimButton@@UAEPAXI@Z 006232a0 f i camera_anim_window.obj
 0002:00021310       ??1NewAnimButton@@UAE@XZ   00623310 f i camera_anim_window.obj
 0002:00021360       ??1DeleteAnimButton@@UAE@XZ 00623360 f i camera_anim_window.obj
 0002:000213b0       ??1SelectAnimButton@@UAE@XZ 006233b0 f i camera_anim_window.obj
 0002:00021400       ?RemoveButtons@CameraAnimMainEditWindow@@QAEXXZ 00623400 f   camera_anim_window.obj
 0002:00021480       ??0CameraAnimSecondaryEditWindow@@QAE@PADH@Z 00623480 f   camera_anim_window.obj
 0002:000215a0       ??_GCameraAnimSecondaryEditWindow@@UAEPAXI@Z 006235a0 f i camera_anim_window.obj
 0002:000215a0       ??_ECameraAnimSecondaryEditWindow@@UAEPAXI@Z 006235a0 f i camera_anim_window.obj
 0002:00021610       ??1CameraAnimSecondaryEditWindow@@UAE@XZ 00623610 f   camera_anim_window.obj
 0002:00021680       ?Create@CameraAnimSecondaryEditWindow@@UAEXXZ 00623680 f   camera_anim_window.obj
 0002:000216e0       ?AddButtons@CameraAnimSecondaryEditWindow@@QAEXXZ 006236e0 f   camera_anim_window.obj
 0002:00021f80       ??0NewNodeButton@@QAE@XZ   00623f80 f i camera_anim_window.obj
 0002:00021fe0       ?MouseUp@NewNodeButton@@UAEXXZ 00623fe0 f i camera_anim_window.obj
 0002:00022050       ?Render@NewNodeButton@@UAEXHH_N0@Z 00624050 f i camera_anim_window.obj
 0002:00022110       ??0CamBeforeMountButton@@QAE@XZ 00624110 f i camera_anim_window.obj
 0002:00022170       ?MouseUp@CamBeforeMountButton@@UAEXXZ 00624170 f i camera_anim_window.obj
 0002:00022370       ??0CamAnimNode@@QAE@XZ     00624370 f i camera_anim_window.obj
 0002:000223d0       ??0StartPreviewButton@@QAE@XZ 006243d0 f i camera_anim_window.obj
 0002:00022430       ?MouseUp@StartPreviewButton@@UAEXXZ 00624430 f i camera_anim_window.obj
 0002:000224d0       ??0StopPreviewButton@@QAE@XZ 006244d0 f i camera_anim_window.obj
 0002:00022530       ?MouseUp@StopPreviewButton@@UAEXXZ 00624530 f i camera_anim_window.obj
 0002:00022590       ??0SelectMountButton@@QAE@XZ 00624590 f i camera_anim_window.obj
 0002:000225f0       ?Render@SelectMountButton@@UAEXHH_N0@Z 006245f0 f i camera_anim_window.obj
 0002:00022650       ??0DeleteNodeButton@@QAE@XZ 00624650 f i camera_anim_window.obj
 0002:000226b0       ?MouseUp@DeleteNodeButton@@UAEXXZ 006246b0 f i camera_anim_window.obj
 0002:000227c0       ??_ENewNodeButton@@UAEPAXI@Z 006247c0 f i camera_anim_window.obj
 0002:000227c0       ??_GNewNodeButton@@UAEPAXI@Z 006247c0 f i camera_anim_window.obj
 0002:00022830       ??_GCamBeforeMountButton@@UAEPAXI@Z 00624830 f i camera_anim_window.obj
 0002:00022830       ??_ECamBeforeMountButton@@UAEPAXI@Z 00624830 f i camera_anim_window.obj
 0002:000228a0       ??_GStartPreviewButton@@UAEPAXI@Z 006248a0 f i camera_anim_window.obj
 0002:000228a0       ??_EStartPreviewButton@@UAEPAXI@Z 006248a0 f i camera_anim_window.obj
 0002:00022910       ??_GStopPreviewButton@@UAEPAXI@Z 00624910 f i camera_anim_window.obj
 0002:00022910       ??_EStopPreviewButton@@UAEPAXI@Z 00624910 f i camera_anim_window.obj
 0002:00022980       ??_GSelectMountButton@@UAEPAXI@Z 00624980 f i camera_anim_window.obj
 0002:00022980       ??_ESelectMountButton@@UAEPAXI@Z 00624980 f i camera_anim_window.obj
 0002:000229f0       ??_EDeleteNodeButton@@UAEPAXI@Z 006249f0 f i camera_anim_window.obj
 0002:000229f0       ??_GDeleteNodeButton@@UAEPAXI@Z 006249f0 f i camera_anim_window.obj
 0002:00022a60       ??1NewNodeButton@@UAE@XZ   00624a60 f i camera_anim_window.obj
 0002:00022ab0       ??1CamBeforeMountButton@@UAE@XZ 00624ab0 f i camera_anim_window.obj
 0002:00022b00       ??1StartPreviewButton@@UAE@XZ 00624b00 f i camera_anim_window.obj
 0002:00022b50       ??1StopPreviewButton@@UAE@XZ 00624b50 f i camera_anim_window.obj
 0002:00022ba0       ??1SelectMountButton@@UAE@XZ 00624ba0 f i camera_anim_window.obj
 0002:00022bf0       ??1DeleteNodeButton@@UAE@XZ 00624bf0 f i camera_anim_window.obj
 0002:00022c40       ?RemoveButtons@CameraAnimSecondaryEditWindow@@QAEXXZ 00624c40 f   camera_anim_window.obj
 0002:00022d30       ?Size@?$LList@PAVEclButton@@@@QBEHXZ 00624d30 f i camera_anim_window.obj
 0002:00022d70       ??A?$LList@PAVEclButton@@@@QAEPAVEclButton@@H@Z 00624d70 f i camera_anim_window.obj
 0002:00022dd0       ??0?$LList@PAVCamAnimNode@@@@QAE@XZ 00624dd0 f i camera_anim_window.obj
 0002:00022e50       ??1?$LList@PAVCamAnimNode@@@@QAE@XZ 00624e50 f i camera_anim_window.obj
 0002:00022ea0       ?PutData@?$LList@PAVCamAnimNode@@@@QAEXABQAVCamAnimNode@@@Z 00624ea0 f i camera_anim_window.obj
 0002:00022f00       ?GetData@?$LList@PAVCamAnimNode@@@@QBEPAVCamAnimNode@@H@Z 00624f00 f i camera_anim_window.obj
 0002:000230a0       ?RemoveData@?$LList@PAVCamAnimNode@@@@QAEXH@Z 006250a0 f i camera_anim_window.obj
 0002:00023230       ?Size@?$LList@PAVCamAnimNode@@@@QBEHXZ 00625230 f i camera_anim_window.obj
 0002:00023270       ?EmptyAndDelete@?$LList@PAVCamAnimNode@@@@QAEXXZ 00625270 f i camera_anim_window.obj
 0002:00023330       ??A?$LList@PAVCamAnimNode@@@@QAEPAVCamAnimNode@@H@Z 00625330 f i camera_anim_window.obj
 0002:00023390       ?PutData@?$LList@PAVCameraAnimation@@@@QAEXABQAVCameraAnimation@@@Z 00625390 f i camera_anim_window.obj
 0002:000233f0       ?GetData@?$LList@PAVCameraAnimation@@@@QBEPAVCameraAnimation@@H@Z 006253f0 f i camera_anim_window.obj
 0002:00023590       ?RemoveData@?$LList@PAVCameraAnimation@@@@QAEXH@Z 00625590 f i camera_anim_window.obj
 0002:00023720       ?Size@?$LList@PAVCameraAnimation@@@@QBEHXZ 00625720 f i camera_anim_window.obj
 0002:00023760       ??A?$LList@PAVCameraAnimation@@@@QAEPAVCameraAnimation@@H@Z 00625760 f i camera_anim_window.obj
 0002:000237c0       ??_G?$LListItem@PAVCamAnimNode@@@@QAEPAXI@Z 006257c0 f i camera_anim_window.obj
 0002:00023830       ??_GCamAnimNode@@QAEPAXI@Z 00625830 f i camera_anim_window.obj
 0002:000238a0       ??1CamAnimNode@@QAE@XZ     006258a0 f i camera_anim_window.obj
 0002:00023910       ??_G?$LListItem@PAVCameraAnimation@@@@QAEPAXI@Z 00625910 f i camera_anim_window.obj
 0002:00023980       ?GetData@?$LList@PAVEclButton@@@@QBEPAVEclButton@@H@Z 00625980 f i camera_anim_window.obj
 0002:00023b20       ?PutDataAtEnd@?$LList@PAVCamAnimNode@@@@QAEXABQAVCamAnimNode@@@Z 00625b20 f i camera_anim_window.obj
 0002:00023cb0       ?ValidIndex@?$LList@PAVCamAnimNode@@@@QBE_NH@Z 00625cb0 f i camera_anim_window.obj
 0002:00023d20       ?Empty@?$LList@PAVCamAnimNode@@@@QAEXXZ 00625d20 f i camera_anim_window.obj
 0002:00023e20       ??1?$LListItem@PAVCamAnimNode@@@@QAE@XZ 00625e20 f i camera_anim_window.obj
 0002:00023e60       ?PutDataAtEnd@?$LList@PAVCameraAnimation@@@@QAEXABQAVCameraAnimation@@@Z 00625e60 f i camera_anim_window.obj
 0002:00023ff0       ?ValidIndex@?$LList@PAVCameraAnimation@@@@QBE_NH@Z 00625ff0 f i camera_anim_window.obj
 0002:00024060       ??1?$LListItem@PAVCameraAnimation@@@@QAE@XZ 00626060 f i camera_anim_window.obj
 0002:000240a0       ?ValidIndex@?$LList@PAVEclButton@@@@QBE_NH@Z 006260a0 f i camera_anim_window.obj
 0002:00024110       ??0?$LListItem@PAVCamAnimNode@@@@QAE@XZ 00626110 f i camera_anim_window.obj
 0002:00024170       ??0?$LListItem@PAVCameraAnimation@@@@QAE@XZ 00626170 f i camera_anim_window.obj
 0002:000241d0       ??0CameraMountEditWindow@@QAE@PAD@Z 006261d0 f   camera_mount_window.obj
 0002:00024240       ??_GCameraMountEditWindow@@UAEPAXI@Z 00626240 f i camera_mount_window.obj
 0002:00024240       ??_ECameraMountEditWindow@@UAEPAXI@Z 00626240 f i camera_mount_window.obj
 0002:000242b0       ??1CameraMountEditWindow@@UAE@XZ 006262b0 f   camera_mount_window.obj
 0002:000243b0       ?Create@CameraMountEditWindow@@UAEXXZ 006263b0 f   camera_mount_window.obj
 0002:00024ae0       ??0GotoMountButton@@QAE@PAD@Z 00626ae0 f i camera_mount_window.obj
 0002:00024b50       ?MouseUp@GotoMountButton@@UAEXXZ 00626b50 f i camera_mount_window.obj
 0002:00024cb0       ??_GGotoMountButton@@UAEPAXI@Z 00626cb0 f i camera_mount_window.obj
 0002:00024cb0       ??_EGotoMountButton@@UAEPAXI@Z 00626cb0 f i camera_mount_window.obj
 0002:00024d20       ??1GotoMountButton@@UAE@XZ 00626d20 f i camera_mount_window.obj
 0002:00024d70       ??0DeleteMountButton@@QAE@PAD@Z 00626d70 f i camera_mount_window.obj
 0002:00024de0       ?MouseUp@DeleteMountButton@@UAEXXZ 00626de0 f i camera_mount_window.obj
 0002:00024f90       ??_GDeleteMountButton@@UAEPAXI@Z 00626f90 f i camera_mount_window.obj
 0002:00024f90       ??_EDeleteMountButton@@UAEPAXI@Z 00626f90 f i camera_mount_window.obj
 0002:00025000       ??1DeleteMountButton@@UAE@XZ 00627000 f i camera_mount_window.obj
 0002:00025050       ??0UpdateMountButton@@QAE@PAD@Z 00627050 f i camera_mount_window.obj
 0002:000250c0       ?MouseUp@UpdateMountButton@@UAEXXZ 006270c0 f i camera_mount_window.obj
 0002:00025260       ?GetPos@Camera@@QAE?AVVector3@@XZ 00627260 f i camera_mount_window.obj
 0002:000252c0       ?GetFront@Camera@@QAE?AVVector3@@XZ 006272c0 f i camera_mount_window.obj
 0002:00025320       ?GetUp@Camera@@QAE?AVVector3@@XZ 00627320 f i camera_mount_window.obj
 0002:00025380       ??_EUpdateMountButton@@UAEPAXI@Z 00627380 f i camera_mount_window.obj
 0002:00025380       ??_GUpdateMountButton@@UAEPAXI@Z 00627380 f i camera_mount_window.obj
 0002:000253f0       ??1UpdateMountButton@@UAE@XZ 006273f0 f i camera_mount_window.obj
 0002:00025440       ??0NewMountButton@@QAE@XZ  00627440 f i camera_mount_window.obj
 0002:000254a0       ?MouseUp@NewMountButton@@UAEXXZ 006274a0 f i camera_mount_window.obj
 0002:000256c0       ??0CameraMount@@QAE@XZ     006276c0 f i camera_mount_window.obj
 0002:00025740       ??_GNewMountButton@@UAEPAXI@Z 00627740 f i camera_mount_window.obj
 0002:00025740       ??_ENewMountButton@@UAEPAXI@Z 00627740 f i camera_mount_window.obj
 0002:000257b0       ??1NewMountButton@@UAE@XZ  006277b0 f i camera_mount_window.obj
 0002:00025800       ?PutDataAtEnd@?$LList@PAVCameraMount@@@@QAEXABQAVCameraMount@@@Z 00627800 f i camera_mount_window.obj
 0002:00025990       ?GetData@?$LList@PAVCameraMount@@@@QBEPAVCameraMount@@H@Z 00627990 f i camera_mount_window.obj
 0002:00025b30       ?RemoveData@?$LList@PAVCameraMount@@@@QAEXH@Z 00627b30 f i camera_mount_window.obj
 0002:00025cc0       ?Size@?$LList@PAVCameraMount@@@@QBEHXZ 00627cc0 f i camera_mount_window.obj
 0002:00025d00       ??A?$LList@PAVCameraMount@@@@QAEPAVCameraMount@@H@Z 00627d00 f i camera_mount_window.obj
 0002:00025d60       ??_G?$LListItem@PAVCameraMount@@@@QAEPAXI@Z 00627d60 f i camera_mount_window.obj
 0002:00025dd0       ?ValidIndex@?$LList@PAVCameraMount@@@@QBE_NH@Z 00627dd0 f i camera_mount_window.obj
 0002:00025e40       ??0?$LListItem@PAVCameraMount@@@@QAE@XZ 00627e40 f i camera_mount_window.obj
 0002:00025ea0       ??1?$LListItem@PAVCameraMount@@@@QAE@XZ 00627ea0 f i camera_mount_window.obj
 0002:00025ee0       ?Create@CheatWindow@@UAEXXZ 00627ee0 f   cheat_window.obj
 0002:00025f20       ??0CheatWindow@@QAE@PAD@Z  00627f20 f   cheat_window.obj
 0002:00025f90       ??_GCheatWindow@@UAEPAXI@Z 00627f90 f i cheat_window.obj
 0002:00025f90       ??_ECheatWindow@@UAEPAXI@Z 00627f90 f i cheat_window.obj
 0002:00026000       ??1CheatWindow@@UAE@XZ     00628000 f i cheat_window.obj
 0002:00026050       ??0DarwiniaButton@@QAE@XZ  00628050 f   darwinia_window.obj
 0002:00026100       ??_EDarwiniaButton@@UAEPAXI@Z 00628100 f i darwinia_window.obj
 0002:00026100       ??_GDarwiniaButton@@UAEPAXI@Z 00628100 f i darwinia_window.obj
 0002:00026170       ?SetShortProperties@DarwiniaButton@@UAEXPBDHHHHPAD1@Z 00628170 f   darwinia_window.obj
 0002:00026230       ?SetDisabled@DarwiniaButton@@QAEX_N@Z 00628230 f   darwinia_window.obj
 0002:00026280       ?Render@DarwiniaButton@@UAEXHH_N0@Z 00628280 f   darwinia_window.obj
 0002:00026ce0       ?UpdateButtonHighlight@DarwiniaButton@@QAEXXZ 00628ce0 f   darwinia_window.obj
 0002:00026dc0       ??0BorderlessButton@@QAE@XZ 00628dc0 f   darwinia_window.obj
 0002:00026e20       ??_EBorderlessButton@@UAEPAXI@Z 00628e20 f i darwinia_window.obj
 0002:00026e20       ??_GBorderlessButton@@UAEPAXI@Z 00628e20 f i darwinia_window.obj
 0002:00026e90       ??1BorderlessButton@@UAE@XZ 00628e90 f i darwinia_window.obj
 0002:00026ee0       ?SetShortProperties@BorderlessButton@@UAEXPBDHHHHPAD1@Z 00628ee0 f   darwinia_window.obj
 0002:00026fa0       ?Render@BorderlessButton@@UAEXHH_N0@Z 00628fa0 f   darwinia_window.obj
 0002:00027a50       ??0DarwiniaWindow@@QAE@PBD@Z 00629a50 f   darwinia_window.obj
 0002:00027b80       ??_EDarwiniaWindow@@UAEPAXI@Z 00629b80 f i darwinia_window.obj
 0002:00027b80       ??_GDarwiniaWindow@@UAEPAXI@Z 00629b80 f i darwinia_window.obj
 0002:00027bf0       ??1DarwiniaWindow@@UAE@XZ  00629bf0 f   darwinia_window.obj
 0002:00027ce0       ?CreateValueControl@DarwiniaWindow@@QAEXPBDHPAXHMMMPAVDarwiniaButton@@HH@Z 00629ce0 f   darwinia_window.obj
 0002:00028210       ?RemoveValueControl@DarwiniaWindow@@QAEXPAD@Z 0062a210 f   darwinia_window.obj
 0002:00028330       ?CreateColourControl@DarwiniaWindow@@QAEXPBDPAHHPAVDarwiniaButton@@HH@Z 0062a330 f   darwinia_window.obj
 0002:000284b0       ?Create@DarwiniaWindow@@UAEXXZ 0062a4b0 f   darwinia_window.obj
 0002:00028600       ?Remove@DarwiniaWindow@@UAEXXZ 0062a600 f   darwinia_window.obj
 0002:000286b0       ?GetClientRectX1@DarwiniaWindow@@QAEHXZ 0062a6b0 f   darwinia_window.obj
 0002:000286f0       ?GetClientRectX2@DarwiniaWindow@@QAEHXZ 0062a6f0 f   darwinia_window.obj
 0002:00028730       ?GetClientRectY1@DarwiniaWindow@@QAEHXZ 0062a730 f   darwinia_window.obj
 0002:00028790       ?GetClientRectY2@DarwiniaWindow@@QAEHXZ 0062a790 f   darwinia_window.obj
 0002:000287d0       ?Render@DarwiniaWindow@@UAEX_N@Z 0062a7d0 f   darwinia_window.obj
 0002:00029330       ?GetMenuSize@DarwiniaWindow@@QAEHH@Z 0062b330 f   darwinia_window.obj
 0002:000293d0       ?SetMenuSize@DarwiniaWindow@@QAEXHH@Z 0062b3d0 f   darwinia_window.obj
 0002:00029490       ?Update@DarwiniaWindow@@UAEXXZ 0062b490 f   darwinia_window.obj
 0002:00029700       ?SetCurrentButton@DarwiniaWindow@@QAEXPAVEclButton@@@Z 0062b700 f   darwinia_window.obj
 0002:000297b0       ?MouseUp@GameExitButton@@EAEXXZ 0062b7b0 f   darwinia_window.obj
 0002:00029800       ??0CloseButton@@QAE@XZ     0062b800 f   darwinia_window.obj
 0002:00029870       ??_ECloseButton@@UAEPAXI@Z 0062b870 f i darwinia_window.obj
 0002:00029870       ??_GCloseButton@@UAEPAXI@Z 0062b870 f i darwinia_window.obj
 0002:000298e0       ??1CloseButton@@UAE@XZ     0062b8e0 f i darwinia_window.obj
 0002:00029930       ?MouseUp@CloseButton@@UAEXXZ 0062b930 f   darwinia_window.obj
 0002:00029990       ?Render@CloseButton@@UAEXHH_N0@Z 0062b990 f   darwinia_window.obj
 0002:00029e20       ?Render@InvertedBox@@UAEXHH_N0@Z 0062be20 f   darwinia_window.obj
 0002:0002a2b0       ?Render@LabelButton@@UAEXHH_N0@Z 0062c2b0 f   darwinia_window.obj
 0002:0002a3e0       ??0?$LList@PAVEclButton@@@@QAE@XZ 0062c3e0 f i darwinia_window.obj
 0002:0002a460       ??1?$LList@PAVEclButton@@@@QAE@XZ 0062c460 f i darwinia_window.obj
 0002:0002a4b0       ?Empty@?$LList@PAVEclButton@@@@QAEXXZ 0062c4b0 f i darwinia_window.obj
 0002:0002a5b0       ?GetData@?$LList@PAVEclWindow@@@@QBEPAVEclWindow@@H@Z 0062c5b0 f i darwinia_window.obj
 0002:0002a750       ??_G?$LListItem@PAVEclButton@@@@QAEPAXI@Z 0062c750 f i darwinia_window.obj
 0002:0002a7c0       ??1?$LListItem@PAVEclButton@@@@QAE@XZ 0062c7c0 f i darwinia_window.obj
 0002:0002a800       ?ValidIndex@?$LList@PAVEclWindow@@@@QBE_NH@Z 0062c800 f i darwinia_window.obj
 0002:0002a870       ??0DebugMenu@@QAE@PAD@Z    0062c870 f   debugmenu.obj
 0002:0002a910       ??_EDebugMenu@@UAEPAXI@Z   0062c910 f i debugmenu.obj
 0002:0002a910       ??_GDebugMenu@@UAEPAXI@Z   0062c910 f i debugmenu.obj
 0002:0002a980       ??1DebugMenu@@UAE@XZ       0062c980 f i debugmenu.obj
 0002:0002a9d0       ?Advance@DebugMenu@@QAEXXZ 0062c9d0 f   debugmenu.obj
 0002:0002aa10       ?Create@DebugMenu@@UAEXXZ  0062ca10 f   debugmenu.obj
 0002:0002af30       ??0ProfileButton@@QAE@XZ   0062cf30 f i debugmenu.obj
 0002:0002af90       ?MouseUp@ProfileButton@@UAEXXZ 0062cf90 f i debugmenu.obj
 0002:0002afe0       ??0NetworkButton@@QAE@XZ   0062cfe0 f i debugmenu.obj
 0002:0002b040       ?MouseUp@NetworkButton@@UAEXXZ 0062d040 f i debugmenu.obj
 0002:0002b090       ??0FPSButton@@QAE@XZ       0062d090 f i debugmenu.obj
 0002:0002b0f0       ?MouseUp@FPSButton@@UAEXXZ 0062d0f0 f i debugmenu.obj
 0002:0002b140       ??0DebugCameraButton@@QAE@XZ 0062d140 f i debugmenu.obj
 0002:0002b1a0       ?MouseUp@DebugCameraButton@@UAEXXZ 0062d1a0 f i debugmenu.obj
 0002:0002b1f0       ??0EditorButton@@QAE@XZ    0062d1f0 f i debugmenu.obj
 0002:0002b250       ?MouseUp@EditorButton@@UAEXXZ 0062d250 f i debugmenu.obj
 0002:0002b2a0       ??_EProfileButton@@UAEPAXI@Z 0062d2a0 f i debugmenu.obj
 0002:0002b2a0       ??_GProfileButton@@UAEPAXI@Z 0062d2a0 f i debugmenu.obj
 0002:0002b310       ??_ENetworkButton@@UAEPAXI@Z 0062d310 f i debugmenu.obj
 0002:0002b310       ??_GNetworkButton@@UAEPAXI@Z 0062d310 f i debugmenu.obj
 0002:0002b380       ??_EFPSButton@@UAEPAXI@Z   0062d380 f i debugmenu.obj
 0002:0002b380       ??_GFPSButton@@UAEPAXI@Z   0062d380 f i debugmenu.obj
 0002:0002b3f0       ??_EDebugCameraButton@@UAEPAXI@Z 0062d3f0 f i debugmenu.obj
 0002:0002b3f0       ??_GDebugCameraButton@@UAEPAXI@Z 0062d3f0 f i debugmenu.obj
 0002:0002b460       ??_EEditorButton@@UAEPAXI@Z 0062d460 f i debugmenu.obj
 0002:0002b460       ??_GEditorButton@@UAEPAXI@Z 0062d460 f i debugmenu.obj
 0002:0002b4d0       ??1ProfileButton@@UAE@XZ   0062d4d0 f i debugmenu.obj
 0002:0002b520       ??1NetworkButton@@UAE@XZ   0062d520 f i debugmenu.obj
 0002:0002b570       ??1FPSButton@@UAE@XZ       0062d570 f i debugmenu.obj
 0002:0002b5c0       ??1DebugCameraButton@@UAE@XZ 0062d5c0 f i debugmenu.obj
 0002:0002b610       ??1EditorButton@@UAE@XZ    0062d610 f i debugmenu.obj
 0002:0002b660       ?Render@DebugMenu@@UAEX_N@Z 0062d660 f   debugmenu.obj
 0002:0002b8a0       ?DebugMenu@DebugKeyBindings@@SAXXZ 0062d8a0 f   debugmenu.obj
 0002:0002b9e0       ?ProfileButton@DebugKeyBindings@@SAXXZ 0062d9e0 f   debugmenu.obj
 0002:0002bb60       ?NetworkButton@DebugKeyBindings@@SAXXZ 0062db60 f   debugmenu.obj
 0002:0002bcc0       ?EditorButton@DebugKeyBindings@@SAXXZ 0062dcc0 f   debugmenu.obj
 0002:0002bd00       ?DebugCameraButton@DebugKeyBindings@@SAXXZ 0062dd00 f   debugmenu.obj
 0002:0002bd50       ?FPSButton@DebugKeyBindings@@SAXXZ 0062dd50 f   debugmenu.obj
 0002:0002bdb0       ?ReallyQuitButton@DebugKeyBindings@@SAXXZ 0062ddb0 f   debugmenu.obj
 0002:0002bec0       ?ToggleFullscreenButton@DebugKeyBindings@@SAXXZ 0062dec0 f   debugmenu.obj
 0002:0002bf80       ??0DemoEndWindow@@QAE@M_N@Z 0062df80 f   demoend_window.obj
 0002:0002c0e0       ??_GDemoEndWindow@@UAEPAXI@Z 0062e0e0 f i demoend_window.obj
 0002:0002c0e0       ??_EDemoEndWindow@@UAEPAXI@Z 0062e0e0 f i demoend_window.obj
 0002:0002c150       ??1DemoEndWindow@@UAE@XZ   0062e150 f i demoend_window.obj
 0002:0002c1a0       ?Create@DemoEndWindow@@UAEXXZ 0062e1a0 f   demoend_window.obj
 0002:0002c400       ??0ExitDemoButton@@QAE@XZ  0062e400 f i demoend_window.obj
 0002:0002c460       ?MouseUp@ExitDemoButton@@EAEXXZ 0062e460 f i demoend_window.obj
 0002:0002c500       ?Render@ExitDemoButton@@EAEXHH_N0@Z 0062e500 f i demoend_window.obj
 0002:0002cab0       ??0BuyOnlineButton@@QAE@XZ 0062eab0 f i demoend_window.obj
 0002:0002cb10       ?MouseUp@BuyOnlineButton@@EAEXXZ 0062eb10 f i demoend_window.obj
 0002:0002cbb0       ?Render@BuyOnlineButton@@EAEXHH_N0@Z 0062ebb0 f i demoend_window.obj
 0002:0002d120       ??_EExitDemoButton@@UAEPAXI@Z 0062f120 f i demoend_window.obj
 0002:0002d120       ??_GExitDemoButton@@UAEPAXI@Z 0062f120 f i demoend_window.obj
 0002:0002d190       ??_EBuyOnlineButton@@UAEPAXI@Z 0062f190 f i demoend_window.obj
 0002:0002d190       ??_GBuyOnlineButton@@UAEPAXI@Z 0062f190 f i demoend_window.obj
 0002:0002d200       ??1ExitDemoButton@@UAE@XZ  0062f200 f i demoend_window.obj
 0002:0002d250       ??1BuyOnlineButton@@UAE@XZ 0062f250 f i demoend_window.obj
 0002:0002d2a0       ?GetAlpha@DemoEndWindow@@QAEMXZ 0062f2a0 f   demoend_window.obj
 0002:0002d390       ?ShowExitButton@DemoEndWindow@@QAE_NXZ 0062f390 f   demoend_window.obj
 0002:0002d430       ?Render@DemoEndWindow@@UAEX_N@Z 0062f430 f   demoend_window.obj
 0002:0002dc20       ??0DropDownOptionData@@QAE@PBDH@Z 0062fc20 f   drop_down_menu.obj
 0002:0002dc90       ?NewStr@@YAPADPBD@Z        0062fc90 f i drop_down_menu.obj
 0002:0002dd10       ??1DropDownOptionData@@QAE@XZ 0062fd10 f   drop_down_menu.obj
 0002:0002dd80       ??0DropDownWindow@@QAE@PAD0@Z 0062fd80 f   drop_down_menu.obj
 0002:0002de00       ??_EDropDownWindow@@UAEPAXI@Z 0062fe00 f i drop_down_menu.obj
 0002:0002de00       ??_GDropDownWindow@@UAEPAXI@Z 0062fe00 f i drop_down_menu.obj
 0002:0002de70       ??1DropDownWindow@@UAE@XZ  0062fe70 f i drop_down_menu.obj
 0002:0002dec0       ?Update@DropDownWindow@@UAEXXZ 0062fec0 f   drop_down_menu.obj
 0002:0002df40       ?CreateDropDownWindow@DropDownWindow@@SAPAV1@PAD0@Z 0062ff40 f   drop_down_menu.obj
 0002:0002e070       ?RemoveDropDownWindow@DropDownWindow@@SAXXZ 00630070 f   drop_down_menu.obj
 0002:0002e0e0       ??0DropDownMenu@@QAE@_N@Z  006300e0 f   drop_down_menu.obj
 0002:0002e1e0       ??_EDropDownMenu@@UAEPAXI@Z 006301e0 f i drop_down_menu.obj
 0002:0002e1e0       ??_GDropDownMenu@@UAEPAXI@Z 006301e0 f i drop_down_menu.obj
 0002:0002e250       ??1DropDownMenu@@UAE@XZ    00630250 f   drop_down_menu.obj
 0002:0002e310       ?Empty@DropDownMenu@@QAEXXZ 00630310 f   drop_down_menu.obj
 0002:0002e3a0       ?AddOption@DropDownMenu@@QAEXPBDH@Z 006303a0 f   drop_down_menu.obj
 0002:0002e5c0       ?SelectOption@DropDownMenu@@UAEXH@Z 006305c0 f   drop_down_menu.obj
 0002:0002e6e0       ?SelectOption2@DropDownMenu@@QAE_NPBD@Z 006306e0 f   drop_down_menu.obj
 0002:0002e7e0       ?GetSelectionValue@DropDownMenu@@QAEHXZ 006307e0 f   drop_down_menu.obj
 0002:0002e880       ?GetSelectionName@DropDownMenu@@QAEPBDXZ 00630880 f   drop_down_menu.obj
 0002:0002e920       ?RegisterInt@DropDownMenu@@QAEXPAH@Z 00630920 f   drop_down_menu.obj
 0002:0002e9a0       ?FindValue@DropDownMenu@@QAEHH@Z 006309a0 f   drop_down_menu.obj
 0002:0002ea50       ?Render@DropDownMenu@@UAEXHH_N0@Z 00630a50 f   drop_down_menu.obj
 0002:0002ebe0       ?CreateMenu@DropDownMenu@@QAEXXZ 00630be0 f   drop_down_menu.obj
 0002:0002f0a0       ?RemoveMenu@DropDownMenu@@QAEXXZ 006310a0 f   drop_down_menu.obj
 0002:0002f0f0       ?MouseUp@DropDownMenu@@UAEXXZ 006310f0 f   drop_down_menu.obj
 0002:0002f180       ?IsMenuVisible@DropDownMenu@@QAE_NXZ 00631180 f   drop_down_menu.obj
 0002:0002f1e0       ??0DropDownMenuOption@@QAE@XZ 006311e0 f   drop_down_menu.obj
 0002:0002f270       ??_GDropDownMenuOption@@UAEPAXI@Z 00631270 f i drop_down_menu.obj
 0002:0002f270       ??_EDropDownMenuOption@@UAEPAXI@Z 00631270 f i drop_down_menu.obj
 0002:0002f2e0       ??1DropDownMenuOption@@UAE@XZ 006312e0 f   drop_down_menu.obj
 0002:0002f3d0       ?SetParentMenu@DropDownMenuOption@@QAEXPAVEclWindow@@PAVDropDownMenu@@H@Z 006313d0 f   drop_down_menu.obj
 0002:0002f4f0       ?Render@DropDownMenuOption@@UAEXHH_N0@Z 006314f0 f   drop_down_menu.obj
 0002:0002f600       ?ceil@@YAMM@Z              00631600 f i drop_down_menu.obj
 0002:0002f660       _ceilf                     00631660 f i drop_down_menu.obj
 0002:0002f6d0       ?MouseUp@DropDownMenuOption@@UAEXXZ 006316d0 f   drop_down_menu.obj
 0002:0002f7b0       ?PutData@?$LList@PAVEclButton@@@@QAEXABQAVEclButton@@@Z 006317b0 f i drop_down_menu.obj
 0002:0002f810       ??0?$LList@PAVDropDownOptionData@@@@QAE@XZ 00631810 f i drop_down_menu.obj
 0002:0002f890       ??1?$LList@PAVDropDownOptionData@@@@QAE@XZ 00631890 f i drop_down_menu.obj
 0002:0002f8e0       ?PutDataAtEnd@?$LList@PAVDropDownOptionData@@@@QAEXABQAVDropDownOptionData@@@Z 006318e0 f i drop_down_menu.obj
 0002:0002fa70       ?PutDataAtIndex@?$LList@PAVDropDownOptionData@@@@QAEXABQAVDropDownOptionData@@H@Z 00631a70 f i drop_down_menu.obj
 0002:0002fc70       ?Size@?$LList@PAVDropDownOptionData@@@@QBEHXZ 00631c70 f i drop_down_menu.obj
 0002:0002fcb0       ?EmptyAndDelete@?$LList@PAVDropDownOptionData@@@@QAEXXZ 00631cb0 f i drop_down_menu.obj
 0002:0002fd70       ??A?$LList@PAVDropDownOptionData@@@@QAEPAVDropDownOptionData@@H@Z 00631d70 f i drop_down_menu.obj
 0002:0002fdd0       ??_GDropDownOptionData@@QAEPAXI@Z 00631dd0 f i drop_down_menu.obj
 0002:0002fe40       ?PutDataAtEnd@?$LList@PAVEclButton@@@@QAEXABQAVEclButton@@@Z 00631e40 f i drop_down_menu.obj
 0002:0002ffd0       ?PutDataAtStart@?$LList@PAVDropDownOptionData@@@@QAEXABQAVDropDownOptionData@@@Z 00631fd0 f i drop_down_menu.obj
 0002:00030160       ?GetData@?$LList@PAVDropDownOptionData@@@@QBEPAVDropDownOptionData@@H@Z 00632160 f i drop_down_menu.obj
 0002:00030300       ?RemoveData@?$LList@PAVDropDownOptionData@@@@QAEXH@Z 00632300 f i drop_down_menu.obj
 0002:00030490       ?Empty@?$LList@PAVDropDownOptionData@@@@QAEXXZ 00632490 f i drop_down_menu.obj
 0002:00030590       ??0?$LListItem@PAVDropDownOptionData@@@@QAE@XZ 00632590 f i drop_down_menu.obj
 0002:000305f0       ??_G?$LListItem@PAVDropDownOptionData@@@@QAEPAXI@Z 006325f0 f i drop_down_menu.obj
 0002:00030660       ??0?$LListItem@PAVEclButton@@@@QAE@XZ 00632660 f i drop_down_menu.obj
 0002:000306c0       ?ValidIndex@?$LList@PAVDropDownOptionData@@@@QBE_NH@Z 006326c0 f i drop_down_menu.obj
 0002:00030730       ??1?$LListItem@PAVDropDownOptionData@@@@QAE@XZ 00632730 f i drop_down_menu.obj
 0002:00030770       ??0MainEditWindow@@QAE@PAD@Z 00632770 f   editor_window.obj
 0002:000307f0       ??_GMainEditWindow@@UAEPAXI@Z 006327f0 f i editor_window.obj
 0002:000307f0       ??_EMainEditWindow@@UAEPAXI@Z 006327f0 f i editor_window.obj
 0002:00030860       ??1MainEditWindow@@UAE@XZ  00632860 f i editor_window.obj
 0002:000308b0       ?Create@MainEditWindow@@UAEXXZ 006328b0 f   editor_window.obj
 0002:00030f70       ??0MainEditWindowButton@@QAE@H@Z 00632f70 f i editor_window.obj
 0002:00030fe0       ?MouseUp@MainEditWindowButton@@UAEXXZ 00632fe0 f i editor_window.obj
 0002:00031180       ?Render@MainEditWindowButton@@UAEXHH_N0@Z 00633180 f i editor_window.obj
 0002:00031230       ??_GMainEditWindowButton@@UAEPAXI@Z 00633230 f i editor_window.obj
 0002:00031230       ??_EMainEditWindowButton@@UAEPAXI@Z 00633230 f i editor_window.obj
 0002:000312a0       ??1MainEditWindowButton@@UAE@XZ 006332a0 f i editor_window.obj
 0002:000312f0       ??0FileDialog@@QAE@PBD000_N@Z 006332f0 f   filedialog.obj
 0002:00031510       ??_EFileDialog@@UAEPAXI@Z  00633510 f i filedialog.obj
 0002:00031510       ??_GFileDialog@@UAEPAXI@Z  00633510 f i filedialog.obj
 0002:00031580       ??1FileDialog@@UAE@XZ      00633580 f   filedialog.obj
 0002:00031770       ??_G?$LList@PAD@@QAEPAXI@Z 00633770 f i filedialog.obj
 0002:000317e0       ??_GScrollBar@@QAEPAXI@Z   006337e0 f i filedialog.obj
 0002:00031850       ?Create@FileDialog@@UAEXXZ 00633850 f   filedialog.obj
 0002:00031d60       ??0FileButton@@QAE@H@Z     00633d60 f i filedialog.obj
 0002:00031df0       ?MouseUp@FileButton@@UAEXXZ 00633df0 f i filedialog.obj
 0002:00031f40       ?Render@FileButton@@UAEXHH_N0@Z 00633f40 f i filedialog.obj
 0002:000322a0       ??_GFileButton@@UAEPAXI@Z  006342a0 f i filedialog.obj
 0002:000322a0       ??_EFileButton@@UAEPAXI@Z  006342a0 f i filedialog.obj
 0002:00032310       ??1FileButton@@UAE@XZ      00634310 f i filedialog.obj
 0002:00032360       ??0SelectedButton@@QAE@XZ  00634360 f i filedialog.obj
 0002:000323c0       ?Render@SelectedButton@@EAEXHH_N0@Z 006343c0 f i filedialog.obj
 0002:00032510       ??0FileCancelButton@@QAE@XZ 00634510 f i filedialog.obj
 0002:00032570       ?MouseUp@FileCancelButton@@EAEXXZ 00634570 f i filedialog.obj
 0002:000325d0       ??0FileOKButton@@QAE@XZ    006345d0 f i filedialog.obj
 0002:00032630       ?MouseUp@FileOKButton@@UAEXXZ 00634630 f i filedialog.obj
 0002:000327b0       ??_GSelectedButton@@UAEPAXI@Z 006347b0 f i filedialog.obj
 0002:000327b0       ??_ESelectedButton@@UAEPAXI@Z 006347b0 f i filedialog.obj
 0002:00032820       ??_EFileCancelButton@@UAEPAXI@Z 00634820 f i filedialog.obj
 0002:00032820       ??_GFileCancelButton@@UAEPAXI@Z 00634820 f i filedialog.obj
 0002:00032890       ??_GFileOKButton@@UAEPAXI@Z 00634890 f i filedialog.obj
 0002:00032890       ??_EFileOKButton@@UAEPAXI@Z 00634890 f i filedialog.obj
 0002:00032900       ??1SelectedButton@@UAE@XZ  00634900 f i filedialog.obj
 0002:00032950       ??1FileCancelButton@@UAE@XZ 00634950 f i filedialog.obj
 0002:000329a0       ??1FileOKButton@@UAE@XZ    006349a0 f i filedialog.obj
 0002:000329f0       ?Remove@FileDialog@@UAEXXZ 006349f0 f   filedialog.obj
 0002:00032a50       ?SetDirectory@FileDialog@@QAEXPBD@Z 00634a50 f   filedialog.obj
 0002:00032af0       ?SetFilter@FileDialog@@QAEXPBD@Z 00634af0 f   filedialog.obj
 0002:00032b70       ?SetParent@FileDialog@@QAEXPBD@Z 00634b70 f   filedialog.obj
 0002:00032bf0       ?FileSelected@FileDialog@@UAEXPAD@Z 00634bf0 f   filedialog.obj
 0002:00032c30       ?RefreshFileList@FileDialog@@QAEXXZ 00634c30 f   filedialog.obj
 0002:00032d60       ?FileClicked@FileDialog@@QAEXH@Z 00634d60 f   filedialog.obj
 0002:00032e50       ?IsFileSelected@FileDialog@@QAEHH@Z 00634e50 f   filedialog.obj
 0002:00032f00       ??0?$LList@H@@QAE@XZ       00634f00 f i filedialog.obj
 0002:00032f80       ??1?$LList@H@@QAE@XZ       00634f80 f i filedialog.obj
 0002:00032fd0       ?PutData@?$LList@H@@QAEXABH@Z 00634fd0 f i filedialog.obj
 0002:00033030       ?RemoveData@?$LList@H@@QAEXH@Z 00635030 f i filedialog.obj
 0002:000331c0       ?Size@?$LList@H@@QBEHXZ    006351c0 f i filedialog.obj
 0002:00033200       ?Empty@?$LList@H@@QAEXXZ   00635200 f i filedialog.obj
 0002:00033300       ??A?$LList@H@@QAEHH@Z      00635300 f i filedialog.obj
 0002:00033360       ??1?$LList@PAD@@QAE@XZ     00635360 f i filedialog.obj
 0002:000333b0       ?GetData@?$LList@PAD@@QBEPADH@Z 006353b0 f i filedialog.obj
 0002:00033550       ?Size@?$LList@PAD@@QBEHXZ  00635550 f i filedialog.obj
 0002:00033590       ?ValidIndex@?$LList@PAD@@QBE_NH@Z 00635590 f i filedialog.obj
 0002:00033600       ?EmptyAndDelete@?$LList@PAD@@QAEXXZ 00635600 f i filedialog.obj
 0002:000336a0       ??_G?$LListItem@H@@QAEPAXI@Z 006356a0 f i filedialog.obj
 0002:00033710       ?PutDataAtEnd@?$LList@H@@QAEXABH@Z 00635710 f i filedialog.obj
 0002:000338a0       ?GetData@?$LList@H@@QBEHH@Z 006358a0 f i filedialog.obj
 0002:00033a40       ??1?$LListItem@H@@QAE@XZ   00635a40 f i filedialog.obj
 0002:00033a80       ?RemoveData@?$LList@PAD@@QAEXH@Z 00635a80 f i filedialog.obj
 0002:00033c10       ?Empty@?$LList@PAD@@QAEXXZ 00635c10 f i filedialog.obj
 0002:00033d10       ??_G?$LListItem@PAD@@QAEPAXI@Z 00635d10 f i filedialog.obj
 0002:00033d80       ?ValidIndex@?$LList@H@@QBE_NH@Z 00635d80 f i filedialog.obj
 0002:00033df0       ??0?$LListItem@H@@QAE@XZ   00635df0 f i filedialog.obj
 0002:00033e50       ??1?$LListItem@PAD@@QAE@XZ 00635e50 f i filedialog.obj
 0002:00033e90       ??0GlobalWorldEditorWindow@@QAE@XZ 00635e90 f   globalworldeditor_window.obj
 0002:00033f70       ??_GGlobalWorldEditorWindow@@UAEPAXI@Z 00635f70 f i globalworldeditor_window.obj
 0002:00033f70       ??_EGlobalWorldEditorWindow@@UAEPAXI@Z 00635f70 f i globalworldeditor_window.obj
 0002:00033fe0       ??1GlobalWorldEditorWindow@@UAE@XZ 00635fe0 f i globalworldeditor_window.obj
 0002:00034030       ?Create@GlobalWorldEditorWindow@@UAEXXZ 00636030 f   globalworldeditor_window.obj
 0002:000344e0       ??0SetModeButton@@QAE@XZ   006364e0 f i globalworldeditor_window.obj
 0002:00034540       ?MouseUp@SetModeButton@@UAEXXZ 00636540 f i globalworldeditor_window.obj
 0002:00034590       ?Render@SetModeButton@@UAEXHH_N0@Z 00636590 f i globalworldeditor_window.obj
 0002:00034630       ??0NewLocationButton@@QAE@XZ 00636630 f i globalworldeditor_window.obj
 0002:00034690       ?MouseUp@NewLocationButton@@EAEXXZ 00636690 f i globalworldeditor_window.obj
 0002:00034a70       ?Set@Vector3@@QAEXMMM@Z    00636a70 f i globalworldeditor_window.obj
 0002:00034ad0       ??0SaveLocationsButton@@QAE@XZ 00636ad0 f i globalworldeditor_window.obj
 0002:00034b30       ?MouseUp@SaveLocationsButton@@EAEXXZ 00636b30 f i globalworldeditor_window.obj
 0002:00034ca0       ??_ESetModeButton@@UAEPAXI@Z 00636ca0 f i globalworldeditor_window.obj
 0002:00034ca0       ??_GSetModeButton@@UAEPAXI@Z 00636ca0 f i globalworldeditor_window.obj
 0002:00034d10       ??_ENewLocationButton@@UAEPAXI@Z 00636d10 f i globalworldeditor_window.obj
 0002:00034d10       ??_GNewLocationButton@@UAEPAXI@Z 00636d10 f i globalworldeditor_window.obj
 0002:00034d80       ??_GSaveLocationsButton@@UAEPAXI@Z 00636d80 f i globalworldeditor_window.obj
 0002:00034d80       ??_ESaveLocationsButton@@UAEPAXI@Z 00636d80 f i globalworldeditor_window.obj
 0002:00034df0       ??1SetModeButton@@UAE@XZ   00636df0 f i globalworldeditor_window.obj
 0002:00034e40       ??1NewLocationButton@@UAE@XZ 00636e40 f i globalworldeditor_window.obj
 0002:00034e90       ??1SaveLocationsButton@@UAE@XZ 00636e90 f i globalworldeditor_window.obj
 0002:00034ee0       ?Update@GlobalWorldEditorWindow@@UAEXXZ 00636ee0 f   globalworldeditor_window.obj
 0002:00034f60       ??0InputField@@QAE@XZ      00636f60 f   input_field.obj
 0002:00035060       ??_GInputField@@UAEPAXI@Z  00637060 f i input_field.obj
 0002:00035060       ??_EInputField@@UAEPAXI@Z  00637060 f i input_field.obj
 0002:000350d0       ??1InputField@@UAE@XZ      006370d0 f i input_field.obj
 0002:00035120       ?SetCallback@InputField@@QAEXPAVDarwiniaButton@@@Z 00637120 f   input_field.obj
 0002:00035170       ?Render@InputField@@UAEXHH_N0@Z 00637170 f   input_field.obj
 0002:00035b30       _fmodf                     00637b30 f i input_field.obj
 0002:00035ba0       ?MouseUp@InputField@@UAEXXZ 00637ba0 f   input_field.obj
 0002:00035c00       ?Keypress@InputField@@UAEXH_N00@Z 00637c00 f   input_field.obj
 0002:00036020       ?RegisterChar@InputField@@QAEXPAE@Z 00638020 f   input_field.obj
 0002:000360f0       ?RegisterInt@InputField@@QAEXPAH@Z 006380f0 f   input_field.obj
 0002:000361c0       ?RegisterFloat@InputField@@QAEXPAM@Z 006381c0 f   input_field.obj
 0002:00036290       ?RegisterString@InputField@@QAEXPAD@Z 00638290 f   input_field.obj
 0002:00036360       ?ClampToBounds@InputField@@QAEXXZ 00638360 f   input_field.obj
 0002:00036610       ?Refresh@InputField@@QAEXXZ 00638610 f   input_field.obj
 0002:000367b0       ??0InputScroller@@QAE@XZ   006387b0 f   input_field.obj
 0002:00036840       ??_EInputScroller@@UAEPAXI@Z 00638840 f i input_field.obj
 0002:00036840       ??_GInputScroller@@UAEPAXI@Z 00638840 f i input_field.obj
 0002:000368b0       ??1InputScroller@@UAE@XZ   006388b0 f i input_field.obj
 0002:00036900       ?Render@InputScroller@@UAEXHH_N0@Z 00638900 f   input_field.obj
 0002:00036c50       ?MouseDown@InputScroller@@UAEXXZ 00638c50 f   input_field.obj
 0002:00036cd0       ?MouseUp@InputScroller@@UAEXXZ 00638cd0 f   input_field.obj
 0002:00036d20       ??0ColourWidget@@QAE@XZ    00638d20 f   input_field.obj
 0002:00036da0       ??_GColourWidget@@UAEPAXI@Z 00638da0 f i input_field.obj
 0002:00036da0       ??_EColourWidget@@UAEPAXI@Z 00638da0 f i input_field.obj
 0002:00036e10       ??1ColourWidget@@UAE@XZ    00638e10 f i input_field.obj
 0002:00036e60       ?Render@ColourWidget@@UAEXHH_N0@Z 00638e60 f   input_field.obj
 0002:00036ff0       ?MouseUp@ColourWidget@@UAEXXZ 00638ff0 f   input_field.obj
 0002:00037150       ?SetValue@ColourWidget@@QAEXPAH@Z 00639150 f   input_field.obj
 0002:000371a0       ?SetCallback@ColourWidget@@QAEXPAVDarwiniaButton@@@Z 006391a0 f   input_field.obj
 0002:000371f0       ??0ColourWindow@@QAE@PAD@Z 006391f0 f   input_field.obj
 0002:00037280       ??_EColourWindow@@UAEPAXI@Z 00639280 f i input_field.obj
 0002:00037280       ??_GColourWindow@@UAEPAXI@Z 00639280 f i input_field.obj
 0002:000372f0       ??1ColourWindow@@UAE@XZ    006392f0 f i input_field.obj
 0002:00037340       ?SetValue@ColourWindow@@QAEXPAH@Z 00639340 f   input_field.obj
 0002:00037390       ?SetCallback@ColourWindow@@QAEXPAVDarwiniaButton@@@Z 00639390 f   input_field.obj
 0002:000373e0       ?Create@ColourWindow@@UAEXXZ 006393e0 f   input_field.obj
 0002:00037650       ?Render@ColourWindow@@UAEX_N@Z 00639650 f   input_field.obj
 0002:000377e0       ??0InstantUnitEditWindow@@QAE@PAD@Z 006397e0 f   instant_unit_window.obj
 0002:00037850       ??_EInstantUnitEditWindow@@UAEPAXI@Z 00639850 f i instant_unit_window.obj
 0002:00037850       ??_GInstantUnitEditWindow@@UAEPAXI@Z 00639850 f i instant_unit_window.obj
 0002:000378c0       ??1InstantUnitEditWindow@@UAE@XZ 006398c0 f   instant_unit_window.obj
 0002:00037930       ?Create@InstantUnitEditWindow@@UAEXXZ 00639930 f   instant_unit_window.obj
 0002:00037ea0       ??0EditButton@@QAE@XZ      00639ea0 f i instant_unit_window.obj
 0002:00037f00       ?MouseUp@EditButton@@UAEXXZ 00639f00 f i instant_unit_window.obj
 0002:00037f90       ??_EEditButton@@UAEPAXI@Z  00639f90 f i instant_unit_window.obj
 0002:00037f90       ??_GEditButton@@UAEPAXI@Z  00639f90 f i instant_unit_window.obj
 0002:00038000       ??1EditButton@@UAE@XZ      0063a000 f i instant_unit_window.obj
 0002:00038050       ??0TeamButton1@@QAE@H@Z    0063a050 f i instant_unit_window.obj
 0002:000380e0       ?MouseUp@TeamButton1@@UAEXXZ 0063a0e0 f i instant_unit_window.obj
 0002:00038170       ?Render@TeamButton1@@UAEXHH_N0@Z 0063a170 f i instant_unit_window.obj
 0002:000383a0       ??_ETeamButton1@@UAEPAXI@Z 0063a3a0 f i instant_unit_window.obj
 0002:000383a0       ??_GTeamButton1@@UAEPAXI@Z 0063a3a0 f i instant_unit_window.obj
 0002:00038410       ??1TeamButton1@@UAE@XZ     0063a410 f i instant_unit_window.obj
 0002:00038460       ??0DeleteInstantUnitButton@@QAE@XZ 0063a460 f i instant_unit_window.obj
 0002:000384d0       ?MouseUp@DeleteInstantUnitButton@@UAEXXZ 0063a4d0 f i instant_unit_window.obj
 0002:00038630       ??_EDeleteInstantUnitButton@@UAEPAXI@Z 0063a630 f i instant_unit_window.obj
 0002:00038630       ??_GDeleteInstantUnitButton@@UAEPAXI@Z 0063a630 f i instant_unit_window.obj
 0002:000386a0       ??1DeleteInstantUnitButton@@UAE@XZ 0063a6a0 f i instant_unit_window.obj
 0002:000386f0       ??0InstantUnitCreateWindow@@QAE@PAD@Z 0063a6f0 f   instant_unit_window.obj
 0002:00038760       ??_EInstantUnitCreateWindow@@UAEPAXI@Z 0063a760 f i instant_unit_window.obj
 0002:00038760       ??_GInstantUnitCreateWindow@@UAEPAXI@Z 0063a760 f i instant_unit_window.obj
 0002:000387d0       ??1InstantUnitCreateWindow@@UAE@XZ 0063a7d0 f   instant_unit_window.obj
 0002:000388b0       ?Create@InstantUnitCreateWindow@@UAEXXZ 0063a8b0 f   instant_unit_window.obj
 0002:00038ad0       ??0CreateButton@@QAE@XZ    0063aad0 f i instant_unit_window.obj
 0002:00038b30       ?MouseUp@CreateButton@@UAEXXZ 0063ab30 f i instant_unit_window.obj
 0002:00038fc0       ??0InstantUnit@@QAE@XZ     0063afc0 f i instant_unit_window.obj
 0002:00039090       ??_GCreateButton@@UAEPAXI@Z 0063b090 f i instant_unit_window.obj
 0002:00039090       ??_ECreateButton@@UAEPAXI@Z 0063b090 f i instant_unit_window.obj
 0002:00039100       ??1CreateButton@@UAE@XZ    0063b100 f i instant_unit_window.obj
 0002:00039150       ?PutData@?$LList@PAVInstantUnit@@@@QAEXABQAVInstantUnit@@@Z 0063b150 f i instant_unit_window.obj
 0002:000391b0       ?GetData@?$LList@PAVInstantUnit@@@@QBEPAVInstantUnit@@H@Z 0063b1b0 f i instant_unit_window.obj
 0002:00039350       ?RemoveData@?$LList@PAVInstantUnit@@@@QAEXH@Z 0063b350 f i instant_unit_window.obj
 0002:000394e0       ?Size@?$LList@PAVInstantUnit@@@@QBEHXZ 0063b4e0 f i instant_unit_window.obj
 0002:00039520       ??_G?$LListItem@PAVInstantUnit@@@@QAEPAXI@Z 0063b520 f i instant_unit_window.obj
 0002:00039590       ?PutDataAtEnd@?$LList@PAVInstantUnit@@@@QAEXABQAVInstantUnit@@@Z 0063b590 f i instant_unit_window.obj
 0002:00039720       ?ValidIndex@?$LList@PAVInstantUnit@@@@QBE_NH@Z 0063b720 f i instant_unit_window.obj
 0002:00039790       ??1?$LListItem@PAVInstantUnit@@@@QAE@XZ 0063b790 f i instant_unit_window.obj
 0002:000397d0       ??0?$LListItem@PAVInstantUnit@@@@QAE@XZ 0063b7d0 f i instant_unit_window.obj
 0002:00039830       ??0LandscapeTileEditWindow@@QAE@PADH@Z 0063b830 f   landscape_window.obj
 0002:000398b0       ??_ELandscapeTileEditWindow@@UAEPAXI@Z 0063b8b0 f i landscape_window.obj
 0002:000398b0       ??_GLandscapeTileEditWindow@@UAEPAXI@Z 0063b8b0 f i landscape_window.obj
 0002:00039920       ??1LandscapeTileEditWindow@@UAE@XZ 0063b920 f   landscape_window.obj
 0002:00039990       ?Create@LandscapeTileEditWindow@@UAEXXZ 0063b990 f   landscape_window.obj
 0002:0003a3b0       _floorf                    0063c3b0 f i landscape_window.obj
 0002:0003a420       ??0LandscapeTileButton@@QAE@PAVLandscapeTile@@@Z 0063c420 f i landscape_window.obj
 0002:0003a490       ?MouseUp@LandscapeTileButton@@UAEXXZ 0063c490 f i landscape_window.obj
 0002:0003abc0       ??_GLandscapeTileButton@@UAEPAXI@Z 0063cbc0 f i landscape_window.obj
 0002:0003abc0       ??_ELandscapeTileButton@@UAEPAXI@Z 0063cbc0 f i landscape_window.obj
 0002:0003ac30       ??1LandscapeTileButton@@UAE@XZ 0063cc30 f i landscape_window.obj
 0002:0003ac80       ??0LandscapeFlattenAreaEditWindow@@QAE@PADH@Z 0063cc80 f   landscape_window.obj
 0002:0003ad00       ??_ELandscapeFlattenAreaEditWindow@@UAEPAXI@Z 0063cd00 f i landscape_window.obj
 0002:0003ad00       ??_GLandscapeFlattenAreaEditWindow@@UAEPAXI@Z 0063cd00 f i landscape_window.obj
 0002:0003ad70       ??1LandscapeFlattenAreaEditWindow@@UAE@XZ 0063cd70 f   landscape_window.obj
 0002:0003ade0       ?Create@LandscapeFlattenAreaEditWindow@@UAEXXZ 0063cde0 f   landscape_window.obj
 0002:0003b160       ??0LandscapeFlattenAreaDeleteButton@@QAE@H@Z 0063d160 f i landscape_window.obj
 0002:0003b1d0       ?MouseUp@LandscapeFlattenAreaDeleteButton@@UAEXXZ 0063d1d0 f i landscape_window.obj
 0002:0003b270       ??_ELandscapeFlattenAreaDeleteButton@@UAEPAXI@Z 0063d270 f i landscape_window.obj
 0002:0003b270       ??_GLandscapeFlattenAreaDeleteButton@@UAEPAXI@Z 0063d270 f i landscape_window.obj
 0002:0003b2e0       ??1LandscapeFlattenAreaDeleteButton@@UAE@XZ 0063d2e0 f i landscape_window.obj
 0002:0003b330       ??0LandscapeEditWindow@@QAE@PAD@Z 0063d330 f   landscape_window.obj
 0002:0003b3a0       ??_GLandscapeEditWindow@@UAEPAXI@Z 0063d3a0 f i landscape_window.obj
 0002:0003b3a0       ??_ELandscapeEditWindow@@UAEPAXI@Z 0063d3a0 f i landscape_window.obj
 0002:0003b410       ??1LandscapeEditWindow@@UAE@XZ 0063d410 f   landscape_window.obj
 0002:0003b510       ?Create@LandscapeEditWindow@@UAEXXZ 0063d510 f   landscape_window.obj
 0002:0003bc60       ??0NewTileButton@@QAE@XZ   0063dc60 f i landscape_window.obj
 0002:0003bcc0       ?MouseUp@NewTileButton@@UAEXXZ 0063dcc0 f i landscape_window.obj
 0002:0003bfa0       ??0NewFlattenAreaButton@@QAE@XZ 0063dfa0 f i landscape_window.obj
 0002:0003c000       ?MouseUp@NewFlattenAreaButton@@UAEXXZ 0063e000 f i landscape_window.obj
 0002:0003c280       ??0LandscapeFlattenArea@@QAE@XZ 0063e280 f i landscape_window.obj
 0002:0003c2e0       ??0ScaleLandscapeButton@@QAE@XZ 0063e2e0 f i landscape_window.obj
 0002:0003c340       ?MouseUp@ScaleLandscapeButton@@UAEXXZ 0063e340 f i landscape_window.obj
 0002:0003c680       ??_GNewTileButton@@UAEPAXI@Z 0063e680 f i landscape_window.obj
 0002:0003c680       ??_ENewTileButton@@UAEPAXI@Z 0063e680 f i landscape_window.obj
 0002:0003c6f0       ??_ENewFlattenAreaButton@@UAEPAXI@Z 0063e6f0 f i landscape_window.obj
 0002:0003c6f0       ??_GNewFlattenAreaButton@@UAEPAXI@Z 0063e6f0 f i landscape_window.obj
 0002:0003c760       ??_EScaleLandscapeButton@@UAEPAXI@Z 0063e760 f i landscape_window.obj
 0002:0003c760       ??_GScaleLandscapeButton@@UAEPAXI@Z 0063e760 f i landscape_window.obj
 0002:0003c7d0       ??1NewTileButton@@UAE@XZ   0063e7d0 f i landscape_window.obj
 0002:0003c820       ??1NewFlattenAreaButton@@UAE@XZ 0063e820 f i landscape_window.obj
 0002:0003c870       ??1ScaleLandscapeButton@@UAE@XZ 0063e870 f i landscape_window.obj
 0002:0003c8c0       ??0LandscapeGuideGridWindow@@QAE@PADH@Z 0063e8c0 f   landscape_window.obj
 0002:0003c960       ??_ELandscapeGuideGridWindow@@UAEPAXI@Z 0063e960 f i landscape_window.obj
 0002:0003c960       ??_GLandscapeGuideGridWindow@@UAEPAXI@Z 0063e960 f i landscape_window.obj
 0002:0003c9d0       ??1LandscapeGuideGridWindow@@UAE@XZ 0063e9d0 f   landscape_window.obj
 0002:0003ca30       ?Create@LandscapeGuideGridWindow@@UAEXXZ 0063ea30 f   landscape_window.obj
 0002:0003d0c0       ??0GuideGridTool@@QAE@H@Z  0063f0c0 f i landscape_window.obj
 0002:0003d130       ?Render@GuideGridTool@@UAEXHH_N0@Z 0063f130 f i landscape_window.obj
 0002:0003d1e0       ?MouseUp@GuideGridTool@@UAEXXZ 0063f1e0 f i landscape_window.obj
 0002:0003d240       ??_EGuideGridTool@@UAEPAXI@Z 0063f240 f i landscape_window.obj
 0002:0003d240       ??_GGuideGridTool@@UAEPAXI@Z 0063f240 f i landscape_window.obj
 0002:0003d2b0       ??1GuideGridTool@@UAE@XZ   0063f2b0 f i landscape_window.obj
 0002:0003d300       ??0GuideGridButton@@QAE@XZ 0063f300 f i landscape_window.obj
 0002:0003d360       ?MouseUp@GuideGridButton@@UAEXXZ 0063f360 f i landscape_window.obj
 0002:0003d470       ??0GuideGrid@@QAE@XZ       0063f470 f i landscape_window.obj
 0002:0003d4d0       ?Render@GuideGrid@@UAEXHH_N0@Z 0063f4d0 f i landscape_window.obj
 0002:0003d5d0       ?RenderBorder@GuideGrid@@QAEXHH_N0@Z 0063f5d0 f i landscape_window.obj
 0002:0003d760       ?RenderGrid@GuideGrid@@QAEXHH_N0@Z 0063f760 f i landscape_window.obj
 0002:0003d9f0       ?RenderColours@GuideGrid@@QAEXHH_N0@Z 0063f9f0 f i landscape_window.obj
 0002:0003dc70       ?RenderMouse@GuideGrid@@QAEXHH_N0@Z 0063fc70 f i landscape_window.obj
 0002:0003df40       ?HandleMouseInput@GuideGrid@@QAEXXZ 0063ff40 f i landscape_window.obj
 0002:0003e370       ?GetToolEffect@GuideGrid@@QAEMHH@Z 00640370 f i landscape_window.obj
 0002:0003e590       _sqrtf                     00640590 f i landscape_window.obj
 0002:0003e600       ??_EGuideGridButton@@UAEPAXI@Z 00640600 f i landscape_window.obj
 0002:0003e600       ??_GGuideGridButton@@UAEPAXI@Z 00640600 f i landscape_window.obj
 0002:0003e670       ??_EGuideGrid@@UAEPAXI@Z   00640670 f i landscape_window.obj
 0002:0003e670       ??_GGuideGrid@@UAEPAXI@Z   00640670 f i landscape_window.obj
 0002:0003e6e0       ??1GuideGridButton@@UAE@XZ 006406e0 f i landscape_window.obj
 0002:0003e730       ??1GuideGrid@@UAE@XZ       00640730 f i landscape_window.obj
 0002:0003e780       ?PutDataAtEnd@?$LList@PAVLandscapeTile@@@@QAEXABQAVLandscapeTile@@@Z 00640780 f i landscape_window.obj
 0002:0003e910       ?GetData@?$LList@PAVLandscapeTile@@@@QBEPAVLandscapeTile@@H@Z 00640910 f i landscape_window.obj
 0002:0003eab0       ?Size@?$LList@PAVLandscapeTile@@@@QBEHXZ 00640ab0 f i landscape_window.obj
 0002:0003eaf0       ??A?$LList@PAVLandscapeTile@@@@QAEPAVLandscapeTile@@H@Z 00640af0 f i landscape_window.obj
 0002:0003eb50       ?PutDataAtEnd@?$LList@PAVLandscapeFlattenArea@@@@QAEXABQAVLandscapeFlattenArea@@@Z 00640b50 f i landscape_window.obj
 0002:0003ece0       ?GetData@?$LList@PAVLandscapeFlattenArea@@@@QBEPAVLandscapeFlattenArea@@H@Z 00640ce0 f i landscape_window.obj
 0002:0003ee80       ?RemoveData@?$LList@PAVLandscapeFlattenArea@@@@QAEXH@Z 00640e80 f i landscape_window.obj
 0002:0003f010       ?Size@?$LList@PAVBuilding@@@@QBEHXZ 00641010 f i landscape_window.obj
 0002:0003f050       ??A?$LList@PAVBuilding@@@@QAEPAVBuilding@@H@Z 00641050 f i landscape_window.obj
 0002:0003f0b0       ??A?$LList@PAVInstantUnit@@@@QAEPAVInstantUnit@@H@Z 006410b0 f i landscape_window.obj
 0002:0003f110       ?GetData@?$Array2D@E@@QBEABEGG@Z 00641110 f i landscape_window.obj
 0002:0003f1a0       ?PutData@?$Array2D@E@@QAEXGGABE@Z 006411a0 f i landscape_window.obj
 0002:0003f230       ?GetNumColumns@?$Array2D@E@@QBEGXZ 00641230 f i landscape_window.obj
 0002:0003f270       ??_G?$LListItem@PAVLandscapeFlattenArea@@@@QAEPAXI@Z 00641270 f i landscape_window.obj
 0002:0003f2e0       ?ValidIndex@?$LList@PAVLandscapeTile@@@@QBE_NH@Z 006412e0 f i landscape_window.obj
 0002:0003f350       ??0?$LListItem@PAVLandscapeTile@@@@QAE@XZ 00641350 f i landscape_window.obj
 0002:0003f3b0       ?ValidIndex@?$LList@PAVLandscapeFlattenArea@@@@QBE_NH@Z 006413b0 f i landscape_window.obj
 0002:0003f420       ??0?$LListItem@PAVLandscapeFlattenArea@@@@QAE@XZ 00641420 f i landscape_window.obj
 0002:0003f480       ??1?$LListItem@PAVLandscapeFlattenArea@@@@QAE@XZ 00641480 f i landscape_window.obj
 0002:0003f4c0       ?GetData@?$LList@PAVBuilding@@@@QBEPAVBuilding@@H@Z 006414c0 f i landscape_window.obj
 0002:0003f660       ?ValidIndex@?$LList@PAVBuilding@@@@QBE_NH@Z 00641660 f i landscape_window.obj
 0002:0003f6d0       ??0LightsEditWindow@@QAE@PAD@Z 006416d0 f   lights_window.obj
 0002:0003f740       ??_ELightsEditWindow@@UAEPAXI@Z 00641740 f i lights_window.obj
 0002:0003f740       ??_GLightsEditWindow@@UAEPAXI@Z 00641740 f i lights_window.obj
 0002:0003f7b0       ??1LightsEditWindow@@UAE@XZ 006417b0 f   lights_window.obj
 0002:0003f870       ?Create@LightsEditWindow@@UAEXXZ 00641870 f   lights_window.obj
 0002:00040230       ??0LightButton@@QAE@H@Z    00642230 f i lights_window.obj
 0002:000402a0       ?MouseUp@LightButton@@UAEXXZ 006422a0 f i lights_window.obj
 0002:00040330       ?Render@LightButton@@UAEXHH_N0@Z 00642330 f i lights_window.obj
 0002:000403d0       ??_GLightButton@@UAEPAXI@Z 006423d0 f i lights_window.obj
 0002:000403d0       ??_ELightButton@@UAEPAXI@Z 006423d0 f i lights_window.obj
 0002:00040440       ??1LightButton@@UAE@XZ     00642440 f i lights_window.obj
 0002:00040490       ??0LightGammaButton@@QAE@H@Z 00642490 f i lights_window.obj
 0002:00040500       ?MouseUp@LightGammaButton@@UAEXXZ 00642500 f i lights_window.obj
 0002:000405c0       ??_GLightGammaButton@@UAEPAXI@Z 006425c0 f i lights_window.obj
 0002:000405c0       ??_ELightGammaButton@@UAEPAXI@Z 006425c0 f i lights_window.obj
 0002:00040630       ??1LightGammaButton@@UAE@XZ 00642630 f i lights_window.obj
 0002:00040680       ??0NewLightButton@@QAE@XZ  00642680 f i lights_window.obj
 0002:000406e0       ?MouseUp@NewLightButton@@EAEXXZ 006426e0 f i lights_window.obj
 0002:00040860       ??0LabelButton@@QAE@XZ     00642860 f i lights_window.obj
 0002:000408c0       ??_GNewLightButton@@UAEPAXI@Z 006428c0 f i lights_window.obj
 0002:000408c0       ??_ENewLightButton@@UAEPAXI@Z 006428c0 f i lights_window.obj
 0002:00040930       ??_ELabelButton@@UAEPAXI@Z 00642930 f i lights_window.obj
 0002:00040930       ??_GLabelButton@@UAEPAXI@Z 00642930 f i lights_window.obj
 0002:000409a0       ??1NewLightButton@@UAE@XZ  006429a0 f i lights_window.obj
 0002:000409f0       ??1LabelButton@@UAE@XZ     006429f0 f i lights_window.obj
 0002:00040a40       ?GetData@?$DArray@PAVLight@@@@QBEPAVLight@@H@Z 00642a40 f i lights_window.obj
 0002:00040b60       ?Size@?$DArray@PAVLight@@@@QBEHXZ 00642b60 f i lights_window.obj
 0002:00040ba0       ??A?$DArray@PAVLight@@@@QAEAAPAVLight@@H@Z 00642ba0 f i lights_window.obj
 0002:00040cc0       ?PutData@?$FastDArray@PAVLight@@@@QAEHABQAVLight@@@Z 00642cc0 f i lights_window.obj
 0002:00040e20       ?Grow@?$FastDArray@PAVLight@@@@IAEXXZ 00642e20 f i lights_window.obj
 0002:00040ec0       ?SetSize@?$FastDArray@PAVLight@@@@QAEXH@Z 00642ec0 f i lights_window.obj
 0002:00041350       ?RebuildFreeList@?$FastDArray@PAVLight@@@@IAEXXZ 00643350 f i lights_window.obj
 0002:000414c0       ?RebuildNumUsed@?$FastDArray@PAVLight@@@@IAEXXZ 006434c0 f i lights_window.obj
 0002:00041560       ??0MainMenuWindow@@QAE@XZ  00643560 f   mainmenus.obj
 0002:000416b0       ??_GMainMenuWindow@@UAEPAXI@Z 006436b0 f i mainmenus.obj
 0002:000416b0       ??_EMainMenuWindow@@UAEPAXI@Z 006436b0 f i mainmenus.obj
 0002:00041720       ??1MainMenuWindow@@UAE@XZ  00643720 f i mainmenus.obj
 0002:00041770       ?Render@MainMenuWindow@@UAEX_N@Z 00643770 f   mainmenus.obj
 0002:000417d0       ??0OptionsMenuWindow@@QAE@XZ 006437d0 f   mainmenus.obj
 0002:000418d0       ??_GOptionsMenuWindow@@UAEPAXI@Z 006438d0 f i mainmenus.obj
 0002:000418d0       ??_EOptionsMenuWindow@@UAEPAXI@Z 006438d0 f i mainmenus.obj
 0002:00041940       ??1OptionsMenuWindow@@UAE@XZ 00643940 f i mainmenus.obj
 0002:00041990       ?Create@OptionsMenuWindow@@UAEXXZ 00643990 f   mainmenus.obj
 0002:00042170       ??0ScreenOptionsButton@@QAE@XZ 00644170 f i mainmenus.obj
 0002:000421d0       ?MouseUp@ScreenOptionsButton@@EAEXXZ 006441d0 f i mainmenus.obj
 0002:00042300       ??0GraphicsOptionsButton@@QAE@XZ 00644300 f i mainmenus.obj
 0002:00042360       ?MouseUp@GraphicsOptionsButton@@EAEXXZ 00644360 f i mainmenus.obj
 0002:00042490       ??0SoundOptionsButton@@QAE@XZ 00644490 f i mainmenus.obj
 0002:000424f0       ?MouseUp@SoundOptionsButton@@EAEXXZ 006444f0 f i mainmenus.obj
 0002:00042620       ??0KeybindingsOptionsButton@@QAE@XZ 00644620 f i mainmenus.obj
 0002:00042680       ?MouseUp@KeybindingsOptionsButton@@EAEXXZ 00644680 f i mainmenus.obj
 0002:000427b0       ??0OtherOptionsButton@@QAE@XZ 006447b0 f i mainmenus.obj
 0002:00042810       ?MouseUp@OtherOptionsButton@@EAEXXZ 00644810 f i mainmenus.obj
 0002:00042940       ??_EScreenOptionsButton@@UAEPAXI@Z 00644940 f i mainmenus.obj
 0002:00042940       ??_GScreenOptionsButton@@UAEPAXI@Z 00644940 f i mainmenus.obj
 0002:000429b0       ??_GGraphicsOptionsButton@@UAEPAXI@Z 006449b0 f i mainmenus.obj
 0002:000429b0       ??_EGraphicsOptionsButton@@UAEPAXI@Z 006449b0 f i mainmenus.obj
 0002:00042a20       ??_GSoundOptionsButton@@UAEPAXI@Z 00644a20 f i mainmenus.obj
 0002:00042a20       ??_ESoundOptionsButton@@UAEPAXI@Z 00644a20 f i mainmenus.obj
 0002:00042a90       ??_GKeybindingsOptionsButton@@UAEPAXI@Z 00644a90 f i mainmenus.obj
 0002:00042a90       ??_EKeybindingsOptionsButton@@UAEPAXI@Z 00644a90 f i mainmenus.obj
 0002:00042b00       ??_GOtherOptionsButton@@UAEPAXI@Z 00644b00 f i mainmenus.obj
 0002:00042b00       ??_EOtherOptionsButton@@UAEPAXI@Z 00644b00 f i mainmenus.obj
 0002:00042b70       ??1ScreenOptionsButton@@UAE@XZ 00644b70 f i mainmenus.obj
 0002:00042bc0       ??1GraphicsOptionsButton@@UAE@XZ 00644bc0 f i mainmenus.obj
 0002:00042c10       ??1SoundOptionsButton@@UAE@XZ 00644c10 f i mainmenus.obj
 0002:00042c60       ??1KeybindingsOptionsButton@@UAE@XZ 00644c60 f i mainmenus.obj
 0002:00042cb0       ??1OtherOptionsButton@@UAE@XZ 00644cb0 f i mainmenus.obj
 0002:00042d00       ??0LocationWindow@@QAE@XZ  00644d00 f   mainmenus.obj
 0002:00042e50       ??_ELocationWindow@@UAEPAXI@Z 00644e50 f i mainmenus.obj
 0002:00042e50       ??_GLocationWindow@@UAEPAXI@Z 00644e50 f i mainmenus.obj
 0002:00042ec0       ??1LocationWindow@@UAE@XZ  00644ec0 f i mainmenus.obj
 0002:00042f10       ?Create@LocationWindow@@UAEXXZ 00644f10 f   mainmenus.obj
 0002:00043ba0       ??0ResetLevelButton@@QAE@XZ 00645ba0 f i mainmenus.obj
 0002:00043c00       ?MouseUp@ResetLevelButton@@EAEXXZ 00645c00 f i mainmenus.obj
 0002:00043d00       ??0GameExitButton@@QAE@XZ  00645d00 f i mainmenus.obj
 0002:00043d60       ??0ExitLevelButton@@QAE@XZ 00645d60 f i mainmenus.obj
 0002:00043dc0       ?MouseUp@ExitLevelButton@@EAEXXZ 00645dc0 f i mainmenus.obj
 0002:00043f10       ??0WebsiteButton@@QAE@XZ   00645f10 f i mainmenus.obj
 0002:00043f70       ?MouseUp@WebsiteButton@@UAEXXZ 00645f70 f i mainmenus.obj
 0002:00044200       ??0OptionsButton@@QAE@XZ   00646200 f i mainmenus.obj
 0002:00044260       ?MouseUp@OptionsButton@@EAEXXZ 00646260 f i mainmenus.obj
 0002:00044390       ??0SkipPrologueWindowButton@@QAE@XZ 00646390 f i mainmenus.obj
 0002:000443f0       ?MouseUp@SkipPrologueWindowButton@@EAEXXZ 006463f0 f i mainmenus.obj
 0002:00044520       ??_GResetLevelButton@@UAEPAXI@Z 00646520 f i mainmenus.obj
 0002:00044520       ??_EResetLevelButton@@UAEPAXI@Z 00646520 f i mainmenus.obj
 0002:00044590       ??_GGameExitButton@@UAEPAXI@Z 00646590 f i mainmenus.obj
 0002:00044590       ??_EGameExitButton@@UAEPAXI@Z 00646590 f i mainmenus.obj
 0002:00044600       ??_GExitLevelButton@@UAEPAXI@Z 00646600 f i mainmenus.obj
 0002:00044600       ??_EExitLevelButton@@UAEPAXI@Z 00646600 f i mainmenus.obj
 0002:00044670       ??_GWebsiteButton@@UAEPAXI@Z 00646670 f i mainmenus.obj
 0002:00044670       ??_EWebsiteButton@@UAEPAXI@Z 00646670 f i mainmenus.obj
 0002:000446e0       ??_GOptionsButton@@UAEPAXI@Z 006466e0 f i mainmenus.obj
 0002:000446e0       ??_EOptionsButton@@UAEPAXI@Z 006466e0 f i mainmenus.obj
 0002:00044750       ??_ESkipPrologueWindowButton@@UAEPAXI@Z 00646750 f i mainmenus.obj
 0002:00044750       ??_GSkipPrologueWindowButton@@UAEPAXI@Z 00646750 f i mainmenus.obj
 0002:000447c0       ??1ResetLevelButton@@UAE@XZ 006467c0 f i mainmenus.obj
 0002:00044810       ??1GameExitButton@@UAE@XZ  00646810 f i mainmenus.obj
 0002:00044860       ??1ExitLevelButton@@UAE@XZ 00646860 f i mainmenus.obj
 0002:000448b0       ??1WebsiteButton@@UAE@XZ   006468b0 f i mainmenus.obj
 0002:00044900       ??1OptionsButton@@UAE@XZ   00646900 f i mainmenus.obj
 0002:00044950       ??1SkipPrologueWindowButton@@UAE@XZ 00646950 f i mainmenus.obj
 0002:000449a0       ??0ResetLocationWindow@@QAE@XZ 006469a0 f   mainmenus.obj
 0002:00044a80       ??_GResetLocationWindow@@UAEPAXI@Z 00646a80 f i mainmenus.obj
 0002:00044a80       ??_EResetLocationWindow@@UAEPAXI@Z 00646a80 f i mainmenus.obj
 0002:00044af0       ??1ResetLocationWindow@@UAE@XZ 00646af0 f i mainmenus.obj
 0002:00044b40       ?Create@ResetLocationWindow@@UAEXXZ 00646b40 f   mainmenus.obj
 0002:00044f40       ??0InvertedBox@@QAE@XZ     00646f40 f i mainmenus.obj
 0002:00044fa0       ??0ResetLocationButton@@QAE@XZ 00646fa0 f i mainmenus.obj
 0002:00045000       ?MouseUp@ResetLocationButton@@EAEXXZ 00647000 f i mainmenus.obj
 0002:000450b0       ??_EInvertedBox@@UAEPAXI@Z 006470b0 f i mainmenus.obj
 0002:000450b0       ??_GInvertedBox@@UAEPAXI@Z 006470b0 f i mainmenus.obj
 0002:00045120       ??_EResetLocationButton@@UAEPAXI@Z 00647120 f i mainmenus.obj
 0002:00045120       ??_GResetLocationButton@@UAEPAXI@Z 00647120 f i mainmenus.obj
 0002:00045190       ??1InvertedBox@@UAE@XZ     00647190 f i mainmenus.obj
 0002:000451e0       ??1ResetLocationButton@@UAE@XZ 006471e0 f i mainmenus.obj
 0002:00045230       ?Render@ResetLocationWindow@@UAEX_N@Z 00647230 f   mainmenus.obj
 0002:00045560       ?Create@MainMenuWindow@@UAEXXZ 00647560 f   mainmenus.obj
 0002:00045ee0       ??0MainMenuUserProfileButton@@QAE@XZ 00647ee0 f i mainmenus.obj
 0002:00045f40       ?MouseUp@MainMenuUserProfileButton@@EAEXXZ 00647f40 f i mainmenus.obj
 0002:00046070       ??0ModsButton@@QAE@XZ      00648070 f i mainmenus.obj
 0002:000460d0       ?MouseUp@ModsButton@@EAEXXZ 006480d0 f i mainmenus.obj
 0002:00046200       ??0PlayPrologueWindowButton@@QAE@XZ 00648200 f i mainmenus.obj
 0002:00046260       ?MouseUp@PlayPrologueWindowButton@@EAEXXZ 00648260 f i mainmenus.obj
 0002:00046390       ??_EMainMenuUserProfileButton@@UAEPAXI@Z 00648390 f i mainmenus.obj
 0002:00046390       ??_GMainMenuUserProfileButton@@UAEPAXI@Z 00648390 f i mainmenus.obj
 0002:00046400       ??_GModsButton@@UAEPAXI@Z  00648400 f i mainmenus.obj
 0002:00046400       ??_EModsButton@@UAEPAXI@Z  00648400 f i mainmenus.obj
 0002:00046470       ??_EPlayPrologueWindowButton@@UAEPAXI@Z 00648470 f i mainmenus.obj
 0002:00046470       ??_GPlayPrologueWindowButton@@UAEPAXI@Z 00648470 f i mainmenus.obj
 0002:000464e0       ??1MainMenuUserProfileButton@@UAE@XZ 006484e0 f i mainmenus.obj
 0002:00046530       ??1ModsButton@@UAE@XZ      00648530 f i mainmenus.obj
 0002:00046580       ??1PlayPrologueWindowButton@@UAE@XZ 00648580 f i mainmenus.obj
 0002:000465d0       ??0AboutDarwiniaWindow@@QAE@XZ 006485d0 f   mainmenus.obj
 0002:000466b0       ??_GAboutDarwiniaWindow@@UAEPAXI@Z 006486b0 f i mainmenus.obj
 0002:000466b0       ??_EAboutDarwiniaWindow@@UAEPAXI@Z 006486b0 f i mainmenus.obj
 0002:00046720       ??1AboutDarwiniaWindow@@UAE@XZ 00648720 f i mainmenus.obj
 0002:00046770       ?Create@AboutDarwiniaWindow@@UAEXXZ 00648770 f   mainmenus.obj
 0002:00046960       ?Render@AboutDarwiniaWindow@@UAEX_N@Z 00648960 f   mainmenus.obj
 0002:00046f80       ??0SkipPrologueWindow@@QAE@XZ 00648f80 f   mainmenus.obj
 0002:00047060       ??_GSkipPrologueWindow@@UAEPAXI@Z 00649060 f i mainmenus.obj
 0002:00047060       ??_ESkipPrologueWindow@@UAEPAXI@Z 00649060 f i mainmenus.obj
 0002:000470d0       ??1SkipPrologueWindow@@UAE@XZ 006490d0 f i mainmenus.obj
 0002:00047120       ?Create@SkipPrologueWindow@@UAEXXZ 00649120 f   mainmenus.obj
 0002:00047440       ??0SkipPrologueButton@@QAE@XZ 00649440 f i mainmenus.obj
 0002:000474a0       ?MouseUp@SkipPrologueButton@@EAEXXZ 006494a0 f i mainmenus.obj
 0002:00047550       ??_GSkipPrologueButton@@UAEPAXI@Z 00649550 f i mainmenus.obj
 0002:00047550       ??_ESkipPrologueButton@@UAEPAXI@Z 00649550 f i mainmenus.obj
 0002:000475c0       ??1SkipPrologueButton@@UAE@XZ 006495c0 f i mainmenus.obj
 0002:00047610       ?Render@SkipPrologueWindow@@UAEX_N@Z 00649610 f   mainmenus.obj
 0002:00047bc0       ??0PlayPrologueWindow@@QAE@XZ 00649bc0 f   mainmenus.obj
 0002:00047ca0       ??_GPlayPrologueWindow@@UAEPAXI@Z 00649ca0 f i mainmenus.obj
 0002:00047ca0       ??_EPlayPrologueWindow@@UAEPAXI@Z 00649ca0 f i mainmenus.obj
 0002:00047d10       ??1PlayPrologueWindow@@UAE@XZ 00649d10 f i mainmenus.obj
 0002:00047d60       ?Create@PlayPrologueWindow@@UAEXXZ 00649d60 f   mainmenus.obj
 0002:00048080       ??0PlayPrologueButton@@QAE@XZ 0064a080 f i mainmenus.obj
 0002:000480e0       ?MouseUp@PlayPrologueButton@@EAEXXZ 0064a0e0 f i mainmenus.obj
 0002:00048190       ??_EPlayPrologueButton@@UAEPAXI@Z 0064a190 f i mainmenus.obj
 0002:00048190       ??_GPlayPrologueButton@@UAEPAXI@Z 0064a190 f i mainmenus.obj
 0002:00048200       ??1PlayPrologueButton@@UAE@XZ 0064a200 f i mainmenus.obj
 0002:00048250       ?Render@PlayPrologueWindow@@UAEX_N@Z 0064a250 f   mainmenus.obj
 0002:00048800       ?Size@?$LList@PAVEclWindow@@@@QBEHXZ 0064a800 f i mainmenus.obj
 0002:00048840       ??0MessageDialog@@QAE@PBD0@Z 0064a840 f   message_dialog.obj
 0002:00048b70       ??_EMessageDialog@@UAEPAXI@Z 0064ab70 f i message_dialog.obj
 0002:00048b70       ??_GMessageDialog@@UAEPAXI@Z 0064ab70 f i message_dialog.obj
 0002:00048be0       ??1MessageDialog@@UAE@XZ   0064abe0 f   message_dialog.obj
 0002:00048ca0       ?Create@MessageDialog@@UAEXXZ 0064aca0 f   message_dialog.obj
 0002:00048e80       ??0OKButton@@QAE@PAVMessageDialog@@@Z 0064ae80 f i message_dialog.obj
 0002:00048ef0       ?MouseUp@OKButton@@UAEXXZ  0064aef0 f i message_dialog.obj
 0002:00048f50       ??_EOKButton@@UAEPAXI@Z    0064af50 f i message_dialog.obj
 0002:00048f50       ??_GOKButton@@UAEPAXI@Z    0064af50 f i message_dialog.obj
 0002:00048fc0       ??1OKButton@@UAE@XZ        0064afc0 f i message_dialog.obj
 0002:00049010       ?Render@MessageDialog@@UAEX_N@Z 0064b010 f   message_dialog.obj
 0002:00049150       ??0ModsWindow@@QAE@XZ      0064b150 f   mods_window.obj
 0002:000491d0       ??_EModsWindow@@UAEPAXI@Z  0064b1d0 f i mods_window.obj
 0002:000491d0       ??_GModsWindow@@UAEPAXI@Z  0064b1d0 f i mods_window.obj
 0002:00049240       ??1ModsWindow@@UAE@XZ      0064b240 f i mods_window.obj
 0002:00049290       ?Render@ModsWindow@@UAEX_N@Z 0064b290 f   mods_window.obj
 0002:00049460       ?Create@ModsWindow@@UAEXXZ 0064b460 f   mods_window.obj
 0002:00049f40       ??0LoadModButton@@QAE@XZ   0064bf40 f i mods_window.obj
 0002:00049fa0       ?MouseUp@LoadModButton@@UAEXXZ 0064bfa0 f i mods_window.obj
 0002:0004a070       ??0NewModWindowButton@@QAE@XZ 0064c070 f i mods_window.obj
 0002:0004a0d0       ?MouseUp@NewModWindowButton@@EAEXXZ 0064c0d0 f i mods_window.obj
 0002:0004a1d0       ??0ToolsButton@@QAE@XZ     0064c1d0 f i mods_window.obj
 0002:0004a230       ?MouseUp@ToolsButton@@EAEXXZ 0064c230 f i mods_window.obj
 0002:0004a280       ??_ELoadModButton@@UAEPAXI@Z 0064c280 f i mods_window.obj
 0002:0004a280       ??_GLoadModButton@@UAEPAXI@Z 0064c280 f i mods_window.obj
 0002:0004a2f0       ??_GNewModWindowButton@@UAEPAXI@Z 0064c2f0 f i mods_window.obj
 0002:0004a2f0       ??_ENewModWindowButton@@UAEPAXI@Z 0064c2f0 f i mods_window.obj
 0002:0004a360       ??_GToolsButton@@UAEPAXI@Z 0064c360 f i mods_window.obj
 0002:0004a360       ??_EToolsButton@@UAEPAXI@Z 0064c360 f i mods_window.obj
 0002:0004a3d0       ??1LoadModButton@@UAE@XZ   0064c3d0 f i mods_window.obj
 0002:0004a420       ??1NewModWindowButton@@UAE@XZ 0064c420 f i mods_window.obj
 0002:0004a470       ??1ToolsButton@@UAE@XZ     0064c470 f i mods_window.obj
 0002:0004a4c0       ??0NewModWindow@@QAE@XZ    0064c4c0 f   mods_window.obj
 0002:0004a540       ??_ENewModWindow@@UAEPAXI@Z 0064c540 f i mods_window.obj
 0002:0004a540       ??_GNewModWindow@@UAEPAXI@Z 0064c540 f i mods_window.obj
 0002:0004a5b0       ??1NewModWindow@@UAE@XZ    0064c5b0 f i mods_window.obj
 0002:0004a600       ?Create@NewModWindow@@UAEXXZ 0064c600 f   mods_window.obj
 0002:0004aa70       ??0NewModButton@@QAE@XZ    0064ca70 f i mods_window.obj
 0002:0004aad0       ?MouseUp@NewModButton@@EAEXXZ 0064cad0 f i mods_window.obj
 0002:0004ad40       ??_GGlobalWorld@@QAEPAXI@Z 0064cd40 f i mods_window.obj
 0002:0004adb0       ??_GNewModButton@@UAEPAXI@Z 0064cdb0 f i mods_window.obj
 0002:0004adb0       ??_ENewModButton@@UAEPAXI@Z 0064cdb0 f i mods_window.obj
 0002:0004ae20       ??1NewModButton@@UAE@XZ    0064ce20 f i mods_window.obj
 0002:0004ae70       ??0NetworkWindow@@QAE@PAD@Z 0064ce70 f   network_window.obj
 0002:0004aee0       ??_GNetworkWindow@@UAEPAXI@Z 0064cee0 f i network_window.obj
 0002:0004aee0       ??_ENetworkWindow@@UAEPAXI@Z 0064cee0 f i network_window.obj
 0002:0004af50       ??1NetworkWindow@@UAE@XZ   0064cf50 f i network_window.obj
 0002:0004afa0       ?Render@NetworkWindow@@UAEX_N@Z 0064cfa0 f   network_window.obj
 0002:0004b290       ?Size@?$LList@PAVServerToClientLetter@@@@QBEHXZ 0064d290 f i network_window.obj
 0002:0004b2d0       ??0PrefsGraphicsWindow@@QAE@XZ 0064d2d0 f   prefs_graphics_window.obj
 0002:0004b4d0       ??_GPrefsGraphicsWindow@@UAEPAXI@Z 0064d4d0 f i prefs_graphics_window.obj
 0002:0004b4d0       ??_EPrefsGraphicsWindow@@UAEPAXI@Z 0064d4d0 f i prefs_graphics_window.obj
 0002:0004b540       ??1PrefsGraphicsWindow@@UAE@XZ 0064d540 f   prefs_graphics_window.obj
 0002:0004b5a0       ?Create@PrefsGraphicsWindow@@UAEXXZ 0064d5a0 f   prefs_graphics_window.obj
 0002:0004c4b0       ??0ApplyGraphicsButton@@QAE@XZ 0064e4b0 f i prefs_graphics_window.obj
 0002:0004c510       ?MouseUp@ApplyGraphicsButton@@UAEXXZ 0064e510 f i prefs_graphics_window.obj
 0002:0004c830       ??_GWater@@QAEPAXI@Z       0064e830 f i prefs_graphics_window.obj
 0002:0004c8a0       ??_GApplyGraphicsButton@@UAEPAXI@Z 0064e8a0 f i prefs_graphics_window.obj
 0002:0004c8a0       ??_EApplyGraphicsButton@@UAEPAXI@Z 0064e8a0 f i prefs_graphics_window.obj
 0002:0004c910       ??1ApplyGraphicsButton@@UAE@XZ 0064e910 f i prefs_graphics_window.obj
 0002:0004c960       ?RenderCPUUsage@@YAXPAV?$LList@PAD@@HH@Z 0064e960 f   prefs_graphics_window.obj
 0002:0004cb40       ?Render@PrefsGraphicsWindow@@UAEX_N@Z 0064eb40 f   prefs_graphics_window.obj
 0002:0004cf50       ?GetData@?$HashTable@PAVProfiledElement@@@@QBEPAVProfiledElement@@PBDABQAV2@@Z 0064ef50 f i prefs_graphics_window.obj
 0002:0004cfd0       ?Size@?$DArray@PAVBuilding@@@@QBEHXZ 0064efd0 f i prefs_graphics_window.obj
 0002:0004d010       ?ValidIndex@?$DArray@PAVBuilding@@@@QBE_NH@Z 0064f010 f i prefs_graphics_window.obj
 0002:0004d080       ??A?$DArray@PAVBuilding@@@@QAEAAPAVBuilding@@H@Z 0064f080 f i prefs_graphics_window.obj
 0002:0004d1a0       ??0?$LList@PAD@@QAE@XZ     0064f1a0 f i prefs_graphics_window.obj
 0002:0004d220       ?GetIndex@?$HashTable@PAVProfiledElement@@@@QBEHPBD@Z 0064f220 f i prefs_graphics_window.obj
 0002:0004d2f0       ?HashFunc@?$HashTable@PAVProfiledElement@@@@IBEIPBD@Z 0064f2f0 f i prefs_graphics_window.obj
 0002:0004d3d0       ??0PrefsKeybindingsWindow@@QAE@XZ 0064f3d0 f   prefs_keybindings_window.obj
 0002:0004d6c0       ??_GPrefsKeybindingsWindow@@UAEPAXI@Z 0064f6c0 f i prefs_keybindings_window.obj
 0002:0004d6c0       ??_EPrefsKeybindingsWindow@@UAEPAXI@Z 0064f6c0 f i prefs_keybindings_window.obj
 0002:0004d730       ??1PrefsKeybindingsWindow@@UAE@XZ 0064f730 f i prefs_keybindings_window.obj
 0002:0004d7e0       ?Create@PrefsKeybindingsWindow@@UAEXXZ 0064f7e0 f   prefs_keybindings_window.obj
 0002:0004e1e0       ??0ChangeKeybindingButton@@QAE@H_N@Z 006501e0 f i prefs_keybindings_window.obj
 0002:0004e270       ?MouseUp@ChangeKeybindingButton@@UAEXXZ 00650270 f i prefs_keybindings_window.obj
 0002:0004e2d0       ?Render@ChangeKeybindingButton@@UAEXHH_N0@Z 006502d0 f i prefs_keybindings_window.obj
 0002:0004e5e0       ??_EChangeKeybindingButton@@UAEPAXI@Z 006505e0 f i prefs_keybindings_window.obj
 0002:0004e5e0       ??_GChangeKeybindingButton@@UAEPAXI@Z 006505e0 f i prefs_keybindings_window.obj
 0002:0004e650       ??1ChangeKeybindingButton@@UAE@XZ 00650650 f i prefs_keybindings_window.obj
 0002:0004e6a0       ??0ControlMethodDropDownMenu@@QAE@XZ 006506a0 f i prefs_keybindings_window.obj
 0002:0004e700       ?SelectOption@ControlMethodDropDownMenu@@EAEXH@Z 00650700 f i prefs_keybindings_window.obj
 0002:0004e830       ??0RestoreDefaultsButton@@QAE@XZ 00650830 f i prefs_keybindings_window.obj
 0002:0004e890       ?MouseUp@RestoreDefaultsButton@@UAEXXZ 00650890 f i prefs_keybindings_window.obj
 0002:0004ea00       ??0ApplyKeybindingsButton@@QAE@XZ 00650a00 f i prefs_keybindings_window.obj
 0002:0004ea60       ?MouseUp@ApplyKeybindingsButton@@EAEXXZ 00650a60 f i prefs_keybindings_window.obj
 0002:0004ef60       ??_EControlMethodDropDownMenu@@UAEPAXI@Z 00650f60 f i prefs_keybindings_window.obj
 0002:0004ef60       ??_GControlMethodDropDownMenu@@UAEPAXI@Z 00650f60 f i prefs_keybindings_window.obj
 0002:0004efd0       ??_GRestoreDefaultsButton@@UAEPAXI@Z 00650fd0 f i prefs_keybindings_window.obj
 0002:0004efd0       ??_ERestoreDefaultsButton@@UAEPAXI@Z 00650fd0 f i prefs_keybindings_window.obj
 0002:0004f040       ??_GApplyKeybindingsButton@@UAEPAXI@Z 00651040 f i prefs_keybindings_window.obj
 0002:0004f040       ??_EApplyKeybindingsButton@@UAEPAXI@Z 00651040 f i prefs_keybindings_window.obj
 0002:0004f0b0       ??1ControlMethodDropDownMenu@@UAE@XZ 006510b0 f i prefs_keybindings_window.obj
 0002:0004f100       ??1RestoreDefaultsButton@@UAE@XZ 00651100 f i prefs_keybindings_window.obj
 0002:0004f150       ??1ApplyKeybindingsButton@@UAE@XZ 00651150 f i prefs_keybindings_window.obj
 0002:0004f1a0       ?Remove@PrefsKeybindingsWindow@@UAEXXZ 006511a0 f   prefs_keybindings_window.obj
 0002:0004f2b0       ?Render@PrefsKeybindingsWindow@@UAEX_N@Z 006512b0 f   prefs_keybindings_window.obj
 0002:0004f470       ??0?$basic_string@DU?$char_traits@D@std@@V?$allocator@D@2@@std@@QAE@XZ 00651470 f i prefs_keybindings_window.obj
 0002:0004f530       ??0?$basic_string@DU?$char_traits@D@std@@V?$allocator@D@2@@std@@QAE@PBD@Z 00651530 f i prefs_keybindings_window.obj
 0002:0004f600       ??1?$basic_string@DU?$char_traits@D@std@@V?$allocator@D@2@@std@@QAE@XZ 00651600 f i prefs_keybindings_window.obj
 0002:0004f6b0       ??4?$basic_string@DU?$char_traits@D@std@@V?$allocator@D@2@@std@@QAEAAV01@ABV01@@Z 006516b0 f i prefs_keybindings_window.obj
 0002:0004f710       ?replace@?$basic_string@DU?$char_traits@D@std@@V?$allocator@D@2@@std@@QAEAAV12@IIABV12@II@Z 00651710 f i prefs_keybindings_window.obj
 0002:0004fb50       ?c_str@?$basic_string@DU?$char_traits@D@std@@V?$allocator@D@2@@std@@QBEPBDXZ 00651b50 f i prefs_keybindings_window.obj
 0002:0004fba0       ?size@?$basic_string@DU?$char_traits@D@std@@V?$allocator@D@2@@std@@QBEIXZ 00651ba0 f i prefs_keybindings_window.obj
 0002:0004fbe0       ?find@?$basic_string@DU?$char_traits@D@std@@V?$allocator@D@2@@std@@QBEIPBDI@Z 00651be0 f i prefs_keybindings_window.obj
 0002:0004fc50       ?length@?$char_traits@D@std@@SAIPBD@Z 00651c50 f i prefs_keybindings_window.obj
 0002:0004fca0       ??A?$auto_vector@VInputDescription@@@@QAE?AVauto_lvalue@0@I@Z 00651ca0 f i prefs_keybindings_window.obj
 0002:0004fd10       ??Cauto_lvalue@?$auto_vector@VInputDescription@@@@QBEPAVInputDescription@@XZ 00651d10 f i prefs_keybindings_window.obj
 0002:0004fd50       ??4auto_lvalue@?$auto_vector@VInputDescription@@@@QAEAAV01@V?$auto_ptr@VInputDescription@@@std@@@Z 00651d50 f i prefs_keybindings_window.obj
 0002:0004fe60       ??0?$auto_ptr@VInputDescription@@@std@@QAE@PAVInputDescription@@@Z 00651e60 f i prefs_keybindings_window.obj
 0002:0004feb0       ??0?$auto_ptr@VInputDescription@@@std@@QAE@AAV01@@Z 00651eb0 f i prefs_keybindings_window.obj
 0002:0004ff10       ??1?$auto_ptr@VInputDescription@@@std@@QAE@XZ 00651f10 f i prefs_keybindings_window.obj
 0002:0004ffb0       ??D?$auto_ptr@VInputDescription@@@std@@QBEAAVInputDescription@@XZ 00651fb0 f i prefs_keybindings_window.obj
 0002:00050030       ??1?$_String_val@DV?$allocator@D@std@@@std@@QAE@XZ 00652030 f i prefs_keybindings_window.obj
 0002:00050080       ??_GInputDescription@@QAEPAXI@Z 00652080 f i prefs_keybindings_window.obj
 0002:000500f0       ??1_String_base@std@@QAE@XZ 006520f0 f i prefs_keybindings_window.obj
 0002:00050140       ??1_Container_base@std@@QAE@XZ 00652140 f i prefs_keybindings_window.obj
 0002:00050190       ?_Orphan_all@_Container_base@std@@QBEXXZ 00652190 f i prefs_keybindings_window.obj
 0002:00050280       ??1InputDescription@@QAE@XZ 00652280 f i prefs_keybindings_window.obj
 0002:00050340       ?assign@?$basic_string@DU?$char_traits@D@std@@V?$allocator@D@2@@std@@QAEAAV12@ABV12@@Z 00652340 f i prefs_keybindings_window.obj
 0002:000503a0       ?assign@?$basic_string@DU?$char_traits@D@std@@V?$allocator@D@2@@std@@QAEAAV12@ABV12@II@Z 006523a0 f i prefs_keybindings_window.obj
 0002:000504c0       ?assign@?$basic_string@DU?$char_traits@D@std@@V?$allocator@D@2@@std@@QAEAAV12@PBD@Z 006524c0 f i prefs_keybindings_window.obj
 0002:00050530       ?find@?$basic_string@DU?$char_traits@D@std@@V?$allocator@D@2@@std@@QBEIPBDII@Z 00652530 f i prefs_keybindings_window.obj
 0002:000506a0       ?compare@?$char_traits@D@std@@SAHPBD0I@Z 006526a0 f i prefs_keybindings_window.obj
 0002:00050700       ?find@?$char_traits@D@std@@SAPBDPBDIABD@Z 00652700 f i prefs_keybindings_window.obj
 0002:00050760       ?_Eos@?$basic_string@DU?$char_traits@D@std@@V?$allocator@D@2@@std@@IAEXI@Z 00652760 f i prefs_keybindings_window.obj
 0002:000507e0       ?assign@?$char_traits@D@std@@SAXAADABD@Z 006527e0 f i prefs_keybindings_window.obj
 0002:00050820       ?_Grow@?$basic_string@DU?$char_traits@D@std@@V?$allocator@D@2@@std@@IAE_NI_N@Z 00652820 f i prefs_keybindings_window.obj
 0002:00050920       ?_Tidy@?$basic_string@DU?$char_traits@D@std@@V?$allocator@D@2@@std@@IAEX_NI@Z 00652920 f i prefs_keybindings_window.obj
 0002:000509f0       ?_Myptr@?$basic_string@DU?$char_traits@D@std@@V?$allocator@D@2@@std@@IAEPADXZ 006529f0 f i prefs_keybindings_window.obj
 0002:00050a60       ?_Myptr@?$basic_string@DU?$char_traits@D@std@@V?$allocator@D@2@@std@@IBEPBDXZ 00652a60 f i prefs_keybindings_window.obj
 0002:00050ad0       ??0?$_String_val@DV?$allocator@D@std@@@std@@IAE@V?$allocator@D@1@@Z 00652ad0 f i prefs_keybindings_window.obj
 0002:00050b40       ??A?$vector@PAVInputDescription@@V?$allocator@PAVInputDescription@@@std@@@std@@QAEAAPAVInputDescription@@I@Z 00652b40 f i prefs_keybindings_window.obj
 0002:00050c80       ??0auto_lvalue@?$auto_vector@VInputDescription@@@@QAE@AAPAVInputDescription@@@Z 00652c80 f i prefs_keybindings_window.obj
 0002:00050cd0       ?release@?$auto_ptr@VInputDescription@@@std@@QAEPAVInputDescription@@XZ 00652cd0 f i prefs_keybindings_window.obj
 0002:00050d20       ??0_String_base@std@@QAE@XZ 00652d20 f i prefs_keybindings_window.obj
 0002:00050d80       ??0_Container_base@std@@QAE@XZ 00652d80 f i prefs_keybindings_window.obj
 0002:00050dd0       ?assign@?$basic_string@DU?$char_traits@D@std@@V?$allocator@D@2@@std@@QAEAAV12@PBDI@Z 00652dd0 f i prefs_keybindings_window.obj
 0002:00050eb0       ?erase@?$basic_string@DU?$char_traits@D@std@@V?$allocator@D@2@@std@@QAEAAV12@II@Z 00652eb0 f i prefs_keybindings_window.obj
 0002:00050fa0       ?max_size@?$basic_string@DU?$char_traits@D@std@@V?$allocator@D@2@@std@@QBEIXZ 00652fa0 f i prefs_keybindings_window.obj
 0002:00051030       ?_Copy@?$basic_string@DU?$char_traits@D@std@@V?$allocator@D@2@@std@@IAEXII@Z 00653030 f i prefs_keybindings_window.obj
 0002:00051260       ?deallocate@?$allocator@D@std@@QAEXPADI@Z 00653260 f i prefs_keybindings_window.obj
 0002:000512c0       ?size@?$vector@PAVInputDescription@@V?$allocator@PAVInputDescription@@@std@@@std@@QBEIXZ 006532c0 f i prefs_keybindings_window.obj
 0002:00051330       ?_Inside@?$basic_string@DU?$char_traits@D@std@@V?$allocator@D@2@@std@@IAE_NPBD@Z 00653330 f i prefs_keybindings_window.obj
 0002:000513d0       ?allocate@?$allocator@D@std@@QAEPADI@Z 006533d0 f i prefs_keybindings_window.obj
 0002:00051430       ?max_size@?$allocator@D@std@@QBEIXZ 00653430 f i prefs_keybindings_window.obj
 0002:000514a0       ??$_Debug_pointer@D@std@@YAXPBDPB_WI@Z 006534a0 f i prefs_keybindings_window.obj
 0002:00051500       ?RemoveData@?$LList@PAVEclButton@@@@QAEXH@Z 00653500 f i prefs_keybindings_window.obj
 0002:00051690       ??0?$auto_vector@VInputDescription@@@@QAE@I@Z 00653690 f i prefs_keybindings_window.obj
 0002:00051740       ??1?$auto_vector@VInputDescription@@@@QAE@XZ 00653740 f i prefs_keybindings_window.obj
 0002:000517e0       ?push_back@?$auto_vector@VInputDescription@@@@QAEXV?$auto_ptr@VInputDescription@@@std@@@Z 006537e0 f i prefs_keybindings_window.obj
 0002:000518b0       ??$move_s@U?$char_traits@D@std@@@_Traits_helper@std@@YAPADPADIPBDI@Z 006538b0 f i prefs_keybindings_window.obj
 0002:00051930       ??$copy_s@U?$char_traits@D@std@@@_Traits_helper@std@@YAPADPADIPBDI@Z 00653930 f i prefs_keybindings_window.obj
 0002:000519b0       ??$_Allocate@D@std@@YAPADIPAD@Z 006539b0 f i prefs_keybindings_window.obj
 0002:00051a50       ??0?$vector@PAVInputDescription@@V?$allocator@PAVInputDescription@@@std@@@std@@QAE@XZ 00653a50 f i prefs_keybindings_window.obj
 0002:00051b10       ??1?$vector@PAVInputDescription@@V?$allocator@PAVInputDescription@@@std@@@std@@QAE@XZ 00653b10 f i prefs_keybindings_window.obj
 0002:00051bb0       ?reserve@?$vector@PAVInputDescription@@V?$allocator@PAVInputDescription@@@std@@@std@@QAEXI@Z 00653bb0 f i prefs_keybindings_window.obj
 0002:00051dd0       ?push_back@?$vector@PAVInputDescription@@V?$allocator@PAVInputDescription@@@std@@@std@@QAEXABQAVInputDescription@@@Z 00653dd0 f i prefs_keybindings_window.obj
 0002:00051ec0       ?get@?$auto_ptr@VInputDescription@@@std@@QBEPAVInputDescription@@XZ 00653ec0 f i prefs_keybindings_window.obj
 0002:00051f00       ??1?$_Vector_val@PAVInputDescription@@V?$allocator@PAVInputDescription@@@std@@@std@@QAE@XZ 00653f00 f i prefs_keybindings_window.obj
 0002:00051f50       ??1?$_Vector_iterator@PAVInputDescription@@V?$allocator@PAVInputDescription@@@std@@@std@@QAE@XZ 00653f50 f i prefs_keybindings_window.obj
 0002:00051fa0       ??1?$_Vector_const_iterator@PAVInputDescription@@V?$allocator@PAVInputDescription@@@std@@@std@@QAE@XZ 00653fa0 f i prefs_keybindings_window.obj
 0002:00051ff0       ??1?$_Ranit@PAVInputDescription@@HPBQAV1@ABQAV1@@std@@QAE@XZ 00653ff0 f i prefs_keybindings_window.obj
 0002:00052040       ??1_Iterator_base@std@@QAE@XZ 00654040 f i prefs_keybindings_window.obj
 0002:00052130       ?_Orphan_me@_Iterator_base@std@@QAEXXZ 00654130 f i prefs_keybindings_window.obj
 0002:00052200       ?capacity@?$vector@PAVInputDescription@@V?$allocator@PAVInputDescription@@@std@@@std@@QBEIXZ 00654200 f i prefs_keybindings_window.obj
 0002:00052270       ?begin@?$vector@PAVInputDescription@@V?$allocator@PAVInputDescription@@@std@@@std@@QAE?AV?$_Vector_iterator@PAVInputDescription@@V?$allocator@PAVInputDescription@@@std@@@2@XZ 00654270 f i prefs_keybindings_window.obj
 0002:00052300       ?end@?$vector@PAVInputDescription@@V?$allocator@PAVInputDescription@@@std@@@std@@QAE?AV?$_Vector_iterator@PAVInputDescription@@V?$allocator@PAVInputDescription@@@std@@@2@XZ 00654300 f i prefs_keybindings_window.obj
 0002:00052390       ?max_size@?$vector@PAVInputDescription@@V?$allocator@PAVInputDescription@@@std@@@std@@QBEIXZ 00654390 f i prefs_keybindings_window.obj
 0002:000523f0       ?insert@?$vector@PAVInputDescription@@V?$allocator@PAVInputDescription@@@std@@@std@@QAE?AV?$_Vector_iterator@PAVInputDescription@@V?$allocator@PAVInputDescription@@@std@@@2@V32@ABQAVInputDescription@@@Z 006543f0 f i prefs_keybindings_window.obj
 0002:000525f0       ?_Buy@?$vector@PAVInputDescription@@V?$allocator@PAVInputDescription@@@std@@@std@@IAE_NI@Z 006545f0 f i prefs_keybindings_window.obj
 0002:000526d0       ?_Destroy@?$vector@PAVInputDescription@@V?$allocator@PAVInputDescription@@@std@@@std@@IAEXPAPAVInputDescription@@0@Z 006546d0 f i prefs_keybindings_window.obj
 0002:00052740       ?_Tidy@?$vector@PAVInputDescription@@V?$allocator@PAVInputDescription@@@std@@@std@@IAEXXZ 00654740 f i prefs_keybindings_window.obj
 0002:00052810       ?_Ufill@?$vector@PAVInputDescription@@V?$allocator@PAVInputDescription@@@std@@@std@@IAEPAPAVInputDescription@@PAPAV3@IABQAV3@@Z 00654810 f i prefs_keybindings_window.obj
 0002:00052890       ?_Xlen@?$vector@PAVInputDescription@@V?$allocator@PAVInputDescription@@@std@@@std@@KAXXZ 00654890 f i prefs_keybindings_window.obj
 0002:00052970       ??0length_error@std@@QAE@ABV?$basic_string@DU?$char_traits@D@std@@V?$allocator@D@2@@1@@Z 00654970 f i prefs_keybindings_window.obj
 0002:000529e0       ??0logic_error@std@@QAE@ABV?$basic_string@DU?$char_traits@D@std@@V?$allocator@D@2@@1@@Z 006549e0 f i prefs_keybindings_window.obj
 0002:00052aa0       ?what@logic_error@std@@UBEPBDXZ 00654aa0 f i prefs_keybindings_window.obj
 0002:00052b00       ??_Elogic_error@std@@UAEPAXI@Z 00654b00 f i prefs_keybindings_window.obj
 0002:00052b00       ??_Glogic_error@std@@UAEPAXI@Z 00654b00 f i prefs_keybindings_window.obj
 0002:00052b70       ??1logic_error@std@@UAE@XZ 00654b70 f i prefs_keybindings_window.obj
 0002:00052be0       ??1length_error@std@@UAE@XZ 00654be0 f i prefs_keybindings_window.obj
 0002:00052c40       ??_Glength_error@std@@UAEPAXI@Z 00654c40 f i prefs_keybindings_window.obj
 0002:00052c40       ??_Elength_error@std@@UAEPAXI@Z 00654c40 f i prefs_keybindings_window.obj
 0002:00052cb0       ??0logic_error@std@@QAE@ABV01@@Z 00654cb0 f i prefs_keybindings_window.obj
 0002:00052d80       ??0?$basic_string@DU?$char_traits@D@std@@V?$allocator@D@2@@std@@QAE@ABV01@@Z 00654d80 f i prefs_keybindings_window.obj
 0002:00052e50       ??0?$_String_val@DV?$allocator@D@std@@@std@@QAE@ABV01@@Z 00654e50 f i prefs_keybindings_window.obj
 0002:00052ed0       ?_Orphan_range@?$vector@PAVInputDescription@@V?$allocator@PAVInputDescription@@@std@@@std@@IBEXPAPAVInputDescription@@0@Z 00654ed0 f i prefs_keybindings_window.obj
 0002:00052fd0       ??0?$_Vector_val@PAVInputDescription@@V?$allocator@PAVInputDescription@@@std@@@std@@IAE@V?$allocator@PAVInputDescription@@@1@@Z 00654fd0 f i prefs_keybindings_window.obj
 0002:00053040       ??0?$allocator@PAVInputDescription@@@std@@QAE@XZ 00655040 f i prefs_keybindings_window.obj
 0002:00053080       ?deallocate@?$allocator@PAVInputDescription@@@std@@QAEXPAPAVInputDescription@@I@Z 00655080 f i prefs_keybindings_window.obj
 0002:000530e0       ?allocate@?$allocator@PAVInputDescription@@@std@@QAEPAPAVInputDescription@@I@Z 006550e0 f i prefs_keybindings_window.obj
 0002:00053140       ??0?$_Vector_iterator@PAVInputDescription@@V?$allocator@PAVInputDescription@@@std@@@std@@QAE@ABV01@@Z 00655140 f i prefs_keybindings_window.obj
 0002:000531a0       ??0length_error@std@@QAE@ABV01@@Z 006551a0 f i prefs_keybindings_window.obj
 0002:00053210       ??0?$_Vector_const_iterator@PAVInputDescription@@V?$allocator@PAVInputDescription@@@std@@@std@@QAE@ABV01@@Z 00655210 f i prefs_keybindings_window.obj
 0002:00053280       ??0?$_Ranit@PAVInputDescription@@HPBQAV1@ABQAV1@@std@@QAE@ABU01@@Z 00655280 f i prefs_keybindings_window.obj
 0002:000532e0       ??0_Iterator_base@std@@QAE@ABV01@@Z 006552e0 f i prefs_keybindings_window.obj
 0002:00053360       ??4_Iterator_base@std@@QAEAAV01@ABV01@@Z 00655360 f i prefs_keybindings_window.obj
 0002:00053470       ?_Adopt@_Iterator_base@std@@QAEXPBV_Container_base@2@@Z 00655470 f i prefs_keybindings_window.obj
 0002:000535a0       ?_Insert_n@?$vector@PAVInputDescription@@V?$allocator@PAVInputDescription@@@std@@@std@@IAEXV?$_Vector_iterator@PAVInputDescription@@V?$allocator@PAVInputDescription@@@std@@@2@IABQAVInputDescription@@@Z 006555a0 f i prefs_keybindings_window.obj
 0002:00053ad0       ??0?$allocator@PAVInputDescription@@@std@@QAE@ABV01@@Z 00655ad0 f i prefs_keybindings_window.obj
 0002:00053b10       ?max_size@?$allocator@PAVInputDescription@@@std@@QBEIXZ 00655b10 f i prefs_keybindings_window.obj
 0002:00053b80       ??0?$_Vector_iterator@PAVInputDescription@@V?$allocator@PAVInputDescription@@@std@@@std@@QAE@PAPAVInputDescription@@PBV_Container_base@1@@Z 00655b80 f i prefs_keybindings_window.obj
 0002:00053be0       ??H?$_Vector_iterator@PAVInputDescription@@V?$allocator@PAVInputDescription@@@std@@@std@@QBE?AV01@H@Z 00655be0 f i prefs_keybindings_window.obj
 0002:00053d00       ??G?$_Vector_iterator@PAVInputDescription@@V?$allocator@PAVInputDescription@@@std@@@std@@QBEHABV?$_Vector_const_iterator@PAVInputDescription@@V?$allocator@PAVInputDescription@@@std@@@1@@Z 00655d00 f i prefs_keybindings_window.obj
 0002:00053d60       ??Y?$_Vector_iterator@PAVInputDescription@@V?$allocator@PAVInputDescription@@@std@@@std@@QAEAAV01@H@Z 00655d60 f i prefs_keybindings_window.obj
 0002:00053dc0       ??0?$_Vector_const_iterator@PAVInputDescription@@V?$allocator@PAVInputDescription@@@std@@@std@@QAE@PAPAVInputDescription@@PBV_Container_base@1@@Z 00655dc0 f i prefs_keybindings_window.obj
 0002:00053ef0       ??G?$_Vector_const_iterator@PAVInputDescription@@V?$allocator@PAVInputDescription@@@std@@@std@@QBEHABV01@@Z 00655ef0 f i prefs_keybindings_window.obj
 0002:00053f60       ??0?$_Ranit@PAVInputDescription@@HPBQAV1@ABQAV1@@std@@QAE@XZ 00655f60 f i prefs_keybindings_window.obj
 0002:00053fc0       ??0_Iterator_base@std@@QAE@XZ 00655fc0 f i prefs_keybindings_window.obj
 0002:00054010       ??Y?$_Vector_const_iterator@PAVInputDescription@@V?$allocator@PAVInputDescription@@@std@@@std@@QAEAAV01@H@Z 00656010 f i prefs_keybindings_window.obj
 0002:00054160       ?_Compat@?$_Vector_const_iterator@PAVInputDescription@@V?$allocator@PAVInputDescription@@@std@@@std@@QBEXABV12@@Z 00656160 f i prefs_keybindings_window.obj
 0002:00054230       ?clear@?$auto_vector@VInputDescription@@@@QAEXXZ 00656230 f i prefs_keybindings_window.obj
 0002:00054350       ??$_Char_traits_cat@U?$char_traits@D@std@@@std@@YA?AU_Secure_char_traits_tag@0@XZ 00656350 f i prefs_keybindings_window.obj
 0002:000543c0       ??$move_s@U?$char_traits@D@std@@@_Traits_helper@std@@YAPADPADIPBDIU_Secure_char_traits_tag@1@@Z 006563c0 f i prefs_keybindings_window.obj
 0002:00054420       ?_Move_s@?$char_traits@D@std@@SAPADPADIPBDI@Z 00656420 f i prefs_keybindings_window.obj
 0002:00054480       ??$copy_s@U?$char_traits@D@std@@@_Traits_helper@std@@YAPADPADIPBDIU_Secure_char_traits_tag@1@@Z 00656480 f i prefs_keybindings_window.obj
 0002:000544e0       ?_Copy_s@?$char_traits@D@std@@SAPADPADIPBDI@Z 006564e0 f i prefs_keybindings_window.obj
 0002:00054540       ??$_Umove@V?$_Vector_iterator@PAVInputDescription@@V?$allocator@PAVInputDescription@@@std@@@std@@@?$vector@PAVInputDescription@@V?$allocator@PAVInputDescription@@@std@@@std@@IAEPAPAVInputDescription@@V?$_Vector_iterator@PAVInputDescription@@V?$allocator@PAVInputDescription@@@std@@@1@0PAPAV2@@Z 00656540 f i prefs_keybindings_window.obj
 0002:00054680       ??$_Destroy_range@PAVInputDescription@@V?$allocator@PAVInputDescription@@@std@@@std@@YAXPAPAVInputDescription@@0AAV?$allocator@PAVInputDescription@@@0@@Z 00656680 f i prefs_keybindings_window.obj
 0002:00054700       ??$unchecked_uninitialized_fill_n@PAPAVInputDescription@@IPAV1@V?$allocator@PAVInputDescription@@@std@@@stdext@@YAXPAPAVInputDescription@@IABQAV1@AAV?$allocator@PAVInputDescription@@@std@@@Z 00656700 f i prefs_keybindings_window.obj
 0002:000547a0       ??$_Allocate@PAVInputDescription@@@std@@YAPAPAVInputDescription@@IPAPAV1@@Z 006567a0 f i prefs_keybindings_window.obj
 0002:00054840       ??$_Umove@PAPAVInputDescription@@@?$vector@PAVInputDescription@@V?$allocator@PAVInputDescription@@@std@@@std@@IAEPAPAVInputDescription@@PAPAV2@00@Z 00656840 f i prefs_keybindings_window.obj
 0002:000548b0       ??$fill@PAPAVInputDescription@@PAV1@@std@@YAXPAPAVInputDescription@@0ABQAV1@@Z 006568b0 f i prefs_keybindings_window.obj
 0002:00054920       ??$_Unchecked_move_backward@PAPAVInputDescription@@PAPAV1@@stdext@@YAPAPAVInputDescription@@PAPAV1@00@Z 00656920 f i prefs_keybindings_window.obj
 0002:000549e0       ?begin@?$auto_vector@VInputDescription@@@@QAE?AV?$_Vector_iterator@PAVInputDescription@@V?$allocator@PAVInputDescription@@@std@@@std@@XZ 006569e0 f i prefs_keybindings_window.obj
 0002:00054a60       ?end@?$auto_vector@VInputDescription@@@@QAE?AV?$_Vector_iterator@PAVInputDescription@@V?$allocator@PAVInputDescription@@@std@@@std@@XZ 00656a60 f i prefs_keybindings_window.obj
 0002:00054ae0       ?clear@?$vector@PAVInputDescription@@V?$allocator@PAVInputDescription@@@std@@@std@@QAEXXZ 00656ae0 f i prefs_keybindings_window.obj
 0002:00054bf0       ?erase@?$vector@PAVInputDescription@@V?$allocator@PAVInputDescription@@@std@@@std@@QAE?AV?$_Vector_iterator@PAVInputDescription@@V?$allocator@PAVInputDescription@@@std@@@2@V32@0@Z 00656bf0 f i prefs_keybindings_window.obj
 0002:00054da0       ??9?$_Vector_const_iterator@PAVInputDescription@@V?$allocator@PAVInputDescription@@@std@@@std@@QBE_NABV01@@Z 00656da0 f i prefs_keybindings_window.obj
 0002:00054e10       ??M?$_Vector_const_iterator@PAVInputDescription@@V?$allocator@PAVInputDescription@@@std@@@std@@QBE_NABV01@@Z 00656e10 f i prefs_keybindings_window.obj
 0002:00054e80       ??8?$_Vector_const_iterator@PAVInputDescription@@V?$allocator@PAVInputDescription@@@std@@@std@@QBE_NABV01@@Z 00656e80 f i prefs_keybindings_window.obj
 0002:00054ef0       ??$for_each@V?$_Vector_iterator@PAVInputDescription@@V?$allocator@PAVInputDescription@@@std@@@std@@V?$DeletePtr@VInputDescription@@@@@std@@YA?AV?$DeletePtr@VInputDescription@@@@V?$_Vector_iterator@PAVInputDescription@@V?$allocator@PAVInputDescription@@@std@@@0@0V1@@Z 00656ef0 f i prefs_keybindings_window.obj
 0002:00055110       ??$_Unchecked_uninitialized_move@V?$_Vector_iterator@PAVInputDescription@@V?$allocator@PAVInputDescription@@@std@@@std@@PAPAVInputDescription@@V?$allocator@PAVInputDescription@@@2@@stdext@@YAPAPAVInputDescription@@V?$_Vector_iterator@PAVInputDescription@@V?$allocator@PAVInputDescription@@@std@@@std@@0PAPAV1@AAV?$allocator@PAVInputDescription@@@3@@Z 00657110 f i prefs_keybindings_window.obj
 0002:00055280       ??$_Ptr_cat@PAPAVInputDescription@@PAPAV1@@std@@YA?AU_Scalar_ptr_iterator_tag@0@AAPAPAVInputDescription@@0@Z 00657280 f i prefs_keybindings_window.obj
 0002:000552f0       ??$_Destroy_range@PAVInputDescription@@V?$allocator@PAVInputDescription@@@std@@@std@@YAXPAPAVInputDescription@@0AAV?$allocator@PAVInputDescription@@@0@U_Scalar_ptr_iterator_tag@0@@Z 006572f0 f i prefs_keybindings_window.obj
 0002:00055320       ??$_Uninit_fill_n@PAPAVInputDescription@@IPAV1@V?$allocator@PAVInputDescription@@@std@@@std@@YAXPAPAVInputDescription@@IABQAV1@AAV?$allocator@PAVInputDescription@@@0@U_Scalar_ptr_iterator_tag@0@U_Range_checked_iterator_tag@0@@Z 00657320 f i prefs_keybindings_window.obj
 0002:00055380       ??$_Unchecked_uninitialized_move@PAPAVInputDescription@@PAPAV1@V?$allocator@PAVInputDescription@@@std@@@stdext@@YAPAPAVInputDescription@@PAPAV1@00AAV?$allocator@PAVInputDescription@@@std@@@Z 00657380 f i prefs_keybindings_window.obj
 0002:00055430       ??$_Checked_base@PAPAVInputDescription@@@std@@YAPAPAVInputDescription@@AAPAPAV1@@Z 00657430 f i prefs_keybindings_window.obj
 0002:000554c0       ??$_Fill@PAPAVInputDescription@@PAV1@@std@@YAXPAPAVInputDescription@@0ABQAV1@@Z 006574c0 f i prefs_keybindings_window.obj
 0002:00055550       ??$_Iter_random@PAPAVInputDescription@@PAPAV1@@std@@YA?AUrandom_access_iterator_tag@0@ABQAPAVInputDescription@@0@Z 00657550 f i prefs_keybindings_window.obj
 0002:000555c0       ??$_Move_cat@PAPAVInputDescription@@@std@@YA?AU_Undefined_move_tag@0@ABQAPAVInputDescription@@@Z 006575c0 f i prefs_keybindings_window.obj
 0002:00055630       ??$_Move_backward_opt@PAPAVInputDescription@@PAPAV1@Urandom_access_iterator_tag@std@@U_Undefined_move_tag@3@@std@@YAPAPAVInputDescription@@PAPAV1@00Urandom_access_iterator_tag@0@U_Undefined_move_tag@0@U_Range_checked_iterator_tag@0@@Z 00657630 f i prefs_keybindings_window.obj
 0002:000556d0       ??$unchecked_copy@PAPAVInputDescription@@PAPAV1@@stdext@@YAPAPAVInputDescription@@PAPAV1@00@Z 006576d0 f i prefs_keybindings_window.obj
 0002:000557a0       ??D?$_Vector_iterator@PAVInputDescription@@V?$allocator@PAVInputDescription@@@std@@@std@@QBEAAPAVInputDescription@@XZ 006577a0 f i prefs_keybindings_window.obj
 0002:000557f0       ??E?$_Vector_iterator@PAVInputDescription@@V?$allocator@PAVInputDescription@@@std@@@std@@QAEAAV01@XZ 006577f0 f i prefs_keybindings_window.obj
 0002:00055850       ??R?$DeletePtr@VInputDescription@@@@QAEXPAVInputDescription@@@Z 00657850 f i prefs_keybindings_window.obj
 0002:000558f0       ??D?$_Vector_const_iterator@PAVInputDescription@@V?$allocator@PAVInputDescription@@@std@@@std@@QBEABQAVInputDescription@@XZ 006578f0 f i prefs_keybindings_window.obj
 0002:000559e0       ??E?$_Vector_const_iterator@PAVInputDescription@@V?$allocator@PAVInputDescription@@@std@@@std@@QAEAAV01@XZ 006579e0 f i prefs_keybindings_window.obj
 0002:00055b00       ??$_Debug_range@V?$_Vector_iterator@PAVInputDescription@@V?$allocator@PAVInputDescription@@@std@@@std@@@std@@YAXV?$_Vector_iterator@PAVInputDescription@@V?$allocator@PAVInputDescription@@@std@@@0@0PB_WI@Z 00657b00 f i prefs_keybindings_window.obj
 0002:00055c30       ??$_Debug_pointer@V?$DeletePtr@VInputDescription@@@@@std@@YAXAAV?$DeletePtr@VInputDescription@@@@PB_WI@Z 00657c30 f i prefs_keybindings_window.obj
 0002:00055c60       ??$_Checked_base@V?$_Vector_iterator@PAVInputDescription@@V?$allocator@PAVInputDescription@@@std@@@std@@@std@@YA?AV?$_Vector_iterator@PAVInputDescription@@V?$allocator@PAVInputDescription@@@std@@@0@AAV10@@Z 00657c60 f i prefs_keybindings_window.obj
 0002:00055d20       ??$_Uninit_move@V?$_Vector_iterator@PAVInputDescription@@V?$allocator@PAVInputDescription@@@std@@@std@@PAPAVInputDescription@@V?$allocator@PAVInputDescription@@@2@U_Undefined_move_tag@2@@std@@YAPAPAVInputDescription@@V?$_Vector_iterator@PAVInputDescription@@V?$allocator@PAVInputDescription@@@std@@@0@0PAPAV1@AAV?$allocator@PAVInputDescription@@@0@U_Undefined_move_tag@0@U_Range_checked_iterator_tag@0@@Z 00657d20 f i prefs_keybindings_window.obj
 0002:00055e50       ??$unchecked_fill_n@PAPAVInputDescription@@IPAV1@@stdext@@YAXPAPAVInputDescription@@IABQAV1@@Z 00657e50 f i prefs_keybindings_window.obj
 0002:00055ee0       ??$_Uninit_move@PAPAVInputDescription@@PAPAV1@V?$allocator@PAVInputDescription@@@std@@U_Undefined_move_tag@3@@std@@YAPAPAVInputDescription@@PAPAV1@00AAV?$allocator@PAVInputDescription@@@0@U_Undefined_move_tag@0@U_Range_checked_iterator_tag@0@@Z 00657ee0 f i prefs_keybindings_window.obj
 0002:00055f40       ??$_Checked_base@PAPAVInputDescription@@@std@@YAPAPAVInputDescription@@AAPAPAV1@U_Unchanged_checked_iterator_base_type_tag@0@@Z 00657f40 f i prefs_keybindings_window.obj
 0002:00055f80       ??$_Debug_range@PAPAVInputDescription@@@std@@YAXPAPAVInputDescription@@0PB_WI@Z 00657f80 f i prefs_keybindings_window.obj
 0002:00056000       ??$_Copy_backward_opt@PAPAVInputDescription@@PAPAV1@Urandom_access_iterator_tag@std@@@std@@YAPAPAVInputDescription@@PAPAV1@00Urandom_access_iterator_tag@0@U_Scalar_ptr_iterator_tag@0@U_Range_checked_iterator_tag@0@@Z 00658000 f i prefs_keybindings_window.obj
 0002:000560e0       ??$_Copy_opt@PAPAVInputDescription@@PAPAV1@Urandom_access_iterator_tag@std@@@std@@YAPAPAVInputDescription@@PAPAV1@00Urandom_access_iterator_tag@0@U_Scalar_ptr_iterator_tag@0@U_Range_checked_iterator_tag@0@@Z 006580e0 f i prefs_keybindings_window.obj
 0002:000561c0       ??$_Iter_cat@V?$_Vector_iterator@PAVInputDescription@@V?$allocator@PAVInputDescription@@@std@@@std@@@std@@YA?AUrandom_access_iterator_tag@0@ABV?$_Vector_iterator@PAVInputDescription@@V?$allocator@PAVInputDescription@@@std@@@0@@Z 006581c0 f i prefs_keybindings_window.obj
 0002:00056230       ??$_Debug_range2@V?$_Vector_iterator@PAVInputDescription@@V?$allocator@PAVInputDescription@@@std@@@std@@@std@@YAXV?$_Vector_iterator@PAVInputDescription@@V?$allocator@PAVInputDescription@@@std@@@0@0PB_WIUrandom_access_iterator_tag@0@@Z 00658230 f i prefs_keybindings_window.obj
 0002:00056350       ??$_Checked_base@V?$_Vector_iterator@PAVInputDescription@@V?$allocator@PAVInputDescription@@@std@@@std@@@std@@YA?AV?$_Vector_iterator@PAVInputDescription@@V?$allocator@PAVInputDescription@@@std@@@0@AAV10@U_Unchanged_checked_iterator_base_type_tag@0@@Z 00658350 f i prefs_keybindings_window.obj
 0002:000563c0       ??$unchecked_uninitialized_copy@V?$_Vector_iterator@PAVInputDescription@@V?$allocator@PAVInputDescription@@@std@@@std@@PAPAVInputDescription@@V?$allocator@PAVInputDescription@@@2@@stdext@@YAPAPAVInputDescription@@V?$_Vector_iterator@PAVInputDescription@@V?$allocator@PAVInputDescription@@@std@@@std@@0PAPAV1@AAV?$allocator@PAVInputDescription@@@3@@Z 006583c0 f i prefs_keybindings_window.obj
 0002:00056530       ??$_Iter_cat@PAPAVInputDescription@@@std@@YA?AUrandom_access_iterator_tag@0@ABQAPAVInputDescription@@@Z 00658530 f i prefs_keybindings_window.obj
 0002:000565a0       ??$_Fill_n@PAPAVInputDescription@@IPAV1@@std@@YAXPAPAVInputDescription@@IABQAV1@Urandom_access_iterator_tag@0@U_Range_checked_iterator_tag@0@@Z 006585a0 f i prefs_keybindings_window.obj
 0002:00056630       ??$unchecked_uninitialized_copy@PAPAVInputDescription@@PAPAV1@V?$allocator@PAVInputDescription@@@std@@@stdext@@YAPAPAVInputDescription@@PAPAV1@00AAV?$allocator@PAVInputDescription@@@std@@@Z 00658630 f i prefs_keybindings_window.obj
 0002:000566e0       ??$_Debug_range2@PAPAVInputDescription@@@std@@YAXPAPAVInputDescription@@0PB_WIUrandom_access_iterator_tag@0@@Z 006586e0 f i prefs_keybindings_window.obj
 0002:00056780       ??$_Debug_pointer@PAVInputDescription@@@std@@YAXPAPAVInputDescription@@PB_WI@Z 00658780 f i prefs_keybindings_window.obj
 0002:000567e0       ??$_Debug_pointer@V?$_Vector_iterator@PAVInputDescription@@V?$allocator@PAVInputDescription@@@std@@@std@@@std@@YAXAAV?$_Vector_iterator@PAVInputDescription@@V?$allocator@PAVInputDescription@@@std@@@0@PB_WI@Z 006587e0 f i prefs_keybindings_window.obj
 0002:00056810       ??$_Ptr_cat@V?$_Vector_iterator@PAVInputDescription@@V?$allocator@PAVInputDescription@@@std@@@std@@PAPAVInputDescription@@@std@@YA?AU_Scalar_ptr_iterator_tag@0@AAV?$_Vector_iterator@PAVInputDescription@@V?$allocator@PAVInputDescription@@@std@@@0@AAPAPAVInputDescription@@@Z 00658810 f i prefs_keybindings_window.obj
 0002:00056880       ??$_Uninit_copy@V?$_Vector_iterator@PAVInputDescription@@V?$allocator@PAVInputDescription@@@std@@@std@@PAPAVInputDescription@@V?$allocator@PAVInputDescription@@@2@@std@@YAPAPAVInputDescription@@V?$_Vector_iterator@PAVInputDescription@@V?$allocator@PAVInputDescription@@@std@@@0@0PAPAV1@AAV?$allocator@PAVInputDescription@@@0@U_Scalar_ptr_iterator_tag@0@U_Range_checked_iterator_tag@0@@Z 00658880 f i prefs_keybindings_window.obj
 0002:00056a20       ??$_Fill_n@PAPAVInputDescription@@IPAV1@@std@@YAXPAPAVInputDescription@@IABQAV1@U_Range_checked_iterator_tag@0@@Z 00658a20 f i prefs_keybindings_window.obj
 0002:00056a90       ??$_Uninit_copy@PAPAVInputDescription@@PAPAV1@V?$allocator@PAVInputDescription@@@std@@@std@@YAPAPAVInputDescription@@PAPAV1@00AAV?$allocator@PAVInputDescription@@@0@U_Scalar_ptr_iterator_tag@0@U_Range_checked_iterator_tag@0@@Z 00658a90 f i prefs_keybindings_window.obj
 0002:00056b60       ??0PrefsOtherWindow@@QAE@XZ 00658b60 f   prefs_other_window.obj
 0002:00056ef0       ??_EPrefsOtherWindow@@UAEPAXI@Z 00658ef0 f i prefs_other_window.obj
 0002:00056ef0       ??_GPrefsOtherWindow@@UAEPAXI@Z 00658ef0 f i prefs_other_window.obj
 0002:00056f60       ??1PrefsOtherWindow@@UAE@XZ 00658f60 f i prefs_other_window.obj
 0002:00057010       ?ListAvailableLanguages@PrefsOtherWindow@@QAEXXZ 00659010 f   prefs_other_window.obj
 0002:00057130       ?strrchr@@YAPADPADH@Z      00659130 f i prefs_other_window.obj
 0002:00057190       ?Create@PrefsOtherWindow@@UAEXXZ 00659190 f   prefs_other_window.obj
 0002:00058540       ??0ApplyOtherButton@@QAE@XZ 0065a540 f i prefs_other_window.obj
 0002:000585a0       ?MouseUp@ApplyOtherButton@@EAEXXZ 0065a5a0 f i prefs_other_window.obj
 0002:00058a00       ??_EApplyOtherButton@@UAEPAXI@Z 0065aa00 f i prefs_other_window.obj
 0002:00058a00       ??_GApplyOtherButton@@UAEPAXI@Z 0065aa00 f i prefs_other_window.obj
 0002:00058a70       ??1ApplyOtherButton@@UAE@XZ 0065aa70 f i prefs_other_window.obj
 0002:00058ac0       ?Render@PrefsOtherWindow@@UAEX_N@Z 0065aac0 f   prefs_other_window.obj
 0002:00058f10       ?PutData@?$LList@PAD@@QAEXABQAD@Z 0065af10 f i prefs_other_window.obj
 0002:00058f70       ??A?$LList@PAD@@QAEPADH@Z  0065af70 f i prefs_other_window.obj
 0002:00058fd0       ?PutDataAtEnd@?$LList@PAD@@QAEXABQAD@Z 0065afd0 f i prefs_other_window.obj
 0002:00059160       ??0?$LListItem@PAD@@QAE@XZ 0065b160 f i prefs_other_window.obj
 0002:000591c0       ?RestartWindowManagerAndRenderer@@YAXXZ 0065b1c0 f   prefs_screen_window.obj
 0002:000596c0       ?SetWindowed@@YAX_N0AA_N@Z 0065b6c0 f   prefs_screen_window.obj
 0002:000597b0       ??0PrefsScreenWindow@@QAE@XZ 0065b7b0 f   prefs_screen_window.obj
 0002:000599d0       ??_EPrefsScreenWindow@@UAEPAXI@Z 0065b9d0 f i prefs_screen_window.obj
 0002:000599d0       ??_GPrefsScreenWindow@@UAEPAXI@Z 0065b9d0 f i prefs_screen_window.obj
 0002:00059a40       ??1PrefsScreenWindow@@UAE@XZ 0065ba40 f i prefs_screen_window.obj
 0002:00059a90       ?Create@PrefsScreenWindow@@UAEXXZ 0065ba90 f   prefs_screen_window.obj
 0002:0005a770       ??0ScreenResDropDownMenu@@QAE@XZ 0065c770 f i prefs_screen_window.obj
 0002:0005a7d0       ?SelectOption@ScreenResDropDownMenu@@EAEXH@Z 0065c7d0 f i prefs_screen_window.obj
 0002:0005a9b0       ??0FullscreenRequiredMenu@@QAE@XZ 0065c9b0 f i prefs_screen_window.obj
 0002:0005aa10       ?Render@FullscreenRequiredMenu@@EAEXHH_N0@Z 0065ca10 f i prefs_screen_window.obj
 0002:0005abb0       ?MouseUp@FullscreenRequiredMenu@@EAEXXZ 0065cbb0 f i prefs_screen_window.obj
 0002:0005ac70       ??0SetScreenButton@@QAE@XZ 0065cc70 f i prefs_screen_window.obj
 0002:0005acd0       ?MouseUp@SetScreenButton@@EAEXXZ 0065ccd0 f i prefs_screen_window.obj
 0002:0005af20       ??_GScreenResDropDownMenu@@UAEPAXI@Z 0065cf20 f i prefs_screen_window.obj
 0002:0005af20       ??_EScreenResDropDownMenu@@UAEPAXI@Z 0065cf20 f i prefs_screen_window.obj
 0002:0005af90       ??_EFullscreenRequiredMenu@@UAEPAXI@Z 0065cf90 f i prefs_screen_window.obj
 0002:0005af90       ??_GFullscreenRequiredMenu@@UAEPAXI@Z 0065cf90 f i prefs_screen_window.obj
 0002:0005b000       ??_ESetScreenButton@@UAEPAXI@Z 0065d000 f i prefs_screen_window.obj
 0002:0005b000       ??_GSetScreenButton@@UAEPAXI@Z 0065d000 f i prefs_screen_window.obj
 0002:0005b070       ??1ScreenResDropDownMenu@@UAE@XZ 0065d070 f i prefs_screen_window.obj
 0002:0005b0c0       ??1FullscreenRequiredMenu@@UAE@XZ 0065d0c0 f i prefs_screen_window.obj
 0002:0005b110       ??1SetScreenButton@@UAE@XZ 0065d110 f i prefs_screen_window.obj
 0002:0005b160       ?Render@PrefsScreenWindow@@UAEX_N@Z 0065d160 f   prefs_screen_window.obj
 0002:0005b3b0       ?Size@?$LList@PAVResolution@@@@QBEHXZ 0065d3b0 f i prefs_screen_window.obj
 0002:0005b3f0       ??A?$LList@PAVResolution@@@@QAEPAVResolution@@H@Z 0065d3f0 f i prefs_screen_window.obj
 0002:0005b450       ?GetData@?$LList@PAVResolution@@@@QBEPAVResolution@@H@Z 0065d450 f i prefs_screen_window.obj
 0002:0005b5f0       ?ValidIndex@?$LList@PAVResolution@@@@QBE_NH@Z 0065d5f0 f i prefs_screen_window.obj
 0002:0005b660       ??0PrefsSoundWindow@@QAE@XZ 0065d660 f   prefs_sound_window.obj
 0002:0005b8c0       ??_EPrefsSoundWindow@@UAEPAXI@Z 0065d8c0 f i prefs_sound_window.obj
 0002:0005b8c0       ??_GPrefsSoundWindow@@UAEPAXI@Z 0065d8c0 f i prefs_sound_window.obj
 0002:0005b930       ??1PrefsSoundWindow@@UAE@XZ 0065d930 f i prefs_sound_window.obj
 0002:0005b980       ?Create@PrefsSoundWindow@@UAEXXZ 0065d980 f   prefs_sound_window.obj
 0002:0005c940       ??0HW3DDropDownMenu@@QAE@XZ 0065e940 f i prefs_sound_window.obj
 0002:0005c9a0       ?Render@HW3DDropDownMenu@@UAEXHH_N0@Z 0065e9a0 f i prefs_sound_window.obj
 0002:0005cad0       ?MouseUp@HW3DDropDownMenu@@UAEXXZ 0065ead0 f i prefs_sound_window.obj
 0002:0005cb50       ??0RestartSoundButton@@QAE@XZ 0065eb50 f i prefs_sound_window.obj
 0002:0005cbb0       ?MouseUp@RestartSoundButton@@UAEXXZ 0065ebb0 f i prefs_sound_window.obj
 0002:0005cf90       ??_GCachedSampleHandle@@QAEPAXI@Z 0065ef90 f i prefs_sound_window.obj
 0002:0005d000       ??_EHW3DDropDownMenu@@UAEPAXI@Z 0065f000 f i prefs_sound_window.obj
 0002:0005d000       ??_GHW3DDropDownMenu@@UAEPAXI@Z 0065f000 f i prefs_sound_window.obj
 0002:0005d070       ??_GRestartSoundButton@@UAEPAXI@Z 0065f070 f i prefs_sound_window.obj
 0002:0005d070       ??_ERestartSoundButton@@UAEPAXI@Z 0065f070 f i prefs_sound_window.obj
 0002:0005d0e0       ??1HW3DDropDownMenu@@UAE@XZ 0065f0e0 f i prefs_sound_window.obj
 0002:0005d130       ??1RestartSoundButton@@UAE@XZ 0065f130 f i prefs_sound_window.obj
 0002:0005d180       ?Render@PrefsSoundWindow@@UAEX_N@Z 0065f180 f   prefs_sound_window.obj
 0002:0005d8b0       ?Size@?$DArray@PAVSoundInstance@@@@QBEHXZ 0065f8b0 f i prefs_sound_window.obj
 0002:0005d8f0       ?ValidIndex@?$DArray@PAVSoundInstance@@@@QBE_NH@Z 0065f8f0 f i prefs_sound_window.obj
 0002:0005d960       ??A?$DArray@PAVSoundInstance@@@@QAEAAPAVSoundInstance@@H@Z 0065f960 f i prefs_sound_window.obj
 0002:0005da80       ??0ProfileWindow@@QAE@PAD@Z 0065fa80 f   profilewindow.obj
 0002:0005db00       ??_GProfileWindow@@UAEPAXI@Z 0065fb00 f i profilewindow.obj
 0002:0005db00       ??_EProfileWindow@@UAEPAXI@Z 0065fb00 f i profilewindow.obj
 0002:0005db70       ??1ProfileWindow@@UAE@XZ   0065fb70 f   profilewindow.obj
 0002:0005dbe0       ?RenderElementProfile@ProfileWindow@@IAEXPAVProfiledElement@@I@Z 0065fbe0 f   profilewindow.obj
 0002:0005e4b0       ?Render@ProfileWindow@@UAEX_N@Z 006604b0 f   profilewindow.obj
 0002:0005e6c0       ?Create@ProfileWindow@@UAEXXZ 006606c0 f   profilewindow.obj
 0002:0005e980       ??0ProfilerButton@@QAE@XZ  00660980 f i profilewindow.obj
 0002:0005e9e0       ?MouseUp@ProfilerButton@@UAEXXZ 006609e0 f i profilewindow.obj
 0002:0005eb70       ??_GProfilerButton@@UAEPAXI@Z 00660b70 f i profilewindow.obj
 0002:0005eb70       ??_EProfilerButton@@UAEPAXI@Z 00660b70 f i profilewindow.obj
 0002:0005ebe0       ??1ProfilerButton@@UAE@XZ  00660be0 f i profilewindow.obj
 0002:0005ec30       ?Remove@ProfileWindow@@UAEXXZ 00660c30 f   profilewindow.obj
 0002:0005ecb0       ?Size@?$HashTable@PAVProfiledElement@@@@QBEIXZ 00660cb0 f i profilewindow.obj
 0002:0005ecf0       ?NumUsed@?$HashTable@PAVProfiledElement@@@@QBEIXZ 00660cf0 f i profilewindow.obj
 0002:0005ed40       ??A?$HashTable@PAVProfiledElement@@@@QBEPAVProfiledElement@@I@Z 00660d40 f i profilewindow.obj
 0002:0005ed90       ?StartOrderedWalk@?$SortingHashTable@PAVProfiledElement@@@@QAEFXZ 00660d90 f i profilewindow.obj
 0002:0005edf0       ?GetNextOrderedIndex@?$SortingHashTable@PAVProfiledElement@@@@QAEFXZ 00660df0 f i profilewindow.obj
 0002:0005ee60       ??0ReallyQuitWindow@@QAE@XZ 00660e60 f   reallyquit_window.obj
 0002:0005ef90       ??_GReallyQuitWindow@@UAEPAXI@Z 00660f90 f i reallyquit_window.obj
 0002:0005ef90       ??_EReallyQuitWindow@@UAEPAXI@Z 00660f90 f i reallyquit_window.obj
 0002:0005f000       ??1ReallyQuitWindow@@UAE@XZ 00661000 f i reallyquit_window.obj
 0002:0005f050       ?Create@ReallyQuitWindow@@UAEXXZ 00661050 f   reallyquit_window.obj
 0002:0005f2c0       ??0SaveOnQuitWindow@@QAE@PAD@Z 006612c0 f   save_on_quit_window.obj
 0002:0005f3f0       ??_ESaveOnQuitWindow@@UAEPAXI@Z 006613f0 f i save_on_quit_window.obj
 0002:0005f3f0       ??_GSaveOnQuitWindow@@UAEPAXI@Z 006613f0 f i save_on_quit_window.obj
 0002:0005f460       ??1SaveOnQuitWindow@@UAE@XZ 00661460 f i save_on_quit_window.obj
 0002:0005f4b0       ?Create@SaveOnQuitWindow@@UAEXXZ 006614b0 f   save_on_quit_window.obj
 0002:0005f7c0       ??0YesButton@@QAE@XZ       006617c0 f i save_on_quit_window.obj
 0002:0005f820       ?MouseUp@YesButton@@EAEXXZ 00661820 f i save_on_quit_window.obj
 0002:0005f890       ??0NoButton@@QAE@XZ        00661890 f i save_on_quit_window.obj
 0002:0005f8f0       ?MouseUp@NoButton@@EAEXXZ  006618f0 f i save_on_quit_window.obj
 0002:0005f950       ??0CancelButton@@QAE@XZ    00661950 f i save_on_quit_window.obj
 0002:0005f9b0       ?MouseUp@CancelButton@@EAEXXZ 006619b0 f i save_on_quit_window.obj
 0002:0005fa20       ??_GYesButton@@UAEPAXI@Z   00661a20 f i save_on_quit_window.obj
 0002:0005fa20       ??_EYesButton@@UAEPAXI@Z   00661a20 f i save_on_quit_window.obj
 0002:0005fa90       ??_ENoButton@@UAEPAXI@Z    00661a90 f i save_on_quit_window.obj
 0002:0005fa90       ??_GNoButton@@UAEPAXI@Z    00661a90 f i save_on_quit_window.obj
 0002:0005fb00       ??_ECancelButton@@UAEPAXI@Z 00661b00 f i save_on_quit_window.obj
 0002:0005fb00       ??_GCancelButton@@UAEPAXI@Z 00661b00 f i save_on_quit_window.obj
 0002:0005fb70       ??1YesButton@@UAE@XZ       00661b70 f i save_on_quit_window.obj
 0002:0005fbc0       ??1NoButton@@UAE@XZ        00661bc0 f i save_on_quit_window.obj
 0002:0005fc10       ??1CancelButton@@UAE@XZ    00661c10 f i save_on_quit_window.obj
 0002:0005fc60       ?Render@SaveOnQuitWindow@@UAEX_N@Z 00661c60 f   save_on_quit_window.obj
 0002:0005fde0       ??0ScrollBar@@QAE@PAVEclWindow@@@Z 00661de0 f   scrollbar.obj
 0002:0005ff20       ??1ScrollBar@@QAE@XZ       00661f20 f   scrollbar.obj
 0002:0005ff60       ?Create@ScrollBar@@QAEXPADHHHHHHH@Z 00661f60 f   scrollbar.obj
 0002:00060440       ?Remove@ScrollBar@@QAEXXZ  00662440 f   scrollbar.obj
 0002:000605d0       ?SetNumRows@ScrollBar@@QAEXH@Z 006625d0 f   scrollbar.obj
 0002:00060650       ?SetCurrentValue@ScrollBar@@QAEXH@Z 00662650 f   scrollbar.obj
 0002:00060750       ?SetWinSize@ScrollBar@@QAEXH@Z 00662750 f   scrollbar.obj
 0002:000607d0       ?ChangeCurrentValue@ScrollBar@@QAEXH@Z 006627d0 f   scrollbar.obj
 0002:00060840       ??0ScrollBarButton@@QAE@PAVScrollBar@@@Z 00662840 f   scrollbar.obj
 0002:000608c0       ??_GScrollBarButton@@UAEPAXI@Z 006628c0 f i scrollbar.obj
 0002:000608c0       ??_EScrollBarButton@@UAEPAXI@Z 006628c0 f i scrollbar.obj
 0002:00060930       ??1ScrollBarButton@@UAE@XZ 00662930 f i scrollbar.obj
 0002:00060980       ?Render@ScrollBarButton@@UAEXHH_N0@Z 00662980 f   scrollbar.obj
 0002:00060df0       ?MouseUp@ScrollBarButton@@UAEXXZ 00662df0 f   scrollbar.obj
 0002:000610a0       ?MouseDown@ScrollBarButton@@UAEXXZ 006630a0 f   scrollbar.obj
 0002:00061420       ??0ScrollChangeButton@@QAE@PAVScrollBar@@H@Z 00663420 f   scrollbar.obj
 0002:000614a0       ??_EScrollChangeButton@@UAEPAXI@Z 006634a0 f i scrollbar.obj
 0002:000614a0       ??_GScrollChangeButton@@UAEPAXI@Z 006634a0 f i scrollbar.obj
 0002:00061510       ??1ScrollChangeButton@@UAE@XZ 00663510 f i scrollbar.obj
 0002:00061560       ?MouseDown@ScrollChangeButton@@UAEXXZ 00663560 f   scrollbar.obj
 0002:00061630       ??0TreeWindow@@QAE@PAD@Z   00663630 f   tree_window.obj
 0002:000616b0       ??_ETreeWindow@@UAEPAXI@Z  006636b0 f i tree_window.obj
 0002:000616b0       ??_GTreeWindow@@UAEPAXI@Z  006636b0 f i tree_window.obj
 0002:00061720       ??1TreeWindow@@UAE@XZ      00663720 f i tree_window.obj
 0002:00061770       ?Create@TreeWindow@@UAEXXZ 00663770 f   tree_window.obj
 0002:00061ef0       ??0TreeButton@@QAE@XZ      00663ef0 f i tree_window.obj
 0002:00061f50       ?MouseUp@TreeButton@@UAEXXZ 00663f50 f i tree_window.obj
 0002:00062350       ?frand@@YAMM@Z             00664350 f i tree_window.obj
 0002:000623c0       ?sfrand@@YAMM@Z            006643c0 f i tree_window.obj
 0002:00062440       ??_ETreeButton@@UAEPAXI@Z  00664440 f i tree_window.obj
 0002:00062440       ??_GTreeButton@@UAEPAXI@Z  00664440 f i tree_window.obj
 0002:000624b0       ??1TreeButton@@UAE@XZ      006644b0 f i tree_window.obj
 0002:00062500       ?Update@TreeWindow@@UAEXXZ 00664500 f   tree_window.obj
 0002:000625e0       ??0UserProfileWindow@@QAE@XZ 006645e0 f   userprofile_window.obj
 0002:00062660       ??_GUserProfileWindow@@UAEPAXI@Z 00664660 f i userprofile_window.obj
 0002:00062660       ??_EUserProfileWindow@@UAEPAXI@Z 00664660 f i userprofile_window.obj
 0002:000626d0       ??1UserProfileWindow@@UAE@XZ 006646d0 f i userprofile_window.obj
 0002:00062720       ?Render@UserProfileWindow@@UAEX_N@Z 00664720 f   userprofile_window.obj
 0002:000628e0       ?Create@UserProfileWindow@@UAEXXZ 006648e0 f   userprofile_window.obj
 0002:00063120       ??0LoadUserProfileButton@@QAE@XZ 00665120 f i userprofile_window.obj
 0002:00063180       ?MouseUp@LoadUserProfileButton@@UAEXXZ 00665180 f i userprofile_window.obj
 0002:00063230       ??0NewProfileWindowButton@@QAE@XZ 00665230 f i userprofile_window.obj
 0002:00063290       ?MouseUp@NewProfileWindowButton@@UAEXXZ 00665290 f i userprofile_window.obj
 0002:00063390       ??_ELoadUserProfileButton@@UAEPAXI@Z 00665390 f i userprofile_window.obj
 0002:00063390       ??_GLoadUserProfileButton@@UAEPAXI@Z 00665390 f i userprofile_window.obj
 0002:00063400       ??_ENewProfileWindowButton@@UAEPAXI@Z 00665400 f i userprofile_window.obj
 0002:00063400       ??_GNewProfileWindowButton@@UAEPAXI@Z 00665400 f i userprofile_window.obj
 0002:00063470       ??1LoadUserProfileButton@@UAE@XZ 00665470 f i userprofile_window.obj
 0002:000634c0       ??1NewProfileWindowButton@@UAE@XZ 006654c0 f i userprofile_window.obj
 0002:00063510       ??0NewUserProfileWindow@@QAE@XZ 00665510 f   userprofile_window.obj
 0002:00063590       ??_GNewUserProfileWindow@@UAEPAXI@Z 00665590 f i userprofile_window.obj
 0002:00063590       ??_ENewUserProfileWindow@@UAEPAXI@Z 00665590 f i userprofile_window.obj
 0002:00063600       ??1NewUserProfileWindow@@UAE@XZ 00665600 f i userprofile_window.obj
 0002:00063650       ?Create@NewUserProfileWindow@@UAEXXZ 00665650 f   userprofile_window.obj
 0002:00063ad0       ??0NewProfileButton@@QAE@XZ 00665ad0 f i userprofile_window.obj
 0002:00063b30       ?MouseUp@NewProfileButton@@EAEXXZ 00665b30 f i userprofile_window.obj
 0002:00063c20       ??_ENewProfileButton@@UAEPAXI@Z 00665c20 f i userprofile_window.obj
 0002:00063c20       ??_GNewProfileButton@@UAEPAXI@Z 00665c20 f i userprofile_window.obj
 0002:00063c90       ??1NewProfileButton@@UAE@XZ 00665c90 f i userprofile_window.obj
 0002:00063ce0       ??0AviPlayer@@QAE@XZ       00665ce0 f   avi_player.obj
 0002:00063d60       ??1AviPlayer@@QAE@XZ       00665d60 f   avi_player.obj
 0002:00063db0       ?OpenAvi@AviPlayer@@QAEHPAD@Z 00665db0 f   avi_player.obj
 0002:00064140       ?GetAudioData@AviPlayer@@QAEHHPAF@Z 00666140 f   avi_player.obj
 0002:00064250       ?CloseAvi@AviPlayer@@QAEHXZ 00666250 f   avi_player.obj
 0002:00064360       ?GetWidth@AviPlayer@@QAEHXZ 00666360 f   avi_player.obj
 0002:000643a0       ?GetHeight@AviPlayer@@QAEHXZ 006663a0 f   avi_player.obj
 0002:000643e0       ?GetFrameData@AviPlayer@@QAEPAEXZ 006663e0 f   avi_player.obj
 0002:00064420       ?DecodeVideoFrame@AviPlayer@@QAEHM@Z 00666420 f   avi_player.obj
 0002:000644a0       ?DecodeVideoFrame@AviPlayer@@QAEHH@Z 006664a0 f   avi_player.obj
 0002:00064720       ?RenderSquare2d@@YAXMMMABVRGBAColour@@@Z 00666720 f   debug_render.obj
 0002:00064ae0       ?RenderCube@@YAXABVVector3@@MMMABVRGBAColour@@@Z 00666ae0 f   debug_render.obj
 0002:000653f0       ?RenderSphereRings@@YAXABVVector3@@MABVRGBAColour@@@Z 006673f0 f   debug_render.obj
 0002:000657a0       ?GetData@Vector3@@QAEPAMXZ 006677a0 f i debug_render.obj
 0002:000657e0       _cosf                      006677e0 f i debug_render.obj
 0002:00065850       _sinf                      00667850 f i debug_render.obj
 0002:000658c0       ?RenderSphere@@YAXABVVector3@@MABVRGBAColour@@@Z 006678c0 f   debug_render.obj
 0002:000659b0       ?RenderVerticalCylinder@@YAXABVVector3@@0MMABVRGBAColour@@@Z 006679b0 f   debug_render.obj
 0002:00066080       ??TVector3@@QBE?AV0@ABV0@@Z 00668080 f i debug_render.obj
 0002:00066170       ??0Vector3@@QAE@MMM@Z      00668170 f i debug_render.obj
 0002:000661d0       ??HVector3@@QBE?AV0@ABV0@@Z 006681d0 f i debug_render.obj
 0002:00066290       ??DVector3@@QBE?AV0@M@Z    00668290 f i debug_render.obj
 0002:00066350       ??YVector3@@QAEABV0@ABV0@@Z 00668350 f i debug_render.obj
 0002:000663d0       ?Normalise@Vector3@@QAEABV1@XZ 006683d0 f i debug_render.obj
 0002:000664d0       ?RenderArrow@@YAXABVVector3@@0MABVRGBAColour@@@Z 006684d0 f   debug_render.obj
 0002:00066940       ??GVector3@@QBE?AV0@ABV0@@Z 00668940 f i debug_render.obj
 0002:00066a00       ?SetLength@Vector3@@QAEABV1@M@Z 00668a00 f i debug_render.obj
 0002:00066af0       ??XVector3@@QAEABV0@M@Z    00668af0 f i debug_render.obj
 0002:00066b60       ?Mag@Vector3@@QBEMXZ       00668b60 f i debug_render.obj
 0002:00066c00       ?GetDataConst@Vector3@@QBEPBMXZ 00668c00 f i debug_render.obj
 0002:00066c40       _fabsf                     00668c40 f i debug_render.obj
 0002:00066cb0       ?RenderPointMarker@@YAXABVVector3@@PBDZZ 00668cb0 f   debug_render.obj
 0002:00066e40       ?PrintMatrix@@YAXPBDI@Z    00668e40 f   debug_render.obj
 0002:00066fd0       ?PrintMatrices@@YAXPBD@Z   00668fd0 f   debug_render.obj
 0002:00067070       ?DebugOut@@YAXPADZZ        00669070 f   debug_utils.obj
 0002:00067150       ?DarwiniaReleaseAssert@@YAX_NPBDZZ 00669150 f   debug_utils.obj
 0002:00067360       ?SetNewReportingThreshold@@YAXH@Z 00669360 f   debug_utils.obj
 0002:000673a0       ?PrintMemoryLeaks@@YAXXZ   006693a0 f   debug_utils.obj
 0002:000673d0       ?getRetAddress@@YAPAIPAI@Z 006693d0 f   debug_utils.obj
 0002:00067420       ?GenerateBlackBox@@YAXPAD@Z 00669420 f   debug_utils.obj
 0002:00067780       ?RecordExceptionInfo@@YAHPAU_EXCEPTION_POINTERS@@PBD11@Z 00669780 f   exception_handler.obj
 0002:00069c10       ?GetWinVer@@YAHPADPAH0@Z   0066bc10 f   GetWinVer.obj
 0002:0006a170       ?InitialiseHighResTime@@YAXXZ 0066c170 f   hi_res_time.obj
 0002:0006a210       ?GetHighResTime@@YANXZ     0066c210 f   hi_res_time.obj
 0002:0006a2a0       ?GetLowLevelTime@@YANXZ    0066c2a0 f i hi_res_time.obj
 0002:0006a3a0       ?SetFakeTimeMode@@YAXXZ    0066c3a0 f   hi_res_time.obj
 0002:0006a400       ?SetRealTimeMode@@YAXXZ    0066c400 f   hi_res_time.obj
 0002:0006a470       ?IncrementFakeTime@@YAXN@Z 0066c470 f   hi_res_time.obj
 0002:0006a4c0       ??0LangPhrase@@QAE@XZ      0066c4c0 f   language_table.obj
 0002:0006a510       ??1LangPhrase@@QAE@XZ      0066c510 f   language_table.obj
 0002:0006a580       ??0LangTable@@QAE@PAD@Z    0066c580 f   language_table.obj
 0002:0006a690       ??1LangTable@@QAE@XZ       0066c690 f   language_table.obj
 0002:0006a870       ??_G?$DArray@PAVLangPhrase@@@@QAEPAXI@Z 0066c870 f i language_table.obj
 0002:0006a8e0       ??_G?$HashTable@H@@QAEPAXI@Z 0066c8e0 f i language_table.obj
 0002:0006a950       ?ParseLanguageFile@LangTable@@QAEXPBD@Z 0066c950 f   language_table.obj
 0002:0006ad70       ?is_suffix@@YA_NPBD0@Z     0066cd70 f   language_table.obj
 0002:0006ae10       ?wrong_suffix@@YA_NPBDW4InputMode@@@Z 0066ce10 f   language_table.obj
 0002:0006aeb0       ?chomp_mode_suffix@@YA_NPAD@Z 0066ceb0 f   language_table.obj
 0002:0006af50       ?specific_key_exists@LangTable@@AAE_NPBDW4InputMode@@@Z 0066cf50 f   language_table.obj
 0002:0006b0d0       ?printTable@@YA_NPBV?$HashTable@H@@PBDAAV?$basic_ostream@DU?$char_traits@D@std@@@std@@@Z 0066d0d0 f   language_table.obj
 0002:0006b200       ?good@ios_base@std@@QBE_NXZ 0066d200 f i language_table.obj
 0002:0006b260       ?rdstate@ios_base@std@@QBEHXZ 0066d260 f i language_table.obj
 0002:0006b2a0       ?endl@std@@YAAAV?$basic_ostream@DU?$char_traits@D@std@@@1@AAV21@@Z 0066d2a0 f i language_table.obj
 0002:0006b300       ?RebuildTables@LangTable@@QAEXXZ 0066d300 f   language_table.obj
 0002:0006b790       ??0ostrstream@std@@QAE@XZ  0066d790 f i language_table.obj
 0002:0006b8b0       ??0strstreambuf@std@@QAE@H@Z 0066d8b0 f i language_table.obj
 0002:0006b970       ?overflow@strstreambuf@std@@MAEHH@Z 0066d970 f i language_table.obj
 0002:0006bd60       ?pbackfail@strstreambuf@std@@MAEHH@Z 0066dd60 f i language_table.obj
 0002:0006be50       ?underflow@strstreambuf@std@@MAEHXZ 0066de50 f i language_table.obj
 0002:0006bf90       ?seekoff@strstreambuf@std@@MAE?AV?$fpos@H@2@JHH@Z 0066df90 f i language_table.obj
 0002:0006c260       ?seekpos@strstreambuf@std@@MAE?AV?$fpos@H@2@V32@H@Z 0066e260 f i language_table.obj
 0002:0006c450       ?_Init@strstreambuf@std@@IAEXHPAD0H@Z 0066e450 f i language_table.obj
 0002:0006c620       ??_Estrstreambuf@std@@UAEPAXI@Z 0066e620 f i language_table.obj
 0002:0006c620       ??_Gstrstreambuf@std@@UAEPAXI@Z 0066e620 f i language_table.obj
 0002:0006c690       ??1strstreambuf@std@@UAE@XZ 0066e690 f i language_table.obj
 0002:0006c740       ?_Tidy@strstreambuf@std@@IAEXXZ 0066e740 f i language_table.obj
 0002:0006c800       ?str@ostrstream@std@@QAEPADXZ 0066e800 f i language_table.obj
 0002:0006c860       ?str@strstreambuf@std@@QAEPADXZ 0066e860 f i language_table.obj
 0002:0006c8c0       ?freeze@strstreambuf@std@@QAEX_N@Z 0066e8c0 f i language_table.obj
 0002:0006c9d0       ??_Eostrstream@std@@UAEPAXI@Z 0066e9d0 f i language_table.obj
 0002:0006c9d0       ??_Gostrstream@std@@UAEPAXI@Z 0066e9d0 f i language_table.obj
 0002:0006ca50       ??_Dostrstream@std@@QAEXXZ 0066ea50 f i language_table.obj
 0002:0006cab0       ??1ostrstream@std@@UAE@XZ  0066eab0 f i language_table.obj
 0002:0006cb70       ??_D?$basic_ofstream@DU?$char_traits@D@std@@@std@@QAEXXZ 0066eb70 f i language_table.obj
 0002:0006cbd0       ?RebuildTable@LangTable@@AAEXPAV?$HashTable@H@@AAVostrstream@std@@W4InputMode@@@Z 0066ebd0 f   language_table.obj
 0002:0006cf60       ?GetCurrentTable@LangTable@@AAEPAV?$HashTable@H@@XZ 0066ef60 f   language_table.obj
 0002:0006cfd0       ?GetCurrentTable@LangTable@@AAEPAV?$HashTable@H@@W4InputMode@@@Z 0066efd0 f   language_table.obj
 0002:0006d080       ?DoesPhraseExist@LangTable@@QAE_NPBD@Z 0066f080 f   language_table.obj
 0002:0006d120       ?RawDoesPhraseExist@LangTable@@QAE_NPBDW4InputMode@@@Z 0066f120 f   language_table.obj
 0002:0006d280       ?RawDoesPhraseExist@LangTable@@AAE_NPBD@Z 0066f280 f   language_table.obj
 0002:0006d300       ?LookupPhrase@LangTable@@QAEPADPBD@Z 0066f300 f   language_table.obj
 0002:0006d400       ?RawLookupPhrase@LangTable@@QAEPADPBD@Z 0066f400 f   language_table.obj
 0002:0006d4a0       ?RawLookupPhrase@LangTable@@QAEPADPBDW4InputMode@@@Z 0066f4a0 f   language_table.obj
 0002:0006d650       ?TestAgainstEnglish@LangTable@@QAEXXZ 0066f650 f   language_table.obj
 0002:0006da00       ??_GLangTable@@QAEPAXI@Z   0066fa00 f i language_table.obj
 0002:0006da70       ?GetPhraseList@LangTable@@QAEPAV?$DArray@PAVLangPhrase@@@@XZ 0066fa70 f   language_table.obj
 0002:0006dad0       ?WordWrapText@@YAPAV?$LList@PAD@@PBDMM_N@Z 0066fad0 f   language_table.obj
 0002:0006dda0       ?strchr@@YAPADPADH@Z       0066fda0 f i language_table.obj
 0002:0006de00       ??0?$basic_ostream@DU?$char_traits@D@std@@@std@@QAE@PAV?$basic_streambuf@DU?$char_traits@D@std@@@1@_N@Z 0066fe00 f i language_table.obj
 0002:0006df10       ??1?$basic_ostream@DU?$char_traits@D@std@@@std@@UAE@XZ 0066ff10 f i language_table.obj
 0002:0006df60       ??6?$basic_ostream@DU?$char_traits@D@std@@@std@@QAEAAV01@P6AAAV01@AAV01@@Z@Z 0066ff60 f i language_table.obj
 0002:0006dfe0       ?put@?$basic_ostream@DU?$char_traits@D@std@@@std@@QAEAAV12@D@Z 0066ffe0 f i language_table.obj
 0002:0006e200       ?eq_int_type@?$char_traits@D@std@@SA_NABH0@Z 00670200 f i language_table.obj
 0002:0006e250       ?eof@?$char_traits@D@std@@SAHXZ 00670250 f i language_table.obj
 0002:0006e290       ?flush@?$basic_ostream@DU?$char_traits@D@std@@@std@@QAEAAV12@XZ 00670290 f i language_table.obj
 0002:0006e350       ?fail@ios_base@std@@QBE_NXZ 00670350 f i language_table.obj
 0002:0006e3b0       ?tellp@?$basic_ostream@DU?$char_traits@D@std@@@std@@QAE?AV?$fpos@H@2@XZ 006703b0 f i language_table.obj
 0002:0006e460       ??1?$basic_ios@DU?$char_traits@D@std@@@std@@UAE@XZ 00670460 f i language_table.obj
 0002:0006e4c0       ??1ios_base@std@@UAE@XZ    006704c0 f i language_table.obj
 0002:0006e520       ??_Gios_base@std@@UAEPAXI@Z 00670520 f i language_table.obj
 0002:0006e520       ??_Eios_base@std@@UAEPAXI@Z 00670520 f i language_table.obj
 0002:0006e590       ?setstate@?$basic_ios@DU?$char_traits@D@std@@@std@@QAEXH_N@Z 00670590 f i language_table.obj
 0002:0006e600       ?rdbuf@?$basic_ios@DU?$char_traits@D@std@@@std@@QBEPAV?$basic_streambuf@DU?$char_traits@D@std@@@2@XZ 00670600 f i language_table.obj
 0002:0006e640       ??0?$basic_ios@DU?$char_traits@D@std@@@std@@IAE@XZ 00670640 f i language_table.obj
 0002:0006e6a0       ??0ios_base@std@@IAE@XZ    006706a0 f i language_table.obj
 0002:0006e6f0       ??0?$basic_streambuf@DU?$char_traits@D@std@@@std@@IAE@XZ 006706f0 f i language_table.obj
 0002:0006e810       ??0locale@std@@QAE@XZ      00670810 f i language_table.obj
 0002:0006e880       ?_Incref@facet@locale@std@@QAEXXZ 00670880 f i language_table.obj
 0002:0006e940       ??1?$basic_streambuf@DU?$char_traits@D@std@@@std@@UAE@XZ 00670940 f i language_table.obj
 0002:0006ea00       ?eback@?$basic_streambuf@DU?$char_traits@D@std@@@std@@IBEPADXZ 00670a00 f i language_table.obj
 0002:0006ea40       ?gptr@?$basic_streambuf@DU?$char_traits@D@std@@@std@@IBEPADXZ 00670a40 f i language_table.obj
 0002:0006ea80       ?pbase@?$basic_streambuf@DU?$char_traits@D@std@@@std@@IBEPADXZ 00670a80 f i language_table.obj
 0002:0006eac0       ?pptr@?$basic_streambuf@DU?$char_traits@D@std@@@std@@IBEPADXZ 00670ac0 f i language_table.obj
 0002:0006eb00       ?egptr@?$basic_streambuf@DU?$char_traits@D@std@@@std@@IBEPADXZ 00670b00 f i language_table.obj
 0002:0006eb50       ?gbump@?$basic_streambuf@DU?$char_traits@D@std@@@std@@IAEXH@Z 00670b50 f i language_table.obj
 0002:0006ebc0       ?setg@?$basic_streambuf@DU?$char_traits@D@std@@@std@@IAEXPAD00@Z 00670bc0 f i language_table.obj
 0002:0006ec30       ?epptr@?$basic_streambuf@DU?$char_traits@D@std@@@std@@IBEPADXZ 00670c30 f i language_table.obj
 0002:0006ec80       ?pbump@?$basic_streambuf@DU?$char_traits@D@std@@@std@@IAEXH@Z 00670c80 f i language_table.obj
 0002:0006ecf0       ?setp@?$basic_streambuf@DU?$char_traits@D@std@@@std@@IAEXPAD0@Z 00670cf0 f i language_table.obj
 0002:0006ed60       ?setp@?$basic_streambuf@DU?$char_traits@D@std@@@std@@IAEXPAD00@Z 00670d60 f i language_table.obj
 0002:0006edd0       ?_Pninc@?$basic_streambuf@DU?$char_traits@D@std@@@std@@IAEPADXZ 00670dd0 f i language_table.obj
 0002:0006ee50       ?_Init@?$basic_streambuf@DU?$char_traits@D@std@@@std@@IAEXXZ 00670e50 f i language_table.obj
 0002:0006ef10       ?overflow@?$basic_streambuf@DU?$char_traits@D@std@@@std@@MAEHH@Z 00670f10 f i language_table.obj
 0002:0006ef60       ?pbackfail@?$basic_streambuf@DU?$char_traits@D@std@@@std@@MAEHH@Z 00670f60 f i language_table.obj
 0002:0006efb0       ?showmanyc@?$basic_streambuf@DU?$char_traits@D@std@@@std@@MAEHXZ 00670fb0 f i language_table.obj
 0002:0006eff0       ?underflow@?$basic_streambuf@DU?$char_traits@D@std@@@std@@MAEHXZ 00670ff0 f i language_table.obj
 0002:0006f040       ?uflow@?$basic_streambuf@DU?$char_traits@D@std@@@std@@MAEHXZ 00671040 f i language_table.obj
 0002:0006f110       ?to_int_type@?$char_traits@D@std@@SAHABD@Z 00671110 f i language_table.obj
 0002:0006f150       ?xsgetn@?$basic_streambuf@DU?$char_traits@D@std@@@std@@MAEHPADH@Z 00671150 f i language_table.obj
 0002:0006f1c0       ?_Xsgetn_s@?$basic_streambuf@DU?$char_traits@D@std@@@std@@MAEHPADIH@Z 006711c0 f i language_table.obj
 0002:0006f380       ?to_char_type@?$char_traits@D@std@@SADABH@Z 00671380 f i language_table.obj
 0002:0006f3c0       ?xsputn@?$basic_streambuf@DU?$char_traits@D@std@@@std@@MAEHPBDH@Z 006713c0 f i language_table.obj
 0002:0006f550       ?seekoff@?$basic_streambuf@DU?$char_traits@D@std@@@std@@MAE?AV?$fpos@H@2@JHH@Z 00671550 f i language_table.obj
 0002:0006f5b0       ?seekpos@?$basic_streambuf@DU?$char_traits@D@std@@@std@@MAE?AV?$fpos@H@2@V32@H@Z 006715b0 f i language_table.obj
 0002:0006f610       ?setbuf@?$basic_streambuf@DU?$char_traits@D@std@@@std@@MAEPAV12@PADH@Z 00671610 f i language_table.obj
 0002:0006f650       ?sync@?$basic_streambuf@DU?$char_traits@D@std@@@std@@MAEHXZ 00671650 f i language_table.obj
 0002:0006f690       ?imbue@?$basic_streambuf@DU?$char_traits@D@std@@@std@@MAEXABVlocale@2@@Z 00671690 f i language_table.obj
 0002:0006f6d0       ??0?$fpos@H@std@@QAE@J@Z   006716d0 f i language_table.obj
 0002:0006f740       ??B?$fpos@H@std@@QBEJXZ    00671740 f i language_table.obj
 0002:0006f790       ??0?$basic_ofstream@DU?$char_traits@D@std@@@std@@QAE@PBDHH@Z 00671790 f i language_table.obj
 0002:0006f8f0       ??1?$basic_ofstream@DU?$char_traits@D@std@@@std@@UAE@XZ 006718f0 f i language_table.obj
 0002:0006f9b0       ??1?$basic_filebuf@DU?$char_traits@D@std@@@std@@UAE@XZ 006719b0 f i language_table.obj
 0002:0006fa70       ?overflow@?$basic_filebuf@DU?$char_traits@D@std@@@std@@MAEHH@Z 00671a70 f i language_table.obj
 0002:000700c0       ?not_eof@?$char_traits@D@std@@SAHABH@Z 006720c0 f i language_table.obj
 0002:00070140       ??$_Fputc@D@std@@YA_NDPAU_iobuf@@@Z 00672140 f i language_table.obj
 0002:000701a0       ?pbackfail@?$basic_filebuf@DU?$char_traits@D@std@@@std@@MAEHH@Z 006721a0 f i language_table.obj
 0002:000703a0       ??$_Ungetc@D@std@@YA_NABDPAU_iobuf@@@Z 006723a0 f i language_table.obj
 0002:00070410       ?underflow@?$basic_filebuf@DU?$char_traits@D@std@@@std@@MAEHXZ 00672410 f i language_table.obj
 0002:00070550       ?uflow@?$basic_filebuf@DU?$char_traits@D@std@@@std@@MAEHXZ 00672550 f i language_table.obj
 0002:00070b30       ??$_Fgetc@D@std@@YA_NAADPAU_iobuf@@@Z 00672b30 f i language_table.obj
 0002:00070ba0       ?seekoff@?$basic_filebuf@DU?$char_traits@D@std@@@std@@MAE?AV?$fpos@H@2@JHH@Z 00672ba0 f i language_table.obj
 0002:00070d40       ?seekpos@?$basic_filebuf@DU?$char_traits@D@std@@@std@@MAE?AV?$fpos@H@2@V32@H@Z 00672d40 f i language_table.obj
 0002:00070ef0       ?setbuf@?$basic_filebuf@DU?$char_traits@D@std@@@std@@MAEPAV?$basic_streambuf@DU?$char_traits@D@std@@@2@PADH@Z 00672ef0 f i language_table.obj
 0002:00070fc0       ?sync@?$basic_filebuf@DU?$char_traits@D@std@@@std@@MAEHXZ 00672fc0 f i language_table.obj
 0002:000710b0       ?imbue@?$basic_filebuf@DU?$char_traits@D@std@@@std@@MAEXABVlocale@2@@Z 006730b0 f i language_table.obj
 0002:00071120       ??_G?$basic_ostream@DU?$char_traits@D@std@@@std@@UAEPAXI@Z 00673120 f i language_table.obj
 0002:00071120       ??_E?$basic_ostream@DU?$char_traits@D@std@@@std@@UAEPAXI@Z 00673120 f i language_table.obj
 0002:000711a0       ??_E?$basic_ios@DU?$char_traits@D@std@@@std@@UAEPAXI@Z 006731a0 f i language_table.obj
 0002:000711a0       ??_G?$basic_ios@DU?$char_traits@D@std@@@std@@UAEPAXI@Z 006731a0 f i language_table.obj
 0002:00071210       ??_E?$basic_streambuf@DU?$char_traits@D@std@@@std@@UAEPAXI@Z 00673210 f i language_table.obj
 0002:00071210       ??_G?$basic_streambuf@DU?$char_traits@D@std@@@std@@UAEPAXI@Z 00673210 f i language_table.obj
 0002:00071280       ??_G?$basic_ofstream@DU?$char_traits@D@std@@@std@@UAEPAXI@Z 00673280 f i language_table.obj
 0002:00071280       ??_E?$basic_ofstream@DU?$char_traits@D@std@@@std@@UAEPAXI@Z 00673280 f i language_table.obj
 0002:00071300       ??_E?$basic_filebuf@DU?$char_traits@D@std@@@std@@UAEPAXI@Z 00673300 f i language_table.obj
 0002:00071300       ??_G?$basic_filebuf@DU?$char_traits@D@std@@@std@@UAEPAXI@Z 00673300 f i language_table.obj
 0002:00071370       ??1?$_String_iterator@DU?$char_traits@D@std@@V?$allocator@D@2@@std@@QAE@XZ 00673370 f i language_table.obj
 0002:000713c0       ??_D?$basic_ostream@DU?$char_traits@D@std@@@std@@QAEXXZ 006733c0 f i language_table.obj
 0002:00071420       ??1?$_String_const_iterator@DU?$char_traits@D@std@@V?$allocator@D@2@@std@@QAE@XZ 00673420 f i language_table.obj
 0002:00071470       ??1?$_Ranit_base@DHPBDABDV_Iterator_base@std@@@std@@QAE@XZ 00673470 f i language_table.obj
 0002:000714c0       ??0?$basic_string@DU?$char_traits@D@std@@V?$allocator@D@2@@std@@QAE@ID@Z 006734c0 f i language_table.obj
 0002:00071590       ?append@?$basic_string@DU?$char_traits@D@std@@V?$allocator@D@2@@std@@QAEAAV12@ID@Z 00673590 f i language_table.obj
 0002:00071660       ?begin@?$basic_string@DU?$char_traits@D@std@@V?$allocator@D@2@@std@@QAE?AV?$_String_iterator@DU?$char_traits@D@std@@V?$allocator@D@2@@2@XZ 00673660 f i language_table.obj
 0002:000716f0       ?clear@?$basic_ios@DU?$char_traits@D@std@@@std@@QAEXH_N@Z 006736f0 f i language_table.obj
 0002:00071780       ?clear@ios_base@std@@QAEXH_N@Z 00673780 f i language_table.obj
 0002:00071990       ??0runtime_error@std@@QAE@ABV01@@Z 00673990 f i language_table.obj
 0002:00071a60       ?what@runtime_error@std@@UBEPBDXZ 00673a60 f i language_table.obj
 0002:00071ac0       ??_Eruntime_error@std@@UAEPAXI@Z 00673ac0 f i language_table.obj
 0002:00071ac0       ??_Gruntime_error@std@@UAEPAXI@Z 00673ac0 f i language_table.obj
 0002:00071b30       ??1runtime_error@std@@UAE@XZ 00673b30 f i language_table.obj
 0002:00071ba0       ??0failure@ios_base@std@@QAE@ABV?$basic_string@DU?$char_traits@D@std@@V?$allocator@D@2@@2@@Z 00673ba0 f i language_table.obj
 0002:00071c10       ??0runtime_error@std@@QAE@ABV?$basic_string@DU?$char_traits@D@std@@V?$allocator@D@2@@1@@Z 00673c10 f i language_table.obj
 0002:00071cd0       ??1failure@ios_base@std@@UAE@XZ 00673cd0 f i language_table.obj
 0002:00071d30       ??_Efailure@ios_base@std@@UAEPAXI@Z 00673d30 f i language_table.obj
 0002:00071d30       ??_Gfailure@ios_base@std@@UAEPAXI@Z 00673d30 f i language_table.obj
 0002:00071da0       ??0failure@ios_base@std@@QAE@ABV012@@Z 00673da0 f i language_table.obj
 0002:00071e10       ?init@?$basic_ios@DU?$char_traits@D@std@@@std@@IAEXPAV?$basic_streambuf@DU?$char_traits@D@std@@@2@_N@Z 00673e10 f i language_table.obj
 0002:00071ed0       ?_Init@ios_base@std@@IAEXXZ 00673ed0 f i language_table.obj
 0002:00071fe0       ?clear@ios_base@std@@QAEXH@Z 00673fe0 f i language_table.obj
 0002:00072040       ?pubseekoff@?$basic_streambuf@DU?$char_traits@D@std@@@std@@QAE?AV?$fpos@H@2@JHH@Z 00674040 f i language_table.obj
 0002:000720c0       ?pubsync@?$basic_streambuf@DU?$char_traits@D@std@@@std@@QAEHXZ 006740c0 f i language_table.obj
 0002:00072120       ?sputc@?$basic_streambuf@DU?$char_traits@D@std@@@std@@QAEHD@Z 00674120 f i language_table.obj
 0002:000721f0       ?_Gndec@?$basic_streambuf@DU?$char_traits@D@std@@@std@@IAEPADXZ 006741f0 f i language_table.obj
 0002:00072260       ?_Gninc@?$basic_streambuf@DU?$char_traits@D@std@@@std@@IAEPADXZ 00674260 f i language_table.obj
 0002:000722e0       ?_Gnavail@?$basic_streambuf@DU?$char_traits@D@std@@@std@@IBEHXZ 006742e0 f i language_table.obj
 0002:00072350       ?_Pnavail@?$basic_streambuf@DU?$char_traits@D@std@@@std@@IBEHXZ 00674350 f i language_table.obj
 0002:000723c0       ??0?$fpos@H@std@@QAE@H_J@Z 006743c0 f i language_table.obj
 0002:00072430       ?state@?$fpos@H@std@@QBEHXZ 00674430 f i language_table.obj
 0002:00072470       ?seekpos@?$fpos@H@std@@QBE_JXZ 00674470 f i language_table.obj
 0002:000724b0       ??0?$basic_filebuf@DU?$char_traits@D@std@@@std@@QAE@PAU_iobuf@@@Z 006744b0 f i language_table.obj
 0002:00072570       ?open@?$basic_filebuf@DU?$char_traits@D@std@@@std@@QAEPAV12@PBDHH@Z 00674570 f i language_table.obj
 0002:000726a0       ??1locale@std@@QAE@XZ      006746a0 f i language_table.obj
 0002:00072710       ?_Decref@facet@locale@std@@QAEPAV123@XZ 00674710 f i language_table.obj
 0002:000727f0       ?close@?$basic_filebuf@DU?$char_traits@D@std@@@std@@QAEPAV12@XZ 006747f0 f i language_table.obj
 0002:000728b0       ?_Init@?$basic_filebuf@DU?$char_traits@D@std@@@std@@IAEXPAU_iobuf@@W4_Initfl@12@@Z 006748b0 f i language_table.obj
 0002:000729b0       ?_Endwrite@?$basic_filebuf@DU?$char_traits@D@std@@@std@@IAE_NXZ 006749b0 f i language_table.obj
 0002:00072e80       ?_Initcvt@?$basic_filebuf@DU?$char_traits@D@std@@@std@@IAEXPAV?$codecvt@DDH@2@@Z 00674e80 f i language_table.obj
 0002:00072f00       ?always_noconv@codecvt_base@std@@QBE_NXZ 00674f00 f i language_table.obj
 0002:00072f60       ??0sentry@?$basic_ostream@DU?$char_traits@D@std@@@std@@QAE@AAV12@@Z 00674f60 f i language_table.obj
 0002:00073080       ??1sentry@?$basic_ostream@DU?$char_traits@D@std@@@std@@QAE@XZ 00675080 f i language_table.obj
 0002:00073130       ??Bsentry@?$basic_ostream@DU?$char_traits@D@std@@@std@@QBE_NXZ 00675130 f i language_table.obj
 0002:00073170       ?in@?$codecvt@DDH@std@@QBEHAAHPBD1AAPBDPAD3AAPAD@Z 00675170 f i language_table.obj
 0002:00073200       ?out@?$codecvt@DDH@std@@QBEHAAHPBD1AAPBDPAD3AAPAD@Z 00675200 f i language_table.obj
 0002:00073290       ??D?$_String_iterator@DU?$char_traits@D@std@@V?$allocator@D@2@@std@@QBEAADXZ 00675290 f i language_table.obj
 0002:000732e0       ?assign@?$basic_string@DU?$char_traits@D@std@@V?$allocator@D@2@@std@@QAEAAV12@ID@Z 006752e0 f i language_table.obj
 0002:00073380       ?_Chassign@?$basic_string@DU?$char_traits@D@std@@V?$allocator@D@2@@std@@IAEXIID@Z 00675380 f i language_table.obj
 0002:00073420       ?assign@?$char_traits@D@std@@SAPADPADID@Z 00675420 f i language_table.obj
 0002:00073480       ?_Osfx@?$basic_ostream@DU?$char_traits@D@std@@@std@@QAEXXZ 00675480 f i language_table.obj
 0002:00073560       ?flags@ios_base@std@@QBEHXZ 00675560 f i language_table.obj
 0002:000735a0       ?tie@?$basic_ios@DU?$char_traits@D@std@@@std@@QBEPAV?$basic_ostream@DU?$char_traits@D@std@@@2@XZ 006755a0 f i language_table.obj
 0002:000735e0       ?widen@?$basic_ios@DU?$char_traits@D@std@@@std@@QBEDD@Z 006755e0 f i language_table.obj
 0002:000736d0       ?widen@?$ctype@D@std@@QBEDD@Z 006756d0 f i language_table.obj
 0002:00073740       ?getloc@ios_base@std@@QBE?AVlocale@2@XZ 00675740 f i language_table.obj
 0002:000737c0       ??0locale@std@@QAE@ABV01@@Z 006757c0 f i language_table.obj
 0002:00073830       ?getloc@?$basic_streambuf@DU?$char_traits@D@std@@@std@@QBE?AVlocale@2@XZ 00675830 f i language_table.obj
 0002:000738b0       ?_Init@?$basic_streambuf@DU?$char_traits@D@std@@@std@@IAEXPAPAD0PAH001@Z 006758b0 f i language_table.obj
 0002:00073930       ??0_Sentry_base@?$basic_ostream@DU?$char_traits@D@std@@@std@@QAE@AAV12@@Z 00675930 f i language_table.obj
 0002:000739d0       ?_Lock@?$basic_streambuf@DU?$char_traits@D@std@@@std@@QAEXXZ 006759d0 f i language_table.obj
 0002:00073a30       ??1_Sentry_base@?$basic_ostream@DU?$char_traits@D@std@@@std@@QAE@XZ 00675a30 f i language_table.obj
 0002:00073ac0       ?_Unlock@?$basic_streambuf@DU?$char_traits@D@std@@@std@@QAEXXZ 00675ac0 f i language_table.obj
 0002:00073b20       ??D?$_String_const_iterator@DU?$char_traits@D@std@@V?$allocator@D@2@@std@@QBEABDXZ 00675b20 f i language_table.obj
 0002:00073c20       ?unshift@?$codecvt@DDH@std@@QBEHAAHPAD1AAPAD@Z 00675c20 f i language_table.obj
 0002:00073ca0       ??0?$_String_iterator@DU?$char_traits@D@std@@V?$allocator@D@2@@std@@QAE@PADPBV_Container_base@1@@Z 00675ca0 f i language_table.obj
 0002:00073d00       ??0?$_String_const_iterator@DU?$char_traits@D@std@@V?$allocator@D@2@@std@@QAE@PBDPBV_Container_base@1@@Z 00675d00 f i language_table.obj
 0002:00073e40       ??0?$_Ranit_base@DHPBDABDV_Iterator_base@std@@@std@@QAE@XZ 00675e40 f i language_table.obj
 0002:00073ea0       ??$_DebugHeapDelete@Vfacet@locale@std@@@std@@YAXPAVfacet@locale@0@@Z 00675ea0 f i language_table.obj
 0002:00073f20       ??$use_facet@V?$ctype@D@std@@@std@@YAABV?$ctype@D@0@ABVlocale@0@@Z 00675f20 f i language_table.obj
 0002:000740e0       ??Bid@locale@std@@QAEIXZ   006760e0 f i language_table.obj
 0002:000741b0       ?_Register@facet@locale@std@@QAEXXZ 006761b0 f i language_table.obj
 0002:00074210       ?_Getfacet@locale@std@@QBEPBVfacet@12@I@Z 00676210 f i language_table.obj
 0002:00074300       ?_Getcat@?$ctype@D@std@@SAIPAPBVfacet@locale@2@@Z 00676300 f i language_table.obj
 0002:00074430       ??2facet@locale@std@@SAPAXIABU_DebugHeapTag_t@2@PADH@Z 00676430 f i language_table.obj
 0002:00074490       ??3facet@locale@std@@SAXPAXABU_DebugHeapTag_t@2@PADH@Z 00676490 f i language_table.obj
 0002:000744e0       ??3facet@locale@std@@SAXPAX@Z 006764e0 f i language_table.obj
 0002:00074530       ??0?$ctype@D@std@@QAE@PBF_NI@Z 00676530 f i language_table.obj
 0002:00074690       ??0_Locinfo@std@@QAE@PBD@Z 00676690 f i language_table.obj
 0002:000747f0       ??1_Locinfo@std@@QAE@XZ    006767f0 f i language_table.obj
 0002:000748e0       ??0ctype_base@std@@QAE@I@Z 006768e0 f i language_table.obj
 0002:00074950       ??0facet@locale@std@@IAE@I@Z 00676950 f i language_table.obj
 0002:000749b0       ??_Efacet@locale@std@@UAEPAXI@Z 006769b0 f i language_table.obj
 0002:000749b0       ??_Gfacet@locale@std@@UAEPAXI@Z 006769b0 f i language_table.obj
 0002:00074a20       ??1facet@locale@std@@UAE@XZ 00676a20 f i language_table.obj
 0002:00074a60       ??1ctype_base@std@@UAE@XZ  00676a60 f i language_table.obj
 0002:00074ac0       ??_Gctype_base@std@@UAEPAXI@Z 00676ac0 f i language_table.obj
 0002:00074ac0       ??_Ectype_base@std@@UAEPAXI@Z 00676ac0 f i language_table.obj
 0002:00074b30       ?_Init@?$ctype@D@std@@IAEXABV_Locinfo@2@@Z 00676b30 f i language_table.obj
 0002:00074bb0       ?_Getctype@_Locinfo@std@@QBE?AU_Ctypevec@@XZ 00676bb0 f i language_table.obj
 0002:00074c70       ?_Tidy@?$ctype@D@std@@IAEXXZ 00676c70 f i language_table.obj
 0002:00074d10       ?do_tolower@?$ctype@D@std@@MBEDD@Z 00676d10 f i language_table.obj
 0002:00074d70       ?do_tolower@?$ctype@D@std@@MBEPBDPADPBD@Z 00676d70 f i language_table.obj
 0002:00074e20       ?do_toupper@?$ctype@D@std@@MBEDD@Z 00676e20 f i language_table.obj
 0002:00074e80       ?do_toupper@?$ctype@D@std@@MBEPBDPADPBD@Z 00676e80 f i language_table.obj
 0002:00074f30       ?do_widen@?$ctype@D@std@@MBEDD@Z 00676f30 f i language_table.obj
 0002:00074f70       ?do_widen@?$ctype@D@std@@MBEPBDPBD0PAD@Z 00676f70 f i language_table.obj
 0002:00074ff0       ?_Do_widen_s@?$ctype@D@std@@MBEPBDPBD0PADI@Z 00676ff0 f i language_table.obj
 0002:00075100       ?do_narrow@?$ctype@D@std@@MBEDDD@Z 00677100 f i language_table.obj
 0002:00075140       ?do_narrow@?$ctype@D@std@@MBEPBDPBD0DPAD@Z 00677140 f i language_table.obj
 0002:000751c0       ?_Do_narrow_s@?$ctype@D@std@@MBEPBDPBD0DPADI@Z 006771c0 f i language_table.obj
 0002:000752d0       ??_E?$ctype@D@std@@MAEPAXI@Z 006772d0 f i language_table.obj
 0002:000752d0       ??_G?$ctype@D@std@@MAEPAXI@Z 006772d0 f i language_table.obj
 0002:00075340       ??1?$ctype@D@std@@MAE@XZ   00677340 f i language_table.obj
 0002:000753f0       ??$_Debug_range@PBD@std@@YAXPBD0PB_WI@Z 006773f0 f i language_table.obj
 0002:00075470       ??$_Debug_pointer@D@std@@YAXPADPB_WI@Z 00677470 f i language_table.obj
 0002:000754d0       ??0?$BTree@PAVLangPhrase@@@@QAE@XZ 006774d0 f i language_table.obj
 0002:00075540       ??1?$BTree@PAVLangPhrase@@@@QAE@XZ 00677540 f i language_table.obj
 0002:00075590       ?PutData@?$BTree@PAVLangPhrase@@@@QAEXPBDABQAVLangPhrase@@@Z 00677590 f i language_table.obj
 0002:00075810       ?RemoveData@?$BTree@PAVLangPhrase@@@@QAEXPBD@Z 00677810 f i language_table.obj
 0002:00075ba0       ?GetData@?$BTree@PAVLangPhrase@@@@QAEPAVLangPhrase@@PBD@Z 00677ba0 f i language_table.obj
 0002:00075c10       ?LookupTree@?$BTree@PAVLangPhrase@@@@QAEPAV1@PBD@Z 00677c10 f i language_table.obj
 0002:00075d10       ?ConvertToDArray@?$BTree@PAVLangPhrase@@@@QAEPAV?$DArray@PAVLangPhrase@@@@XZ 00677d10 f i language_table.obj
 0002:00075e10       ??0?$HashTable@H@@QAE@XZ   00677e10 f i language_table.obj
 0002:00075f60       ??1?$HashTable@H@@QAE@XZ   00677f60 f i language_table.obj
 0002:00076000       ?PutData@?$HashTable@H@@QAEHPBDABH@Z 00678000 f i language_table.obj
 0002:00076120       ?GetData@?$HashTable@H@@QBEHI@Z 00678120 f i language_table.obj
 0002:00076170       ?GetData@?$HashTable@H@@QBEHPBDABH@Z 00678170 f i language_table.obj
 0002:000761f0       ?ValidIndex@?$HashTable@H@@QBE_NI@Z 006781f0 f i language_table.obj
 0002:00076240       ?Size@?$HashTable@H@@QBEIXZ 00678240 f i language_table.obj
 0002:00076280       ?GetName@?$HashTable@H@@QBEPBDI@Z 00678280 f i language_table.obj
 0002:000762d0       ??1?$DArray@PAVLangPhrase@@@@QAE@XZ 006782d0 f i language_table.obj
 0002:00076320       ?GetData@?$DArray@PAVLangPhrase@@@@QBEPAVLangPhrase@@H@Z 00678320 f i language_table.obj
 0002:00076440       ?Size@?$DArray@PAVLangPhrase@@@@QBEHXZ 00678440 f i language_table.obj
 0002:00076480       ?ValidIndex@?$DArray@PAVLangPhrase@@@@QBE_NH@Z 00678480 f i language_table.obj
 0002:000764f0       ?EmptyAndDelete@?$DArray@PAVLangPhrase@@@@QAEXXZ 006784f0 f i language_table.obj
 0002:000765e0       ??$?6U?$char_traits@D@std@@@std@@YAAAV?$basic_ostream@DU?$char_traits@D@std@@@0@AAV10@PBD@Z 006785e0 f i language_table.obj
 0002:00076a80       ?width@ios_base@std@@QBEHXZ 00678a80 f i language_table.obj
 0002:00076ac0       ?width@ios_base@std@@QAEHH@Z 00678ac0 f i language_table.obj
 0002:00076b20       ??$?6U?$char_traits@D@std@@@std@@YAAAV?$basic_ostream@DU?$char_traits@D@std@@@0@AAV10@D@Z 00678b20 f i language_table.obj
 0002:00076fd0       ??$_Debug_pointer@$$A6AAAV?$basic_ostream@DU?$char_traits@D@std@@@std@@AAV12@@Z@std@@YAXP6AAAV?$basic_ostream@DU?$char_traits@D@std@@@0@AAV10@@ZPB_WI@Z 00678fd0 f i language_table.obj
 0002:00077030       ??$_DebugHeapDelete@Vlocale@std@@@std@@YAXPAVlocale@0@@Z 00679030 f i language_table.obj
 0002:000770a0       ??$use_facet@V?$codecvt@DDH@std@@@std@@YAABV?$codecvt@DDH@0@ABVlocale@0@@Z 006790a0 f i language_table.obj
 0002:00077260       ??_GLangPhrase@@QAEPAXI@Z  00679260 f i language_table.obj
 0002:000772d0       ??_Glocale@std@@QAEPAXI@Z  006792d0 f i language_table.obj
 0002:00077340       ?fill@?$basic_ios@DU?$char_traits@D@std@@@std@@QBEDXZ 00679340 f i language_table.obj
 0002:00077380       ?sputn@?$basic_streambuf@DU?$char_traits@D@std@@@std@@QAEHPBDH@Z 00679380 f i language_table.obj
 0002:000773f0       ?_Getcat@?$codecvt@DDH@std@@SAIPAPBVfacet@locale@2@@Z 006793f0 f i language_table.obj
 0002:00077520       ??0?$codecvt@DDH@std@@QAE@I@Z 00679520 f i language_table.obj
 0002:00077660       ??0codecvt_base@std@@QAE@I@Z 00679660 f i language_table.obj
 0002:000776d0       ??1codecvt_base@std@@UAE@XZ 006796d0 f i language_table.obj
 0002:00077730       ?do_always_noconv@codecvt_base@std@@MBE_NXZ 00679730 f i language_table.obj
 0002:00077770       ?do_max_length@codecvt_base@std@@MBEHXZ 00679770 f i language_table.obj
 0002:000777b0       ?do_encoding@codecvt_base@std@@MBEHXZ 006797b0 f i language_table.obj
 0002:000777f0       ??_Ecodecvt_base@std@@UAEPAXI@Z 006797f0 f i language_table.obj
 0002:000777f0       ??_Gcodecvt_base@std@@UAEPAXI@Z 006797f0 f i language_table.obj
 0002:00077860       ?do_in@?$codecvt@DDH@std@@MBEHAAHPBD1AAPBDPAD3AAPAD@Z 00679860 f i language_table.obj
 0002:000778c0       ?do_out@?$codecvt@DDH@std@@MBEHAAHPBD1AAPBDPAD3AAPAD@Z 006798c0 f i language_table.obj
 0002:00077920       ?do_unshift@?$codecvt@DDH@std@@MBEHAAHPAD1AAPAD@Z 00679920 f i language_table.obj
 0002:00077970       ?do_length@?$codecvt@DDH@std@@MBEHABHPBD1I@Z 00679970 f i language_table.obj
 0002:000779e0       ??_G?$codecvt@DDH@std@@MAEPAXI@Z 006799e0 f i language_table.obj
 0002:000779e0       ??_E?$codecvt@DDH@std@@MAEPAXI@Z 006799e0 f i language_table.obj
 0002:00077a50       ??1?$codecvt@DDH@std@@MAE@XZ 00679a50 f i language_table.obj
 0002:00077ab0       ?_Init@?$codecvt@DDH@std@@IAEXABV_Locinfo@2@@Z 00679ab0 f i language_table.obj
 0002:00077af0       ??$_Iter_cat@PBD@std@@YA?AUrandom_access_iterator_tag@0@ABQBD@Z 00679af0 f i language_table.obj
 0002:00077b60       ??$_Debug_range2@PBD@std@@YAXPBD0PB_WIUrandom_access_iterator_tag@0@@Z 00679b60 f i language_table.obj
 0002:00077c00       ?RecursiveConvertToDArray@?$BTree@PAVLangPhrase@@@@IAEXPAV?$DArray@PAVLangPhrase@@@@PAV1@@Z 00679c00 f i language_table.obj
 0002:00077cf0       ?AppendRight@?$BTree@PAVLangPhrase@@@@IAEXPAV1@@Z 00679cf0 f i language_table.obj
 0002:00077d70       ??0?$BTree@PAVLangPhrase@@@@QAE@PBDABQAVLangPhrase@@@Z 00679d70 f i language_table.obj
 0002:00077e30       ?Empty@?$BTree@PAVLangPhrase@@@@QAEXXZ 00679e30 f i language_table.obj
 0002:00077f60       ?Left@?$BTree@PAVLangPhrase@@@@QBEPAV1@XZ 00679f60 f i language_table.obj
 0002:00077fa0       ?Right@?$BTree@PAVLangPhrase@@@@QBEPAV1@XZ 00679fa0 f i language_table.obj
 0002:00077fe0       ??0?$DArray@PAVLangPhrase@@@@QAE@XZ 00679fe0 f i language_table.obj
 0002:00078050       ?Empty@?$DArray@PAVLangPhrase@@@@QAEXXZ 0067a050 f i language_table.obj
 0002:00078100       ?Grow@?$HashTable@H@@IAEXXZ 0067a100 f i language_table.obj
 0002:00078350       ?GetInsertPos@?$HashTable@H@@IBEIPBD@Z 0067a350 f i language_table.obj
 0002:00078480       ?GetIndex@?$HashTable@H@@QBEHPBD@Z 0067a480 f i language_table.obj
 0002:00078550       ?Empty@?$HashTable@H@@QAEXXZ 0067a550 f i language_table.obj
 0002:00078620       ??_G?$BTree@PAVLangPhrase@@@@QAEPAXI@Z 0067a620 f i language_table.obj
 0002:00078690       ?PutData@?$DArray@PAVLangPhrase@@@@QAEHABQAVLangPhrase@@@Z 0067a690 f i language_table.obj
 0002:00078780       ?HashFunc@?$HashTable@H@@IBEIPBD@Z 0067a780 f i language_table.obj
 0002:00078860       ?Grow@?$DArray@PAVLangPhrase@@@@IAEXXZ 0067a860 f i language_table.obj
 0002:00078900       ?SetSize@?$DArray@PAVLangPhrase@@@@QAEXH@Z 0067a900 f i language_table.obj
 0002:00078c00       ??0id@locale@std@@QAE@I@Z  0067ac00 f i language_table.obj
 0002:00078c50       ??0CMiniVersion@@QAE@PBD@Z 0067ac50 f   MiniVersion.obj
 0002:00078df0       ?Init@CMiniVersion@@QAEHXZ 0067adf0 f   MiniVersion.obj
 0002:00079060       ?Release@CMiniVersion@@QAEXXZ 0067b060 f   MiniVersion.obj
 0002:000790e0       ?GetFileVersion@CMiniVersion@@QAEHPAG@Z 0067b0e0 f   MiniVersion.obj
 0002:00079170       ?GetProductVersion@CMiniVersion@@QAEHPAG@Z 0067b170 f   MiniVersion.obj
 0002:00079200       ?GetFileFlags@CMiniVersion@@QAEHAAK@Z 0067b200 f   MiniVersion.obj
 0002:00079250       ?GetFileOS@CMiniVersion@@QAEHAAK@Z 0067b250 f   MiniVersion.obj
 0002:000792a0       ?GetFileType@CMiniVersion@@QAEHAAK@Z 0067b2a0 f   MiniVersion.obj
 0002:000792f0       ?GetFileSubtype@CMiniVersion@@QAEHAAK@Z 0067b2f0 f   MiniVersion.obj
 0002:00079340       ?GetCompanyName@CMiniVersion@@QAEHPADH@Z 0067b340 f   MiniVersion.obj
 0002:000793e0       ?GetFileDescription@CMiniVersion@@QAEHPADH@Z 0067b3e0 f   MiniVersion.obj
 0002:00079480       ?GetProductName@CMiniVersion@@QAEHPADH@Z 0067b480 f   MiniVersion.obj
 0002:00079520       ?GetFixedInfo@CMiniVersion@@IAEHAAUtagVS_FIXEDFILEINFO@@@Z 0067b520 f   MiniVersion.obj
 0002:00079630       ?GetStringInfo@CMiniVersion@@IAEHPBDPAD@Z 0067b630 f   MiniVersion.obj
 0002:00079830       ??0PosterMaker@@QAE@HH@Z   0067b830 f   poster_maker.obj
 0002:000799d0       ??1PosterMaker@@QAE@XZ     0067b9d0 f   poster_maker.obj
 0002:00079aa0       ??_GBitmapRGBA@@QAEPAXI@Z  0067baa0 f i poster_maker.obj
 0002:00079b10       ?AddFrame@PosterMaker@@QAEXXZ 0067bb10 f   poster_maker.obj
 0002:00079d70       ?SavePoster@PosterMaker@@QAEXXZ 0067bd70 f   poster_maker.obj
 0002:00079eb0       ?GetBitmap@PosterMaker@@QAEPAVBitmapRGBA@@XZ 0067beb0 f   poster_maker.obj
 0002:00079ef0       ??0PrefsItem@@QAE@XZ       0067bef0 f   preferences.obj
 0002:00079f50       ??0PrefsItem@@QAE@PAD@Z    0067bf50 f   preferences.obj
 0002:0007a1a0       ??0PrefsItem@@QAE@PBD0@Z   0067c1a0 f   preferences.obj
 0002:0007a230       ??0PrefsItem@@QAE@PBDM@Z   0067c230 f   preferences.obj
 0002:0007a2b0       ??0PrefsItem@@QAE@PBDH@Z   0067c2b0 f   preferences.obj
 0002:0007a330       ??1PrefsItem@@QAE@XZ       0067c330 f   preferences.obj
 0002:0007a3b0       ??0PrefsManager@@QAE@PBD@Z 0067c3b0 f   preferences.obj
 0002:0007a4b0       ??0PrefsManager@@QAE@ABV?$basic_string@DU?$char_traits@D@std@@V?$allocator@D@2@@std@@@Z 0067c4b0 f   preferences.obj
 0002:0007a5c0       ??1PrefsManager@@QAE@XZ    0067c5c0 f   preferences.obj
 0002:0007a6a0       ?IsLineEmpty@PrefsManager@@AAE_NPBD@Z 0067c6a0 f   preferences.obj
 0002:0007a740       ?GetDefaultHelpEnabled@@YAHXZ 0067c740 f   preferences.obj
 0002:0007a780       ?GetDefaultSoundLibrary@@YAPBDXZ 0067c780 f   preferences.obj
 0002:0007a7c0       ?GetDefaultSoundDSP@@YAHXZ 0067c7c0 f   preferences.obj
 0002:0007a800       ?GetDefaultSoundChannels@@YAHXZ 0067c800 f   preferences.obj
 0002:0007a840       ?GetDefaultPixelShader@@YAHXZ 0067c840 f   preferences.obj
 0002:0007a880       ?GetDefaultGraphicsDetail@@YAHXZ 0067c880 f   preferences.obj
 0002:0007a8c0       ?CreateDefaultValues@PrefsManager@@AAEXXZ 0067c8c0 f   preferences.obj
 0002:0007adf0       ?Load@PrefsManager@@QAEXPBD@Z 0067cdf0 f   preferences.obj
 0002:0007af20       ?SaveItem@PrefsManager@@AAEXPAU_iobuf@@PAVPrefsItem@@@Z 0067cf20 f   preferences.obj
 0002:0007b020       ?Save@PrefsManager@@QAEXXZ 0067d020 f   preferences.obj
 0002:0007b3b0       ?Clear@PrefsManager@@QAEXXZ 0067d3b0 f   preferences.obj
 0002:0007b410       ?GetFloat@PrefsManager@@QBEMPBDM@Z 0067d410 f   preferences.obj
 0002:0007b4b0       ?GetInt@PrefsManager@@QBEHPBDH@Z 0067d4b0 f   preferences.obj
 0002:0007b550       ?GetString@PrefsManager@@QBEPADPBDPAD@Z 0067d550 f   preferences.obj
 0002:0007b5f0       ?SetString@PrefsManager@@QAEXPBD0@Z 0067d5f0 f   preferences.obj
 0002:0007b7f0       ?SetFloat@PrefsManager@@QAEXPBDM@Z 0067d7f0 f   preferences.obj
 0002:0007b9d0       ?SetInt@PrefsManager@@QAEXPBDH@Z 0067d9d0 f   preferences.obj
 0002:0007bbb0       ?AddLine@PrefsManager@@QAEXPBD_N@Z 0067dbb0 f   preferences.obj
 0002:0007be50       ??_GPrefsItem@@QAEPAXI@Z   0067de50 f i preferences.obj
 0002:0007bec0       ?DoesKeyExist@PrefsManager@@QAE_NPBD@Z 0067dec0 f   preferences.obj
 0002:0007bf30       ??0?$HashTable@PAVPrefsItem@@@@QAE@XZ 0067df30 f i preferences.obj
 0002:0007c080       ??1?$HashTable@PAVPrefsItem@@@@QAE@XZ 0067e080 f i preferences.obj
 0002:0007c120       ?GetIndex@?$HashTable@PAVPrefsItem@@@@QBEHPBD@Z 0067e120 f i preferences.obj
 0002:0007c1f0       ?PutData@?$HashTable@PAVPrefsItem@@@@QAEHPBDABQAVPrefsItem@@@Z 0067e1f0 f i preferences.obj
 0002:0007c310       ?GetData@?$HashTable@PAVPrefsItem@@@@QBEPAVPrefsItem@@I@Z 0067e310 f i preferences.obj
 0002:0007c360       ?RemoveData@?$HashTable@PAVPrefsItem@@@@QAEXPBD@Z 0067e360 f i preferences.obj
 0002:0007c3d0       ?EmptyAndDelete@?$HashTable@PAVPrefsItem@@@@QAEXXZ 0067e3d0 f i preferences.obj
 0002:0007c4c0       ?ValidIndex@?$HashTable@PAVPrefsItem@@@@QBE_NI@Z 0067e4c0 f i preferences.obj
 0002:0007c510       ?Size@?$HashTable@PAVPrefsItem@@@@QBEIXZ 0067e510 f i preferences.obj
 0002:0007c550       ??A?$HashTable@PAVPrefsItem@@@@QBEPAVPrefsItem@@I@Z 0067e550 f i preferences.obj
 0002:0007c5a0       ?Size@?$DArray@PAD@@QBEHXZ 0067e5a0 f i preferences.obj
 0002:0007c5e0       ??A?$DArray@PAD@@QAEAAPADH@Z 0067e5e0 f i preferences.obj
 0002:0007c700       ??0?$FastDArray@PAD@@QAE@XZ 0067e700 f i preferences.obj
 0002:0007c780       ??1?$FastDArray@PAD@@QAE@XZ 0067e780 f i preferences.obj
 0002:0007c820       ?PutData@?$FastDArray@PAD@@QAEHABQAD@Z 0067e820 f i preferences.obj
 0002:0007c980       ?EmptyAndDelete@?$FastDArray@PAD@@QAEXXZ 0067e980 f i preferences.obj
 0002:0007ca20       ?HashFunc@?$HashTable@PAVPrefsItem@@@@IBEIPBD@Z 0067ea20 f i preferences.obj
 0002:0007cb00       ?Grow@?$HashTable@PAVPrefsItem@@@@IAEXXZ 0067eb00 f i preferences.obj
 0002:0007cd50       ?GetInsertPos@?$HashTable@PAVPrefsItem@@@@IBEIPBD@Z 0067ed50 f i preferences.obj
 0002:0007ce80       ?RemoveData@?$HashTable@PAVPrefsItem@@@@QAEXI@Z 0067ee80 f i preferences.obj
 0002:0007cf20       ?Empty@?$HashTable@PAVPrefsItem@@@@QAEXXZ 0067ef20 f i preferences.obj
 0002:0007cff0       ??0?$DArray@PAD@@QAE@XZ    0067eff0 f i preferences.obj
 0002:0007d060       ??1?$DArray@PAD@@QAE@XZ    0067f060 f i preferences.obj
 0002:0007d0b0       ?EmptyAndDelete@?$DArray@PAD@@QAEXXZ 0067f0b0 f i preferences.obj
 0002:0007d170       ?Grow@?$FastDArray@PAD@@IAEXXZ 0067f170 f i preferences.obj
 0002:0007d210       ?Empty@?$FastDArray@PAD@@QAEXXZ 0067f210 f i preferences.obj
 0002:0007d2b0       ?ValidIndex@?$DArray@PAD@@QBE_NH@Z 0067f2b0 f i preferences.obj
 0002:0007d320       ?Empty@?$DArray@PAD@@QAEXXZ 0067f320 f i preferences.obj
 0002:0007d3d0       ?SetSize@?$FastDArray@PAD@@QAEXH@Z 0067f3d0 f i preferences.obj
 0002:0007d860       ?RebuildFreeList@?$FastDArray@PAD@@IAEXXZ 0067f860 f i preferences.obj
 0002:0007d9d0       ?RebuildNumUsed@?$FastDArray@PAD@@IAEXXZ 0067f9d0 f i preferences.obj
 0002:0007da70       ??0ProfiledElement@@QAE@PBDPAV0@@Z 0067fa70 f   profiler.obj
 0002:0007db70       ??1ProfiledElement@@QAE@XZ 0067fb70 f   profiler.obj
 0002:0007dc30       ?Start@ProfiledElement@@QAEXXZ 0067fc30 f   profiler.obj
 0002:0007dc90       ?End@ProfiledElement@@QAEXXZ 0067fc90 f   profiler.obj
 0002:0007dd50       ?Advance@ProfiledElement@@QAEXXZ 0067fd50 f   profiler.obj
 0002:0007de80       ?ResetHistory@ProfiledElement@@QAEXXZ 0067fe80 f   profiler.obj
 0002:0007df70       ?GetMaxChildTime@ProfiledElement@@QAENXZ 0067ff70 f   profiler.obj
 0002:0007e070       ??0Profiler@@QAE@XZ        00680070 f   profiler.obj
 0002:0007e1c0       ??1Profiler@@QAE@XZ        006801c0 f   profiler.obj
 0002:0007e260       ??_GProfiledElement@@QAEPAXI@Z 00680260 f i profiler.obj
 0002:0007e2d0       ?Advance@Profiler@@QAEXXZ  006802d0 f   profiler.obj
 0002:0007e370       ?RenderStarted@Profiler@@QAEXXZ 00680370 f   profiler.obj
 0002:0007e3b0       ?RenderEnded@Profiler@@QAEXXZ 006803b0 f   profiler.obj
 0002:0007e3f0       ?ResetHistory@Profiler@@QAEXXZ 006803f0 f   profiler.obj
 0002:0007e450       ?StartProfile@Profiler@@QAEXPBD@Z 00680450 f   profiler.obj
 0002:0007e660       ?EndProfile@Profiler@@QAEXPBD@Z 00680660 f   profiler.obj
 0002:0007e910       ?EmptyAndDelete@?$HashTable@PAVProfiledElement@@@@QAEXXZ 00680910 f i profiler.obj
 0002:0007ea00       ?ValidIndex@?$HashTable@PAVProfiledElement@@@@QBE_NI@Z 00680a00 f i profiler.obj
 0002:0007ea50       ??0?$SortingHashTable@PAVProfiledElement@@@@QAE@XZ 00680a50 f i profiler.obj
 0002:0007eb60       ??1?$SortingHashTable@PAVProfiledElement@@@@QAE@XZ 00680b60 f i profiler.obj
 0002:0007ec20       ?PutData@?$SortingHashTable@PAVProfiledElement@@@@QAEHPBDABQAVProfiledElement@@@Z 00680c20 f i profiler.obj
 0002:0007edc0       ?GetInsertPos@?$HashTable@PAVProfiledElement@@@@IBEIPBD@Z 00680dc0 f i profiler.obj
 0002:0007eef0       ??0?$HashTable@PAVProfiledElement@@@@QAE@XZ 00680ef0 f i profiler.obj
 0002:0007f040       ??1?$HashTable@PAVProfiledElement@@@@QAE@XZ 00681040 f i profiler.obj
 0002:0007f0e0       ?Empty@?$HashTable@PAVProfiledElement@@@@QAEXXZ 006810e0 f i profiler.obj
 0002:0007f1b0       ?Grow@?$SortingHashTable@PAVProfiledElement@@@@IAEXXZ 006811b0 f i profiler.obj
 0002:0007f4e0       ?FindPrevKey@?$SortingHashTable@PAVProfiledElement@@@@IBEFPBD@Z 006814e0 f i profiler.obj
 0002:0007f5b0       ?darwiniaSeedRandom@@YAXI@Z 006815b0 f   random.obj
 0002:0007f5f0       ?darwiniaRandom@@YAHXZ     006815f0 f   random.obj
 0002:0007f650       ??0Resource@@QAE@XZ        00681650 f   resource.obj
 0002:0007f760       ??1Resource@@QAE@XZ        00681760 f   resource.obj
 0002:0007f890       ?ParseArchive@Resource@@QAEXPBD0@Z 00681890 f   resource.obj
 0002:0007fb90       ??_GMemMappedFile@@QAEPAXI@Z 00681b90 f i resource.obj
 0002:0007fc00       ??_GUncompressedArchive@@QAEPAXI@Z 00681c00 f i resource.obj
 0002:0007fc70       ?AddBitmap@Resource@@QAEXPBDABVBitmapRGBA@@_N@Z 00681c70 f   resource.obj
 0002:0007fdd0       ?DeleteBitmap@Resource@@QAEXPBD@Z 00681dd0 f   resource.obj
 0002:0007feb0       ?GetBitmap@Resource@@QAEPBVBitmapRGBA@@PBD@Z 00681eb0 f   resource.obj
 0002:0007ff20       ?GetUncompressedFile@Resource@@QAEPAVMemMappedFile@@PBD@Z 00681f20 f   resource.obj
 0002:0007ff80       ?GetTextReader@Resource@@QAEPAVTextReader@@ABV?$basic_string@DU?$char_traits@D@std@@V?$allocator@D@2@@std@@@Z 00681f80 f   resource.obj
 0002:0007ffe0       ?GetTextReader@Resource@@QAEPAVTextReader@@PBD@Z 00681fe0 f   resource.obj
 0002:00080340       ?GetBinaryReader@Resource@@QAEPAVBinaryReader@@PBD@Z 00682340 f   resource.obj
 0002:000806a0       ?GetTexture@Resource@@QAEHPBD_N1@Z 006826a0 f   resource.obj
 0002:00080a10       ?DoesTextureExist@Resource@@QAE_NPBD@Z 00682a10 f   resource.obj
 0002:00080b80       ?DeleteTexture@Resource@@QAEXPBD@Z 00682b80 f   resource.obj
 0002:00080c70       ?GetShape@Resource@@QAEPAVShape@@PBD@Z 00682c70 f   resource.obj
 0002:00080d60       ?GetShapeCopy@Resource@@QAEPAVShape@@PBD_N@Z 00682d60 f   resource.obj
 0002:00081170       ??1TextDataReader@@UAE@XZ  00683170 f i resource.obj
 0002:000811c0       ?GetGestureDemo@Resource@@QAEPAVGestureDemo@@PBD@Z 006831c0 f   resource.obj
 0002:00081470       ?GetSoundStreamDecoder@Resource@@QAEPAVSoundStreamDecoder@@PBD@Z 00683470 f   resource.obj
 0002:00081640       ?WildCmp@Resource@@IAEHPBD0@Z 00683640 f   resource.obj
 0002:00081850       ?CreateDisplayList@Resource@@QAEHPBD@Z 00683850 f   resource.obj
 0002:00081960       ?GetDisplayList@Resource@@QAEHPBD@Z 00683960 f   resource.obj
 0002:00081a50       ?DeleteDisplayList@Resource@@QAEXPBD@Z 00683a50 f   resource.obj
 0002:00081b70       ?FlushOpenGlState@Resource@@QAEXXZ 00683b70 f   resource.obj
 0002:00081d10       ?RegenerateOpenGlState@Resource@@QAEXXZ 00683d10 f   resource.obj
 0002:00081e10       ?GenerateName@Resource@@QAEPADXZ 00683e10 f   resource.obj
 0002:00081ef0       _log10f                    00683ef0 f i resource.obj
 0002:00081f60       ?LoadMod@Resource@@QAEXPBD@Z 00683f60 f   resource.obj
 0002:000820c0       ?GetBaseDirectory@Resource@@QAEPADXZ 006840c0 f   resource.obj
 0002:00082160       ?GetModName@Resource@@QAEPBDXZ 00684160 f   resource.obj
 0002:000821a0       ?IsModLoaded@Resource@@QAE_NXZ 006841a0 f   resource.obj
 0002:000821f0       ?GetFileWriter@Resource@@QAEPAVFileWriter@@PBD_N@Z 006841f0 f   resource.obj
 0002:000824c0       ?OrderedInsert@@YAXPAV?$LList@PAD@@PAD@Z 006844c0 f   resource.obj
 0002:000825f0       ?ListResources@Resource@@QAEPAV?$LList@PAD@@PBD0_N@Z 006845f0 f   resource.obj
 0002:000829f0       ??_G?$DArray@PAD@@QAEPAXI@Z 006849f0 f i resource.obj
 0002:00082a60       ??0?$BTree@PAVMemMappedFile@@@@QAE@XZ 00684a60 f i resource.obj
 0002:00082ad0       ??1?$BTree@PAVMemMappedFile@@@@QAE@XZ 00684ad0 f i resource.obj
 0002:00082b20       ?PutData@?$BTree@PAVMemMappedFile@@@@QAEXPBDABQAVMemMappedFile@@@Z 00684b20 f i resource.obj
 0002:00082da0       ?RemoveData@?$BTree@PAVMemMappedFile@@@@QAEXPBD@Z 00684da0 f i resource.obj
 0002:00083130       ?GetData@?$BTree@PAVMemMappedFile@@@@QAEPAVMemMappedFile@@PBD@Z 00685130 f i resource.obj
 0002:000831a0       ?Size@?$BTree@PAVMemMappedFile@@@@QBEHXZ 006851a0 f i resource.obj
 0002:00083240       ?ConvertIndexToDArray@?$BTree@PAVMemMappedFile@@@@QAEPAV?$DArray@PAD@@XZ 00685240 f i resource.obj
 0002:00083340       ??0?$HashTable@PAVBitmapRGBA@@@@QAE@XZ 00685340 f i resource.obj
 0002:00083490       ??1?$HashTable@PAVBitmapRGBA@@@@QAE@XZ 00685490 f i resource.obj
 0002:00083530       ?GetIndex@?$HashTable@PAVBitmapRGBA@@@@QBEHPBD@Z 00685530 f i resource.obj
 0002:00083600       ?PutData@?$HashTable@PAVBitmapRGBA@@@@QAEHPBDABQAVBitmapRGBA@@@Z 00685600 f i resource.obj
 0002:00083720       ?GetData@?$HashTable@PAVBitmapRGBA@@@@QBEPAVBitmapRGBA@@I@Z 00685720 f i resource.obj
 0002:00083770       ?GetData@?$HashTable@PAVBitmapRGBA@@@@QBEPAVBitmapRGBA@@PBDABQAV2@@Z 00685770 f i resource.obj
 0002:000837f0       ?RemoveData@?$HashTable@PAVBitmapRGBA@@@@QAEXI@Z 006857f0 f i resource.obj
 0002:00083890       ?EmptyAndDelete@?$HashTable@PAVBitmapRGBA@@@@QAEXXZ 00685890 f i resource.obj
 0002:00083980       ?RemoveData@?$HashTable@H@@QAEXPBD@Z 00685980 f i resource.obj
 0002:000839f0       ??A?$HashTable@H@@QBEHI@Z  006859f0 f i resource.obj
 0002:00083a40       ??0?$HashTable@PAVShape@@@@QAE@XZ 00685a40 f i resource.obj
 0002:00083b90       ??1?$HashTable@PAVShape@@@@QAE@XZ 00685b90 f i resource.obj
 0002:00083c30       ?PutData@?$HashTable@PAVShape@@@@QAEHPBDABQAVShape@@@Z 00685c30 f i resource.obj
 0002:00083d50       ?GetData@?$HashTable@PAVShape@@@@QBEPAVShape@@PBDABQAV2@@Z 00685d50 f i resource.obj
 0002:00083dd0       ?EmptyAndDelete@?$HashTable@PAVShape@@@@QAEXXZ 00685dd0 f i resource.obj
 0002:00083ec0       ?ValidIndex@?$HashTable@PAVShape@@@@QBE_NI@Z 00685ec0 f i resource.obj
 0002:00083f10       ?Size@?$HashTable@PAVShape@@@@QBEIXZ 00685f10 f i resource.obj
 0002:00083f50       ??A?$HashTable@PAVShape@@@@QBEPAVShape@@I@Z 00685f50 f i resource.obj
 0002:00083fa0       ??0?$HashTable@PAVGestureDemo@@@@QAE@XZ 00685fa0 f i resource.obj
 0002:000840f0       ??1?$HashTable@PAVGestureDemo@@@@QAE@XZ 006860f0 f i resource.obj
 0002:00084190       ?PutData@?$HashTable@PAVGestureDemo@@@@QAEHPBDABQAVGestureDemo@@@Z 00686190 f i resource.obj
 0002:000842b0       ?GetData@?$HashTable@PAVGestureDemo@@@@QBEPAVGestureDemo@@PBDABQAV2@@Z 006862b0 f i resource.obj
 0002:00084330       ?EmptyAndDelete@?$HashTable@PAVGestureDemo@@@@QAEXXZ 00686330 f i resource.obj
 0002:00084420       ?GetData@?$DArray@PAD@@QBEPADH@Z 00686420 f i resource.obj
 0002:00084540       ?PutDataAtIndex@?$LList@PAD@@QAEXABQADH@Z 00686540 f i resource.obj
 0002:00084740       ??_GShape@@QAEPAXI@Z       00686740 f i resource.obj
 0002:000847b0       ??_GGestureDemo@@QAEPAXI@Z 006867b0 f i resource.obj
 0002:00084820       ??1GestureDemo@@QAE@XZ     00686820 f i resource.obj
 0002:00084870       ?RecursiveConvertIndexToDArray@?$BTree@PAVMemMappedFile@@@@IAEXPAV?$DArray@PAD@@PAV1@@Z 00686870 f i resource.obj
 0002:00084960       ?AppendRight@?$BTree@PAVMemMappedFile@@@@IAEXPAV1@@Z 00686960 f i resource.obj
 0002:000849e0       ??0?$BTree@PAVMemMappedFile@@@@QAE@PBDABQAVMemMappedFile@@@Z 006869e0 f i resource.obj
 0002:00084aa0       ?LookupTree@?$BTree@PAVMemMappedFile@@@@QAEPAV1@PBD@Z 00686aa0 f i resource.obj
 0002:00084ba0       ?Empty@?$BTree@PAVMemMappedFile@@@@QAEXXZ 00686ba0 f i resource.obj
 0002:00084cd0       ?Left@?$BTree@PAVMemMappedFile@@@@QBEPAV1@XZ 00686cd0 f i resource.obj
 0002:00084d10       ?Right@?$BTree@PAVMemMappedFile@@@@QBEPAV1@XZ 00686d10 f i resource.obj
 0002:00084d50       ?HashFunc@?$HashTable@PAVBitmapRGBA@@@@IBEIPBD@Z 00686d50 f i resource.obj
 0002:00084e30       ?Grow@?$HashTable@PAVBitmapRGBA@@@@IAEXXZ 00686e30 f i resource.obj
 0002:00085080       ?GetInsertPos@?$HashTable@PAVBitmapRGBA@@@@IBEIPBD@Z 00687080 f i resource.obj
 0002:000851b0       ?Empty@?$HashTable@PAVBitmapRGBA@@@@QAEXXZ 006871b0 f i resource.obj
 0002:00085280       ?RemoveData@?$HashTable@H@@QAEXI@Z 00687280 f i resource.obj
 0002:00085320       ?Grow@?$HashTable@PAVShape@@@@IAEXXZ 00687320 f i resource.obj
 0002:00085570       ?GetInsertPos@?$HashTable@PAVShape@@@@IBEIPBD@Z 00687570 f i resource.obj
 0002:000856a0       ?GetIndex@?$HashTable@PAVShape@@@@QBEHPBD@Z 006876a0 f i resource.obj
 0002:00085770       ?Empty@?$HashTable@PAVShape@@@@QAEXXZ 00687770 f i resource.obj
 0002:00085840       ?Grow@?$HashTable@PAVGestureDemo@@@@IAEXXZ 00687840 f i resource.obj
 0002:00085a90       ?GetInsertPos@?$HashTable@PAVGestureDemo@@@@IBEIPBD@Z 00687a90 f i resource.obj
 0002:00085bc0       ?GetIndex@?$HashTable@PAVGestureDemo@@@@QBEHPBD@Z 00687bc0 f i resource.obj
 0002:00085c90       ?Empty@?$HashTable@PAVGestureDemo@@@@QAEXXZ 00687c90 f i resource.obj
 0002:00085d60       ?PutDataAtStart@?$LList@PAD@@QAEXABQAD@Z 00687d60 f i resource.obj
 0002:00085ef0       ??1?$FastDArray@VGestureMouseCoords@@@@QAE@XZ 00687ef0 f i resource.obj
 0002:00085f90       ??_G?$BTree@PAVMemMappedFile@@@@QAEPAXI@Z 00687f90 f i resource.obj
 0002:00086000       ?PutData@?$DArray@PAD@@QAEHABQAD@Z 00688000 f i resource.obj
 0002:000860f0       ?HashFunc@?$HashTable@PAVShape@@@@IBEIPBD@Z 006880f0 f i resource.obj
 0002:000861d0       ?HashFunc@?$HashTable@PAVGestureDemo@@@@IBEIPBD@Z 006881d0 f i resource.obj
 0002:000862b0       ?Empty@?$FastDArray@VGestureMouseCoords@@@@QAEXXZ 006882b0 f i resource.obj
 0002:00086350       ??1?$DArray@VGestureMouseCoords@@@@QAE@XZ 00688350 f i resource.obj
 0002:000863a0       ?Grow@?$DArray@PAD@@IAEXXZ 006883a0 f i resource.obj
 0002:00086440       ?Empty@?$DArray@VGestureMouseCoords@@@@QAEXXZ 00688440 f i resource.obj
 0002:000864f0       ?SetSize@?$DArray@PAD@@QAEXH@Z 006884f0 f i resource.obj
 0002:000867f0       ?StrToLower@@YAXPAD@Z      006887f0 f   string_utils.obj
 0002:00086870       ??0SystemInfo@@QAE@XZ      00688870 f   system_info.obj
 0002:00086940       ??0LocaleInfo@@QAE@XZ      00688940 f i system_info.obj
 0002:00086990       ??1LocaleInfo@@QAE@XZ      00688990 f i system_info.obj
 0002:00086a20       ??0AudioInfo@@QAE@XZ       00688a20 f i system_info.obj
 0002:00086a70       ??1AudioInfo@@QAE@XZ       00688a70 f i system_info.obj
 0002:00086b20       ??1SystemInfo@@QAE@XZ      00688b20 f   system_info.obj
 0002:00086bd0       ?GetLocaleDetails@SystemInfo@@AAEXXZ 00688bd0 f   system_info.obj
 0002:00086d50       ?GetAudioDetails@SystemInfo@@AAEXXZ 00688d50 f   system_info.obj
 0002:00087090       ?GetDirectXVersion@SystemInfo@@AAEXXZ 00689090 f   system_info.obj
 0002:00087270       ?GetUserInfoData@@YA_NPBDPAPBD1@Z 00689270 f   user_info.obj
 0002:000874d0       ?inv@@YANVMatrix@@AAV1@@Z  006894d0 f   invert_matrix.obj
 0002:00087dc0       ??0Matrix@@QAE@HH@Z        00689dc0 f i invert_matrix.obj
 0002:00087f20       ??1Matrix@@QAE@XZ          00689f20 f i invert_matrix.obj
 0002:00087f90       ??4Matrix@@QAEAAV0@ABV0@@Z 00689f90 f i invert_matrix.obj
 0002:00088020       ?nRow@Matrix@@QBEHXZ       0068a020 f i invert_matrix.obj
 0002:00088060       ?nCol@Matrix@@QBEHXZ       0068a060 f i invert_matrix.obj
 0002:000880a0       ??RMatrix@@QAEAANHH@Z      0068a0a0 f i invert_matrix.obj
 0002:000881d0       ?set@Matrix@@QAEXN@Z       0068a1d0 f i invert_matrix.obj
 0002:00088260       ?copy@Matrix@@AAEXABV1@@Z  0068a260 f i invert_matrix.obj
 0002:00088360       ?InvertMatrix@@YAXPAN0HH@Z 0068a360 f   invert_matrix.obj
 0002:000885c0       ??0Matrix@@QAE@ABV0@@Z     0068a5c0 f i invert_matrix.obj
 0002:00088620       ?Log2@@YAMM@Z              0068a620 f   math_utils.obj
 0002:000886d0       _logf                      0068a6d0 f i math_utils.obj
 0002:00088740       ?RampUpAndDown@@YANNNN@Z   0068a740 f   math_utils.obj
 0002:00088810       ?syncrand@@YAKXZ           0068a810 f   math_utils.obj
 0002:00088b20       ?GetPlaneMatrix@@YAXABVVector3@@00PAVMatrix34@@@Z 0068ab20 f   math_utils.obj
 0002:00088c30       ?ProjectPointOntoPlane@@YAMABVVector3@@ABVMatrix34@@PAV1@@Z 0068ac30 f   math_utils.obj
 0002:00088d20       ??DVector3@@QBEMABV0@@Z    0068ad20 f i math_utils.obj
 0002:00088da0       ?ConvertWorldSpaceIntoPlaneSpace@@YAXABVVector3@@ABVMatrix34@@PAVVector2@@@Z 0068ada0 f   math_utils.obj
 0002:00088e70       ?ConvertPlaneSpaceIntoWorldSpace@@YAXABVVector2@@ABVMatrix34@@PAVVector3@@@Z 0068ae70 f   math_utils.obj
 0002:00088f30       ?CalcTriArea@@YAMABVVector2@@00@Z 0068af30 f   math_utils.obj
 0002:00089010       ?IsPointInTriangle@@YA_NABVVector2@@000@Z 0068b010 f   math_utils.obj
 0002:00089120       ?PointSegDist2D@@YAMABVVector2@@00PAV1@@Z 0068b120 f   math_utils.obj
 0002:00089370       ??D@YA?AVVector2@@MABV0@@Z 0068b370 f i math_utils.obj
 0002:000893d0       ?SegRayIntersection2D@@YA_NABVVector2@@000PAV1@@Z 0068b3d0 f   math_utils.obj
 0002:00089570       ?RayRayDist@@YAMABVVector3@@000PAV1@1@Z 0068b570 f   math_utils.obj
 0002:00089780       ?RaySegDist@@YAMABVVector3@@000PAV1@1@Z 0068b780 f   math_utils.obj
 0002:00089960       ?RayTriIntersection@@YA_NABVVector3@@0000MPAV1@@Z 0068b960 f   math_utils.obj
 0002:00089cc0       ?MagSquared@Vector3@@QBEMXZ 0068bcc0 f i math_utils.obj
 0002:00089d40       ?RaySphereIntersection@@YA_NABVVector3@@00MMPAV1@1@Z 0068bd40 f   math_utils.obj
 0002:00089f20       ?RayPlaneIntersection@@YAHABVVector3@@0ABVPlane@@PAV1@@Z 0068bf20 f   math_utils.obj
 0002:0008a120       ?fabs@@YAMM@Z              0068c120 f i math_utils.obj
 0002:0008a180       ?SphereSphereIntersection@@YA_NABVVector3@@M0M@Z 0068c180 f   math_utils.obj
 0002:0008a230       ?SphereTriangleIntersection@@YA_NABVVector3@@M000@Z 0068c230 f   math_utils.obj
 0002:0008a650       ??0Matrix34@@QAE@XZ        0068c650 f i math_utils.obj
 0002:0008a6d0       ??0Matrix33@@QAE@XZ        0068c6d0 f   matrix33.obj
 0002:0008a740       ??0Matrix33@@QAE@H@Z       0068c740 f   matrix33.obj
 0002:0008a7c0       ??0Matrix33@@QAE@ABV0@@Z   0068c7c0 f   matrix33.obj
 0002:0008a850       ??0Matrix33@@QAE@ABVVector3@@00@Z 0068c850 f   matrix33.obj
 0002:0008a8f0       ??0Matrix33@@QAE@MMM@Z     0068c8f0 f   matrix33.obj
 0002:0008a9b0       ?OrientRU@Matrix33@@QAEXABVVector3@@0@Z 0068c9b0 f   matrix33.obj
 0002:0008aac0       ?OrientRF@Matrix33@@QAEXABVVector3@@0@Z 0068cac0 f   matrix33.obj
 0002:0008abd0       ?OrientUF@Matrix33@@QAEXABVVector3@@0@Z 0068cbd0 f   matrix33.obj
 0002:0008ace0       ?OrientUR@Matrix33@@QAEXABVVector3@@0@Z 0068cce0 f   matrix33.obj
 0002:0008ae00       ?OrientFR@Matrix33@@QAEXABVVector3@@0@Z 0068ce00 f   matrix33.obj
 0002:0008af20       ?OrientFU@Matrix33@@QAEXABVVector3@@0@Z 0068cf20 f   matrix33.obj
 0002:0008b030       ?RotateAroundR@Matrix33@@QAEABV1@M@Z 0068d030 f   matrix33.obj
 0002:0008b190       ?cos@@YAMM@Z               0068d190 f i matrix33.obj
 0002:0008b1f0       ?sin@@YAMM@Z               0068d1f0 f i matrix33.obj
 0002:0008b250       ?RotateAroundU@Matrix33@@QAEABV1@M@Z 0068d250 f   matrix33.obj
 0002:0008b3b0       ?RotateAroundF@Matrix33@@QAEABV1@M@Z 0068d3b0 f   matrix33.obj
 0002:0008b510       ?RotateAroundX@Matrix33@@QAEABV1@M@Z 0068d510 f   matrix33.obj
 0002:0008b670       ?RotateAroundY@Matrix33@@QAEABV1@M@Z 0068d670 f   matrix33.obj
 0002:0008b7d0       ?RotateAroundZ@Matrix33@@QAEABV1@M@Z 0068d7d0 f   matrix33.obj
 0002:0008b930       ?RotateAround@Matrix33@@QAEABV1@ABVVector3@@@Z 0068d930 f   matrix33.obj
 0002:0008b9f0       ??KVector3@@QBE?AV0@M@Z    0068d9f0 f i matrix33.obj
 0002:0008bab0       ?FastRotateAround@Matrix33@@QAEABV1@ABVVector3@@M@Z 0068dab0 f   matrix33.obj
 0002:0008be50       ??D@YA?AVVector3@@MABV0@@Z 0068de50 f i matrix33.obj
 0002:0008beb0       ?RotateAround@Matrix33@@QAEABV1@ABVVector3@@M@Z 0068deb0 f   matrix33.obj
 0002:0008c280       ?Transpose@Matrix33@@QAEABV1@XZ 0068e280 f   matrix33.obj
 0002:0008c330       ?Invert@Matrix33@@QAEABV1@XZ 0068e330 f   matrix33.obj
 0002:0008c5a0       ?DecomposeToYDR@Matrix33@@QBE?AVVector3@@XZ 0068e5a0 f   matrix33.obj
 0002:0008c680       ?DecomposeToYDR@Matrix33@@QBEXPAM00@Z 0068e680 f   matrix33.obj
 0002:0008c7b0       ?atan2@@YAMMM@Z            0068e7b0 f i matrix33.obj
 0002:0008c810       _atan2f                    0068e810 f i matrix33.obj
 0002:0008c880       ?SetToIdentity@Matrix33@@QAEXXZ 0068e880 f   matrix33.obj
 0002:0008c900       ?Normalise@Matrix33@@QAEXXZ 0068e900 f   matrix33.obj
 0002:0008c9c0       ?InverseMultiplyVector@Matrix33@@QBE?AVVector3@@ABV2@@Z 0068e9c0 f   matrix33.obj
 0002:0008caf0       ?OutputToDebugStream@Matrix33@@QAEXXZ 0068eaf0 f   matrix33.obj
 0002:0008cbf0       ?ConvertToOpenGLFormat@Matrix33@@QAEPAMPBVVector3@@@Z 0068ebf0 f   matrix33.obj
 0002:0008cd30       ??4Matrix33@@QAEABV0@ABV0@@Z 0068ed30 f   matrix33.obj
 0002:0008cda0       ??XMatrix33@@QAEABV0@ABV0@@Z 0068eda0 f   matrix33.obj
 0002:0008d0b0       ??0Matrix33@@QAE@MMMMMMMMM@Z 0068f0b0 f i matrix33.obj
 0002:0008d170       ??DMatrix33@@QBE?AV0@ABV0@@Z 0068f170 f   matrix33.obj
 0002:0008d440       ?OrientRU@Matrix34@@QAEXABVVector3@@0@Z 0068f440 f   matrix34.obj
 0002:0008d550       ?OrientRF@Matrix34@@QAEXABVVector3@@0@Z 0068f550 f   matrix34.obj
 0002:0008d660       ?OrientUF@Matrix34@@QAEXABVVector3@@0@Z 0068f660 f   matrix34.obj
 0002:0008d770       ?OrientUR@Matrix34@@QAEXABVVector3@@0@Z 0068f770 f   matrix34.obj
 0002:0008d890       ?OrientFR@Matrix34@@QAEXABVVector3@@0@Z 0068f890 f   matrix34.obj
 0002:0008d9b0       ?OrientFU@Matrix34@@QAEXABVVector3@@0@Z 0068f9b0 f   matrix34.obj
 0002:0008dac0       ?RotateAroundR@Matrix34@@QAEABV1@M@Z 0068fac0 f   matrix34.obj
 0002:0008dc20       ?RotateAroundU@Matrix34@@QAEABV1@M@Z 0068fc20 f   matrix34.obj
 0002:0008dd80       ?RotateAroundF@Matrix34@@QAEABV1@M@Z 0068fd80 f   matrix34.obj
 0002:0008dee0       ?RotateAroundX@Matrix34@@QAEABV1@M@Z 0068fee0 f   matrix34.obj
 0002:0008e040       ?RotateAroundY@Matrix34@@QAEABV1@M@Z 00690040 f   matrix34.obj
 0002:0008e1a0       ?RotateAroundZ@Matrix34@@QAEABV1@M@Z 006901a0 f   matrix34.obj
 0002:0008e300       ?RotateAround@Matrix34@@QAEABV1@ABVVector3@@@Z 00690300 f   matrix34.obj
 0002:0008e3c0       ?FastRotateAround@Matrix34@@QAEABV1@ABVVector3@@M@Z 006903c0 f   matrix34.obj
 0002:0008e760       ?RotateAround@Matrix34@@QAEABV1@ABVVector3@@M@Z 00690760 f   matrix34.obj
 0002:0008eb30       ?Transpose@Matrix34@@QAEABV1@XZ 00690b30 f   matrix34.obj
 0002:0008ec30       ??GVector3@@QBE?AV0@XZ     00690c30 f i matrix34.obj
 0002:0008ecb0       ??D@YA?AVVector3@@ABVMatrix34@@ABV0@@Z 00690cb0 f i matrix34.obj
 0002:0008ede0       ?DecomposeToYDR@Matrix34@@QBE?AVVector3@@XZ 00690de0 f   matrix34.obj
 0002:0008eec0       ?DecomposeToYDR@Matrix34@@QBEXPAM00@Z 00690ec0 f   matrix34.obj
 0002:0008eff0       ??0Matrix34@@QAE@ABV0@@Z   00690ff0 f i matrix34.obj
 0002:0008f090       ?SetToIdentity@Matrix34@@QAEXXZ 00691090 f   matrix34.obj
 0002:0008f110       ?IsNormalised@Matrix34@@QAE_NXZ 00691110 f   matrix34.obj
 0002:0008f2d0       ?Normalise@Matrix34@@QAEXXZ 006912d0 f   matrix34.obj
 0002:0008f390       ?InverseMultiplyVector@Matrix34@@QBE?AVVector3@@ABV2@@Z 00691390 f   matrix34.obj
 0002:0008f4e0       ?WriteToDebugStream@Matrix34@@QAEXXZ 006914e0 f   matrix34.obj
 0002:0008f620       ?Test@Matrix34@@QAEXXZ     00691620 f   matrix34.obj
 0002:0008f950       ??0Matrix34@@QAE@ABVVector3@@00@Z 00691950 f i matrix34.obj
 0002:0008fa60       ??DMatrix34@@QBE?AV0@ABV0@@Z 00691a60 f i matrix34.obj
 0002:0008fae0       ??8Matrix34@@QBE_NABV0@@Z  00691ae0 f   matrix34.obj
 0002:0008fbb0       ??XMatrix34@@QAEABV0@ABV0@@Z 00691bb0 f   matrix34.obj
 0002:0008fee0       ??4Matrix34@@QAEAAV0@ABV0@@Z 00691ee0 f i matrix34.obj
 0002:0008ff80       ??0Matrix34@@QAE@H@Z       00691f80 f i matrix34.obj
 0002:00090010       ??0Plane@@QAE@ABVVector3@@00@Z 00692010 f   plane.obj
 0002:00090150       ??0Plane@@QAE@ABVVector3@@0@Z 00692150 f   plane.obj
 0002:000901d0       ??0Plane@@QAE@ABVVector3@@M@Z 006921d0 f   plane.obj
 0002:00090240       ?GetCartesianDefinition@Plane@@QBEXPAM000@Z 00692240 f   plane.obj
 0002:000902b0       ?Compare@Vector2@@ABE_NABV1@@Z 006922b0 f   vector2.obj
 0002:000903a0       ??0Vector2@@QAE@XZ         006923a0 f   vector2.obj
 0002:000903f0       ??0Vector2@@QAE@ABVVector3@@@Z 006923f0 f   vector2.obj
 0002:00090450       ??0Vector2@@QAE@MM@Z       00692450 f   vector2.obj
 0002:000904a0       ?Zero@Vector2@@QAEXXZ      006924a0 f   vector2.obj
 0002:000904f0       ?Set@Vector2@@QAEXMM@Z     006924f0 f   vector2.obj
 0002:00090540       ??TVector2@@QBEMABV0@@Z    00692540 f   vector2.obj
 0002:000905b0       ??DVector2@@QBEMABV0@@Z    006925b0 f   vector2.obj
 0002:00090620       ??GVector2@@QBE?AV0@XZ     00692620 f   vector2.obj
 0002:000906a0       ??HVector2@@QBE?AV0@ABV0@@Z 006926a0 f   vector2.obj
 0002:00090740       ??GVector2@@QBE?AV0@ABV0@@Z 00692740 f   vector2.obj
 0002:000907e0       ??DVector2@@QBE?AV0@M@Z    006927e0 f   vector2.obj
 0002:00090880       ??KVector2@@QBE?AV0@M@Z    00692880 f   vector2.obj
 0002:00090920       ??4Vector2@@QAEXABV0@@Z    00692920 f   vector2.obj
 0002:00090980       ??4Vector2@@QAEXABVVector3@@@Z 00692980 f   vector2.obj
 0002:000909e0       ??XVector2@@QAEXM@Z        006929e0 f   vector2.obj
 0002:00090a40       ??_0Vector2@@QAEXM@Z       00692a40 f   vector2.obj
 0002:00090ab0       ??YVector2@@QAEXABV0@@Z    00692ab0 f   vector2.obj
 0002:00090b10       ??ZVector2@@QAEXABV0@@Z    00692b10 f   vector2.obj
 0002:00090b70       ?Normalise@Vector2@@QAEABV1@XZ 00692b70 f   vector2.obj
 0002:00090c50       ?SetLength@Vector2@@QAEXM@Z 00692c50 f   vector2.obj
 0002:00090cd0       ?Mag@Vector2@@QBEMXZ       00692cd0 f   vector2.obj
 0002:00090d50       ?MagSquared@Vector2@@QBEMXZ 00692d50 f   vector2.obj
 0002:00090dc0       ??8Vector2@@QBE_NABV0@@Z   00692dc0 f   vector2.obj
 0002:00090e20       ??9Vector2@@QBE_NABV0@@Z   00692e20 f   vector2.obj
 0002:00090e90       ?GetData@Vector2@@QAEPAMXZ 00692e90 f   vector2.obj
 0002:00090ed0       ?RotateAroundX@Vector3@@QAEXM@Z 00692ed0 f   vector3.obj
 0002:00090f50       ?RotateAroundY@Vector3@@QAEXM@Z 00692f50 f   vector3.obj
 0002:00090fb0       ?RotateAroundZ@Vector3@@QAEXM@Z 00692fb0 f   vector3.obj
 0002:00091030       ?FastRotateAround@Vector3@@QAEXABV1@M@Z 00693030 f   vector3.obj
 0002:000911c0       ?RotateAround@Vector3@@QAEXABV1@@Z 006931c0 f   vector3.obj
 0002:000912b0       ??8Vector3@@QBE_NABV0@@Z   006932b0 f   vector3.obj
 0002:00091310       ?Compare@Vector3@@ABE_NABV1@@Z 00693310 f i vector3.obj
 0002:000914b0       ??9Vector3@@QBE_NABV0@@Z   006934b0 f   vector3.obj
 0002:00091520       ?Render3DSprite@@YAXABVVector3@@MMH@Z 00693520 f   3d_sprite.obj
 0002:000918f0       ?ReadBMPFileHeader@BitmapRGBA@@AAEXPAVBinaryReader@@PAVBitmapFileHeader@@@Z 006938f0 f   bitmap.obj
 0002:00091a50       ?ReadWinBMPInfoHeader@BitmapRGBA@@AAEXPAVBinaryReader@@PAVBitmapInfoHeader@@@Z 00693a50 f   bitmap.obj
 0002:00091c50       ?ReadOS2BMPInfoHeader@BitmapRGBA@@AAEXPAVBinaryReader@@PAVBitmapInfoHeader@@@Z 00693c50 f   bitmap.obj
 0002:00091d90       ?ReadBMPPalette@BitmapRGBA@@AAEXHQAVRGBAColour@@PAVBinaryReader@@H@Z 00693d90 f   bitmap.obj
 0002:00091ec0       ?Read4BitLine@BitmapRGBA@@AAEXHPAVBinaryReader@@PAVRGBAColour@@H@Z 00693ec0 f   bitmap.obj
 0002:00091fc0       ?Read8BitLine@BitmapRGBA@@AAEXHPAVBinaryReader@@PAVRGBAColour@@H@Z 00693fc0 f   bitmap.obj
 0002:00092080       ?Read24BitLine@BitmapRGBA@@AAEXHPAVBinaryReader@@H@Z 00694080 f   bitmap.obj
 0002:00092210       ?LoadBmp@BitmapRGBA@@AAEXPAVBinaryReader@@@Z 00694210 f   bitmap.obj
 0002:00092630       ?WriteBMPFileHeader@BitmapRGBA@@AAEXPAU_iobuf@@@Z 00694630 f   bitmap.obj
 0002:000928c0       ?WriteWinBMPInfoHeader@BitmapRGBA@@AAEXPAU_iobuf@@@Z 006948c0 f   bitmap.obj
 0002:00092a80       ?Write24BitLine@BitmapRGBA@@AAEXPAU_iobuf@@H@Z 00694a80 f   bitmap.obj
 0002:00092bb0       ?SaveBmp@BitmapRGBA@@QAEXPBD@Z 00694bb0 f   bitmap.obj
 0002:00092c50       ?SavePng@BitmapRGBA@@QAEXPBD_N@Z 00694c50 f   bitmap.obj
 0002:00092cf0       ?WritePng@BitmapRGBA@@QAEXPAU_iobuf@@_N@Z 00694cf0 f   bitmap.obj
 0002:00093150       ?WriteBmp@BitmapRGBA@@QAEXPAU_iobuf@@@Z 00695150 f   bitmap.obj
 0002:00093230       ??0BitmapRGBA@@QAE@XZ      00695230 f   bitmap.obj
 0002:000932a0       ??0BitmapRGBA@@QAE@ABV0@@Z 006952a0 f   bitmap.obj
 0002:00093340       ??0BitmapRGBA@@QAE@HH@Z    00695340 f   bitmap.obj
 0002:000933d0       ??0BitmapRGBA@@QAE@PBD@Z   006953d0 f   bitmap.obj
 0002:00093460       ??0BitmapRGBA@@QAE@PAVBinaryReader@@PBD@Z 00695460 f   bitmap.obj
 0002:000934f0       ??1BitmapRGBA@@QAE@XZ      006954f0 f   bitmap.obj
 0002:000935b0       ?Initialise@BitmapRGBA@@QAEXHH@Z 006955b0 f   bitmap.obj
 0002:000937f0       ?Initialise@BitmapRGBA@@QAEXPBD@Z 006957f0 f   bitmap.obj
 0002:00093990       ?Initialise@BitmapRGBA@@QAEXPAVBinaryReader@@PBD@Z 00695990 f   bitmap.obj
 0002:00093a60       ?PutPixel@BitmapRGBA@@QAEXHHABVRGBAColour@@@Z 00695a60 f   bitmap.obj
 0002:00093ad0       ??4RGBAColour@@QAEABV0@ABV0@@Z 00695ad0 f i bitmap.obj
 0002:00093b50       ?GetPixel@BitmapRGBA@@QBEABVRGBAColour@@HH@Z 00695b50 f   bitmap.obj
 0002:00093ba0       ?PutPixelClipped@BitmapRGBA@@QAEXHHABVRGBAColour@@@Z 00695ba0 f   bitmap.obj
 0002:00093c40       ?GetPixelClipped@BitmapRGBA@@QBEABVRGBAColour@@HH@Z 00695c40 f   bitmap.obj
 0002:00093cc0       ?DrawLine@BitmapRGBA@@QAEXHHHHABVRGBAColour@@@Z 00695cc0 f   bitmap.obj
 0002:00093e10       ?GetInterpolatedPixel@BitmapRGBA@@QBE?AVRGBAColour@@MM@Z 00695e10 f   bitmap.obj
 0002:00094330       ?ConvertToGreyScale@BitmapRGBA@@QAEXXZ 00696330 f   bitmap.obj
 0002:00094400       ?Blit@BitmapRGBA@@QAEXHHHHPBV1@HHHH_N@Z 00696400 f   bitmap.obj
 0002:00094770       ?ApplyDilateFilter@BitmapRGBA@@QAEXXZ 00696770 f   bitmap.obj
 0002:00094bb0       ?ApplyBlurFilter@BitmapRGBA@@QAEXM@Z 00696bb0 f   bitmap.obj
 0002:00095530       ?ConvertColourToAlpha@BitmapRGBA@@QAEXXZ 00697530 f   bitmap.obj
 0002:00095690       ?ConvertPinkToTransparent@BitmapRGBA@@QAEXXZ 00697690 f   bitmap.obj
 0002:00095820       ?Clear@BitmapRGBA@@QAEXABVRGBAColour@@@Z 00697820 f   bitmap.obj
 0002:00095920       ?ConvertToTexture@BitmapRGBA@@QBEH_N@Z 00697920 f   bitmap.obj
 0002:00095da0       ?log@@YAMM@Z               00697da0 f i bitmap.obj
 0002:00095e00       ??0PersistingDebugRenderer@@QAE@XZ 00697e00 f   persisting_debug_render.obj
 0002:00095eb0       ?FindItem@PersistingDebugRenderer@@IAEPAVPersistRenderItem@@PBD@Z 00697eb0 f   persisting_debug_render.obj
 0002:00095f80       ?Square2d@PersistingDebugRenderer@@QAAXMMMIPADZZ 00697f80 f   persisting_debug_render.obj
 0002:000960f0       ?PointMarker@PersistingDebugRenderer@@QAAXABVVector3@@IPADZZ 006980f0 f   persisting_debug_render.obj
 0002:00096240       ?Sphere@PersistingDebugRenderer@@QAAXABVVector3@@MHPADZZ 00698240 f   persisting_debug_render.obj
 0002:00096380       ?Vector@PersistingDebugRenderer@@QAAXABVVector3@@0HPADZZ 00698380 f   persisting_debug_render.obj
 0002:000964c0       ?Render@PersistingDebugRenderer@@QAEXXZ 006984c0 f   persisting_debug_render.obj
 0002:00096700       ?Size@?$DArray@VPersistRenderItem@@@@QBEHXZ 00698700 f i persisting_debug_render.obj
 0002:00096740       ?ValidIndex@?$DArray@VPersistRenderItem@@@@QBE_NH@Z 00698740 f i persisting_debug_render.obj
 0002:000967b0       ??A?$DArray@VPersistRenderItem@@@@QAEAAVPersistRenderItem@@H@Z 006987b0 f i persisting_debug_render.obj
 0002:000968d0       ??0?$FastDArray@VPersistRenderItem@@@@QAE@XZ 006988d0 f i persisting_debug_render.obj
 0002:00096950       ??1?$FastDArray@VPersistRenderItem@@@@QAE@XZ 00698950 f i persisting_debug_render.obj
 0002:000969f0       ?SetSize@?$FastDArray@VPersistRenderItem@@@@QAEXH@Z 006989f0 f i persisting_debug_render.obj
 0002:00096fe0       ?MarkNotUsed@?$FastDArray@VPersistRenderItem@@@@QAEXH@Z 00698fe0 f i persisting_debug_render.obj
 0002:00097140       ?GetPointer@?$FastDArray@VPersistRenderItem@@@@QAEPAVPersistRenderItem@@XZ 00699140 f i persisting_debug_render.obj
 0002:000971a0       ??0PersistRenderItem@@QAE@XZ 006991a0 f i persisting_debug_render.obj
 0002:00097200       ??4PersistRenderItem@@QAEAAV0@ABV0@@Z 00699200 f i persisting_debug_render.obj
 0002:00097300       ??0?$DArray@VPersistRenderItem@@@@QAE@XZ 00699300 f i persisting_debug_render.obj
 0002:00097370       ??1?$DArray@VPersistRenderItem@@@@QAE@XZ 00699370 f i persisting_debug_render.obj
 0002:000973c0       ?RebuildFreeList@?$FastDArray@VPersistRenderItem@@@@IAEXXZ 006993c0 f i persisting_debug_render.obj
 0002:00097530       ?RebuildNumUsed@?$FastDArray@VPersistRenderItem@@@@IAEXXZ 00699530 f i persisting_debug_render.obj
 0002:000975d0       ?GetPointer@?$FastDArray@VPersistRenderItem@@@@QAEPAVPersistRenderItem@@H@Z 006995d0 f i persisting_debug_render.obj
 0002:00097630       ?GetNextFree@?$FastDArray@VPersistRenderItem@@@@QAEHXZ 00699630 f i persisting_debug_render.obj
 0002:00097710       ?Empty@?$FastDArray@VPersistRenderItem@@@@QAEXXZ 00699710 f i persisting_debug_render.obj
 0002:000977b0       ?GetPointer@?$DArray@VPersistRenderItem@@@@QBEPAVPersistRenderItem@@H@Z 006997b0 f i persisting_debug_render.obj
 0002:000978d0       ?Empty@?$DArray@VPersistRenderItem@@@@QAEXXZ 006998d0 f i persisting_debug_render.obj
 0002:00097980       ?Grow@?$FastDArray@VPersistRenderItem@@@@IAEXXZ 00699980 f i persisting_debug_render.obj
 0002:00097a20       ??1PersistingDebugRenderer@@QAE@XZ 00699a20 f i persisting_debug_render.obj
 0002:00097a70       ?RenderSplitUpQuadTextured@@YAXMMMMMMMMMH@Z 00699a70 f   render_utils.obj
 0002:00097e00       ?RenderSplitUpQuadMultiTextured@@YAXMMMMMMMMMMMMMH@Z 00699e00 f   render_utils.obj
 0002:00098360       ??0RGBAColour@@QAE@XZ      0069a360 f   rgb_colour.obj
 0002:000983a0       ??0RGBAColour@@QAE@EEEE@Z  0069a3a0 f   rgb_colour.obj
 0002:00098410       ??0RGBAColour@@QAE@H@Z     0069a410 f   rgb_colour.obj
 0002:00098470       ?Set@RGBAColour@@QAEXEEEE@Z 0069a470 f   rgb_colour.obj
 0002:000984e0       ?Set@RGBAColour@@QAEXH@Z   0069a4e0 f   rgb_colour.obj
 0002:00098570       ??HRGBAColour@@QBE?AV0@ABV0@@Z 0069a570 f   rgb_colour.obj
 0002:00098620       ??GRGBAColour@@QBE?AV0@ABV0@@Z 0069a620 f   rgb_colour.obj
 0002:000986d0       ??DRGBAColour@@QBE?AV0@M@Z 0069a6d0 f   rgb_colour.obj
 0002:00098890       ??KRGBAColour@@QBE?AV0@M@Z 0069a890 f   rgb_colour.obj
 0002:00098a60       ??XRGBAColour@@QAEABV0@M@Z 0069aa60 f   rgb_colour.obj
 0002:00098c20       ??_0RGBAColour@@QAEABV0@M@Z 0069ac20 f   rgb_colour.obj
 0002:00098de0       ??YRGBAColour@@QAEABV0@ABV0@@Z 0069ade0 f   rgb_colour.obj
 0002:00098e90       ??ZRGBAColour@@QAEABV0@ABV0@@Z 0069ae90 f   rgb_colour.obj
 0002:00098f40       ??8RGBAColour@@QBE_NABV0@@Z 0069af40 f   rgb_colour.obj
 0002:00099000       ??9RGBAColour@@QBE_NABV0@@Z 0069b000 f   rgb_colour.obj
 0002:000990c0       ?GetData@RGBAColour@@QBEPBEXZ 0069b0c0 f   rgb_colour.obj
 0002:00099100       ?AddWithClamp@RGBAColour@@QAEXABV1@@Z 0069b100 f   rgb_colour.obj
 0002:00099340       ?MultiplyWithClamp@RGBAColour@@QAEXM@Z 0069b340 f   rgb_colour.obj
 0002:000995d0       ??0ShapeMarker@@QAE@PBDPADHABVMatrix34@@@Z 0069b5d0 f   shape.obj
 0002:00099730       ??0ShapeMarker@@QAE@PAVTextReader@@PBD@Z 0069b730 f   shape.obj
 0002:00099aa0       ??1ShapeMarker@@QAE@XZ     0069baa0 f   shape.obj
 0002:00099b60       ?GetWorldMatrix@ShapeMarker@@QAE?AVMatrix34@@ABV2@@Z 0069bb60 f   shape.obj
 0002:00099c90       ?WriteToFile@ShapeMarker@@QBEXPAU_iobuf@@@Z 0069bc90 f   shape.obj
 0002:00099e10       ??0ShapeFragment@@QAE@PAVTextReader@@PBD@Z 0069be10 f   shape.obj
 0002:0009a5b0       ?Zero@Vector3@@QAEXXZ      0069c5b0 f i shape.obj
 0002:0009a610       ??0ShapeFragment@@QAE@PBD0@Z 0069c610 f   shape.obj
 0002:0009a960       ??1ShapeFragment@@QAE@XZ   0069c960 f   shape.obj
 0002:0009abd0       ?BuildDisplayList@ShapeFragment@@QAEXXZ 0069cbd0 f   shape.obj
 0002:0009ace0       ?WriteToFile@ShapeFragment@@QBEXPAU_iobuf@@@Z 0069cce0 f   shape.obj
 0002:0009b230       ?ParsePositionBlock@ShapeFragment@@IAEXPAVTextReader@@I@Z 0069d230 f   shape.obj
 0002:0009b5e0       ?ParseNormalBlock@ShapeFragment@@IAEXPAVTextReader@@I@Z 0069d5e0 f   shape.obj
 0002:0009b9e0       ?ParseColourBlock@ShapeFragment@@IAEXPAVTextReader@@I@Z 0069d9e0 f   shape.obj
 0002:0009be00       ?ParseVertexBlock@ShapeFragment@@IAEXPAVTextReader@@I@Z 0069de00 f   shape.obj
 0002:0009c040       ?ParseStripBlock@ShapeFragment@@IAEXPAVTextReader@@@Z 0069e040 f   shape.obj
 0002:0009c660       ?ParseAllStripBlocks@ShapeFragment@@IAEXPAVTextReader@@I@Z 0069e660 f   shape.obj
 0002:0009c850       ?ParseTriangleBlock@ShapeFragment@@IAEXPAVTextReader@@I@Z 0069e850 f   shape.obj
 0002:0009ca70       ?GenerateNormals@ShapeFragment@@IAEXXZ 0069ea70 f   shape.obj
 0002:0009cd60       ?RegisterPositions@ShapeFragment@@QAEXPAVVector3@@I@Z 0069ed60 f   shape.obj
 0002:0009d310       ?RegisterNormals@ShapeFragment@@QAEXPAVVector3@@I@Z 0069f310 f   shape.obj
 0002:0009d390       ?RegisterColours@ShapeFragment@@QAEXPAVRGBAColour@@I@Z 0069f390 f   shape.obj
 0002:0009d410       ?RegisterVertices@ShapeFragment@@QAEXPAVVertexPosCol@@I@Z 0069f410 f   shape.obj
 0002:0009d490       ?RegisterTriangles@ShapeFragment@@QAEXPAVShapeTriangle@@I@Z 0069f490 f   shape.obj
 0002:0009d510       ?Render@ShapeFragment@@QAEXM@Z 0069f510 f   shape.obj
 0002:0009d740       ?ConvertToOpenGLFormat@Matrix34@@QBEPAMXZ 0069f740 f i shape.obj
 0002:0009d860       ?RenderSlow@ShapeFragment@@QAEXXZ 0069f860 f   shape.obj
 0002:0009dbc0       ?LookupFragment@ShapeFragment@@QAEPAV1@PBD@Z 0069fbc0 f   shape.obj
 0002:0009dcb0       ?LookupMarker@ShapeFragment@@QAEPAVShapeMarker@@PBD@Z 0069fcb0 f   shape.obj
 0002:0009ddf0       ?RenderHitCheck@ShapeFragment@@QAEXABVMatrix34@@@Z 0069fdf0 f   shape.obj
 0002:0009e120       ?RenderMarkers@ShapeFragment@@QAEXABVMatrix34@@@Z 006a0120 f   shape.obj
 0002:0009e3a0       ?RayHit@ShapeFragment@@QAE_NPAVRayPackage@@ABVMatrix34@@_N@Z 006a03a0 f   shape.obj
 0002:0009e740       ??D@YA?AVVector3@@ABV0@ABVMatrix34@@@Z 006a0740 f i shape.obj
 0002:0009e870       ?SphereHit@ShapeFragment@@QAE_NPAVSpherePackage@@ABVMatrix34@@_N@Z 006a0870 f   shape.obj
 0002:0009ebf0       ?ShapeHit@ShapeFragment@@QAE_NPAVShape@@ABVMatrix34@@1_N@Z 006a0bf0 f   shape.obj
 0002:0009ede0       ??0SpherePackage@@QAE@ABVVector3@@M@Z 006a0de0 f i shape.obj
 0002:0009ee50       ?CalculateCentre@ShapeFragment@@QAEXABVMatrix34@@AAVVector3@@AAH@Z 006a0e50 f   shape.obj
 0002:0009efc0       ?CalculateRadius@ShapeFragment@@QAEXABVMatrix34@@ABVVector3@@AAM@Z 006a0fc0 f   shape.obj
 0002:0009f170       ??0Shape@@QAE@XZ           006a1170 f   shape.obj
 0002:0009f1b0       ??0Shape@@QAE@PBD_N@Z      006a11b0 f   shape.obj
 0002:0009f300       ??0Shape@@QAE@PAVTextReader@@_N@Z 006a1300 f   shape.obj
 0002:0009f390       ??1Shape@@QAE@XZ           006a1390 f   shape.obj
 0002:0009f480       ??_GShapeFragment@@QAEPAXI@Z 006a1480 f i shape.obj
 0002:0009f4f0       ?BuildDisplayList@Shape@@QAEXXZ 006a14f0 f   shape.obj
 0002:0009f5c0       ?Load@Shape@@IAEXPAVTextReader@@@Z 006a15c0 f   shape.obj
 0002:0009fef0       ?WriteToFile@Shape@@QBEXPAU_iobuf@@@Z 006a1ef0 f   shape.obj
 0002:0009ff50       ?Render@Shape@@QAEXMABVMatrix34@@@Z 006a1f50 f   shape.obj
 0002:000a00b0       ?RenderHitCheck@Shape@@QAEXABVMatrix34@@@Z 006a20b0 f   shape.obj
 0002:000a0110       ?RenderMarkers@Shape@@QAEXABVMatrix34@@@Z 006a2110 f   shape.obj
 0002:000a0170       ?RayHit@Shape@@QAE_NPAVRayPackage@@ABVMatrix34@@_N@Z 006a2170 f   shape.obj
 0002:000a01e0       ?SphereHit@Shape@@QAE_NPAVSpherePackage@@ABVMatrix34@@_N@Z 006a21e0 f   shape.obj
 0002:000a0250       ?ShapeHit@Shape@@QAE_NPAV1@ABVMatrix34@@1_N@Z 006a2250 f   shape.obj
 0002:000a02c0       ?CalculateCentre@Shape@@QAE?AVVector3@@ABVMatrix34@@@Z 006a22c0 f   shape.obj
 0002:000a03c0       ??_0Vector3@@QAEABV0@M@Z   006a23c0 f i shape.obj
 0002:000a0440       ?CalculateRadius@Shape@@QAEMABVMatrix34@@ABVVector3@@@Z 006a2440 f   shape.obj
 0002:000a04f0       ??0?$LList@PAVShapeFragment@@@@QAE@XZ 006a24f0 f i shape.obj
 0002:000a0570       ??1?$LList@PAVShapeFragment@@@@QAE@XZ 006a2570 f i shape.obj
 0002:000a05c0       ?PutData@?$LList@PAVShapeFragment@@@@QAEXABQAVShapeFragment@@@Z 006a25c0 f i shape.obj
 0002:000a0620       ?GetData@?$LList@PAVShapeFragment@@@@QBEPAVShapeFragment@@H@Z 006a2620 f i shape.obj
 0002:000a07c0       ?Size@?$LList@PAVShapeFragment@@@@QBEHXZ 006a27c0 f i shape.obj
 0002:000a0800       ?EmptyAndDelete@?$LList@PAVShapeFragment@@@@QAEXXZ 006a2800 f i shape.obj
 0002:000a08c0       ??0?$LList@PAVShapeMarker@@@@QAE@XZ 006a28c0 f i shape.obj
 0002:000a0940       ??1?$LList@PAVShapeMarker@@@@QAE@XZ 006a2940 f i shape.obj
 0002:000a0990       ?PutData@?$LList@PAVShapeMarker@@@@QAEXABQAVShapeMarker@@@Z 006a2990 f i shape.obj
 0002:000a09f0       ?GetData@?$LList@PAVShapeMarker@@@@QBEPAVShapeMarker@@H@Z 006a29f0 f i shape.obj
 0002:000a0b90       ?Size@?$LList@PAVShapeMarker@@@@QBEHXZ 006a2b90 f i shape.obj
 0002:000a0bd0       ?EmptyAndDelete@?$LList@PAVShapeMarker@@@@QAEXXZ 006a2bd0 f i shape.obj
 0002:000a0c90       ??_GShapeMarker@@QAEPAXI@Z 006a2c90 f i shape.obj
 0002:000a0d00       ?PutDataAtEnd@?$LList@PAVShapeFragment@@@@QAEXABQAVShapeFragment@@@Z 006a2d00 f i shape.obj
 0002:000a0e90       ?RemoveData@?$LList@PAVShapeFragment@@@@QAEXH@Z 006a2e90 f i shape.obj
 0002:000a1020       ?ValidIndex@?$LList@PAVShapeFragment@@@@QBE_NH@Z 006a3020 f i shape.obj
 0002:000a1090       ?Empty@?$LList@PAVShapeFragment@@@@QAEXXZ 006a3090 f i shape.obj
 0002:000a1190       ?PutDataAtEnd@?$LList@PAVShapeMarker@@@@QAEXABQAVShapeMarker@@@Z 006a3190 f i shape.obj
 0002:000a1320       ?RemoveData@?$LList@PAVShapeMarker@@@@QAEXH@Z 006a3320 f i shape.obj
 0002:000a14b0       ?ValidIndex@?$LList@PAVShapeMarker@@@@QBE_NH@Z 006a34b0 f i shape.obj
 0002:000a1520       ?Empty@?$LList@PAVShapeMarker@@@@QAEXXZ 006a3520 f i shape.obj
 0002:000a1620       ??_G?$LListItem@PAVShapeFragment@@@@QAEPAXI@Z 006a3620 f i shape.obj
 0002:000a1690       ??_G?$LListItem@PAVShapeMarker@@@@QAEPAXI@Z 006a3690 f i shape.obj
 0002:000a1700       ??0?$LListItem@PAVShapeFragment@@@@QAE@XZ 006a3700 f i shape.obj
 0002:000a1760       ??1?$LListItem@PAVShapeFragment@@@@QAE@XZ 006a3760 f i shape.obj
 0002:000a17a0       ??0?$LListItem@PAVShapeMarker@@@@QAE@XZ 006a37a0 f i shape.obj
 0002:000a1800       ??1?$LListItem@PAVShapeMarker@@@@QAE@XZ 006a3800 f i shape.obj
 0002:000a1840       ??0Triangle@@QAE@ABVVector3@@00@Z 006a3840 f   sphere_renderer.obj
 0002:000a18e0       ??0Sphere@@QAE@XZ          006a38e0 f   sphere_renderer.obj
 0002:000a2090       ??0Triangle@@QAE@XZ        006a4090 f i sphere_renderer.obj
 0002:000a20f0       ??4Triangle@@QAEAAV0@ABV0@@Z 006a40f0 f i sphere_renderer.obj
 0002:000a2180       ?ConsiderTriangle@Sphere@@AAEXHABVVector3@@00@Z 006a4180 f   sphere_renderer.obj
 0002:000a2420       ?RenderLong@Sphere@@QAEXXZ 006a4420 f   sphere_renderer.obj
 0002:000a24d0       ?Render@Sphere@@QAEXABVVector3@@M@Z 006a44d0 f   sphere_renderer.obj
 0002:000a2640       ?Initialise@TextRenderer@@QAEXPBD@Z 006a4640 f   text_renderer.obj
 0002:000a26d0       ?BuildOpenGlState@TextRenderer@@QAEXXZ 006a46d0 f   text_renderer.obj
 0002:000a2910       ?BeginText2D@TextRenderer@@QAEXXZ 006a4910 f   text_renderer.obj
 0002:000a2bb0       ?EndText2D@TextRenderer@@QAEXXZ 006a4bb0 f   text_renderer.obj
 0002:000a2cc0       ?GetTexCoordX@TextRenderer@@IAEME@Z 006a4cc0 f   text_renderer.obj
 0002:000a2d50       ?GetTexCoordY@TextRenderer@@IAEME@Z 006a4d50 f   text_renderer.obj
 0002:000a2de0       ?DrawText2DUp@TextRenderer@@QAAXMMMPBDZZ 006a4de0 f   text_renderer.obj
 0002:000a31e0       ?DrawText2DDown@TextRenderer@@QAAXMMMPBDZZ 006a51e0 f   text_renderer.obj
 0002:000a38e0       ?SetRenderShadow@TextRenderer@@QAEX_N@Z 006a58e0 f   text_renderer.obj
 0002:000a3930       ?SetRenderOutline@TextRenderer@@QAEX_N@Z 006a5930 f   text_renderer.obj
 0002:000a3980       ?DrawText2DSimple@TextRenderer@@QAEXMMMPBD@Z 006a5980 f   text_renderer.obj
 0002:000a40a0       ?DrawText2DJustified@TextRenderer@@QAAXMMMHPBDZZ 006a60a0 f   text_renderer.obj
 0002:000a4260       ?DrawText2D@TextRenderer@@QAAXMMMPBDZZ 006a6260 f   text_renderer.obj
 0002:000a4350       ?DrawText2DRight@TextRenderer@@QAAXMMMPBDZZ 006a6350 f   text_renderer.obj
 0002:000a4480       ?DrawText2DCentre@TextRenderer@@QAAXMMMPBDZZ 006a6480 f   text_renderer.obj
 0002:000a45c0       ?DrawText3DSimple@TextRenderer@@QAEXABVVector3@@MPBD@Z 006a65c0 f   text_renderer.obj
 0002:000a4c10       ?GetRight@Camera@@QAE?AVVector3@@XZ 006a6c10 f i text_renderer.obj
 0002:000a4c80       ??0SaveGLFontDrawAttributes@?A0x96a9d5da@@QAE@XZ 006a6c80 f i text_renderer.obj
 0002:000a4de0       ??0SaveGLEnabled@?A0x96a9d5da@@QAE@I@Z 006a6de0 f i text_renderer.obj
 0002:000a4e60       ??1SaveGLEnabled@?A0x96a9d5da@@QAE@XZ 006a6e60 f i text_renderer.obj
 0002:000a4ef0       ??0SaveGLTex2DParamI@?A0x96a9d5da@@QAE@I@Z 006a6ef0 f i text_renderer.obj
 0002:000a4f70       ??1SaveGLTex2DParamI@?A0x96a9d5da@@QAE@XZ 006a6f70 f i text_renderer.obj
 0002:000a4fe0       ??0SaveGLBlendFunc@?A0x96a9d5da@@QAE@XZ 006a6fe0 f i text_renderer.obj
 0002:000a5070       ??1SaveGLBlendFunc@?A0x96a9d5da@@QAE@XZ 006a7070 f i text_renderer.obj
 0002:000a50e0       ??0SaveGLColour@?A0x96a9d5da@@QAE@XZ 006a70e0 f i text_renderer.obj
 0002:000a5150       ??1SaveGLColour@?A0x96a9d5da@@QAE@XZ 006a7150 f i text_renderer.obj
 0002:000a51b0       ??1SaveGLFontDrawAttributes@?A0x96a9d5da@@QAE@XZ 006a71b0 f i text_renderer.obj
 0002:000a52e0       ?DrawText3D@TextRenderer@@QAAXABVVector3@@MPBDZZ 006a72e0 f   text_renderer.obj
 0002:000a53c0       ?DrawText3DCentre@TextRenderer@@QAAXABVVector3@@MPBDZZ 006a73c0 f   text_renderer.obj
 0002:000a5570       ?DrawText3DRight@TextRenderer@@QAAXABVVector3@@MPBDZZ 006a7570 f   text_renderer.obj
 0002:000a5710       ?DrawText3D@TextRenderer@@QAAXABVVector3@@00MPBDZZ 006a7710 f   text_renderer.obj
 0002:000a5df0       ??ZVector3@@QAEABV0@ABV0@@Z 006a7df0 f i text_renderer.obj
 0002:000a5e70       ?GetTextWidth@TextRenderer@@QAEMIM@Z 006a7e70 f   text_renderer.obj
 0002:000a5ee0       ??0TextureUV@@QAE@XZ       006a7ee0 f   texture_uv.obj
 0002:000a5f20       ??0TextureUV@@QAE@MM@Z     006a7f20 f   texture_uv.obj
 0002:000a5f70       ?Set@TextureUV@@QAEXMM@Z   006a7f70 f   texture_uv.obj
 0002:000a5fc0       ??HTextureUV@@QBE?AV0@ABV0@@Z 006a7fc0 f   texture_uv.obj
 0002:000a6060       ??GTextureUV@@QBE?AV0@ABV0@@Z 006a8060 f   texture_uv.obj
 0002:000a6100       ??DTextureUV@@QBE?AV0@M@Z  006a8100 f   texture_uv.obj
 0002:000a61a0       ??KTextureUV@@QBE?AV0@M@Z  006a81a0 f   texture_uv.obj
 0002:000a6240       ??4TextureUV@@QAEABV0@ABV0@@Z 006a8240 f   texture_uv.obj
 0002:000a62a0       ??XTextureUV@@QAEABV0@M@Z  006a82a0 f   texture_uv.obj
 0002:000a6300       ??_0TextureUV@@QAEABV0@M@Z 006a8300 f   texture_uv.obj
 0002:000a6370       ??YTextureUV@@QAEABV0@ABV0@@Z 006a8370 f   texture_uv.obj
 0002:000a63e0       ??ZTextureUV@@QAEABV0@ABV0@@Z 006a83e0 f   texture_uv.obj
 0002:000a6450       ?GetData@TextureUV@@QAEPAMXZ 006a8450 f   texture_uv.obj
 0002:000a6490       ?InitialiseOGLExtensions@@YAXXZ 006a8490 f   ogl_extensions.obj
 0002:000a6690       ?IsOGLExtensionSupported@@YAHPBD@Z 006a8690 f   ogl_extensions.obj
 0002:000a67c0       ?WndProc@@YGJPAUHWND__@@IIJ@Z 006a87c0 f   window_manager.obj
 0002:000a6880       ??0WindowManager@@QAE@XZ   006a8880 f   window_manager.obj
 0002:000a6a10       ??0WindowManagerWin32@@QAE@XZ 006a8a10 f i window_manager.obj
 0002:000a6a70       ??1WindowManager@@QAE@XZ   006a8a70 f   window_manager.obj
 0002:000a6b10       ?SaveDesktop@WindowManager@@QAEXXZ 006a8b10 f   window_manager.obj
 0002:000a6c30       ?RestoreDesktop@WindowManager@@QAEXXZ 006a8c30 f   window_manager.obj
 0002:000a6e20       ?EnableOpenGL@WindowManager@@IAE_NHH@Z 006a8e20 f   window_manager.obj
 0002:000a6fd0       ?DisableOpenGL@WindowManager@@IAEXXZ 006a8fd0 f   window_manager.obj
 0002:000a7080       ?GetResolutionId@WindowManager@@QAEHHH@Z 006a9080 f   window_manager.obj
 0002:000a7130       ?ListAllDisplayModes@WindowManager@@IAEXXZ 006a9130 f   window_manager.obj
 0002:000a73b0       ??0Resolution@@QAE@HH@Z    006a93b0 f i window_manager.obj
 0002:000a7420       ?GetResolution@WindowManager@@QAEPAVResolution@@H@Z 006a9420 f   window_manager.obj
 0002:000a74a0       ?Windowed@WindowManager@@QAE_NXZ 006a94a0 f   window_manager.obj
 0002:000a74e0       ?CreateWin@WindowManager@@QAE_NHH_NHHH0@Z 006a94e0 f   window_manager.obj
 0002:000a7970       ?DestroyWin@WindowManager@@QAEXXZ 006a9970 f   window_manager.obj
 0002:000a79e0       ?Flip@WindowManager@@QAEXXZ 006a99e0 f   window_manager.obj
 0002:000a7a50       ?NastyPollForMessages@WindowManager@@QAEXXZ 006a9a50 f   window_manager.obj
 0002:000a7b30       ?NastySetMousePos@WindowManager@@QAEXHH@Z 006a9b30 f   window_manager.obj
 0002:000a7c80       ?NastyMoveMouse@WindowManager@@QAEXHH@Z 006a9c80 f   window_manager.obj
 0002:000a7d60       ?Captured@WindowManager@@QAE_NXZ 006a9d60 f   window_manager.obj
 0002:000a7da0       ?CaptureMouse@WindowManager@@QAEXXZ 006a9da0 f   window_manager.obj
 0002:000a7e10       ?EnsureMouseCaptured@WindowManager@@QAEXXZ 006a9e10 f   window_manager.obj
 0002:000a7e70       ?UncaptureMouse@WindowManager@@QAEXXZ 006a9e70 f   window_manager.obj
 0002:000a7ed0       ?EnsureMouseUncaptured@WindowManager@@QAEXXZ 006a9ed0 f   window_manager.obj
 0002:000a7f30       ?HideMousePointer@WindowManager@@QAEXXZ 006a9f30 f   window_manager.obj
 0002:000a7fa0       ?UnhideMousePointer@WindowManager@@QAEXXZ 006a9fa0 f   window_manager.obj
 0002:000a8010       ?WindowMoved@WindowManager@@QAEXXZ 006aa010 f   window_manager.obj
 0002:000a8060       ?SuggestDefaultRes@WindowManager@@QAEXPAH000@Z 006aa060 f   window_manager.obj
 0002:000a80d0       ?OpenWebsite@WindowManager@@SAXPAD@Z 006aa0d0 f   window_manager.obj
 0002:000a8140       _WinMain@16                006aa140 f   window_manager.obj
 0002:000a8200       ?FindData@?$LList@H@@QAEHABH@Z 006aa200 f i window_manager.obj
 0002:000a82b0       ??0?$LList@PAVResolution@@@@QAE@XZ 006aa2b0 f i window_manager.obj
 0002:000a8330       ??1?$LList@PAVResolution@@@@QAE@XZ 006aa330 f i window_manager.obj
 0002:000a8380       ?PutDataAtEnd@?$LList@PAVResolution@@@@QAEXABQAVResolution@@@Z 006aa380 f i window_manager.obj
 0002:000a8510       ?Empty@?$LList@PAVResolution@@@@QAEXXZ 006aa510 f i window_manager.obj
 0002:000a8610       ??0?$LListItem@PAVResolution@@@@QAE@XZ 006aa610 f i window_manager.obj
 0002:000a8670       ??_G?$LListItem@PAVResolution@@@@QAEPAXI@Z 006aa670 f i window_manager.obj
 0002:000a86e0       ??1?$LListItem@PAVResolution@@@@QAE@XZ 006aa6e0 f i window_manager.obj
 0002:000a8720       ??0BinaryReader@@QAE@XZ    006aa720 f   binary_stream_readers.obj
 0002:000a8780       ??_GBinaryReader@@UAEPAXI@Z 006aa780 f i binary_stream_readers.obj
 0002:000a8780       ??_EBinaryReader@@UAEPAXI@Z 006aa780 f i binary_stream_readers.obj
 0002:000a87f0       ??1BinaryReader@@UAE@XZ    006aa7f0 f   binary_stream_readers.obj
 0002:000a8830       ??0BinaryFileReader@@QAE@PBD@Z 006aa830 f   binary_stream_readers.obj
 0002:000a8940       ??_GBinaryFileReader@@UAEPAXI@Z 006aa940 f i binary_stream_readers.obj
 0002:000a8940       ??_EBinaryFileReader@@UAEPAXI@Z 006aa940 f i binary_stream_readers.obj
 0002:000a89b0       ??1BinaryFileReader@@UAE@XZ 006aa9b0 f   binary_stream_readers.obj
 0002:000a8a20       ?IsOpen@BinaryFileReader@@UAE_NXZ 006aaa20 f   binary_stream_readers.obj
 0002:000a8a70       ?GetFileType@BinaryFileReader@@UAEPADXZ 006aaa70 f   binary_stream_readers.obj
 0002:000a8b00       ?ReadS8@BinaryFileReader@@UAECXZ 006aab00 f   binary_stream_readers.obj
 0002:000a8b80       ?ReadU8@BinaryFileReader@@UAEEXZ 006aab80 f   binary_stream_readers.obj
 0002:000a8c00       ?ReadS16@BinaryFileReader@@UAEFXZ 006aac00 f   binary_stream_readers.obj
 0002:000a8ca0       ?ReadS32@BinaryFileReader@@UAEHXZ 006aaca0 f   binary_stream_readers.obj
 0002:000a8da0       ?ReadBytes@BinaryFileReader@@UAEIIPAE@Z 006aada0 f   binary_stream_readers.obj
 0002:000a8e30       ?Seek@BinaryFileReader@@UAEHHH@Z 006aae30 f   binary_stream_readers.obj
 0002:000a8ea0       ?Tell@BinaryFileReader@@UAEHXZ 006aaea0 f   binary_stream_readers.obj
 0002:000a8f00       ??0BinaryDataReader@@QAE@PBEIPBD@Z 006aaf00 f   binary_stream_readers.obj
 0002:000a8fb0       ??_EBinaryDataReader@@UAEPAXI@Z 006aafb0 f i binary_stream_readers.obj
 0002:000a8fb0       ??_GBinaryDataReader@@UAEPAXI@Z 006aafb0 f i binary_stream_readers.obj
 0002:000a9020       ??1BinaryDataReader@@UAE@XZ 006ab020 f   binary_stream_readers.obj
 0002:000a9080       ?IsOpen@BinaryDataReader@@UAE_NXZ 006ab080 f   binary_stream_readers.obj
 0002:000a90c0       ?GetFileType@BinaryDataReader@@UAEPADXZ 006ab0c0 f   binary_stream_readers.obj
 0002:000a9150       ?ReadS8@BinaryDataReader@@UAECXZ 006ab150 f   binary_stream_readers.obj
 0002:000a91f0       ?ReadU8@BinaryDataReader@@UAEEXZ 006ab1f0 f   binary_stream_readers.obj
 0002:000a9290       ?ReadS16@BinaryDataReader@@UAEFXZ 006ab290 f   binary_stream_readers.obj
 0002:000a9370       ?ReadS32@BinaryDataReader@@UAEHXZ 006ab370 f   binary_stream_readers.obj
 0002:000a9500       ?ReadBytes@BinaryDataReader@@UAEIIPAE@Z 006ab500 f   binary_stream_readers.obj
 0002:000a95e0       ?Seek@BinaryDataReader@@UAEHHH@Z 006ab5e0 f   binary_stream_readers.obj
 0002:000a96c0       ?Tell@BinaryDataReader@@UAEHXZ 006ab6c0 f   binary_stream_readers.obj
 0002:000a9700       ?GetSize@BinaryReader@@QAEHXZ 006ab700 f   binary_stream_readers.obj
 0002:000a97d0       ??0FileWriter@@QAE@PBD_N@Z 006ab7d0 f   file_writer.obj
 0002:000a98a0       ??1FileWriter@@QAE@XZ      006ab8a0 f   file_writer.obj
 0002:000a9900       ?printf@FileWriter@@QAAHPBDZZ 006ab900 f   file_writer.obj
 0002:000a9af0       ?ListDirectory@@YAPAV?$LList@PAD@@PBD0_N@Z 006abaf0 f   filesys_utils.obj
 0002:000a9f20       ?ListSubDirectoryNames@@YAPAV?$LList@PAD@@PBD@Z 006abf20 f   filesys_utils.obj
 0002:000aa160       ?DoesFileExist@@YA_NPBD@Z  006ac160 f   filesys_utils.obj
 0002:000aa1e0       ?GetDirectoryPart@@YAPBDPBD@Z 006ac1e0 f   filesys_utils.obj
 0002:000aa270       ?GetFilenamePart@@YAPBDPBD@Z 006ac270 f   filesys_utils.obj
 0002:000aa2f0       ?GetExtensionPart@@YAPBDPBD@Z 006ac2f0 f   filesys_utils.obj
 0002:000aa350       ?RemoveExtension@@YAPBDPBD@Z 006ac350 f   filesys_utils.obj
 0002:000aa3d0       ?AreFilesIdentical@@YA_NPBD0@Z 006ac3d0 f   filesys_utils.obj
 0002:000aa540       ?CreateDirectoryA@@YA_NPBD@Z 006ac540 f   filesys_utils.obj
 0002:000aa5c0       ?DeleteThisFile@@YAXPBD@Z  006ac5c0 f   filesys_utils.obj
 0002:000aa620       ?IsDirectory@@YA_NPBD@Z    006ac620 f   filesys_utils.obj
 0002:000aa650       ??0EncryptedFileWriter@@QAE@PBD@Z 006ac650 f   filesys_utils.obj
 0002:000aa6d0       ??1EncryptedFileWriter@@QAE@XZ 006ac6d0 f   filesys_utils.obj
 0002:000aa730       ?WriteLine@EncryptedFileWriter@@QAEXPAD@Z 006ac730 f   filesys_utils.obj
 0002:000aa860       ??0TextReader@@QAE@XZ      006ac860 f   text_stream_readers.obj
 0002:000aa950       ??_GTextReader@@UAEPAXI@Z  006ac950 f i text_stream_readers.obj
 0002:000aa950       ??_ETextReader@@UAEPAXI@Z  006ac950 f i text_stream_readers.obj
 0002:000aa9c0       ??1TextReader@@UAE@XZ      006ac9c0 f   text_stream_readers.obj
 0002:000aaa40       ?DoubleMaxLineLen@TextReader@@IAEXXZ 006aca40 f   text_stream_readers.obj
 0002:000aab60       ?CleanLine@TextReader@@IAEXXZ 006acb60 f   text_stream_readers.obj
 0002:000aae60       ?SetSeperatorChars@TextReader@@QAEXPBD@Z 006ace60 f   text_stream_readers.obj
 0002:000aaed0       ?SetDefaultSeperatorChars@TextReader@@QAEXXZ 006aced0 f   text_stream_readers.obj
 0002:000aaf30       ?TokenAvailable@TextReader@@QAE_NXZ 006acf30 f   text_stream_readers.obj
 0002:000aafe0       ?GetFilename@TextReader@@QAEPBDXZ 006acfe0 f   text_stream_readers.obj
 0002:000ab020       ?GetNextToken@TextReader@@QAEPADXZ 006ad020 f   text_stream_readers.obj
 0002:000ab1e0       ?GetRestOfLine@TextReader@@QAEPADXZ 006ad1e0 f   text_stream_readers.obj
 0002:000ab2c0       ??0TextFileReader@@QAE@PBD@Z 006ad2c0 f   text_stream_readers.obj
 0002:000ab360       ??_GTextFileReader@@UAEPAXI@Z 006ad360 f i text_stream_readers.obj
 0002:000ab360       ??_ETextFileReader@@UAEPAXI@Z 006ad360 f i text_stream_readers.obj
 0002:000ab3d0       ??0TextFileReader@@QAE@ABV?$basic_string@DU?$char_traits@D@std@@V?$allocator@D@2@@std@@@Z 006ad3d0 f   text_stream_readers.obj
 0002:000ab4d0       ??1TextFileReader@@UAE@XZ  006ad4d0 f   text_stream_readers.obj
 0002:000ab550       ?IsOpen@TextFileReader@@UAE_NXZ 006ad550 f   text_stream_readers.obj
 0002:000ab5d0       ?ReadLine@TextFileReader@@UAE_NXZ 006ad5d0 f   text_stream_readers.obj
 0002:000ab740       ??0TextDataReader@@QAE@PBDI0@Z 006ad740 f   text_stream_readers.obj
 0002:000ab7f0       ??_GTextDataReader@@UAEPAXI@Z 006ad7f0 f i text_stream_readers.obj
 0002:000ab7f0       ??_ETextDataReader@@UAEPAXI@Z 006ad7f0 f i text_stream_readers.obj
 0002:000ab860       ?IsOpen@TextDataReader@@UAE_NXZ 006ad860 f   text_stream_readers.obj
 0002:000ab8a0       ?ReadLine@TextDataReader@@UAE_NXZ 006ad8a0 f   text_stream_readers.obj
 0002:000aba50       ??0ControlBindings@@QAE@XZ 006ada50 f   control_bindings.obj
 0002:000abb50       ??_F?$auto_vector@$$CBUInputSpec@@@@QAEXXZ 006adb50 f i control_bindings.obj
 0002:000abbb0       ?getControlID@ControlBindings@@SAHABV?$basic_string@DU?$char_traits@D@std@@V?$allocator@D@2@@std@@@Z 006adbb0 f   control_bindings.obj
 0002:000abc70       ?getControlString@ControlBindings@@SAXW4ControlType@@AAV?$basic_string@DU?$char_traits@D@std@@V?$allocator@D@2@@std@@@Z 006adc70 f   control_bindings.obj
 0002:000abd00       ?isAcceptibleInputType@ControlBindings@@SA_NHH@Z 006add00 f   control_bindings.obj
 0002:000abd80       ??AControlBindings@@QBEABV?$auto_vector@$$CBUInputSpec@@@@W4ControlType@@@Z 006add80 f   control_bindings.obj
 0002:000abdd0       ??AControlBindings@@QBEABV?$auto_vector@$$CBUInputSpec@@@@H@Z 006addd0 f   control_bindings.obj
 0002:000abe60       ?getIcon@ControlBindings@@QBEABV?$basic_string@DU?$char_traits@D@std@@V?$allocator@D@2@@std@@W4ControlType@@@Z 006ade60 f   control_bindings.obj
 0002:000abeb0       ?getIcon@ControlBindings@@QBEABV?$basic_string@DU?$char_traits@D@std@@V?$allocator@D@2@@std@@H@Z 006adeb0 f   control_bindings.obj
 0002:000abf50       ?setIcon@ControlBindings@@QAEXHABV?$basic_string@DU?$char_traits@D@std@@V?$allocator@D@2@@std@@@Z 006adf50 f   control_bindings.obj
 0002:000abff0       ?bind@ControlBindings@@QAE_NHABUInputSpec@@_N@Z 006adff0 f   control_bindings.obj
 0002:000ac220       ?Advance@ControlBindings@@QAEXXZ 006ae220 f   control_bindings.obj
 0002:000ac290       ?Clear@ControlBindings@@QAEXXZ 006ae290 f   control_bindings.obj
 0002:000ac320       ?suppress@ControlBindings@@QAEXW4ControlType@@@Z 006ae320 f   control_bindings.obj
 0002:000ac370       ?isActive@ControlBindings@@QBE_NW4ControlType@@@Z 006ae370 f   control_bindings.obj
 0002:000ac3c0       ??4?$basic_string@DU?$char_traits@D@std@@V?$allocator@D@2@@std@@QAEAAV01@PBD@Z 006ae3c0 f i control_bindings.obj
 0002:000ac420       ?size@?$auto_vector@$$CBUInputSpec@@@@QBEIXZ 006ae420 f i control_bindings.obj
 0002:000ac470       ??0?$auto_ptr@$$CBUInputSpec@@@std@@QAE@PBUInputSpec@@@Z 006ae470 f i control_bindings.obj
 0002:000ac4c0       ??0?$auto_ptr@$$CBUInputSpec@@@std@@QAE@AAV01@@Z 006ae4c0 f i control_bindings.obj
 0002:000ac520       ??1?$auto_ptr@$$CBUInputSpec@@@std@@QAE@XZ 006ae520 f i control_bindings.obj
 0002:000ac590       ?size@?$vector@PBUInputSpec@@V?$allocator@PBUInputSpec@@@std@@@std@@QBEIXZ 006ae590 f i control_bindings.obj
 0002:000ac600       ?release@?$auto_ptr@$$CBUInputSpec@@@std@@QAEPBUInputSpec@@XZ 006ae600 f i control_bindings.obj
 0002:000ac650       ??0?$auto_vector@$$CBUInputSpec@@@@QAE@I@Z 006ae650 f i control_bindings.obj
 0002:000ac700       ??1?$auto_vector@$$CBUInputSpec@@@@QAE@XZ 006ae700 f i control_bindings.obj
 0002:000ac7a0       ?erase@?$auto_vector@$$CBUInputSpec@@@@QAEXI@Z 006ae7a0 f i control_bindings.obj
 0002:000ac890       ?clear@?$auto_vector@$$CBUInputSpec@@@@QAEXXZ 006ae890 f i control_bindings.obj
 0002:000ac9b0       ?insert@?$auto_vector@$$CBUInputSpec@@@@QAEXIV?$auto_ptr@$$CBUInputSpec@@@std@@@Z 006ae9b0 f i control_bindings.obj
 0002:000acaf0       ?push_back@?$auto_vector@$$CBUInputSpec@@@@QAEXV?$auto_ptr@$$CBUInputSpec@@@std@@@Z 006aeaf0 f i control_bindings.obj
 0002:000acbc0       ??1?$_Vector_iterator@PBUInputSpec@@V?$allocator@PBUInputSpec@@@std@@@std@@QAE@XZ 006aebc0 f i control_bindings.obj
 0002:000acc10       ??1?$_Vector_const_iterator@PBUInputSpec@@V?$allocator@PBUInputSpec@@@std@@@std@@QAE@XZ 006aec10 f i control_bindings.obj
 0002:000acc60       ??1?$_Ranit@PBUInputSpec@@HPBQBU1@ABQBU1@@std@@QAE@XZ 006aec60 f i control_bindings.obj
 0002:000accb0       ?begin@?$auto_vector@$$CBUInputSpec@@@@QAE?AV?$_Vector_iterator@PBUInputSpec@@V?$allocator@PBUInputSpec@@@std@@@std@@XZ 006aecb0 f i control_bindings.obj
 0002:000acd30       ?end@?$auto_vector@$$CBUInputSpec@@@@QAE?AV?$_Vector_iterator@PBUInputSpec@@V?$allocator@PBUInputSpec@@@std@@@std@@XZ 006aed30 f i control_bindings.obj
 0002:000acdb0       ??0?$vector@PBUInputSpec@@V?$allocator@PBUInputSpec@@@std@@@std@@QAE@XZ 006aedb0 f i control_bindings.obj
 0002:000ace70       ??1?$vector@PBUInputSpec@@V?$allocator@PBUInputSpec@@@std@@@std@@QAE@XZ 006aee70 f i control_bindings.obj
 0002:000acf10       ?reserve@?$vector@PBUInputSpec@@V?$allocator@PBUInputSpec@@@std@@@std@@QAEXI@Z 006aef10 f i control_bindings.obj
 0002:000ad130       ??A?$vector@PBUInputSpec@@V?$allocator@PBUInputSpec@@@std@@@std@@QAEAAPBUInputSpec@@I@Z 006af130 f i control_bindings.obj
 0002:000ad270       ?push_back@?$vector@PBUInputSpec@@V?$allocator@PBUInputSpec@@@std@@@std@@QAEXABQBUInputSpec@@@Z 006af270 f i control_bindings.obj
 0002:000ad360       ?insert@?$vector@PBUInputSpec@@V?$allocator@PBUInputSpec@@@std@@@std@@QAE?AV?$_Vector_iterator@PBUInputSpec@@V?$allocator@PBUInputSpec@@@std@@@2@V32@ABQBUInputSpec@@@Z 006af360 f i control_bindings.obj
 0002:000ad560       ?erase@?$vector@PBUInputSpec@@V?$allocator@PBUInputSpec@@@std@@@std@@QAE?AV?$_Vector_iterator@PBUInputSpec@@V?$allocator@PBUInputSpec@@@std@@@2@V32@@Z 006af560 f i control_bindings.obj
 0002:000ad6e0       ?clear@?$vector@PBUInputSpec@@V?$allocator@PBUInputSpec@@@std@@@std@@QAEXXZ 006af6e0 f i control_bindings.obj
 0002:000ad7f0       ?get@?$auto_ptr@$$CBUInputSpec@@@std@@QBEPBUInputSpec@@XZ 006af7f0 f i control_bindings.obj
 0002:000ad830       ??1?$_Vector_val@PBUInputSpec@@V?$allocator@PBUInputSpec@@@std@@@std@@QAE@XZ 006af830 f i control_bindings.obj
 0002:000ad880       ??0?$_Vector_iterator@PBUInputSpec@@V?$allocator@PBUInputSpec@@@std@@@std@@QAE@ABV01@@Z 006af880 f i control_bindings.obj
 0002:000ad8e0       ??0?$_Vector_const_iterator@PBUInputSpec@@V?$allocator@PBUInputSpec@@@std@@@std@@QAE@ABV01@@Z 006af8e0 f i control_bindings.obj
 0002:000ad950       ??0?$_Ranit@PBUInputSpec@@HPBQBU1@ABQBU1@@std@@QAE@ABU01@@Z 006af950 f i control_bindings.obj
 0002:000ad9b0       ?capacity@?$vector@PBUInputSpec@@V?$allocator@PBUInputSpec@@@std@@@std@@QBEIXZ 006af9b0 f i control_bindings.obj
 0002:000ada20       ?begin@?$vector@PBUInputSpec@@V?$allocator@PBUInputSpec@@@std@@@std@@QAE?AV?$_Vector_iterator@PBUInputSpec@@V?$allocator@PBUInputSpec@@@std@@@2@XZ 006afa20 f i control_bindings.obj
 0002:000adab0       ?end@?$vector@PBUInputSpec@@V?$allocator@PBUInputSpec@@@std@@@std@@QAE?AV?$_Vector_iterator@PBUInputSpec@@V?$allocator@PBUInputSpec@@@std@@@2@XZ 006afab0 f i control_bindings.obj
 0002:000adb40       ?max_size@?$vector@PBUInputSpec@@V?$allocator@PBUInputSpec@@@std@@@std@@QBEIXZ 006afb40 f i control_bindings.obj
 0002:000adba0       ?erase@?$vector@PBUInputSpec@@V?$allocator@PBUInputSpec@@@std@@@std@@QAE?AV?$_Vector_iterator@PBUInputSpec@@V?$allocator@PBUInputSpec@@@std@@@2@V32@0@Z 006afba0 f i control_bindings.obj
 0002:000add50       ?_Buy@?$vector@PBUInputSpec@@V?$allocator@PBUInputSpec@@@std@@@std@@IAE_NI@Z 006afd50 f i control_bindings.obj
 0002:000ade30       ?_Destroy@?$vector@PBUInputSpec@@V?$allocator@PBUInputSpec@@@std@@@std@@IAEXPAPBUInputSpec@@0@Z 006afe30 f i control_bindings.obj
 0002:000adea0       ?_Tidy@?$vector@PBUInputSpec@@V?$allocator@PBUInputSpec@@@std@@@std@@IAEXXZ 006afea0 f i control_bindings.obj
 0002:000adf70       ?_Insert_n@?$vector@PBUInputSpec@@V?$allocator@PBUInputSpec@@@std@@@std@@IAEXV?$_Vector_iterator@PBUInputSpec@@V?$allocator@PBUInputSpec@@@std@@@2@IABQBUInputSpec@@@Z 006aff70 f i control_bindings.obj
 0002:000ae4a0       ?_Ufill@?$vector@PBUInputSpec@@V?$allocator@PBUInputSpec@@@std@@@std@@IAEPAPBUInputSpec@@PAPBU3@IABQBU3@@Z 006b04a0 f i control_bindings.obj
 0002:000ae520       ?_Xlen@?$vector@PBUInputSpec@@V?$allocator@PBUInputSpec@@@std@@@std@@KAXXZ 006b0520 f i control_bindings.obj
 0002:000ae600       ?_Orphan_range@?$vector@PBUInputSpec@@V?$allocator@PBUInputSpec@@@std@@@std@@IBEXPAPBUInputSpec@@0@Z 006b0600 f i control_bindings.obj
 0002:000ae700       ??0?$_Vector_val@PBUInputSpec@@V?$allocator@PBUInputSpec@@@std@@@std@@IAE@V?$allocator@PBUInputSpec@@@1@@Z 006b0700 f i control_bindings.obj
 0002:000ae770       ??0?$allocator@PBUInputSpec@@@std@@QAE@XZ 006b0770 f i control_bindings.obj
 0002:000ae7b0       ?deallocate@?$allocator@PBUInputSpec@@@std@@QAEXPAPBUInputSpec@@I@Z 006b07b0 f i control_bindings.obj
 0002:000ae810       ?allocate@?$allocator@PBUInputSpec@@@std@@QAEPAPBUInputSpec@@I@Z 006b0810 f i control_bindings.obj
 0002:000ae870       ??0?$_Vector_iterator@PBUInputSpec@@V?$allocator@PBUInputSpec@@@std@@@std@@QAE@PAPBUInputSpec@@PBV_Container_base@1@@Z 006b0870 f i control_bindings.obj
 0002:000ae8d0       ??H?$_Vector_iterator@PBUInputSpec@@V?$allocator@PBUInputSpec@@@std@@@std@@QBE?AV01@H@Z 006b08d0 f i control_bindings.obj
 0002:000ae9f0       ??G?$_Vector_iterator@PBUInputSpec@@V?$allocator@PBUInputSpec@@@std@@@std@@QBEHABV?$_Vector_const_iterator@PBUInputSpec@@V?$allocator@PBUInputSpec@@@std@@@1@@Z 006b09f0 f i control_bindings.obj
 0002:000aea50       ??0?$allocator@PBUInputSpec@@@std@@QAE@ABV01@@Z 006b0a50 f i control_bindings.obj
 0002:000aea90       ?max_size@?$allocator@PBUInputSpec@@@std@@QBEIXZ 006b0a90 f i control_bindings.obj
 0002:000aeb00       ??Y?$_Vector_iterator@PBUInputSpec@@V?$allocator@PBUInputSpec@@@std@@@std@@QAEAAV01@H@Z 006b0b00 f i control_bindings.obj
 0002:000aeb60       ??0?$_Vector_const_iterator@PBUInputSpec@@V?$allocator@PBUInputSpec@@@std@@@std@@QAE@PAPBUInputSpec@@PBV_Container_base@1@@Z 006b0b60 f i control_bindings.obj
 0002:000aec90       ??G?$_Vector_const_iterator@PBUInputSpec@@V?$allocator@PBUInputSpec@@@std@@@std@@QBEHABV01@@Z 006b0c90 f i control_bindings.obj
 0002:000aed00       ??9?$_Vector_const_iterator@PBUInputSpec@@V?$allocator@PBUInputSpec@@@std@@@std@@QBE_NABV01@@Z 006b0d00 f i control_bindings.obj
 0002:000aed70       ??M?$_Vector_const_iterator@PBUInputSpec@@V?$allocator@PBUInputSpec@@@std@@@std@@QBE_NABV01@@Z 006b0d70 f i control_bindings.obj
 0002:000aede0       ??0?$_Ranit@PBUInputSpec@@HPBQBU1@ABQBU1@@std@@QAE@XZ 006b0de0 f i control_bindings.obj
 0002:000aee40       ??Y?$_Vector_const_iterator@PBUInputSpec@@V?$allocator@PBUInputSpec@@@std@@@std@@QAEAAV01@H@Z 006b0e40 f i control_bindings.obj
 0002:000aef90       ??8?$_Vector_const_iterator@PBUInputSpec@@V?$allocator@PBUInputSpec@@@std@@@std@@QBE_NABV01@@Z 006b0f90 f i control_bindings.obj
 0002:000af000       ?_Compat@?$_Vector_const_iterator@PBUInputSpec@@V?$allocator@PBUInputSpec@@@std@@@std@@QBEXABV12@@Z 006b1000 f i control_bindings.obj
 0002:000af0d0       ?ToIter@?$auto_vector@$$CBUInputSpec@@@@QAE?AV?$_Vector_iterator@PBUInputSpec@@V?$allocator@PBUInputSpec@@@std@@@std@@I@Z 006b10d0 f i control_bindings.obj
 0002:000af1d0       ??$for_each@V?$_Vector_iterator@PBUInputSpec@@V?$allocator@PBUInputSpec@@@std@@@std@@V?$DeletePtr@$$CBUInputSpec@@@@@std@@YA?AV?$DeletePtr@$$CBUInputSpec@@@@V?$_Vector_iterator@PBUInputSpec@@V?$allocator@PBUInputSpec@@@std@@@0@0V1@@Z 006b11d0 f i control_bindings.obj
 0002:000af3f0       ??$_Umove@V?$_Vector_iterator@PBUInputSpec@@V?$allocator@PBUInputSpec@@@std@@@std@@@?$vector@PBUInputSpec@@V?$allocator@PBUInputSpec@@@std@@@std@@IAEPAPBUInputSpec@@V?$_Vector_iterator@PBUInputSpec@@V?$allocator@PBUInputSpec@@@std@@@1@0PAPBU2@@Z 006b13f0 f i control_bindings.obj
 0002:000af530       ??$unchecked_copy@PAPBUInputSpec@@PAPBU1@@stdext@@YAPAPBUInputSpec@@PAPBU1@00@Z 006b1530 f i control_bindings.obj
 0002:000af600       ??$_Destroy_range@PBUInputSpec@@V?$allocator@PBUInputSpec@@@std@@@std@@YAXPAPBUInputSpec@@0AAV?$allocator@PBUInputSpec@@@0@@Z 006b1600 f i control_bindings.obj
 0002:000af680       ??$_Umove@PAPBUInputSpec@@@?$vector@PBUInputSpec@@V?$allocator@PBUInputSpec@@@std@@@std@@IAEPAPBUInputSpec@@PAPBU2@00@Z 006b1680 f i control_bindings.obj
 0002:000af6f0       ??$fill@PAPBUInputSpec@@PBU1@@std@@YAXPAPBUInputSpec@@0ABQBU1@@Z 006b16f0 f i control_bindings.obj
 0002:000af760       ??$_Unchecked_move_backward@PAPBUInputSpec@@PAPBU1@@stdext@@YAPAPBUInputSpec@@PAPBU1@00@Z 006b1760 f i control_bindings.obj
 0002:000af820       ??$unchecked_uninitialized_fill_n@PAPBUInputSpec@@IPBU1@V?$allocator@PBUInputSpec@@@std@@@stdext@@YAXPAPBUInputSpec@@IABQBU1@AAV?$allocator@PBUInputSpec@@@std@@@Z 006b1820 f i control_bindings.obj
 0002:000af8c0       ??$_Allocate@PBUInputSpec@@@std@@YAPAPBUInputSpec@@IPAPBU1@@Z 006b18c0 f i control_bindings.obj
 0002:000af960       ??D?$_Vector_iterator@PBUInputSpec@@V?$allocator@PBUInputSpec@@@std@@@std@@QBEAAPBUInputSpec@@XZ 006b1960 f i control_bindings.obj
 0002:000af9b0       ??E?$_Vector_iterator@PBUInputSpec@@V?$allocator@PBUInputSpec@@@std@@@std@@QAEAAV01@XZ 006b19b0 f i control_bindings.obj
 0002:000afa10       ??R?$DeletePtr@$$CBUInputSpec@@@@QAEXPBUInputSpec@@@Z 006b1a10 f i control_bindings.obj
 0002:000afa80       ??D?$_Vector_const_iterator@PBUInputSpec@@V?$allocator@PBUInputSpec@@@std@@@std@@QBEABQBUInputSpec@@XZ 006b1a80 f i control_bindings.obj
 0002:000afb70       ??E?$_Vector_const_iterator@PBUInputSpec@@V?$allocator@PBUInputSpec@@@std@@@std@@QAEAAV01@XZ 006b1b70 f i control_bindings.obj
 0002:000afc90       ??$_Debug_range@V?$_Vector_iterator@PBUInputSpec@@V?$allocator@PBUInputSpec@@@std@@@std@@@std@@YAXV?$_Vector_iterator@PBUInputSpec@@V?$allocator@PBUInputSpec@@@std@@@0@0PB_WI@Z 006b1c90 f i control_bindings.obj
 0002:000afdc0       ??$_Debug_pointer@V?$DeletePtr@$$CBUInputSpec@@@@@std@@YAXAAV?$DeletePtr@$$CBUInputSpec@@@@PB_WI@Z 006b1dc0 f i control_bindings.obj
 0002:000afdf0       ??$_Checked_base@V?$_Vector_iterator@PBUInputSpec@@V?$allocator@PBUInputSpec@@@std@@@std@@@std@@YA?AV?$_Vector_iterator@PBUInputSpec@@V?$allocator@PBUInputSpec@@@std@@@0@AAV10@@Z 006b1df0 f i control_bindings.obj
 0002:000afeb0       ??$_Unchecked_uninitialized_move@V?$_Vector_iterator@PBUInputSpec@@V?$allocator@PBUInputSpec@@@std@@@std@@PAPBUInputSpec@@V?$allocator@PBUInputSpec@@@2@@stdext@@YAPAPBUInputSpec@@V?$_Vector_iterator@PBUInputSpec@@V?$allocator@PBUInputSpec@@@std@@@std@@0PAPBU1@AAV?$allocator@PBUInputSpec@@@3@@Z 006b1eb0 f i control_bindings.obj
 0002:000b0020       ??$_Checked_base@PAPBUInputSpec@@@std@@YAPAPBUInputSpec@@AAPAPBU1@@Z 006b2020 f i control_bindings.obj
 0002:000b00b0       ??$_Iter_random@PAPBUInputSpec@@PAPBU1@@std@@YA?AUrandom_access_iterator_tag@0@ABQAPBUInputSpec@@0@Z 006b20b0 f i control_bindings.obj
 0002:000b0120       ??$_Ptr_cat@PAPBUInputSpec@@PAPBU1@@std@@YA?AU_Scalar_ptr_iterator_tag@0@AAPAPBUInputSpec@@0@Z 006b2120 f i control_bindings.obj
 0002:000b0190       ??$_Copy_opt@PAPBUInputSpec@@PAPBU1@Urandom_access_iterator_tag@std@@@std@@YAPAPBUInputSpec@@PAPBU1@00Urandom_access_iterator_tag@0@U_Scalar_ptr_iterator_tag@0@U_Range_checked_iterator_tag@0@@Z 006b2190 f i control_bindings.obj
 0002:000b0270       ??$_Destroy_range@PBUInputSpec@@V?$allocator@PBUInputSpec@@@std@@@std@@YAXPAPBUInputSpec@@0AAV?$allocator@PBUInputSpec@@@0@U_Scalar_ptr_iterator_tag@0@@Z 006b2270 f i control_bindings.obj
 0002:000b02a0       ??$_Unchecked_uninitialized_move@PAPBUInputSpec@@PAPBU1@V?$allocator@PBUInputSpec@@@std@@@stdext@@YAPAPBUInputSpec@@PAPBU1@00AAV?$allocator@PBUInputSpec@@@std@@@Z 006b22a0 f i control_bindings.obj
 0002:000b0350       ??$_Fill@PAPBUInputSpec@@PBU1@@std@@YAXPAPBUInputSpec@@0ABQBU1@@Z 006b2350 f i control_bindings.obj
 0002:000b03e0       ??$_Move_cat@PAPBUInputSpec@@@std@@YA?AU_Undefined_move_tag@0@ABQAPBUInputSpec@@@Z 006b23e0 f i control_bindings.obj
 0002:000b0450       ??$_Move_backward_opt@PAPBUInputSpec@@PAPBU1@Urandom_access_iterator_tag@std@@U_Undefined_move_tag@3@@std@@YAPAPBUInputSpec@@PAPBU1@00Urandom_access_iterator_tag@0@U_Undefined_move_tag@0@U_Range_checked_iterator_tag@0@@Z 006b2450 f i control_bindings.obj
 0002:000b04f0       ??$_Uninit_fill_n@PAPBUInputSpec@@IPBU1@V?$allocator@PBUInputSpec@@@std@@@std@@YAXPAPBUInputSpec@@IABQBU1@AAV?$allocator@PBUInputSpec@@@0@U_Scalar_ptr_iterator_tag@0@U_Range_checked_iterator_tag@0@@Z 006b24f0 f i control_bindings.obj
 0002:000b0550       ??$_Iter_cat@V?$_Vector_iterator@PBUInputSpec@@V?$allocator@PBUInputSpec@@@std@@@std@@@std@@YA?AUrandom_access_iterator_tag@0@ABV?$_Vector_iterator@PBUInputSpec@@V?$allocator@PBUInputSpec@@@std@@@0@@Z 006b2550 f i control_bindings.obj
 0002:000b05c0       ??$_Debug_range2@V?$_Vector_iterator@PBUInputSpec@@V?$allocator@PBUInputSpec@@@std@@@std@@@std@@YAXV?$_Vector_iterator@PBUInputSpec@@V?$allocator@PBUInputSpec@@@std@@@0@0PB_WIUrandom_access_iterator_tag@0@@Z 006b25c0 f i control_bindings.obj
 0002:000b06e0       ??$_Checked_base@V?$_Vector_iterator@PBUInputSpec@@V?$allocator@PBUInputSpec@@@std@@@std@@@std@@YA?AV?$_Vector_iterator@PBUInputSpec@@V?$allocator@PBUInputSpec@@@std@@@0@AAV10@U_Unchanged_checked_iterator_base_type_tag@0@@Z 006b26e0 f i control_bindings.obj
 0002:000b0750       ??$_Uninit_move@V?$_Vector_iterator@PBUInputSpec@@V?$allocator@PBUInputSpec@@@std@@@std@@PAPBUInputSpec@@V?$allocator@PBUInputSpec@@@2@U_Undefined_move_tag@2@@std@@YAPAPBUInputSpec@@V?$_Vector_iterator@PBUInputSpec@@V?$allocator@PBUInputSpec@@@std@@@0@0PAPBU1@AAV?$allocator@PBUInputSpec@@@0@U_Undefined_move_tag@0@U_Range_checked_iterator_tag@0@@Z 006b2750 f i control_bindings.obj
 0002:000b0880       ??$_Checked_base@PAPBUInputSpec@@@std@@YAPAPBUInputSpec@@AAPAPBU1@U_Unchanged_checked_iterator_base_type_tag@0@@Z 006b2880 f i control_bindings.obj
 0002:000b08c0       ??$_Debug_range@PAPBUInputSpec@@@std@@YAXPAPBUInputSpec@@0PB_WI@Z 006b28c0 f i control_bindings.obj
 0002:000b0940       ??$_Debug_pointer@PBUInputSpec@@@std@@YAXPAPBUInputSpec@@PB_WI@Z 006b2940 f i control_bindings.obj
 0002:000b09a0       ??$_Uninit_move@PAPBUInputSpec@@PAPBU1@V?$allocator@PBUInputSpec@@@std@@U_Undefined_move_tag@3@@std@@YAPAPBUInputSpec@@PAPBU1@00AAV?$allocator@PBUInputSpec@@@0@U_Undefined_move_tag@0@U_Range_checked_iterator_tag@0@@Z 006b29a0 f i control_bindings.obj
 0002:000b0a00       ??$_Copy_backward_opt@PAPBUInputSpec@@PAPBU1@Urandom_access_iterator_tag@std@@@std@@YAPAPBUInputSpec@@PAPBU1@00Urandom_access_iterator_tag@0@U_Scalar_ptr_iterator_tag@0@U_Range_checked_iterator_tag@0@@Z 006b2a00 f i control_bindings.obj
 0002:000b0ae0       ??$unchecked_fill_n@PAPBUInputSpec@@IPBU1@@stdext@@YAXPAPBUInputSpec@@IABQBU1@@Z 006b2ae0 f i control_bindings.obj
 0002:000b0b70       ??$_Debug_pointer@V?$_Vector_iterator@PBUInputSpec@@V?$allocator@PBUInputSpec@@@std@@@std@@@std@@YAXAAV?$_Vector_iterator@PBUInputSpec@@V?$allocator@PBUInputSpec@@@std@@@0@PB_WI@Z 006b2b70 f i control_bindings.obj
 0002:000b0ba0       ??$unchecked_uninitialized_copy@V?$_Vector_iterator@PBUInputSpec@@V?$allocator@PBUInputSpec@@@std@@@std@@PAPBUInputSpec@@V?$allocator@PBUInputSpec@@@2@@stdext@@YAPAPBUInputSpec@@V?$_Vector_iterator@PBUInputSpec@@V?$allocator@PBUInputSpec@@@std@@@std@@0PAPBU1@AAV?$allocator@PBUInputSpec@@@3@@Z 006b2ba0 f i control_bindings.obj
 0002:000b0d10       ??$_Iter_cat@PAPBUInputSpec@@@std@@YA?AUrandom_access_iterator_tag@0@ABQAPBUInputSpec@@@Z 006b2d10 f i control_bindings.obj
 0002:000b0d80       ??$_Debug_range2@PAPBUInputSpec@@@std@@YAXPAPBUInputSpec@@0PB_WIUrandom_access_iterator_tag@0@@Z 006b2d80 f i control_bindings.obj
 0002:000b0e20       ??$unchecked_uninitialized_copy@PAPBUInputSpec@@PAPBU1@V?$allocator@PBUInputSpec@@@std@@@stdext@@YAPAPBUInputSpec@@PAPBU1@00AAV?$allocator@PBUInputSpec@@@std@@@Z 006b2e20 f i control_bindings.obj
 0002:000b0ed0       ??$_Fill_n@PAPBUInputSpec@@IPBU1@@std@@YAXPAPBUInputSpec@@IABQBU1@Urandom_access_iterator_tag@0@U_Range_checked_iterator_tag@0@@Z 006b2ed0 f i control_bindings.obj
 0002:000b0f60       ??$_Ptr_cat@V?$_Vector_iterator@PBUInputSpec@@V?$allocator@PBUInputSpec@@@std@@@std@@PAPBUInputSpec@@@std@@YA?AU_Scalar_ptr_iterator_tag@0@AAV?$_Vector_iterator@PBUInputSpec@@V?$allocator@PBUInputSpec@@@std@@@0@AAPAPBUInputSpec@@@Z 006b2f60 f i control_bindings.obj
 0002:000b0fd0       ??$_Uninit_copy@V?$_Vector_iterator@PBUInputSpec@@V?$allocator@PBUInputSpec@@@std@@@std@@PAPBUInputSpec@@V?$allocator@PBUInputSpec@@@2@@std@@YAPAPBUInputSpec@@V?$_Vector_iterator@PBUInputSpec@@V?$allocator@PBUInputSpec@@@std@@@0@0PAPBU1@AAV?$allocator@PBUInputSpec@@@0@U_Scalar_ptr_iterator_tag@0@U_Range_checked_iterator_tag@0@@Z 006b2fd0 f i control_bindings.obj
 0002:000b1170       ??$_Uninit_copy@PAPBUInputSpec@@PAPBU1@V?$allocator@PBUInputSpec@@@std@@@std@@YAPAPBUInputSpec@@PAPBU1@00AAV?$allocator@PBUInputSpec@@@0@U_Scalar_ptr_iterator_tag@0@U_Range_checked_iterator_tag@0@@Z 006b3170 f i control_bindings.obj
 0002:000b1240       ??$_Fill_n@PAPBUInputSpec@@IPBU1@@std@@YAXPAPBUInputSpec@@IABQBU1@U_Range_checked_iterator_tag@0@@Z 006b3240 f i control_bindings.obj
 0002:000b12b0       ?readLocaleNames@@YAXXZ    006b32b0 f   file_paths.obj
 0002:000b14b0       ??1?$pair@$$CBHV?$basic_string@DU?$char_traits@D@std@@V?$allocator@D@2@@std@@@std@@QAE@XZ 006b34b0 f i file_paths.obj
 0002:000b1510       ??1?$pair@Viterator@?$_Tree@V?$_Tmap_traits@HV?$basic_string@DU?$char_traits@D@std@@V?$allocator@D@2@@std@@U?$less@H@2@V?$allocator@U?$pair@$$CBHV?$basic_string@DU?$char_traits@D@std@@V?$allocator@D@2@@std@@@std@@@2@$0A@@std@@@std@@_N@std@@QAE@XZ 006b3510 f i file_paths.obj
 0002:000b1560       ??1iterator@?$_Tree@V?$_Tmap_traits@HV?$basic_string@DU?$char_traits@D@std@@V?$allocator@D@2@@std@@U?$less@H@2@V?$allocator@U?$pair@$$CBHV?$basic_string@DU?$char_traits@D@std@@V?$allocator@D@2@@std@@@std@@@2@$0A@@std@@@std@@QAE@XZ 006b3560 f i file_paths.obj
 0002:000b15b0       ??1const_iterator@?$_Tree@V?$_Tmap_traits@HV?$basic_string@DU?$char_traits@D@std@@V?$allocator@D@2@@std@@U?$less@H@2@V?$allocator@U?$pair@$$CBHV?$basic_string@DU?$char_traits@D@std@@V?$allocator@D@2@@std@@@std@@@2@$0A@@std@@@std@@QAE@XZ 006b35b0 f i file_paths.obj
 0002:000b1600       ??1?$_Bidit@U?$pair@$$CBHV?$basic_string@DU?$char_traits@D@std@@V?$allocator@D@2@@std@@@std@@HPBU12@ABU12@@std@@QAE@XZ 006b3600 f i file_paths.obj
 0002:000b1650       ?GetSystemPrefsPath@InputPrefs@@SAABV?$basic_string@DU?$char_traits@D@std@@V?$allocator@D@2@@std@@XZ 006b3650 f   file_paths.obj
 0002:000b17b0       ?GetLocalePrefsPath@InputPrefs@@SAABV?$basic_string@DU?$char_traits@D@std@@V?$allocator@D@2@@std@@XZ 006b37b0 f   file_paths.obj
 0002:000b1c00       ??0const_iterator@?$_Tree@V?$_Tmap_traits@HV?$basic_string@DU?$char_traits@D@std@@V?$allocator@D@2@@std@@U?$less@H@2@V?$allocator@U?$pair@$$CBHV?$basic_string@DU?$char_traits@D@std@@V?$allocator@D@2@@std@@@std@@@2@$0A@@std@@@std@@QAE@ABV012@@Z 006b3c00 f i file_paths.obj
 0002:000b1c70       ??0?$_Bidit@U?$pair@$$CBHV?$basic_string@DU?$char_traits@D@std@@V?$allocator@D@2@@std@@@std@@HPBU12@ABU12@@std@@QAE@ABU01@@Z 006b3c70 f i file_paths.obj
 0002:000b1cd0       ?GetUserPrefsPath@InputPrefs@@SAABV?$basic_string@DU?$char_traits@D@std@@V?$allocator@D@2@@std@@XZ 006b3cd0 f   file_paths.obj
 0002:000b1de0       ?append@?$basic_string@DU?$char_traits@D@std@@V?$allocator@D@2@@std@@QAEAAV12@ABV12@@Z 006b3de0 f i file_paths.obj
 0002:000b1e40       ?end@?$_Tree@V?$_Tmap_traits@HV?$basic_string@DU?$char_traits@D@std@@V?$allocator@D@2@@std@@U?$less@H@2@V?$allocator@U?$pair@$$CBHV?$basic_string@DU?$char_traits@D@std@@V?$allocator@D@2@@std@@@std@@@2@$0A@@std@@@std@@QAE?AViterator@12@XZ 006b3e40 f i file_paths.obj
 0002:000b1ed0       ?empty@?$_Tree@V?$_Tmap_traits@HV?$basic_string@DU?$char_traits@D@std@@V?$allocator@D@2@@std@@U?$less@H@2@V?$allocator@U?$pair@$$CBHV?$basic_string@DU?$char_traits@D@std@@V?$allocator@D@2@@std@@@std@@@2@$0A@@std@@@std@@QBE_NXZ 006b3ed0 f i file_paths.obj
 0002:000b1f30       ?insert@?$_Tree@V?$_Tmap_traits@HV?$basic_string@DU?$char_traits@D@std@@V?$allocator@D@2@@std@@U?$less@H@2@V?$allocator@U?$pair@$$CBHV?$basic_string@DU?$char_traits@D@std@@V?$allocator@D@2@@std@@@std@@@2@$0A@@std@@@std@@QAE?AU?$pair@Viterator@?$_Tree@V?$_Tmap_traits@HV?$basic_string@DU?$char_traits@D@std@@V?$allocator@D@2@@std@@U?$less@H@2@V?$allocator@U?$pair@$$CBHV?$basic_string@DU?$char_traits@D@std@@V?$allocator@D@2@@std@@@std@@@2@$0A@@std@@@std@@_N@2@ABU?$pair@$$CBHV?$basic_string@DU?$char_traits@D@std@@V?$allocator@D@2@@std@@@2@@Z 006b3f30 f i file_paths.obj
 0002:000b23f0       ?find@?$_Tree@V?$_Tmap_traits@HV?$basic_string@DU?$char_traits@D@std@@V?$allocator@D@2@@std@@U?$less@H@2@V?$allocator@U?$pair@$$CBHV?$basic_string@DU?$char_traits@D@std@@V?$allocator@D@2@@std@@@std@@@2@$0A@@std@@@std@@QAE?AViterator@12@ABH@Z 006b43f0 f i file_paths.obj
 0002:000b2670       ??Cconst_iterator@?$_Tree@V?$_Tmap_traits@HV?$basic_string@DU?$char_traits@D@std@@V?$allocator@D@2@@std@@U?$less@H@2@V?$allocator@U?$pair@$$CBHV?$basic_string@DU?$char_traits@D@std@@V?$allocator@D@2@@std@@@std@@@2@$0A@@std@@@std@@QBEPBU?$pair@$$CBHV?$basic_string@DU?$char_traits@D@std@@V?$allocator@D@2@@std@@@2@XZ 006b4670 f i file_paths.obj
 0002:000b26c0       ??9const_iterator@?$_Tree@V?$_Tmap_traits@HV?$basic_string@DU?$char_traits@D@std@@V?$allocator@D@2@@std@@U?$less@H@2@V?$allocator@U?$pair@$$CBHV?$basic_string@DU?$char_traits@D@std@@V?$allocator@D@2@@std@@@std@@@2@$0A@@std@@@std@@QBE_NABV012@@Z 006b46c0 f i file_paths.obj
 0002:000b2730       ??0iterator@?$_Tree@V?$_Tmap_traits@HV?$basic_string@DU?$char_traits@D@std@@V?$allocator@D@2@@std@@U?$less@H@2@V?$allocator@U?$pair@$$CBHV?$basic_string@DU?$char_traits@D@std@@V?$allocator@D@2@@std@@@std@@@2@$0A@@std@@@std@@QAE@ABV012@@Z 006b4730 f i file_paths.obj
 0002:000b2790       ?append@?$basic_string@DU?$char_traits@D@std@@V?$allocator@D@2@@std@@QAEAAV12@ABV12@II@Z 006b4790 f i file_paths.obj
 0002:000b28d0       ?_Isnil@?$_Tree@V?$_Tmap_traits@HV?$basic_string@DU?$char_traits@D@std@@V?$allocator@D@2@@std@@U?$less@H@2@V?$allocator@U?$pair@$$CBHV?$basic_string@DU?$char_traits@D@std@@V?$allocator@D@2@@std@@@std@@@2@$0A@@std@@@std@@KAAADPAU_Node@?$_Tree_nod@V?$_Tmap_traits@HV?$basic_string@DU?$char_traits@D@std@@V?$allocator@D@2@@std@@U?$less@H@2@V?$allocator@U?$pair@$$CBHV?$basic_string@DU?$char_traits@D@std@@V?$allocator@D@2@@std@@@std@@@2@$0A@@std@@@2@@Z 006b48d0 f i file_paths.obj
 0002:000b2910       ?_Key@?$_Tree@V?$_Tmap_traits@HV?$basic_string@DU?$char_traits@D@std@@V?$allocator@D@2@@std@@U?$less@H@2@V?$allocator@U?$pair@$$CBHV?$basic_string@DU?$char_traits@D@std@@V?$allocator@D@2@@std@@@std@@@2@$0A@@std@@@std@@KAABHPAU_Node@?$_Tree_nod@V?$_Tmap_traits@HV?$basic_string@DU?$char_traits@D@std@@V?$allocator@D@2@@std@@U?$less@H@2@V?$allocator@U?$pair@$$CBHV?$basic_string@DU?$char_traits@D@std@@V?$allocator@D@2@@std@@@std@@@2@$0A@@std@@@2@@Z 006b4910 f i file_paths.obj
 0002:000b2970       ?_Left@?$_Tree@V?$_Tmap_traits@HV?$basic_string@DU?$char_traits@D@std@@V?$allocator@D@2@@std@@U?$less@H@2@V?$allocator@U?$pair@$$CBHV?$basic_string@DU?$char_traits@D@std@@V?$allocator@D@2@@std@@@std@@@2@$0A@@std@@@std@@KAAAPAU_Node@?$_Tree_nod@V?$_Tmap_traits@HV?$basic_string@DU?$char_traits@D@std@@V?$allocator@D@2@@std@@U?$less@H@2@V?$allocator@U?$pair@$$CBHV?$basic_string@DU?$char_traits@D@std@@V?$allocator@D@2@@std@@@std@@@2@$0A@@std@@@2@PAU342@@Z 006b4970 f i file_paths.obj
 0002:000b29b0       ?_Right@?$_Tree@V?$_Tmap_traits@HV?$basic_string@DU?$char_traits@D@std@@V?$allocator@D@2@@std@@U?$less@H@2@V?$allocator@U?$pair@$$CBHV?$basic_string@DU?$char_traits@D@std@@V?$allocator@D@2@@std@@@std@@@2@$0A@@std@@@std@@KAAAPAU_Node@?$_Tree_nod@V?$_Tmap_traits@HV?$basic_string@DU?$char_traits@D@std@@V?$allocator@D@2@@std@@U?$less@H@2@V?$allocator@U?$pair@$$CBHV?$basic_string@DU?$char_traits@D@std@@V?$allocator@D@2@@std@@@std@@@2@$0A@@std@@@2@PAU342@@Z 006b49b0 f i file_paths.obj
 0002:000b29f0       ?begin@?$_Tree@V?$_Tmap_traits@HV?$basic_string@DU?$char_traits@D@std@@V?$allocator@D@2@@std@@U?$less@H@2@V?$allocator@U?$pair@$$CBHV?$basic_string@DU?$char_traits@D@std@@V?$allocator@D@2@@std@@@std@@@2@$0A@@std@@@std@@QAE?AViterator@12@XZ 006b49f0 f i file_paths.obj
 0002:000b2a80       ?size@?$_Tree@V?$_Tmap_traits@HV?$basic_string@DU?$char_traits@D@std@@V?$allocator@D@2@@std@@U?$less@H@2@V?$allocator@U?$pair@$$CBHV?$basic_string@DU?$char_traits@D@std@@V?$allocator@D@2@@std@@@std@@@2@$0A@@std@@@std@@QBEIXZ 006b4a80 f i file_paths.obj
 0002:000b2ac0       ?lower_bound@?$_Tree@V?$_Tmap_traits@HV?$basic_string@DU?$char_traits@D@std@@V?$allocator@D@2@@std@@U?$less@H@2@V?$allocator@U?$pair@$$CBHV?$basic_string@DU?$char_traits@D@std@@V?$allocator@D@2@@std@@@std@@@2@$0A@@std@@@std@@QAE?AViterator@12@ABH@Z 006b4ac0 f i file_paths.obj
 0002:000b2b50       ?_Insert@?$_Tree@V?$_Tmap_traits@HV?$basic_string@DU?$char_traits@D@std@@V?$allocator@D@2@@std@@U?$less@H@2@V?$allocator@U?$pair@$$CBHV?$basic_string@DU?$char_traits@D@std@@V?$allocator@D@2@@std@@@std@@@2@$0A@@std@@@std@@IAE?AViterator@12@_NPAU_Node@?$_Tree_nod@V?$_Tmap_traits@HV?$basic_string@DU?$char_traits@D@std@@V?$allocator@D@2@@std@@U?$less@H@2@V?$allocator@U?$pair@$$CBHV?$basic_string@DU?$char_traits@D@std@@V?$allocator@D@2@@std@@@std@@@2@$0A@@std@@@2@ABU?$pair@$$CBHV?$basic_string@DU?$char_traits@D@std@@V?$allocator@D@2@@std@@@2@@Z 006b4b50 f i file_paths.obj
 0002:000b3150       ?_Root@?$_Tree@V?$_Tmap_traits@HV?$basic_string@DU?$char_traits@D@std@@V?$allocator@D@2@@std@@U?$less@H@2@V?$allocator@U?$pair@$$CBHV?$basic_string@DU?$char_traits@D@std@@V?$allocator@D@2@@std@@@std@@@2@$0A@@std@@@std@@IBEAAPAU_Node@?$_Tree_nod@V?$_Tmap_traits@HV?$basic_string@DU?$char_traits@D@std@@V?$allocator@D@2@@std@@U?$less@H@2@V?$allocator@U?$pair@$$CBHV?$basic_string@DU?$char_traits@D@std@@V?$allocator@D@2@@std@@@std@@@2@$0A@@std@@@2@XZ 006b5150 f i file_paths.obj
 0002:000b31b0       ?_Kfn@?$_Tmap_traits@HV?$basic_string@DU?$char_traits@D@std@@V?$allocator@D@2@@std@@U?$less@H@2@V?$allocator@U?$pair@$$CBHV?$basic_string@DU?$char_traits@D@std@@V?$allocator@D@2@@std@@@std@@@2@$0A@@std@@SAABHABU?$pair@$$CBHV?$basic_string@DU?$char_traits@D@std@@V?$allocator@D@2@@std@@@2@@Z 006b51b0 f i file_paths.obj
 0002:000b31f0       ??0?$pair@Viterator@?$_Tree@V?$_Tmap_traits@HV?$basic_string@DU?$char_traits@D@std@@V?$allocator@D@2@@std@@U?$less@H@2@V?$allocator@U?$pair@$$CBHV?$basic_string@DU?$char_traits@D@std@@V?$allocator@D@2@@std@@@std@@@2@$0A@@std@@@std@@_N@std@@QAE@ABViterator@?$_Tree@V?$_Tmap_traits@HV?$basic_string@DU?$char_traits@D@std@@V?$allocator@D@2@@std@@U?$less@H@2@V?$allocator@U?$pair@$$CBHV?$basic_string@DU?$char_traits@D@std@@V?$allocator@D@2@@std@@@std@@@2@$0A@@std@@@1@AB_N@Z 006b51f0 f i file_paths.obj
 0002:000b3260       ??0iterator@?$_Tree@V?$_Tmap_traits@HV?$basic_string@DU?$char_traits@D@std@@V?$allocator@D@2@@std@@U?$less@H@2@V?$allocator@U?$pair@$$CBHV?$basic_string@DU?$char_traits@D@std@@V?$allocator@D@2@@std@@@std@@@2@$0A@@std@@@std@@QAE@PAU_Node@?$_Tree_nod@V?$_Tmap_traits@HV?$basic_string@DU?$char_traits@D@std@@V?$allocator@D@2@@std@@U?$less@H@2@V?$allocator@U?$pair@$$CBHV?$basic_string@DU?$char_traits@D@std@@V?$allocator@D@2@@std@@@std@@@2@$0A@@std@@@2@PBV12@@Z 006b5260 f i file_paths.obj
 0002:000b32c0       ??Fiterator@?$_Tree@V?$_Tmap_traits@HV?$basic_string@DU?$char_traits@D@std@@V?$allocator@D@2@@std@@U?$less@H@2@V?$allocator@U?$pair@$$CBHV?$basic_string@DU?$char_traits@D@std@@V?$allocator@D@2@@std@@@std@@@2@$0A@@std@@@std@@QAEAAV012@XZ 006b52c0 f i file_paths.obj
 0002:000b3320       ??Dconst_iterator@?$_Tree@V?$_Tmap_traits@HV?$basic_string@DU?$char_traits@D@std@@V?$allocator@D@2@@std@@U?$less@H@2@V?$allocator@U?$pair@$$CBHV?$basic_string@DU?$char_traits@D@std@@V?$allocator@D@2@@std@@@std@@@2@$0A@@std@@@std@@QBEABU?$pair@$$CBHV?$basic_string@DU?$char_traits@D@std@@V?$allocator@D@2@@std@@@2@XZ 006b5320 f i file_paths.obj
 0002:000b3410       ??8const_iterator@?$_Tree@V?$_Tmap_traits@HV?$basic_string@DU?$char_traits@D@std@@V?$allocator@D@2@@std@@U?$less@H@2@V?$allocator@U?$pair@$$CBHV?$basic_string@DU?$char_traits@D@std@@V?$allocator@D@2@@std@@@std@@@2@$0A@@std@@@std@@QBE_NABV012@@Z 006b5410 f i file_paths.obj
 0002:000b3500       ?_Mynode@const_iterator@?$_Tree@V?$_Tmap_traits@HV?$basic_string@DU?$char_traits@D@std@@V?$allocator@D@2@@std@@U?$less@H@2@V?$allocator@U?$pair@$$CBHV?$basic_string@DU?$char_traits@D@std@@V?$allocator@D@2@@std@@@std@@@2@$0A@@std@@@std@@QBEPAU_Node@?$_Tree_nod@V?$_Tmap_traits@HV?$basic_string@DU?$char_traits@D@std@@V?$allocator@D@2@@std@@U?$less@H@2@V?$allocator@U?$pair@$$CBHV?$basic_string@DU?$char_traits@D@std@@V?$allocator@D@2@@std@@@std@@@2@$0A@@std@@@3@XZ 006b5500 f i file_paths.obj
 0002:000b3540       ?_Color@?$_Tree@V?$_Tmap_traits@HV?$basic_string@DU?$char_traits@D@std@@V?$allocator@D@2@@std@@U?$less@H@2@V?$allocator@U?$pair@$$CBHV?$basic_string@DU?$char_traits@D@std@@V?$allocator@D@2@@std@@@std@@@2@$0A@@std@@@std@@KAAADPAU_Node@?$_Tree_nod@V?$_Tmap_traits@HV?$basic_string@DU?$char_traits@D@std@@V?$allocator@D@2@@std@@U?$less@H@2@V?$allocator@U?$pair@$$CBHV?$basic_string@DU?$char_traits@D@std@@V?$allocator@D@2@@std@@@std@@@2@$0A@@std@@@2@@Z 006b5540 f i file_paths.obj
 0002:000b3580       ?_Parent@?$_Tree@V?$_Tmap_traits@HV?$basic_string@DU?$char_traits@D@std@@V?$allocator@D@2@@std@@U?$less@H@2@V?$allocator@U?$pair@$$CBHV?$basic_string@DU?$char_traits@D@std@@V?$allocator@D@2@@std@@@std@@@2@$0A@@std@@@std@@KAAAPAU_Node@?$_Tree_nod@V?$_Tmap_traits@HV?$basic_string@DU?$char_traits@D@std@@V?$allocator@D@2@@std@@U?$less@H@2@V?$allocator@U?$pair@$$CBHV?$basic_string@DU?$char_traits@D@std@@V?$allocator@D@2@@std@@@std@@@2@$0A@@std@@@2@PAU342@@Z 006b5580 f i file_paths.obj
 0002:000b35c0       ?_Myval@?$_Tree@V?$_Tmap_traits@HV?$basic_string@DU?$char_traits@D@std@@V?$allocator@D@2@@std@@U?$less@H@2@V?$allocator@U?$pair@$$CBHV?$basic_string@DU?$char_traits@D@std@@V?$allocator@D@2@@std@@@std@@@2@$0A@@std@@@std@@KAAAU?$pair@$$CBHV?$basic_string@DU?$char_traits@D@std@@V?$allocator@D@2@@std@@@2@PAU_Node@?$_Tree_nod@V?$_Tmap_traits@HV?$basic_string@DU?$char_traits@D@std@@V?$allocator@D@2@@std@@U?$less@H@2@V?$allocator@U?$pair@$$CBHV?$basic_string@DU?$char_traits@D@std@@V?$allocator@D@2@@std@@@std@@@2@$0A@@std@@@2@@Z 006b55c0 f i file_paths.obj
 0002:000b3600       ?max_size@?$_Tree@V?$_Tmap_traits@HV?$basic_string@DU?$char_traits@D@std@@V?$allocator@D@2@@std@@U?$less@H@2@V?$allocator@U?$pair@$$CBHV?$basic_string@DU?$char_traits@D@std@@V?$allocator@D@2@@std@@@std@@@2@$0A@@std@@@std@@QBEIXZ 006b5600 f i file_paths.obj
 0002:000b3660       ?_Lbound@?$_Tree@V?$_Tmap_traits@HV?$basic_string@DU?$char_traits@D@std@@V?$allocator@D@2@@std@@U?$less@H@2@V?$allocator@U?$pair@$$CBHV?$basic_string@DU?$char_traits@D@std@@V?$allocator@D@2@@std@@@std@@@2@$0A@@std@@@std@@IBEPAU_Node@?$_Tree_nod@V?$_Tmap_traits@HV?$basic_string@DU?$char_traits@D@std@@V?$allocator@D@2@@std@@U?$less@H@2@V?$allocator@U?$pair@$$CBHV?$basic_string@DU?$char_traits@D@std@@V?$allocator@D@2@@std@@@std@@@2@$0A@@std@@@2@ABH@Z 006b5660 f i file_paths.obj
 0002:000b3760       ?_Lmost@?$_Tree@V?$_Tmap_traits@HV?$basic_string@DU?$char_traits@D@std@@V?$allocator@D@2@@std@@U?$less@H@2@V?$allocator@U?$pair@$$CBHV?$basic_string@DU?$char_traits@D@std@@V?$allocator@D@2@@std@@@std@@@2@$0A@@std@@@std@@IBEAAPAU_Node@?$_Tree_nod@V?$_Tmap_traits@HV?$basic_string@DU?$char_traits@D@std@@V?$allocator@D@2@@std@@U?$less@H@2@V?$allocator@U?$pair@$$CBHV?$basic_string@DU?$char_traits@D@std@@V?$allocator@D@2@@std@@@std@@@2@$0A@@std@@@2@XZ 006b5760 f i file_paths.obj
 0002:000b37c0       ?_Lrotate@?$_Tree@V?$_Tmap_traits@HV?$basic_string@DU?$char_traits@D@std@@V?$allocator@D@2@@std@@U?$less@H@2@V?$allocator@U?$pair@$$CBHV?$basic_string@DU?$char_traits@D@std@@V?$allocator@D@2@@std@@@std@@@2@$0A@@std@@@std@@IAEXPAU_Node@?$_Tree_nod@V?$_Tmap_traits@HV?$basic_string@DU?$char_traits@D@std@@V?$allocator@D@2@@std@@U?$less@H@2@V?$allocator@U?$pair@$$CBHV?$basic_string@DU?$char_traits@D@std@@V?$allocator@D@2@@std@@@std@@@2@$0A@@std@@@2@@Z 006b57c0 f i file_paths.obj
 0002:000b3970       ?_Rmost@?$_Tree@V?$_Tmap_traits@HV?$basic_string@DU?$char_traits@D@std@@V?$allocator@D@2@@std@@U?$less@H@2@V?$allocator@U?$pair@$$CBHV?$basic_string@DU?$char_traits@D@std@@V?$allocator@D@2@@std@@@std@@@2@$0A@@std@@@std@@IBEAAPAU_Node@?$_Tree_nod@V?$_Tmap_traits@HV?$basic_string@DU?$char_traits@D@std@@V?$allocator@D@2@@std@@U?$less@H@2@V?$allocator@U?$pair@$$CBHV?$basic_string@DU?$char_traits@D@std@@V?$allocator@D@2@@std@@@std@@@2@$0A@@std@@@2@XZ 006b5970 f i file_paths.obj
 0002:000b39d0       ?_Rrotate@?$_Tree@V?$_Tmap_traits@HV?$basic_string@DU?$char_traits@D@std@@V?$allocator@D@2@@std@@U?$less@H@2@V?$allocator@U?$pair@$$CBHV?$basic_string@DU?$char_traits@D@std@@V?$allocator@D@2@@std@@@std@@@2@$0A@@std@@@std@@IAEXPAU_Node@?$_Tree_nod@V?$_Tmap_traits@HV?$basic_string@DU?$char_traits@D@std@@V?$allocator@D@2@@std@@U?$less@H@2@V?$allocator@U?$pair@$$CBHV?$basic_string@DU?$char_traits@D@std@@V?$allocator@D@2@@std@@@std@@@2@$0A@@std@@@2@@Z 006b59d0 f i file_paths.obj
 0002:000b3b80       ?_Buynode@?$_Tree@V?$_Tmap_traits@HV?$basic_string@DU?$char_traits@D@std@@V?$allocator@D@2@@std@@U?$less@H@2@V?$allocator@U?$pair@$$CBHV?$basic_string@DU?$char_traits@D@std@@V?$allocator@D@2@@std@@@std@@@2@$0A@@std@@@std@@IAEPAU_Node@?$_Tree_nod@V?$_Tmap_traits@HV?$basic_string@DU?$char_traits@D@std@@V?$allocator@D@2@@std@@U?$less@H@2@V?$allocator@U?$pair@$$CBHV?$basic_string@DU?$char_traits@D@std@@V?$allocator@D@2@@std@@@std@@@2@$0A@@std@@@2@PAU342@00ABU?$pair@$$CBHV?$basic_string@DU?$char_traits@D@std@@V?$allocator@D@2@@std@@@2@D@Z 006b5b80 f i file_paths.obj
 0002:000b3cf0       ??2@YAPAXIPAX@Z            006b5cf0 f i file_paths.obj
 0002:000b3d30       ??3@YAXPAX0@Z              006b5d30 f i file_paths.obj
 0002:000b3d60       ?deallocate@?$allocator@U_Node@?$_Tree_nod@V?$_Tmap_traits@HV?$basic_string@DU?$char_traits@D@std@@V?$allocator@D@2@@std@@U?$less@H@2@V?$allocator@U?$pair@$$CBHV?$basic_string@DU?$char_traits@D@std@@V?$allocator@D@2@@std@@@std@@@2@$0A@@std@@@std@@@std@@QAEXPAU_Node@?$_Tree_nod@V?$_Tmap_traits@HV?$basic_string@DU?$char_traits@D@std@@V?$allocator@D@2@@std@@U?$less@H@2@V?$allocator@U?$pair@$$CBHV?$basic_string@DU?$char_traits@D@std@@V?$allocator@D@2@@std@@@std@@@2@$0A@@std@@@2@I@Z 006b5d60 f i file_paths.obj
 0002:000b3dc0       ??0const_iterator@?$_Tree@V?$_Tmap_traits@HV?$basic_string@DU?$char_traits@D@std@@V?$allocator@D@2@@std@@U?$less@H@2@V?$allocator@U?$pair@$$CBHV?$basic_string@DU?$char_traits@D@std@@V?$allocator@D@2@@std@@@std@@@2@$0A@@std@@@std@@QAE@PAU_Node@?$_Tree_nod@V?$_Tmap_traits@HV?$basic_string@DU?$char_traits@D@std@@V?$allocator@D@2@@std@@U?$less@H@2@V?$allocator@U?$pair@$$CBHV?$basic_string@DU?$char_traits@D@std@@V?$allocator@D@2@@std@@@std@@@2@$0A@@std@@@2@PBV12@@Z 006b5dc0 f i file_paths.obj
 0002:000b3e80       ??Fconst_iterator@?$_Tree@V?$_Tmap_traits@HV?$basic_string@DU?$char_traits@D@std@@V?$allocator@D@2@@std@@U?$less@H@2@V?$allocator@U?$pair@$$CBHV?$basic_string@DU?$char_traits@D@std@@V?$allocator@D@2@@std@@@std@@@2@$0A@@std@@@std@@QAEAAV012@XZ 006b5e80 f i file_paths.obj
 0002:000b3ee0       ??0?$_Bidit@U?$pair@$$CBHV?$basic_string@DU?$char_traits@D@std@@V?$allocator@D@2@@std@@@std@@HPBU12@ABU12@@std@@QAE@XZ 006b5ee0 f i file_paths.obj
 0002:000b3f40       ?max_size@?$allocator@U?$pair@$$CBHV?$basic_string@DU?$char_traits@D@std@@V?$allocator@D@2@@std@@@std@@@std@@QBEIXZ 006b5f40 f i file_paths.obj
 0002:000b3fb0       ?allocate@?$allocator@U_Node@?$_Tree_nod@V?$_Tmap_traits@HV?$basic_string@DU?$char_traits@D@std@@V?$allocator@D@2@@std@@U?$less@H@2@V?$allocator@U?$pair@$$CBHV?$basic_string@DU?$char_traits@D@std@@V?$allocator@D@2@@std@@@std@@@2@$0A@@std@@@std@@@std@@QAEPAU_Node@?$_Tree_nod@V?$_Tmap_traits@HV?$basic_string@DU?$char_traits@D@std@@V?$allocator@D@2@@std@@U?$less@H@2@V?$allocator@U?$pair@$$CBHV?$basic_string@DU?$char_traits@D@std@@V?$allocator@D@2@@std@@@std@@@2@$0A@@std@@@2@I@Z 006b5fb0 f i file_paths.obj
 0002:000b4010       ?_Dec@const_iterator@?$_Tree@V?$_Tmap_traits@HV?$basic_string@DU?$char_traits@D@std@@V?$allocator@D@2@@std@@U?$less@H@2@V?$allocator@U?$pair@$$CBHV?$basic_string@DU?$char_traits@D@std@@V?$allocator@D@2@@std@@@std@@@2@$0A@@std@@@std@@QAEXXZ 006b6010 f i file_paths.obj
 0002:000b42f0       ??0_Node@?$_Tree_nod@V?$_Tmap_traits@HV?$basic_string@DU?$char_traits@D@std@@V?$allocator@D@2@@std@@U?$less@H@2@V?$allocator@U?$pair@$$CBHV?$basic_string@DU?$char_traits@D@std@@V?$allocator@D@2@@std@@@std@@@2@$0A@@std@@@std@@QAE@PAU012@00ABU?$pair@$$CBHV?$basic_string@DU?$char_traits@D@std@@V?$allocator@D@2@@std@@@2@D@Z 006b62f0 f i file_paths.obj
 0002:000b4390       ??0?$pair@$$CBHV?$basic_string@DU?$char_traits@D@std@@V?$allocator@D@2@@std@@@std@@QAE@ABU01@@Z 006b6390 f i file_paths.obj
 0002:000b4400       ?_Max@?$_Tree@V?$_Tmap_traits@HV?$basic_string@DU?$char_traits@D@std@@V?$allocator@D@2@@std@@U?$less@H@2@V?$allocator@U?$pair@$$CBHV?$basic_string@DU?$char_traits@D@std@@V?$allocator@D@2@@std@@@std@@@2@$0A@@std@@@std@@KAPAU_Node@?$_Tree_nod@V?$_Tmap_traits@HV?$basic_string@DU?$char_traits@D@std@@V?$allocator@D@2@@std@@U?$less@H@2@V?$allocator@U?$pair@$$CBHV?$basic_string@DU?$char_traits@D@std@@V?$allocator@D@2@@std@@@std@@@2@$0A@@std@@@2@PAU342@@Z 006b6400 f i file_paths.obj
 0002:000b4480       ??$?HDU?$char_traits@D@std@@V?$allocator@D@1@@std@@YA?AV?$basic_string@DU?$char_traits@D@std@@V?$allocator@D@2@@0@ABV10@PBD@Z 006b6480 f i file_paths.obj
 0002:000b4580       ??$make_pair@HPAD@std@@YA?AU?$pair@HPAD@0@HPAD@Z 006b6580 f i file_paths.obj
 0002:000b45e0       ??$?0HPAD@?$pair@$$CBHV?$basic_string@DU?$char_traits@D@std@@V?$allocator@D@2@@std@@@std@@QAE@ABU?$pair@HPAD@1@@Z 006b65e0 f i file_paths.obj
 0002:000b4650       ??$?8DU?$char_traits@D@std@@V?$allocator@D@1@@std@@YA_NABV?$basic_string@DU?$char_traits@D@std@@V?$allocator@D@2@@0@PBD@Z 006b6650 f i file_paths.obj
 0002:000b46b0       ?compare@?$basic_string@DU?$char_traits@D@std@@V?$allocator@D@2@@std@@QBEHPBD@Z 006b66b0 f i file_paths.obj
 0002:000b4730       ?compare@?$basic_string@DU?$char_traits@D@std@@V?$allocator@D@2@@std@@QBEHIIPBDI@Z 006b6730 f i file_paths.obj
 0002:000b4870       ??$?HDU?$char_traits@D@std@@V?$allocator@D@1@@std@@YA?AV?$basic_string@DU?$char_traits@D@std@@V?$allocator@D@2@@0@ABV10@0@Z 006b6870 f i file_paths.obj
 0002:000b4970       ??$?9DU?$char_traits@D@std@@V?$allocator@D@1@@std@@YA_NABV?$basic_string@DU?$char_traits@D@std@@V?$allocator@D@2@@0@PBD@Z 006b6970 f i file_paths.obj
 0002:000b49d0       ??$_Debug_lt_pred@U?$less@H@std@@HH@std@@YA_NU?$less@H@0@ABH1PB_WI@Z 006b69d0 f i file_paths.obj
 0002:000b4a70       ??$_Allocate@U_Node@?$_Tree_nod@V?$_Tmap_traits@HV?$basic_string@DU?$char_traits@D@std@@V?$allocator@D@2@@std@@U?$less@H@2@V?$allocator@U?$pair@$$CBHV?$basic_string@DU?$char_traits@D@std@@V?$allocator@D@2@@std@@@std@@@2@$0A@@std@@@std@@@std@@YAPAU_Node@?$_Tree_nod@V?$_Tmap_traits@HV?$basic_string@DU?$char_traits@D@std@@V?$allocator@D@2@@std@@U?$less@H@2@V?$allocator@U?$pair@$$CBHV?$basic_string@DU?$char_traits@D@std@@V?$allocator@D@2@@std@@@std@@@2@$0A@@std@@@0@IPAU120@@Z 006b6a70 f i file_paths.obj
 0002:000b4b10       ??Y?$basic_string@DU?$char_traits@D@std@@V?$allocator@D@2@@std@@QAEAAV01@ABV01@@Z 006b6b10 f i file_paths.obj
 0002:000b4b70       ??Y?$basic_string@DU?$char_traits@D@std@@V?$allocator@D@2@@std@@QAEAAV01@PBD@Z 006b6b70 f i file_paths.obj
 0002:000b4bd0       ??R?$less@H@std@@QBE_NABH0@Z 006b6bd0 f i file_paths.obj
 0002:000b4c20       ??0?$pair@HPAD@std@@QAE@ABHABQAD@Z 006b6c20 f i file_paths.obj
 0002:000b4c80       ?append@?$basic_string@DU?$char_traits@D@std@@V?$allocator@D@2@@std@@QAEAAV12@PBD@Z 006b6c80 f i file_paths.obj
 0002:000b4cf0       ?append@?$basic_string@DU?$char_traits@D@std@@V?$allocator@D@2@@std@@QAEAAV12@PBDI@Z 006b6cf0 f i file_paths.obj
 0002:000b4e30       ??0?$map@HV?$basic_string@DU?$char_traits@D@std@@V?$allocator@D@2@@std@@U?$less@H@2@V?$allocator@U?$pair@$$CBHV?$basic_string@DU?$char_traits@D@std@@V?$allocator@D@2@@std@@@std@@@2@@std@@QAE@XZ 006b6e30 f i file_paths.obj
 0002:000b4ea0       ??0?$_Tree@V?$_Tmap_traits@HV?$basic_string@DU?$char_traits@D@std@@V?$allocator@D@2@@std@@U?$less@H@2@V?$allocator@U?$pair@$$CBHV?$basic_string@DU?$char_traits@D@std@@V?$allocator@D@2@@std@@@std@@@2@$0A@@std@@@std@@QAE@ABU?$less@H@1@ABV?$allocator@U?$pair@$$CBHV?$basic_string@DU?$char_traits@D@std@@V?$allocator@D@2@@std@@@std@@@1@@Z 006b6ea0 f i file_paths.obj
 0002:000b4f60       ??1?$_Tree_val@V?$_Tmap_traits@HV?$basic_string@DU?$char_traits@D@std@@V?$allocator@D@2@@std@@U?$less@H@2@V?$allocator@U?$pair@$$CBHV?$basic_string@DU?$char_traits@D@std@@V?$allocator@D@2@@std@@@std@@@2@$0A@@std@@@std@@QAE@XZ 006b6f60 f i file_paths.obj
 0002:000b4fb0       ??1?$_Tree_ptr@V?$_Tmap_traits@HV?$basic_string@DU?$char_traits@D@std@@V?$allocator@D@2@@std@@U?$less@H@2@V?$allocator@U?$pair@$$CBHV?$basic_string@DU?$char_traits@D@std@@V?$allocator@D@2@@std@@@std@@@2@$0A@@std@@@std@@QAE@XZ 006b6fb0 f i file_paths.obj
 0002:000b5000       ??1?$_Tree_nod@V?$_Tmap_traits@HV?$basic_string@DU?$char_traits@D@std@@V?$allocator@D@2@@std@@U?$less@H@2@V?$allocator@U?$pair@$$CBHV?$basic_string@DU?$char_traits@D@std@@V?$allocator@D@2@@std@@@std@@@2@$0A@@std@@@std@@QAE@XZ 006b7000 f i file_paths.obj
 0002:000b5050       ??1?$_Tmap_traits@HV?$basic_string@DU?$char_traits@D@std@@V?$allocator@D@2@@std@@U?$less@H@2@V?$allocator@U?$pair@$$CBHV?$basic_string@DU?$char_traits@D@std@@V?$allocator@D@2@@std@@@std@@@2@$0A@@std@@QAE@XZ 006b7050 f i file_paths.obj
 0002:000b50a0       ??0?$allocator@U?$pair@$$CBHV?$basic_string@DU?$char_traits@D@std@@V?$allocator@D@2@@std@@@std@@@std@@QAE@XZ 006b70a0 f i file_paths.obj
 0002:000b50e0       ?_Init@?$_Tree@V?$_Tmap_traits@HV?$basic_string@DU?$char_traits@D@std@@V?$allocator@D@2@@std@@U?$less@H@2@V?$allocator@U?$pair@$$CBHV?$basic_string@DU?$char_traits@D@std@@V?$allocator@D@2@@std@@@std@@@2@$0A@@std@@@std@@IAEXXZ 006b70e0 f i file_paths.obj
 0002:000b51a0       ??0?$_Tree_val@V?$_Tmap_traits@HV?$basic_string@DU?$char_traits@D@std@@V?$allocator@D@2@@std@@U?$less@H@2@V?$allocator@U?$pair@$$CBHV?$basic_string@DU?$char_traits@D@std@@V?$allocator@D@2@@std@@@std@@@2@$0A@@std@@@std@@IAE@ABU?$less@H@1@V?$allocator@U?$pair@$$CBHV?$basic_string@DU?$char_traits@D@std@@V?$allocator@D@2@@std@@@std@@@1@@Z 006b71a0 f i file_paths.obj
 0002:000b5230       ??0?$allocator@U?$pair@$$CBHV?$basic_string@DU?$char_traits@D@std@@V?$allocator@D@2@@std@@@std@@@std@@QAE@ABV01@@Z 006b7230 f i file_paths.obj
 0002:000b5270       ?_Buynode@?$_Tree@V?$_Tmap_traits@HV?$basic_string@DU?$char_traits@D@std@@V?$allocator@D@2@@std@@U?$less@H@2@V?$allocator@U?$pair@$$CBHV?$basic_string@DU?$char_traits@D@std@@V?$allocator@D@2@@std@@@std@@@2@$0A@@std@@@std@@IAEPAU_Node@?$_Tree_nod@V?$_Tmap_traits@HV?$basic_string@DU?$char_traits@D@std@@V?$allocator@D@2@@std@@U?$less@H@2@V?$allocator@U?$pair@$$CBHV?$basic_string@DU?$char_traits@D@std@@V?$allocator@D@2@@std@@@std@@@2@$0A@@std@@@2@XZ 006b7270 f i file_paths.obj
 0002:000b54b0       ?destroy@?$allocator@PAU_Node@?$_Tree_nod@V?$_Tmap_traits@HV?$basic_string@DU?$char_traits@D@std@@V?$allocator@D@2@@std@@U?$less@H@2@V?$allocator@U?$pair@$$CBHV?$basic_string@DU?$char_traits@D@std@@V?$allocator@D@2@@std@@@std@@@2@$0A@@std@@@std@@@std@@QAEXPAPAU_Node@?$_Tree_nod@V?$_Tmap_traits@HV?$basic_string@DU?$char_traits@D@std@@V?$allocator@D@2@@std@@U?$less@H@2@V?$allocator@U?$pair@$$CBHV?$basic_string@DU?$char_traits@D@std@@V?$allocator@D@2@@std@@@std@@@2@$0A@@std@@@2@@Z 006b74b0 f i file_paths.obj
 0002:000b5510       ??0?$_Tree_ptr@V?$_Tmap_traits@HV?$basic_string@DU?$char_traits@D@std@@V?$allocator@D@2@@std@@U?$less@H@2@V?$allocator@U?$pair@$$CBHV?$basic_string@DU?$char_traits@D@std@@V?$allocator@D@2@@std@@@std@@@2@$0A@@std@@@std@@QAE@ABU?$less@H@1@V?$allocator@U?$pair@$$CBHV?$basic_string@DU?$char_traits@D@std@@V?$allocator@D@2@@std@@@std@@@1@@Z 006b7510 f i file_paths.obj
 0002:000b55a0       ??0?$_Tree_nod@V?$_Tmap_traits@HV?$basic_string@DU?$char_traits@D@std@@V?$allocator@D@2@@std@@U?$less@H@2@V?$allocator@U?$pair@$$CBHV?$basic_string@DU?$char_traits@D@std@@V?$allocator@D@2@@std@@@std@@@2@$0A@@std@@@std@@IAE@ABU?$less@H@1@V?$allocator@U?$pair@$$CBHV?$basic_string@DU?$char_traits@D@std@@V?$allocator@D@2@@std@@@std@@@1@@Z 006b75a0 f i file_paths.obj
 0002:000b5610       ?construct@?$allocator@PAU_Node@?$_Tree_nod@V?$_Tmap_traits@HV?$basic_string@DU?$char_traits@D@std@@V?$allocator@D@2@@std@@U?$less@H@2@V?$allocator@U?$pair@$$CBHV?$basic_string@DU?$char_traits@D@std@@V?$allocator@D@2@@std@@@std@@@2@$0A@@std@@@std@@@std@@QAEXPAPAU_Node@?$_Tree_nod@V?$_Tmap_traits@HV?$basic_string@DU?$char_traits@D@std@@V?$allocator@D@2@@std@@U?$less@H@2@V?$allocator@U?$pair@$$CBHV?$basic_string@DU?$char_traits@D@std@@V?$allocator@D@2@@std@@@std@@@2@$0A@@std@@@2@ABQAU342@@Z 006b7610 f i file_paths.obj
 0002:000b5670       ??0?$_Tmap_traits@HV?$basic_string@DU?$char_traits@D@std@@V?$allocator@D@2@@std@@U?$less@H@2@V?$allocator@U?$pair@$$CBHV?$basic_string@DU?$char_traits@D@std@@V?$allocator@D@2@@std@@@std@@@2@$0A@@std@@QAE@U?$less@H@1@@Z 006b7670 f i file_paths.obj
 0002:000b56d0       ??$_Destroy@PAU_Node@?$_Tree_nod@V?$_Tmap_traits@HV?$basic_string@DU?$char_traits@D@std@@V?$allocator@D@2@@std@@U?$less@H@2@V?$allocator@U?$pair@$$CBHV?$basic_string@DU?$char_traits@D@std@@V?$allocator@D@2@@std@@@std@@@2@$0A@@std@@@std@@@std@@YAXPAPAU_Node@?$_Tree_nod@V?$_Tmap_traits@HV?$basic_string@DU?$char_traits@D@std@@V?$allocator@D@2@@std@@U?$less@H@2@V?$allocator@U?$pair@$$CBHV?$basic_string@DU?$char_traits@D@std@@V?$allocator@D@2@@std@@@std@@@2@$0A@@std@@@0@@Z 006b76d0 f i file_paths.obj
 0002:000b5700       ??$?0U?$pair@$$CBHV?$basic_string@DU?$char_traits@D@std@@V?$allocator@D@2@@std@@@std@@@?$allocator@PAU_Node@?$_Tree_nod@V?$_Tmap_traits@HV?$basic_string@DU?$char_traits@D@std@@V?$allocator@D@2@@std@@U?$less@H@2@V?$allocator@U?$pair@$$CBHV?$basic_string@DU?$char_traits@D@std@@V?$allocator@D@2@@std@@@std@@@2@$0A@@std@@@std@@@std@@QAE@ABV?$allocator@U?$pair@$$CBHV?$basic_string@DU?$char_traits@D@std@@V?$allocator@D@2@@std@@@std@@@1@@Z 006b7700 f i file_paths.obj
 0002:000b5740       ??$?0U?$pair@$$CBHV?$basic_string@DU?$char_traits@D@std@@V?$allocator@D@2@@std@@@std@@@?$allocator@U_Node@?$_Tree_nod@V?$_Tmap_traits@HV?$basic_string@DU?$char_traits@D@std@@V?$allocator@D@2@@std@@U?$less@H@2@V?$allocator@U?$pair@$$CBHV?$basic_string@DU?$char_traits@D@std@@V?$allocator@D@2@@std@@@std@@@2@$0A@@std@@@std@@@std@@QAE@ABV?$allocator@U?$pair@$$CBHV?$basic_string@DU?$char_traits@D@std@@V?$allocator@D@2@@std@@@std@@@1@@Z 006b7740 f i file_paths.obj
 0002:000b5780       ??$_Construct@PAU_Node@?$_Tree_nod@V?$_Tmap_traits@HV?$basic_string@DU?$char_traits@D@std@@V?$allocator@D@2@@std@@U?$less@H@2@V?$allocator@U?$pair@$$CBHV?$basic_string@DU?$char_traits@D@std@@V?$allocator@D@2@@std@@@std@@@2@$0A@@std@@@std@@PAU123@@std@@YAXPAPAU_Node@?$_Tree_nod@V?$_Tmap_traits@HV?$basic_string@DU?$char_traits@D@std@@V?$allocator@D@2@@std@@U?$less@H@2@V?$allocator@U?$pair@$$CBHV?$basic_string@DU?$char_traits@D@std@@V?$allocator@D@2@@std@@@std@@@2@$0A@@std@@@0@ABQAU120@@Z 006b7780 f i file_paths.obj
 0002:000b5820       ??1?$map@HV?$basic_string@DU?$char_traits@D@std@@V?$allocator@D@2@@std@@U?$less@H@2@V?$allocator@U?$pair@$$CBHV?$basic_string@DU?$char_traits@D@std@@V?$allocator@D@2@@std@@@std@@@2@@std@@QAE@XZ 006b7820 f i file_paths.obj
 0002:000b5870       ??1?$_Tree@V?$_Tmap_traits@HV?$basic_string@DU?$char_traits@D@std@@V?$allocator@D@2@@std@@U?$less@H@2@V?$allocator@U?$pair@$$CBHV?$basic_string@DU?$char_traits@D@std@@V?$allocator@D@2@@std@@@std@@@2@$0A@@std@@@std@@QAE@XZ 006b7870 f i file_paths.obj
 0002:000b5910       ?_Tidy@?$_Tree@V?$_Tmap_traits@HV?$basic_string@DU?$char_traits@D@std@@V?$allocator@D@2@@std@@U?$less@H@2@V?$allocator@U?$pair@$$CBHV?$basic_string@DU?$char_traits@D@std@@V?$allocator@D@2@@std@@@std@@@2@$0A@@std@@@std@@IAEXXZ 006b7910 f i file_paths.obj
 0002:000b5ab0       ?erase@?$_Tree@V?$_Tmap_traits@HV?$basic_string@DU?$char_traits@D@std@@V?$allocator@D@2@@std@@U?$less@H@2@V?$allocator@U?$pair@$$CBHV?$basic_string@DU?$char_traits@D@std@@V?$allocator@D@2@@std@@@std@@@2@$0A@@std@@@std@@QAE?AViterator@12@V312@0@Z 006b7ab0 f i file_paths.obj
 0002:000b5dc0       ?erase@?$_Tree@V?$_Tmap_traits@HV?$basic_string@DU?$char_traits@D@std@@V?$allocator@D@2@@std@@U?$less@H@2@V?$allocator@U?$pair@$$CBHV?$basic_string@DU?$char_traits@D@std@@V?$allocator@D@2@@std@@@std@@@2@$0A@@std@@@std@@QAE?AViterator@12@V312@@Z 006b7dc0 f i file_paths.obj
 0002:000b6800       ?clear@?$_Tree@V?$_Tmap_traits@HV?$basic_string@DU?$char_traits@D@std@@V?$allocator@D@2@@std@@U?$less@H@2@V?$allocator@U?$pair@$$CBHV?$basic_string@DU?$char_traits@D@std@@V?$allocator@D@2@@std@@@std@@@2@$0A@@std@@@std@@QAEXXZ 006b8800 f i file_paths.obj
 0002:000b68c0       ??Eiterator@?$_Tree@V?$_Tmap_traits@HV?$basic_string@DU?$char_traits@D@std@@V?$allocator@D@2@@std@@U?$less@H@2@V?$allocator@U?$pair@$$CBHV?$basic_string@DU?$char_traits@D@std@@V?$allocator@D@2@@std@@@std@@@2@$0A@@std@@@std@@QAE?AV012@H@Z 006b88c0 f i file_paths.obj
 0002:000b69e0       ?_Erase@?$_Tree@V?$_Tmap_traits@HV?$basic_string@DU?$char_traits@D@std@@V?$allocator@D@2@@std@@U?$less@H@2@V?$allocator@U?$pair@$$CBHV?$basic_string@DU?$char_traits@D@std@@V?$allocator@D@2@@std@@@std@@@2@$0A@@std@@@std@@IAEXPAU_Node@?$_Tree_nod@V?$_Tmap_traits@HV?$basic_string@DU?$char_traits@D@std@@V?$allocator@D@2@@std@@U?$less@H@2@V?$allocator@U?$pair@$$CBHV?$basic_string@DU?$char_traits@D@std@@V?$allocator@D@2@@std@@@std@@@2@$0A@@std@@@2@@Z 006b89e0 f i file_paths.obj
 0002:000b6ac0       ?_Min@?$_Tree@V?$_Tmap_traits@HV?$basic_string@DU?$char_traits@D@std@@V?$allocator@D@2@@std@@U?$less@H@2@V?$allocator@U?$pair@$$CBHV?$basic_string@DU?$char_traits@D@std@@V?$allocator@D@2@@std@@@std@@@2@$0A@@std@@@std@@KAPAU_Node@?$_Tree_nod@V?$_Tmap_traits@HV?$basic_string@DU?$char_traits@D@std@@V?$allocator@D@2@@std@@U?$less@H@2@V?$allocator@U?$pair@$$CBHV?$basic_string@DU?$char_traits@D@std@@V?$allocator@D@2@@std@@@std@@@2@$0A@@std@@@2@PAU342@@Z 006b8ac0 f i file_paths.obj
 0002:000b6b40       ?_Orphan_ptr@?$_Tree@V?$_Tmap_traits@HV?$basic_string@DU?$char_traits@D@std@@V?$allocator@D@2@@std@@U?$less@H@2@V?$allocator@U?$pair@$$CBHV?$basic_string@DU?$char_traits@D@std@@V?$allocator@D@2@@std@@@std@@@2@$0A@@std@@@std@@IBEXAAV12@PAU_Node@?$_Tree_nod@V?$_Tmap_traits@HV?$basic_string@DU?$char_traits@D@std@@V?$allocator@D@2@@std@@U?$less@H@2@V?$allocator@U?$pair@$$CBHV?$basic_string@DU?$char_traits@D@std@@V?$allocator@D@2@@std@@@std@@@2@$0A@@std@@@2@@Z 006b8b40 f i file_paths.obj
 0002:000b6c50       ?destroy@?$allocator@U_Node@?$_Tree_nod@V?$_Tmap_traits@HV?$basic_string@DU?$char_traits@D@std@@V?$allocator@D@2@@std@@U?$less@H@2@V?$allocator@U?$pair@$$CBHV?$basic_string@DU?$char_traits@D@std@@V?$allocator@D@2@@std@@@std@@@2@$0A@@std@@@std@@@std@@QAEXPAU_Node@?$_Tree_nod@V?$_Tmap_traits@HV?$basic_string@DU?$char_traits@D@std@@V?$allocator@D@2@@std@@U?$less@H@2@V?$allocator@U?$pair@$$CBHV?$basic_string@DU?$char_traits@D@std@@V?$allocator@D@2@@std@@@std@@@2@$0A@@std@@@2@@Z 006b8c50 f i file_paths.obj
 0002:000b6cb0       ??Eiterator@?$_Tree@V?$_Tmap_traits@HV?$basic_string@DU?$char_traits@D@std@@V?$allocator@D@2@@std@@U?$less@H@2@V?$allocator@U?$pair@$$CBHV?$basic_string@DU?$char_traits@D@std@@V?$allocator@D@2@@std@@@std@@@2@$0A@@std@@@std@@QAEAAV012@XZ 006b8cb0 f i file_paths.obj
 0002:000b6d10       ??Econst_iterator@?$_Tree@V?$_Tmap_traits@HV?$basic_string@DU?$char_traits@D@std@@V?$allocator@D@2@@std@@U?$less@H@2@V?$allocator@U?$pair@$$CBHV?$basic_string@DU?$char_traits@D@std@@V?$allocator@D@2@@std@@@std@@@2@$0A@@std@@@std@@QAEAAV012@XZ 006b8d10 f i file_paths.obj
 0002:000b6d70       ?_Inc@const_iterator@?$_Tree@V?$_Tmap_traits@HV?$basic_string@DU?$char_traits@D@std@@V?$allocator@D@2@@std@@U?$less@H@2@V?$allocator@U?$pair@$$CBHV?$basic_string@DU?$char_traits@D@std@@V?$allocator@D@2@@std@@@std@@@2@$0A@@std@@@std@@QAEXXZ 006b8d70 f i file_paths.obj
 0002:000b6f10       ??$swap@D@std@@YAXAAD0@Z   006b8f10 f i file_paths.obj
 0002:000b6f60       ??$_Destroy@U_Node@?$_Tree_nod@V?$_Tmap_traits@HV?$basic_string@DU?$char_traits@D@std@@V?$allocator@D@2@@std@@U?$less@H@2@V?$allocator@U?$pair@$$CBHV?$basic_string@DU?$char_traits@D@std@@V?$allocator@D@2@@std@@@std@@@2@$0A@@std@@@std@@@std@@YAXPAU_Node@?$_Tree_nod@V?$_Tmap_traits@HV?$basic_string@DU?$char_traits@D@std@@V?$allocator@D@2@@std@@U?$less@H@2@V?$allocator@U?$pair@$$CBHV?$basic_string@DU?$char_traits@D@std@@V?$allocator@D@2@@std@@@std@@@2@$0A@@std@@@0@@Z 006b8f60 f i file_paths.obj
 0002:000b6fb0       ??_G_Node@?$_Tree_nod@V?$_Tmap_traits@HV?$basic_string@DU?$char_traits@D@std@@V?$allocator@D@2@@std@@U?$less@H@2@V?$allocator@U?$pair@$$CBHV?$basic_string@DU?$char_traits@D@std@@V?$allocator@D@2@@std@@@std@@@2@$0A@@std@@@std@@QAEPAXI@Z 006b8fb0 f i file_paths.obj
 0002:000b7020       ??1_Node@?$_Tree_nod@V?$_Tmap_traits@HV?$basic_string@DU?$char_traits@D@std@@V?$allocator@D@2@@std@@U?$less@H@2@V?$allocator@U?$pair@$$CBHV?$basic_string@DU?$char_traits@D@std@@V?$allocator@D@2@@std@@@std@@@2@$0A@@std@@@std@@QAE@XZ 006b9020 f i file_paths.obj
 0002:000b7080       ??0InputManager@@QAE@XZ    006b9080 f   input.obj
 0002:000b7150       ??1InputManager@@QAE@XZ    006b9150 f   input.obj
 0002:000b72a0       ??1ControlBindings@@QAE@XZ 006b92a0 f i input.obj
 0002:000b7370       ??_GInputDriver@@QAEPAXI@Z 006b9370 f i input.obj
 0002:000b73e0       ??1InputDriver@@QAE@XZ     006b93e0 f i input.obj
 0002:000b7440       ?parseInputPrefs@InputManager@@QAEXAAVTextReader@@_N@Z 006b9440 f   input.obj
 0002:000b7a60       ?parseInputSpecString@InputManager@@QAE?AW4InputParserState@@ABV?$basic_string@DU?$char_traits@D@std@@V?$allocator@D@2@@std@@AAUInputSpec@@AAV34@@Z 006b9a60 f   input.obj
 0002:000b7b90       ?parseInputSpecTokens@InputManager@@QAE?AW4InputParserState@@ABVInputSpecTokens@@AAUInputSpec@@AAV?$basic_string@DU?$char_traits@D@std@@V?$allocator@D@2@@std@@@Z 006b9b90 f   input.obj
 0002:000b7d20       ?controlEventA@InputManager@@AAE_NW4ControlType@@AAUInputDetails@@@Z 006b9d20 f   input.obj
 0002:000b7e10       ?controlEvent@InputManager@@QAE_NW4ControlType@@AAUInputDetails@@@Z 006b9e10 f   input.obj
 0002:000b7e70       ?controlEvent@InputManager@@QAE_NW4ControlType@@@Z 006b9e70 f   input.obj
 0002:000b7f10       ?controlIcon@InputManager@@QBEABV?$basic_string@DU?$char_traits@D@std@@V?$allocator@D@2@@std@@W4ControlType@@@Z 006b9f10 f   input.obj
 0002:000b7f70       ?Advance@InputManager@@QAEXXZ 006b9f70 f   input.obj
 0002:000b8120       ?PollForEvents@InputManager@@QAEXXZ 006ba120 f   input.obj
 0002:000b81d0       ?checkInput@InputManager@@QAE_NABUInputSpec@@AAUInputDetails@@@Z 006ba1d0 f   input.obj
 0002:000b8280       ?getFirstActiveInput@InputManager@@QAE_NAAUInputSpec@@_N@Z 006ba280 f   input.obj
 0002:000b8350       ?addDriver@InputManager@@QAEXPAVInputDriver@@@Z 006ba350 f   input.obj
 0002:000b83b0       ?suppressEvent@InputManager@@QAEXW4ControlType@@@Z 006ba3b0 f   input.obj
 0002:000b8410       ?getBoundInputDescription@InputManager@@QAE_NW4ControlType@@AAVInputDescription@@@Z 006ba410 f   input.obj
 0002:000b8600       ?getInputDescription@InputManager@@QAE_NABUInputSpec@@AAVInputDescription@@@Z 006ba600 f   input.obj
 0002:000b8690       ?getControlID@InputManager@@QAEHABV?$basic_string@DU?$char_traits@D@std@@V?$allocator@D@2@@std@@@Z 006ba690 f   input.obj
 0002:000b86f0       ?getControlString@InputManager@@QAEXW4ControlType@@AAV?$basic_string@DU?$char_traits@D@std@@V?$allocator@D@2@@std@@@Z 006ba6f0 f   input.obj
 0002:000b8750       ?replacePrimaryBinding@InputManager@@QAEXW4ControlType@@ABV?$basic_string@DU?$char_traits@D@std@@V?$allocator@D@2@@std@@@Z 006ba750 f   input.obj
 0002:000b8890       ?Clear@InputManager@@QAEXXZ 006ba890 f   input.obj
 0002:000b88f0       ?isIdle@InputManager@@QAE_NXZ 006ba8f0 f   input.obj
 0002:000b8930       ?getInputMode@InputManager@@QAE?AW4InputMode@@XZ 006ba930 f   input.obj
 0002:000b8970       ?printNumBindings@InputManager@@QAEXXZ 006ba970 f   input.obj
 0002:000b8a50       ??A?$basic_string@DU?$char_traits@D@std@@V?$allocator@D@2@@std@@QAEAADI@Z 006baa50 f i input.obj
 0002:000b8b30       ?length@?$basic_string@DU?$char_traits@D@std@@V?$allocator@D@2@@std@@QBEIXZ 006bab30 f i input.obj
 0002:000b8b70       ?substr@?$basic_string@DU?$char_traits@D@std@@V?$allocator@D@2@@std@@QBE?AV12@II@Z 006bab70 f i input.obj
 0002:000b8c00       ??6?$basic_ostream@DU?$char_traits@D@std@@@std@@QAEAAV01@H@Z 006bac00 f i input.obj
 0002:000b8f30       ??6?$basic_ostream@DU?$char_traits@D@std@@@std@@QAEAAV01@I@Z 006baf30 f i input.obj
 0002:000b9200       ??A?$auto_vector@$$CBUInputSpec@@@@QBEPBUInputSpec@@I@Z 006bb200 f i input.obj
 0002:000b9260       ?begin@?$auto_vector@$$CBUInputSpec@@@@QBE?AV?$_Vector_const_iterator@PBUInputSpec@@V?$allocator@PBUInputSpec@@@std@@@std@@XZ 006bb260 f i input.obj
 0002:000b92e0       ?end@?$auto_vector@$$CBUInputSpec@@@@QBE?AV?$_Vector_const_iterator@PBUInputSpec@@V?$allocator@PBUInputSpec@@@std@@@std@@XZ 006bb2e0 f i input.obj
 0002:000b9360       ??0?$vector@PAVInputDriver@@V?$allocator@PAVInputDriver@@@std@@@std@@QAE@XZ 006bb360 f i input.obj
 0002:000b9420       ??1?$vector@PAVInputDriver@@V?$allocator@PAVInputDriver@@@std@@@std@@QAE@XZ 006bb420 f i input.obj
 0002:000b94c0       ?size@?$vector@PAVInputDriver@@V?$allocator@PAVInputDriver@@@std@@@std@@QBEIXZ 006bb4c0 f i input.obj
 0002:000b9530       ??A?$vector@PAVInputDriver@@V?$allocator@PAVInputDriver@@@std@@@std@@QAEAAPAVInputDriver@@I@Z 006bb530 f i input.obj
 0002:000b9670       ?push_back@?$vector@PAVInputDriver@@V?$allocator@PAVInputDriver@@@std@@@std@@QAEXABQAVInputDriver@@@Z 006bb670 f i input.obj
 0002:000b9760       ??1?$ostreambuf_iterator@DU?$char_traits@D@std@@@std@@QAE@XZ 006bb760 f i input.obj
 0002:000b97b0       ??1?$_Vector_val@PAVInputDriver@@V?$allocator@PAVInputDriver@@@std@@@std@@QAE@XZ 006bb7b0 f i input.obj
 0002:000b9800       ??1?$_Vector_iterator@PAVInputDriver@@V?$allocator@PAVInputDriver@@@std@@@std@@QAE@XZ 006bb800 f i input.obj
 0002:000b9850       ??1?$_Outit_with_base@V_Iterator_base@std@@@std@@QAE@XZ 006bb850 f i input.obj
 0002:000b98a0       ??1?$_Vector_const_iterator@PAVInputDriver@@V?$allocator@PAVInputDriver@@@std@@@std@@QAE@XZ 006bb8a0 f i input.obj
 0002:000b98f0       ??1?$_Iterator_with_base@Uoutput_iterator_tag@std@@XXXXV_Iterator_base@2@@std@@QAE@XZ 006bb8f0 f i input.obj
 0002:000b9940       ??1?$_Ranit@PAVInputDriver@@HPBQAV1@ABQAV1@@std@@QAE@XZ 006bb940 f i input.obj
 0002:000b9990       ??0?$basic_string@DU?$char_traits@D@std@@V?$allocator@D@2@@std@@QAE@ABV01@II@Z 006bb990 f i input.obj
 0002:000b9a80       ?begin@?$vector@PBUInputSpec@@V?$allocator@PBUInputSpec@@@std@@@std@@QBE?AV?$_Vector_const_iterator@PBUInputSpec@@V?$allocator@PBUInputSpec@@@std@@@2@XZ 006bba80 f i input.obj
 0002:000b9b10       ?end@?$vector@PBUInputSpec@@V?$allocator@PBUInputSpec@@@std@@@std@@QBE?AV?$_Vector_const_iterator@PBUInputSpec@@V?$allocator@PBUInputSpec@@@std@@@2@XZ 006bbb10 f i input.obj
 0002:000b9ba0       ??A?$vector@PBUInputSpec@@V?$allocator@PBUInputSpec@@@std@@@std@@QBEABQBUInputSpec@@I@Z 006bbba0 f i input.obj
 0002:000b9ce0       ?capacity@?$vector@PAVInputDriver@@V?$allocator@PAVInputDriver@@@std@@@std@@QBEIXZ 006bbce0 f i input.obj
 0002:000b9d50       ?end@?$vector@PAVInputDriver@@V?$allocator@PAVInputDriver@@@std@@@std@@QAE?AV?$_Vector_iterator@PAVInputDriver@@V?$allocator@PAVInputDriver@@@std@@@2@XZ 006bbd50 f i input.obj
 0002:000b9de0       ?insert@?$vector@PAVInputDriver@@V?$allocator@PAVInputDriver@@@std@@@std@@QAE?AV?$_Vector_iterator@PAVInputDriver@@V?$allocator@PAVInputDriver@@@std@@@2@V32@ABQAVInputDriver@@@Z 006bbde0 f i input.obj
 0002:000b9fe0       ?_Buy@?$vector@PAVInputDriver@@V?$allocator@PAVInputDriver@@@std@@@std@@IAE_NI@Z 006bbfe0 f i input.obj
 0002:000ba0c0       ?_Tidy@?$vector@PAVInputDriver@@V?$allocator@PAVInputDriver@@@std@@@std@@IAEXXZ 006bc0c0 f i input.obj
 0002:000ba190       ?_Ufill@?$vector@PAVInputDriver@@V?$allocator@PAVInputDriver@@@std@@@std@@IAEPAPAVInputDriver@@PAPAV3@IABQAV3@@Z 006bc190 f i input.obj
 0002:000ba210       ?_Orphan_range@?$vector@PAVInputDriver@@V?$allocator@PAVInputDriver@@@std@@@std@@IBEXPAPAVInputDriver@@0@Z 006bc210 f i input.obj
 0002:000ba310       ??0?$_Vector_val@PAVInputDriver@@V?$allocator@PAVInputDriver@@@std@@@std@@IAE@V?$allocator@PAVInputDriver@@@1@@Z 006bc310 f i input.obj
 0002:000ba380       ??0?$allocator@PAVInputDriver@@@std@@QAE@XZ 006bc380 f i input.obj
 0002:000ba3c0       ?put@?$num_put@DV?$ostreambuf_iterator@DU?$char_traits@D@std@@@std@@@std@@QBE?AV?$ostreambuf_iterator@DU?$char_traits@D@std@@@2@V32@AAVios_base@2@DJ@Z 006bc3c0 f i input.obj
 0002:000ba4d0       ?put@?$num_put@DV?$ostreambuf_iterator@DU?$char_traits@D@std@@@std@@@std@@QBE?AV?$ostreambuf_iterator@DU?$char_traits@D@std@@@2@V32@AAVios_base@2@DK@Z 006bc4d0 f i input.obj
 0002:000ba5e0       ??0?$ostreambuf_iterator@DU?$char_traits@D@std@@@std@@QAE@PAV?$basic_streambuf@DU?$char_traits@D@std@@@1@@Z 006bc5e0 f i input.obj
 0002:000ba650       ?failed@?$ostreambuf_iterator@DU?$char_traits@D@std@@@std@@QBE_NXZ 006bc650 f i input.obj
 0002:000ba690       ??0?$_Vector_iterator@PAVInputDriver@@V?$allocator@PAVInputDriver@@@std@@@std@@QAE@ABV01@@Z 006bc690 f i input.obj
 0002:000ba6f0       ??0?$ostreambuf_iterator@DU?$char_traits@D@std@@@std@@QAE@ABV01@@Z 006bc6f0 f i input.obj
 0002:000ba770       ??0?$_Outit_with_base@V_Iterator_base@std@@@std@@QAE@XZ 006bc770 f i input.obj
 0002:000ba7d0       ??0?$_Vector_const_iterator@PAVInputDriver@@V?$allocator@PAVInputDriver@@@std@@@std@@QAE@ABV01@@Z 006bc7d0 f i input.obj
 0002:000ba840       ??0?$_Outit_with_base@V_Iterator_base@std@@@std@@QAE@ABU01@@Z 006bc840 f i input.obj
 0002:000ba8a0       ??0?$_Iterator_with_base@Uoutput_iterator_tag@std@@XXXXV_Iterator_base@2@@std@@QAE@XZ 006bc8a0 f i input.obj
 0002:000ba900       ??0?$_Ranit@PAVInputDriver@@HPBQAV1@ABQAV1@@std@@QAE@ABU01@@Z 006bc900 f i input.obj
 0002:000ba960       ??0?$_Iterator_with_base@Uoutput_iterator_tag@std@@XXXXV_Iterator_base@2@@std@@QAE@ABU01@@Z 006bc960 f i input.obj
 0002:000ba9c0       ?begin@?$vector@PAVInputDriver@@V?$allocator@PAVInputDriver@@@std@@@std@@QAE?AV?$_Vector_iterator@PAVInputDriver@@V?$allocator@PAVInputDriver@@@std@@@2@XZ 006bc9c0 f i input.obj
 0002:000baa50       ?max_size@?$vector@PAVInputDriver@@V?$allocator@PAVInputDriver@@@std@@@std@@QBEIXZ 006bca50 f i input.obj
 0002:000baab0       ?_Destroy@?$vector@PAVInputDriver@@V?$allocator@PAVInputDriver@@@std@@@std@@IAEXPAPAVInputDriver@@0@Z 006bcab0 f i input.obj
 0002:000bab20       ?_Insert_n@?$vector@PAVInputDriver@@V?$allocator@PAVInputDriver@@@std@@@std@@IAEXV?$_Vector_iterator@PAVInputDriver@@V?$allocator@PAVInputDriver@@@std@@@2@IABQAVInputDriver@@@Z 006bcb20 f i input.obj
 0002:000bb050       ?_Xlen@?$vector@PAVInputDriver@@V?$allocator@PAVInputDriver@@@std@@@std@@KAXXZ 006bd050 f i input.obj
 0002:000bb130       ??0?$allocator@PAVInputDriver@@@std@@QAE@ABV01@@Z 006bd130 f i input.obj
 0002:000bb170       ?deallocate@?$allocator@PAVInputDriver@@@std@@QAEXPAPAVInputDriver@@I@Z 006bd170 f i input.obj
 0002:000bb1d0       ?allocate@?$allocator@PAVInputDriver@@@std@@QAEPAPAVInputDriver@@I@Z 006bd1d0 f i input.obj
 0002:000bb230       ??0?$_Vector_iterator@PAVInputDriver@@V?$allocator@PAVInputDriver@@@std@@@std@@QAE@PAPAVInputDriver@@PBV_Container_base@1@@Z 006bd230 f i input.obj
 0002:000bb290       ??H?$_Vector_iterator@PAVInputDriver@@V?$allocator@PAVInputDriver@@@std@@@std@@QBE?AV01@H@Z 006bd290 f i input.obj
 0002:000bb3b0       ??G?$_Vector_iterator@PAVInputDriver@@V?$allocator@PAVInputDriver@@@std@@@std@@QBEHABV?$_Vector_const_iterator@PAVInputDriver@@V?$allocator@PAVInputDriver@@@std@@@1@@Z 006bd3b0 f i input.obj
 0002:000bb410       ?max_size@?$allocator@PAVInputDriver@@@std@@QBEIXZ 006bd410 f i input.obj
 0002:000bb480       ??Y?$_Vector_iterator@PAVInputDriver@@V?$allocator@PAVInputDriver@@@std@@@std@@QAEAAV01@H@Z 006bd480 f i input.obj
 0002:000bb4e0       ??0?$_Vector_const_iterator@PAVInputDriver@@V?$allocator@PAVInputDriver@@@std@@@std@@QAE@PAPAVInputDriver@@PBV_Container_base@1@@Z 006bd4e0 f i input.obj
 0002:000bb610       ??G?$_Vector_const_iterator@PAVInputDriver@@V?$allocator@PAVInputDriver@@@std@@@std@@QBEHABV01@@Z 006bd610 f i input.obj
 0002:000bb680       ??0?$_Ranit@PAVInputDriver@@HPBQAV1@ABQAV1@@std@@QAE@XZ 006bd680 f i input.obj
 0002:000bb6e0       ??Y?$_Vector_const_iterator@PAVInputDriver@@V?$allocator@PAVInputDriver@@@std@@@std@@QAEAAV01@H@Z 006bd6e0 f i input.obj
 0002:000bb830       ?_Compat@?$_Vector_const_iterator@PAVInputDriver@@V?$allocator@PAVInputDriver@@@std@@@std@@QBEXABV12@@Z 006bd830 f i input.obj
 0002:000bb900       ??$?6DU?$char_traits@D@std@@V?$allocator@D@1@@std@@YAAAV?$basic_ostream@DU?$char_traits@D@std@@@0@AAV10@ABV?$basic_string@DU?$char_traits@D@std@@V?$allocator@D@2@@0@@Z 006bd900 f i input.obj
 0002:000bbe30       ??$use_facet@V?$num_put@DV?$ostreambuf_iterator@DU?$char_traits@D@std@@@std@@@std@@@std@@YAABV?$num_put@DV?$ostreambuf_iterator@DU?$char_traits@D@std@@@std@@@0@ABVlocale@0@@Z 006bde30 f i input.obj
 0002:000bbff0       ??$unchecked_uninitialized_fill_n@PAPAVInputDriver@@IPAV1@V?$allocator@PAVInputDriver@@@std@@@stdext@@YAXPAPAVInputDriver@@IABQAV1@AAV?$allocator@PAVInputDriver@@@std@@@Z 006bdff0 f i input.obj
 0002:000bc090       ??$_Destroy_range@PAVInputDriver@@V?$allocator@PAVInputDriver@@@std@@@std@@YAXPAPAVInputDriver@@0AAV?$allocator@PAVInputDriver@@@0@@Z 006be090 f i input.obj
 0002:000bc110       ??$_Umove@PAPAVInputDriver@@@?$vector@PAVInputDriver@@V?$allocator@PAVInputDriver@@@std@@@std@@IAEPAPAVInputDriver@@PAPAV2@00@Z 006be110 f i input.obj
 0002:000bc180       ??$fill@PAPAVInputDriver@@PAV1@@std@@YAXPAPAVInputDriver@@0ABQAV1@@Z 006be180 f i input.obj
 0002:000bc1f0       ??$_Unchecked_move_backward@PAPAVInputDriver@@PAPAV1@@stdext@@YAPAPAVInputDriver@@PAPAV1@00@Z 006be1f0 f i input.obj
 0002:000bc2b0       ??$_Allocate@PAVInputDriver@@@std@@YAPAPAVInputDriver@@IPAPAV1@@Z 006be2b0 f i input.obj
 0002:000bc350       ??A?$basic_string@DU?$char_traits@D@std@@V?$allocator@D@2@@std@@QBEABDI@Z 006be350 f i input.obj
 0002:000bc430       ?_Getcat@?$num_put@DV?$ostreambuf_iterator@DU?$char_traits@D@std@@@std@@@std@@SAIPAPBVfacet@locale@2@@Z 006be430 f i input.obj
 0002:000bc560       ??0?$num_put@DV?$ostreambuf_iterator@DU?$char_traits@D@std@@@std@@@std@@QAE@I@Z 006be560 f i input.obj
 0002:000bc6a0       ?do_put@?$num_put@DV?$ostreambuf_iterator@DU?$char_traits@D@std@@@std@@@std@@MBE?AV?$ostreambuf_iterator@DU?$char_traits@D@std@@@2@V32@AAVios_base@2@D_N@Z 006be6a0 f i input.obj
 0002:000bcb70       ?do_put@?$num_put@DV?$ostreambuf_iterator@DU?$char_traits@D@std@@@std@@@std@@MBE?AV?$ostreambuf_iterator@DU?$char_traits@D@std@@@2@V32@AAVios_base@2@DJ@Z 006beb70 f i input.obj
 0002:000bcd20       ?do_put@?$num_put@DV?$ostreambuf_iterator@DU?$char_traits@D@std@@@std@@@std@@MBE?AV?$ostreambuf_iterator@DU?$char_traits@D@std@@@2@V32@AAVios_base@2@DK@Z 006bed20 f i input.obj
 0002:000bced0       ?do_put@?$num_put@DV?$ostreambuf_iterator@DU?$char_traits@D@std@@@std@@@std@@MBE?AV?$ostreambuf_iterator@DU?$char_traits@D@std@@@2@V32@AAVios_base@2@D_J@Z 006beed0 f i input.obj
 0002:000bd080       ?do_put@?$num_put@DV?$ostreambuf_iterator@DU?$char_traits@D@std@@@std@@@std@@MBE?AV?$ostreambuf_iterator@DU?$char_traits@D@std@@@2@V32@AAVios_base@2@D_K@Z 006bf080 f i input.obj
 0002:000bd230       ?do_put@?$num_put@DV?$ostreambuf_iterator@DU?$char_traits@D@std@@@std@@@std@@MBE?AV?$ostreambuf_iterator@DU?$char_traits@D@std@@@2@V32@AAVios_base@2@DN@Z 006bf230 f i input.obj
 0002:000bd620       ?precision@ios_base@std@@QBEHXZ 006bf620 f i input.obj
 0002:000bd660       ?do_put@?$num_put@DV?$ostreambuf_iterator@DU?$char_traits@D@std@@@std@@@std@@MBE?AV?$ostreambuf_iterator@DU?$char_traits@D@std@@@2@V32@AAVios_base@2@DO@Z 006bf660 f i input.obj
 0002:000bda50       ?do_put@?$num_put@DV?$ostreambuf_iterator@DU?$char_traits@D@std@@@std@@@std@@MBE?AV?$ostreambuf_iterator@DU?$char_traits@D@std@@@2@V32@AAVios_base@2@DPBX@Z 006bfa50 f i input.obj
 0002:000bdbc0       ??_G?$num_put@DV?$ostreambuf_iterator@DU?$char_traits@D@std@@@std@@@std@@MAEPAXI@Z 006bfbc0 f i input.obj
 0002:000bdbc0       ??_E?$num_put@DV?$ostreambuf_iterator@DU?$char_traits@D@std@@@std@@@std@@MAEPAXI@Z 006bfbc0 f i input.obj
 0002:000bdc30       ??1?$num_put@DV?$ostreambuf_iterator@DU?$char_traits@D@std@@@std@@@std@@MAE@XZ 006bfc30 f i input.obj
 0002:000bdc90       ??4?$ostreambuf_iterator@DU?$char_traits@D@std@@@std@@QAEAAV01@ABV01@@Z 006bfc90 f i input.obj
 0002:000bdd10       ??4?$_Outit_with_base@V_Iterator_base@std@@@std@@QAEAAU01@ABU01@@Z 006bfd10 f i input.obj
 0002:000bdd70       ??4?$_Iterator_with_base@Uoutput_iterator_tag@std@@XXXXV_Iterator_base@2@@std@@QAEAAU01@ABU01@@Z 006bfd70 f i input.obj
 0002:000bddd0       ?_Ffmt@?$num_put@DV?$ostreambuf_iterator@DU?$char_traits@D@std@@@std@@@std@@ABAPADPADDH@Z 006bfdd0 f i input.obj
 0002:000bdf00       ?_Fput@?$num_put@DV?$ostreambuf_iterator@DU?$char_traits@D@std@@@std@@@std@@ABA?AV?$ostreambuf_iterator@DU?$char_traits@D@std@@@2@V32@AAVios_base@2@DPBDIIII@Z 006bff00 f i input.obj
 0002:000beca0       ?_Ifmt@?$num_put@DV?$ostreambuf_iterator@DU?$char_traits@D@std@@@std@@@std@@ABAPADPADPBDH@Z 006c0ca0 f i input.obj
 0002:000bee20       ?_Iput@?$num_put@DV?$ostreambuf_iterator@DU?$char_traits@D@std@@@std@@@std@@ABA?AV?$ostreambuf_iterator@DU?$char_traits@D@std@@@2@V32@AAVios_base@2@DPADI@Z 006c0e20 f i input.obj
 0002:000bf460       ?_Put@?$num_put@DV?$ostreambuf_iterator@DU?$char_traits@D@std@@@std@@@std@@ABA?AV?$ostreambuf_iterator@DU?$char_traits@D@std@@@2@V32@PBDI@Z 006c1460 f i input.obj
 0002:000bf570       ?_Rep@?$num_put@DV?$ostreambuf_iterator@DU?$char_traits@D@std@@@std@@@std@@ABA?AV?$ostreambuf_iterator@DU?$char_traits@D@std@@@2@V32@DI@Z 006c1570 f i input.obj
 0002:000bf670       ?falsename@?$numpunct@D@std@@QBE?AV?$basic_string@DU?$char_traits@D@std@@V?$allocator@D@2@@2@XZ 006c1670 f i input.obj
 0002:000bf700       ?truename@?$numpunct@D@std@@QBE?AV?$basic_string@DU?$char_traits@D@std@@V?$allocator@D@2@@2@XZ 006c1700 f i input.obj
 0002:000bf790       ?insert@?$basic_string@DU?$char_traits@D@std@@V?$allocator@D@2@@std@@QAEAAV12@IID@Z 006c1790 f i input.obj
 0002:000bf8b0       ?_Putc@?$num_put@DV?$ostreambuf_iterator@DU?$char_traits@D@std@@@std@@@std@@ABA?AV?$ostreambuf_iterator@DU?$char_traits@D@std@@@2@V32@PBDI@Z 006c18b0 f i input.obj
 0002:000bf9e0       ?_Putgrouped@?$num_put@DV?$ostreambuf_iterator@DU?$char_traits@D@std@@@std@@@std@@ABA?AV?$ostreambuf_iterator@DU?$char_traits@D@std@@@2@V32@PBDID@Z 006c19e0 f i input.obj
 0002:000bfc40       ??4?$ostreambuf_iterator@DU?$char_traits@D@std@@@std@@QAEAAV01@D@Z 006c1c40 f i input.obj
 0002:000bfcf0       ??D?$ostreambuf_iterator@DU?$char_traits@D@std@@@std@@QAEAAV01@XZ 006c1cf0 f i input.obj
 0002:000bfd30       ??E?$ostreambuf_iterator@DU?$char_traits@D@std@@@std@@QAEAAV01@XZ 006c1d30 f i input.obj
 0002:000bfd70       ?decimal_point@?$numpunct@D@std@@QBEDXZ 006c1d70 f i input.obj
 0002:000bfdd0       ?thousands_sep@?$numpunct@D@std@@QBEDXZ 006c1dd0 f i input.obj
 0002:000bfe30       ?grouping@?$numpunct@D@std@@QBE?AV?$basic_string@DU?$char_traits@D@std@@V?$allocator@D@2@@2@XZ 006c1e30 f i input.obj
 0002:000bfec0       ??$_Debug_pointer@V?$ostreambuf_iterator@DU?$char_traits@D@std@@@std@@@std@@YAXAAV?$ostreambuf_iterator@DU?$char_traits@D@std@@@0@PB_WI@Z 006c1ec0 f i input.obj
 0002:000bfef0       ??$use_facet@V?$numpunct@D@std@@@std@@YAABV?$numpunct@D@0@ABVlocale@0@@Z 006c1ef0 f i input.obj
 0002:000c00b0       ??$_Maklocchr@D@std@@YADDPADABU_Cvtvec@@@Z 006c20b0 f i input.obj
 0002:000c00f0       ?_Getcat@?$numpunct@D@std@@SAIPAPBVfacet@locale@2@@Z 006c20f0 f i input.obj
 0002:000c0210       ??0?$numpunct@D@std@@QAE@I@Z 006c2210 f i input.obj
 0002:000c0380       ?_Getcvt@_Locinfo@std@@QBE?AU_Cvtvec@@XZ 006c2380 f i input.obj
 0002:000c0400       ?do_decimal_point@?$numpunct@D@std@@MBEDXZ 006c2400 f i input.obj
 0002:000c0440       ?do_thousands_sep@?$numpunct@D@std@@MBEDXZ 006c2440 f i input.obj
 0002:000c0480       ?do_grouping@?$numpunct@D@std@@MBE?AV?$basic_string@DU?$char_traits@D@std@@V?$allocator@D@2@@2@XZ 006c2480 f i input.obj
 0002:000c0500       ?do_falsename@?$numpunct@D@std@@MBE?AV?$basic_string@DU?$char_traits@D@std@@V?$allocator@D@2@@2@XZ 006c2500 f i input.obj
 0002:000c0580       ?do_truename@?$numpunct@D@std@@MBE?AV?$basic_string@DU?$char_traits@D@std@@V?$allocator@D@2@@2@XZ 006c2580 f i input.obj
 0002:000c0600       ??_E?$numpunct@D@std@@MAEPAXI@Z 006c2600 f i input.obj
 0002:000c0600       ??_G?$numpunct@D@std@@MAEPAXI@Z 006c2600 f i input.obj
 0002:000c0670       ??1?$numpunct@D@std@@MAE@XZ 006c2670 f i input.obj
 0002:000c0720       ?_Tidy@?$numpunct@D@std@@AAEXXZ 006c2720 f i input.obj
 0002:000c07a0       ?_Init@?$num_put@DV?$ostreambuf_iterator@DU?$char_traits@D@std@@@std@@@std@@IAEXABV_Locinfo@2@@Z 006c27a0 f i input.obj
 0002:000c0810       ?_Init@?$numpunct@D@std@@IAEXABV_Locinfo@2@@Z 006c2810 f i input.obj
 0002:000c0a80       ?_Getlconv@_Locinfo@std@@QBEPBUlconv@@XZ 006c2a80 f i input.obj
 0002:000c0ad0       ?_Getfalse@_Locinfo@std@@QBEPBDXZ 006c2ad0 f i input.obj
 0002:000c0b10       ?_Gettrue@_Locinfo@std@@QBEPBDXZ 006c2b10 f i input.obj
 0002:000c0b50       ??$_Ptr_cat@PAPAVInputDriver@@PAPAV1@@std@@YA?AU_Scalar_ptr_iterator_tag@0@AAPAPAVInputDriver@@0@Z 006c2b50 f i input.obj
 0002:000c0bc0       ??$_Uninit_fill_n@PAPAVInputDriver@@IPAV1@V?$allocator@PAVInputDriver@@@std@@@std@@YAXPAPAVInputDriver@@IABQAV1@AAV?$allocator@PAVInputDriver@@@0@U_Scalar_ptr_iterator_tag@0@U_Range_checked_iterator_tag@0@@Z 006c2bc0 f i input.obj
 0002:000c0c20       ??$_Destroy_range@PAVInputDriver@@V?$allocator@PAVInputDriver@@@std@@@std@@YAXPAPAVInputDriver@@0AAV?$allocator@PAVInputDriver@@@0@U_Scalar_ptr_iterator_tag@0@@Z 006c2c20 f i input.obj
 0002:000c0c50       ??$_Unchecked_uninitialized_move@PAPAVInputDriver@@PAPAV1@V?$allocator@PAVInputDriver@@@std@@@stdext@@YAPAPAVInputDriver@@PAPAV1@00AAV?$allocator@PAVInputDriver@@@std@@@Z 006c2c50 f i input.obj
 0002:000c0d00       ??$_Checked_base@PAPAVInputDriver@@@std@@YAPAPAVInputDriver@@AAPAPAV1@@Z 006c2d00 f i input.obj
 0002:000c0d90       ??$_Fill@PAPAVInputDriver@@PAV1@@std@@YAXPAPAVInputDriver@@0ABQAV1@@Z 006c2d90 f i input.obj
 0002:000c0e20       ??$_Iter_random@PAPAVInputDriver@@PAPAV1@@std@@YA?AUrandom_access_iterator_tag@0@ABQAPAVInputDriver@@0@Z 006c2e20 f i input.obj
 0002:000c0e90       ??$_Move_cat@PAPAVInputDriver@@@std@@YA?AU_Undefined_move_tag@0@ABQAPAVInputDriver@@@Z 006c2e90 f i input.obj
 0002:000c0f00       ??$_Move_backward_opt@PAPAVInputDriver@@PAPAV1@Urandom_access_iterator_tag@std@@U_Undefined_move_tag@3@@std@@YAPAPAVInputDriver@@PAPAV1@00Urandom_access_iterator_tag@0@U_Undefined_move_tag@0@U_Range_checked_iterator_tag@0@@Z 006c2f00 f i input.obj
 0002:000c0fa0       ??$_Maklocstr@D@std@@YAPADPBDPADABU_Cvtvec@@@Z 006c2fa0 f i input.obj
 0002:000c1080       ??$unchecked_fill_n@PAPAVInputDriver@@IPAV1@@stdext@@YAXPAPAVInputDriver@@IABQAV1@@Z 006c3080 f i input.obj
 0002:000c1110       ??$_Uninit_move@PAPAVInputDriver@@PAPAV1@V?$allocator@PAVInputDriver@@@std@@U_Undefined_move_tag@3@@std@@YAPAPAVInputDriver@@PAPAV1@00AAV?$allocator@PAVInputDriver@@@0@U_Undefined_move_tag@0@U_Range_checked_iterator_tag@0@@Z 006c3110 f i input.obj
 0002:000c1170       ??$_Checked_base@PAPAVInputDriver@@@std@@YAPAPAVInputDriver@@AAPAPAV1@U_Unchanged_checked_iterator_base_type_tag@0@@Z 006c3170 f i input.obj
 0002:000c11b0       ??$_Debug_range@PAPAVInputDriver@@@std@@YAXPAPAVInputDriver@@0PB_WI@Z 006c31b0 f i input.obj
 0002:000c1230       ??$_Copy_backward_opt@PAPAVInputDriver@@PAPAV1@Urandom_access_iterator_tag@std@@@std@@YAPAPAVInputDriver@@PAPAV1@00Urandom_access_iterator_tag@0@U_Scalar_ptr_iterator_tag@0@U_Range_checked_iterator_tag@0@@Z 006c3230 f i input.obj
 0002:000c1310       ??$_Iter_cat@PAPAVInputDriver@@@std@@YA?AUrandom_access_iterator_tag@0@ABQAPAVInputDriver@@@Z 006c3310 f i input.obj
 0002:000c1380       ??$_Fill_n@PAPAVInputDriver@@IPAV1@@std@@YAXPAPAVInputDriver@@IABQAV1@Urandom_access_iterator_tag@0@U_Range_checked_iterator_tag@0@@Z 006c3380 f i input.obj
 0002:000c1410       ??$unchecked_uninitialized_copy@PAPAVInputDriver@@PAPAV1@V?$allocator@PAVInputDriver@@@std@@@stdext@@YAPAPAVInputDriver@@PAPAV1@00AAV?$allocator@PAVInputDriver@@@std@@@Z 006c3410 f i input.obj
 0002:000c14c0       ??$_Debug_range2@PAPAVInputDriver@@@std@@YAXPAPAVInputDriver@@0PB_WIUrandom_access_iterator_tag@0@@Z 006c34c0 f i input.obj
 0002:000c1560       ??$_Debug_pointer@PAVInputDriver@@@std@@YAXPAPAVInputDriver@@PB_WI@Z 006c3560 f i input.obj
 0002:000c15c0       ??$_Fill_n@PAPAVInputDriver@@IPAV1@@std@@YAXPAPAVInputDriver@@IABQAV1@U_Range_checked_iterator_tag@0@@Z 006c35c0 f i input.obj
 0002:000c1630       ??$_Uninit_copy@PAPAVInputDriver@@PAPAV1@V?$allocator@PAVInputDriver@@@std@@@std@@YAPAPAVInputDriver@@PAPAV1@00AAV?$allocator@PAVInputDriver@@@0@U_Scalar_ptr_iterator_tag@0@U_Range_checked_iterator_tag@0@@Z 006c3630 f i input.obj
 0002:000c1700       ??0InputDescription@@QAE@XZ 006c3700 f   input_types.obj
 0002:000c17c0       ??0InputDescription@@QAE@ABV0@@Z 006c37c0 f   input_types.obj
 0002:000c18b0       ??0InputDescription@@QAE@ABV?$basic_string@DU?$char_traits@D@std@@V?$allocator@D@2@@std@@00_N@Z 006c38b0 f   input_types.obj
 0002:000c1990       ?translate@InputDescription@@QAEXXZ 006c3990 f   input_types.obj
 0002:000c1aa0       ?getDefaultConditionID@InputDriver@@IAEHABV?$basic_string@DU?$char_traits@D@std@@V?$allocator@D@2@@std@@AAH@Z 006c3aa0 f   inputdriver.obj
 0002:000c1bd0       ?getDefaultPrefsString@InputDriver@@IAE_NHHAAV?$basic_string@DU?$char_traits@D@std@@V?$allocator@D@2@@std@@@Z 006c3bd0 f   inputdriver.obj
 0002:000c1d00       ?getDefaultVerb@InputDriver@@IAE_NHHAAV?$basic_string@DU?$char_traits@D@std@@V?$allocator@D@2@@std@@@Z 006c3d00 f   inputdriver.obj
 0002:000c1e40       ?PollForEvents@InputDriver@@UAEXXZ 006c3e40 f   inputdriver.obj
 0002:000c1e80       ?isIdle@InputDriver@@UAE_NXZ 006c3e80 f   inputdriver.obj
 0002:000c1ec0       ?getInputMode@InputDriver@@UAE?AW4InputMode@@XZ 006c3ec0 f   inputdriver.obj
 0002:000c1f00       ?getInputDescription@InputDriver@@UAE_NABUInputSpec@@AAVInputDescription@@@Z 006c3f00 f   inputdriver.obj
 0002:000c1f40       ?getFirstActiveInput@InputDriver@@UAE_NAAUInputSpec@@_N@Z 006c3f40 f   inputdriver.obj
 0002:000c1f80       ?setName@InputDriver@@IAEXABV?$basic_string@DU?$char_traits@D@std@@V?$allocator@D@2@@std@@@Z 006c3f80 f   inputdriver.obj
 0002:000c1fe0       ?getName@InputDriver@@UBEABV?$basic_string@DU?$char_traits@D@std@@V?$allocator@D@2@@std@@XZ 006c3fe0 f   inputdriver.obj
 0002:000c2020       ??6@YAAAV?$basic_ostream@DU?$char_traits@D@std@@@std@@AAV01@ABVInputDriver@@@Z 006c4020 f   inputdriver.obj
 0002:000c20b0       ??0AliasInputDriver@@QAE@XZ 006c40b0 f   inputdriver_alias.obj
 0002:000c21a0       ??0InputDriver@@QAE@XZ     006c41a0 f i inputdriver_alias.obj
 0002:000c2210       ?parseInputSpecification@AliasInputDriver@@UAE?AW4InputParserState@@ABVInputSpecTokens@@AAUInputSpec@@@Z 006c4210 f   inputdriver_alias.obj
 0002:000c2360       ?getInput@AliasInputDriver@@UAE_NABUInputSpec@@AAUInputDetails@@@Z 006c4360 f   inputdriver_alias.obj
 0002:000c23f0       ?Advance@AliasInputDriver@@UAEXXZ 006c43f0 f   inputdriver_alias.obj
 0002:000c2430       ?getLastParseError@AliasInputDriver@@UAEABV?$basic_string@DU?$char_traits@D@std@@V?$allocator@D@2@@std@@W4InputParserState@@@Z 006c4430 f   inputdriver_alias.obj
 0002:000c2480       ?getInputDescription@AliasInputDriver@@UAE_NABUInputSpec@@AAVInputDescription@@@Z 006c4480 f   inputdriver_alias.obj
 0002:000c2510       ??0ChordInputDriver@@QAE@XZ 006c4510 f   inputdriver_chord.obj
 0002:000c2620       ?parseInputSpecification@ChordInputDriver@@UAE?AW4InputParserState@@ABVInputSpecTokens@@AAUInputSpec@@@Z 006c4620 f   inputdriver_chord.obj
 0002:000c2d40       ?getInput@ChordInputDriver@@UAE_NABUInputSpec@@AAUInputDetails@@@Z 006c4d40 f   inputdriver_chord.obj
 0002:000c2f50       ?Advance@ChordInputDriver@@UAEXXZ 006c4f50 f   inputdriver_chord.obj
 0002:000c2f90       ?getLastParseError@ChordInputDriver@@UAEABV?$basic_string@DU?$char_traits@D@std@@V?$allocator@D@2@@std@@W4InputParserState@@@Z 006c4f90 f   inputdriver_chord.obj
 0002:000c2fd0       ?getInputDescription@ChordInputDriver@@UAE_NABUInputSpec@@AAVInputDescription@@@Z 006c4fd0 f   inputdriver_chord.obj
 0002:000c32e0       ?clear@?$basic_string@DU?$char_traits@D@std@@V?$allocator@D@2@@std@@QAEXXZ 006c52e0 f i inputdriver_chord.obj
 0002:000c33f0       ??0?$vector@V?$basic_string@DU?$char_traits@D@std@@V?$allocator@D@2@@std@@V?$allocator@V?$basic_string@DU?$char_traits@D@std@@V?$allocator@D@2@@std@@@2@@std@@QAE@XZ 006c53f0 f i inputdriver_chord.obj
 0002:000c34b0       ??1?$vector@V?$basic_string@DU?$char_traits@D@std@@V?$allocator@D@2@@std@@V?$allocator@V?$basic_string@DU?$char_traits@D@std@@V?$allocator@D@2@@std@@@2@@std@@QAE@XZ 006c54b0 f i inputdriver_chord.obj
 0002:000c3550       ?size@?$vector@V?$basic_string@DU?$char_traits@D@std@@V?$allocator@D@2@@std@@V?$allocator@V?$basic_string@DU?$char_traits@D@std@@V?$allocator@D@2@@std@@@2@@std@@QBEIXZ 006c5550 f i inputdriver_chord.obj
 0002:000c35c0       ??A?$vector@V?$basic_string@DU?$char_traits@D@std@@V?$allocator@D@2@@std@@V?$allocator@V?$basic_string@DU?$char_traits@D@std@@V?$allocator@D@2@@std@@@2@@std@@QAEAAV?$basic_string@DU?$char_traits@D@std@@V?$allocator@D@2@@1@I@Z 006c55c0 f i inputdriver_chord.obj
 0002:000c3700       ?push_back@?$vector@V?$basic_string@DU?$char_traits@D@std@@V?$allocator@D@2@@std@@V?$allocator@V?$basic_string@DU?$char_traits@D@std@@V?$allocator@D@2@@std@@@2@@std@@QAEXABV?$basic_string@DU?$char_traits@D@std@@V?$allocator@D@2@@2@@Z 006c5700 f i inputdriver_chord.obj
 0002:000c37f0       ?size@?$auto_vector@V?$auto_vector@$$CBUInputSpec@@@@@@QBEIXZ 006c57f0 f i inputdriver_chord.obj
 0002:000c3840       ??A?$auto_vector@V?$auto_vector@$$CBUInputSpec@@@@@@QAE?AVauto_lvalue@0@I@Z 006c5840 f i inputdriver_chord.obj
 0002:000c38b0       ??0?$auto_ptr@V?$auto_vector@$$CBUInputSpec@@@@@std@@QAE@PAV?$auto_vector@$$CBUInputSpec@@@@@Z 006c58b0 f i inputdriver_chord.obj
 0002:000c3900       ??0?$auto_ptr@V?$auto_vector@$$CBUInputSpec@@@@@std@@QAE@AAV01@@Z 006c5900 f i inputdriver_chord.obj
 0002:000c3960       ??1?$auto_ptr@V?$auto_vector@$$CBUInputSpec@@@@@std@@QAE@XZ 006c5960 f i inputdriver_chord.obj
 0002:000c3a00       ??C?$auto_ptr@V?$auto_vector@$$CBUInputSpec@@@@@std@@QBEPAV?$auto_vector@$$CBUInputSpec@@@@XZ 006c5a00 f i inputdriver_chord.obj
 0002:000c3a50       ??0?$auto_ptr@$$CBUInputSpec@@@std@@QAE@U?$auto_ptr_ref@$$CBUInputSpec@@@1@@Z 006c5a50 f i inputdriver_chord.obj
 0002:000c3ac0       ??Bauto_lvalue@?$auto_vector@V?$auto_vector@$$CBUInputSpec@@@@@@QBEPAV?$auto_vector@$$CBUInputSpec@@@@XZ 006c5ac0 f i inputdriver_chord.obj
 0002:000c3b00       ??1?$_Vector_val@V?$basic_string@DU?$char_traits@D@std@@V?$allocator@D@2@@std@@V?$allocator@V?$basic_string@DU?$char_traits@D@std@@V?$allocator@D@2@@std@@@2@@std@@QAE@XZ 006c5b00 f i inputdriver_chord.obj
 0002:000c3b50       ??1?$_Vector_iterator@V?$basic_string@DU?$char_traits@D@std@@V?$allocator@D@2@@std@@V?$allocator@V?$basic_string@DU?$char_traits@D@std@@V?$allocator@D@2@@std@@@2@@std@@QAE@XZ 006c5b50 f i inputdriver_chord.obj
 0002:000c3ba0       ??_G?$auto_vector@$$CBUInputSpec@@@@QAEPAXI@Z 006c5ba0 f i inputdriver_chord.obj
 0002:000c3c10       ??1?$_Vector_const_iterator@V?$basic_string@DU?$char_traits@D@std@@V?$allocator@D@2@@std@@V?$allocator@V?$basic_string@DU?$char_traits@D@std@@V?$allocator@D@2@@std@@@2@@std@@QAE@XZ 006c5c10 f i inputdriver_chord.obj
 0002:000c3c60       ??1?$_Ranit@V?$basic_string@DU?$char_traits@D@std@@V?$allocator@D@2@@std@@HPBV12@ABV12@@std@@QAE@XZ 006c5c60 f i inputdriver_chord.obj
 0002:000c3cb0       ?erase@?$basic_string@DU?$char_traits@D@std@@V?$allocator@D@2@@std@@QAE?AV?$_String_iterator@DU?$char_traits@D@std@@V?$allocator@D@2@@2@V32@0@Z 006c5cb0 f i inputdriver_chord.obj
 0002:000c3ee0       ?end@?$basic_string@DU?$char_traits@D@std@@V?$allocator@D@2@@std@@QAE?AV?$_String_iterator@DU?$char_traits@D@std@@V?$allocator@D@2@@2@XZ 006c5ee0 f i inputdriver_chord.obj
 0002:000c3f70       ?capacity@?$vector@V?$basic_string@DU?$char_traits@D@std@@V?$allocator@D@2@@std@@V?$allocator@V?$basic_string@DU?$char_traits@D@std@@V?$allocator@D@2@@std@@@2@@std@@QBEIXZ 006c5f70 f i inputdriver_chord.obj
 0002:000c3fe0       ?end@?$vector@V?$basic_string@DU?$char_traits@D@std@@V?$allocator@D@2@@std@@V?$allocator@V?$basic_string@DU?$char_traits@D@std@@V?$allocator@D@2@@std@@@2@@std@@QAE?AV?$_Vector_iterator@V?$basic_string@DU?$char_traits@D@std@@V?$allocator@D@2@@std@@V?$allocator@V?$basic_string@DU?$char_traits@D@std@@V?$allocator@D@2@@std@@@2@@2@XZ 006c5fe0 f i inputdriver_chord.obj
 0002:000c4070       ?insert@?$vector@V?$basic_string@DU?$char_traits@D@std@@V?$allocator@D@2@@std@@V?$allocator@V?$basic_string@DU?$char_traits@D@std@@V?$allocator@D@2@@std@@@2@@std@@QAE?AV?$_Vector_iterator@V?$basic_string@DU?$char_traits@D@std@@V?$allocator@D@2@@std@@V?$allocator@V?$basic_string@DU?$char_traits@D@std@@V?$allocator@D@2@@std@@@2@@2@V32@ABV?$basic_string@DU?$char_traits@D@std@@V?$allocator@D@2@@2@@Z 006c6070 f i inputdriver_chord.obj
 0002:000c4270       ?_Buy@?$vector@V?$basic_string@DU?$char_traits@D@std@@V?$allocator@D@2@@std@@V?$allocator@V?$basic_string@DU?$char_traits@D@std@@V?$allocator@D@2@@std@@@2@@std@@IAE_NI@Z 006c6270 f i inputdriver_chord.obj
 0002:000c4350       ?_Tidy@?$vector@V?$basic_string@DU?$char_traits@D@std@@V?$allocator@D@2@@std@@V?$allocator@V?$basic_string@DU?$char_traits@D@std@@V?$allocator@D@2@@std@@@2@@std@@IAEXXZ 006c6350 f i inputdriver_chord.obj
 0002:000c4420       ?_Ufill@?$vector@V?$basic_string@DU?$char_traits@D@std@@V?$allocator@D@2@@std@@V?$allocator@V?$basic_string@DU?$char_traits@D@std@@V?$allocator@D@2@@std@@@2@@std@@IAEPAV?$basic_string@DU?$char_traits@D@std@@V?$allocator@D@2@@2@PAV32@IABV32@@Z 006c6420 f i inputdriver_chord.obj
 0002:000c44a0       ?_Orphan_range@?$vector@V?$basic_string@DU?$char_traits@D@std@@V?$allocator@D@2@@std@@V?$allocator@V?$basic_string@DU?$char_traits@D@std@@V?$allocator@D@2@@std@@@2@@std@@IBEXPAV?$basic_string@DU?$char_traits@D@std@@V?$allocator@D@2@@2@0@Z 006c64a0 f i inputdriver_chord.obj
 0002:000c45a0       ??0?$_Vector_val@V?$basic_string@DU?$char_traits@D@std@@V?$allocator@D@2@@std@@V?$allocator@V?$basic_string@DU?$char_traits@D@std@@V?$allocator@D@2@@std@@@2@@std@@IAE@V?$allocator@V?$basic_string@DU?$char_traits@D@std@@V?$allocator@D@2@@std@@@1@@Z 006c65a0 f i inputdriver_chord.obj
 0002:000c4610       ??0?$allocator@V?$basic_string@DU?$char_traits@D@std@@V?$allocator@D@2@@std@@@std@@QAE@XZ 006c6610 f i inputdriver_chord.obj
 0002:000c4650       ?size@?$vector@PAV?$auto_vector@$$CBUInputSpec@@@@V?$allocator@PAV?$auto_vector@$$CBUInputSpec@@@@@std@@@std@@QBEIXZ 006c6650 f i inputdriver_chord.obj
 0002:000c46c0       ??A?$vector@PAV?$auto_vector@$$CBUInputSpec@@@@V?$allocator@PAV?$auto_vector@$$CBUInputSpec@@@@@std@@@std@@QAEAAPAV?$auto_vector@$$CBUInputSpec@@@@I@Z 006c66c0 f i inputdriver_chord.obj
 0002:000c4800       ??D?$auto_ptr@V?$auto_vector@$$CBUInputSpec@@@@@std@@QBEAAV?$auto_vector@$$CBUInputSpec@@@@XZ 006c6800 f i inputdriver_chord.obj
 0002:000c4880       ?release@?$auto_ptr@V?$auto_vector@$$CBUInputSpec@@@@@std@@QAEPAV?$auto_vector@$$CBUInputSpec@@@@XZ 006c6880 f i inputdriver_chord.obj
 0002:000c48d0       ??0auto_lvalue@?$auto_vector@V?$auto_vector@$$CBUInputSpec@@@@@@QAE@AAPAV?$auto_vector@$$CBUInputSpec@@@@@Z 006c68d0 f i inputdriver_chord.obj
 0002:000c4920       ??0?$_String_const_iterator@DU?$char_traits@D@std@@V?$allocator@D@2@@std@@QAE@ABV01@@Z 006c6920 f i inputdriver_chord.obj
 0002:000c4990       ??0?$_Vector_iterator@V?$basic_string@DU?$char_traits@D@std@@V?$allocator@D@2@@std@@V?$allocator@V?$basic_string@DU?$char_traits@D@std@@V?$allocator@D@2@@std@@@2@@std@@QAE@ABV01@@Z 006c6990 f i inputdriver_chord.obj
 0002:000c49f0       ??0?$_Ranit_base@DHPBDABDV_Iterator_base@std@@@std@@QAE@ABU01@@Z 006c69f0 f i inputdriver_chord.obj
 0002:000c4a50       ??0?$_Vector_const_iterator@V?$basic_string@DU?$char_traits@D@std@@V?$allocator@D@2@@std@@V?$allocator@V?$basic_string@DU?$char_traits@D@std@@V?$allocator@D@2@@std@@@2@@std@@QAE@ABV01@@Z 006c6a50 f i inputdriver_chord.obj
 0002:000c4ac0       ??0?$_Ranit@V?$basic_string@DU?$char_traits@D@std@@V?$allocator@D@2@@std@@HPBV12@ABV12@@std@@QAE@ABU01@@Z 006c6ac0 f i inputdriver_chord.obj
 0002:000c4b20       ?_Pdif@?$basic_string@DU?$char_traits@D@std@@V?$allocator@D@2@@std@@KAIV?$_String_const_iterator@DU?$char_traits@D@std@@V?$allocator@D@2@@2@0@Z 006c6b20 f i inputdriver_chord.obj
 0002:000c4c10       ?begin@?$vector@V?$basic_string@DU?$char_traits@D@std@@V?$allocator@D@2@@std@@V?$allocator@V?$basic_string@DU?$char_traits@D@std@@V?$allocator@D@2@@std@@@2@@std@@QAE?AV?$_Vector_iterator@V?$basic_string@DU?$char_traits@D@std@@V?$allocator@D@2@@std@@V?$allocator@V?$basic_string@DU?$char_traits@D@std@@V?$allocator@D@2@@std@@@2@@2@XZ 006c6c10 f i inputdriver_chord.obj
 0002:000c4ca0       ?max_size@?$vector@V?$basic_string@DU?$char_traits@D@std@@V?$allocator@D@2@@std@@V?$allocator@V?$basic_string@DU?$char_traits@D@std@@V?$allocator@D@2@@std@@@2@@std@@QBEIXZ 006c6ca0 f i inputdriver_chord.obj
 0002:000c4d00       ?_Destroy@?$vector@V?$basic_string@DU?$char_traits@D@std@@V?$allocator@D@2@@std@@V?$allocator@V?$basic_string@DU?$char_traits@D@std@@V?$allocator@D@2@@std@@@2@@std@@IAEXPAV?$basic_string@DU?$char_traits@D@std@@V?$allocator@D@2@@2@0@Z 006c6d00 f i inputdriver_chord.obj
 0002:000c4d70       ?_Insert_n@?$vector@V?$basic_string@DU?$char_traits@D@std@@V?$allocator@D@2@@std@@V?$allocator@V?$basic_string@DU?$char_traits@D@std@@V?$allocator@D@2@@std@@@2@@std@@IAEXV?$_Vector_iterator@V?$basic_string@DU?$char_traits@D@std@@V?$allocator@D@2@@std@@V?$allocator@V?$basic_string@DU?$char_traits@D@std@@V?$allocator@D@2@@std@@@2@@2@IABV?$basic_string@DU?$char_traits@D@std@@V?$allocator@D@2@@2@@Z 006c6d70 f i inputdriver_chord.obj
 0002:000c52d0       ?_Xlen@?$vector@V?$basic_string@DU?$char_traits@D@std@@V?$allocator@D@2@@std@@V?$allocator@V?$basic_string@DU?$char_traits@D@std@@V?$allocator@D@2@@std@@@2@@std@@KAXXZ 006c72d0 f i inputdriver_chord.obj
 0002:000c53b0       ??0?$allocator@V?$basic_string@DU?$char_traits@D@std@@V?$allocator@D@2@@std@@@std@@QAE@ABV01@@Z 006c73b0 f i inputdriver_chord.obj
 0002:000c53f0       ?deallocate@?$allocator@V?$basic_string@DU?$char_traits@D@std@@V?$allocator@D@2@@std@@@std@@QAEXPAV?$basic_string@DU?$char_traits@D@std@@V?$allocator@D@2@@2@I@Z 006c73f0 f i inputdriver_chord.obj
 0002:000c5450       ?allocate@?$allocator@V?$basic_string@DU?$char_traits@D@std@@V?$allocator@D@2@@std@@@std@@QAEPAV?$basic_string@DU?$char_traits@D@std@@V?$allocator@D@2@@2@I@Z 006c7450 f i inputdriver_chord.obj
 0002:000c54b0       ??0?$_Vector_iterator@V?$basic_string@DU?$char_traits@D@std@@V?$allocator@D@2@@std@@V?$allocator@V?$basic_string@DU?$char_traits@D@std@@V?$allocator@D@2@@std@@@2@@std@@QAE@PAV?$basic_string@DU?$char_traits@D@std@@V?$allocator@D@2@@1@PBV_Container_base@1@@Z 006c74b0 f i inputdriver_chord.obj
 0002:000c5510       ??H?$_Vector_iterator@V?$basic_string@DU?$char_traits@D@std@@V?$allocator@D@2@@std@@V?$allocator@V?$basic_string@DU?$char_traits@D@std@@V?$allocator@D@2@@std@@@2@@std@@QBE?AV01@H@Z 006c7510 f i inputdriver_chord.obj
 0002:000c5630       ??G?$_Vector_iterator@V?$basic_string@DU?$char_traits@D@std@@V?$allocator@D@2@@std@@V?$allocator@V?$basic_string@DU?$char_traits@D@std@@V?$allocator@D@2@@std@@@2@@std@@QBEHABV?$_Vector_const_iterator@V?$basic_string@DU?$char_traits@D@std@@V?$allocator@D@2@@std@@V?$allocator@V?$basic_string@DU?$char_traits@D@std@@V?$allocator@D@2@@std@@@2@@1@@Z 006c7630 f i inputdriver_chord.obj
 0002:000c5690       ?max_size@?$allocator@V?$basic_string@DU?$char_traits@D@std@@V?$allocator@D@2@@std@@@std@@QBEIXZ 006c7690 f i inputdriver_chord.obj
 0002:000c5700       ??G?$_String_const_iterator@DU?$char_traits@D@std@@V?$allocator@D@2@@std@@QBEHABV01@@Z 006c7700 f i inputdriver_chord.obj
 0002:000c5770       ??Y?$_Vector_iterator@V?$basic_string@DU?$char_traits@D@std@@V?$allocator@D@2@@std@@V?$allocator@V?$basic_string@DU?$char_traits@D@std@@V?$allocator@D@2@@std@@@2@@std@@QAEAAV01@H@Z 006c7770 f i inputdriver_chord.obj
 0002:000c57d0       ??0?$_Vector_const_iterator@V?$basic_string@DU?$char_traits@D@std@@V?$allocator@D@2@@std@@V?$allocator@V?$basic_string@DU?$char_traits@D@std@@V?$allocator@D@2@@std@@@2@@std@@QAE@PAV?$basic_string@DU?$char_traits@D@std@@V?$allocator@D@2@@1@PBV_Container_base@1@@Z 006c77d0 f i inputdriver_chord.obj
 0002:000c5900       ??G?$_Vector_const_iterator@V?$basic_string@DU?$char_traits@D@std@@V?$allocator@D@2@@std@@V?$allocator@V?$basic_string@DU?$char_traits@D@std@@V?$allocator@D@2@@std@@@2@@std@@QBEHABV01@@Z 006c7900 f i inputdriver_chord.obj
 0002:000c5970       ??0?$_Ranit@V?$basic_string@DU?$char_traits@D@std@@V?$allocator@D@2@@std@@HPBV12@ABV12@@std@@QAE@XZ 006c7970 f i inputdriver_chord.obj
 0002:000c59d0       ?_Compat@?$_String_const_iterator@DU?$char_traits@D@std@@V?$allocator@D@2@@std@@QBEXABV12@@Z 006c79d0 f i inputdriver_chord.obj
 0002:000c5aa0       ??Y?$_Vector_const_iterator@V?$basic_string@DU?$char_traits@D@std@@V?$allocator@D@2@@std@@V?$allocator@V?$basic_string@DU?$char_traits@D@std@@V?$allocator@D@2@@std@@@2@@std@@QAEAAV01@H@Z 006c7aa0 f i inputdriver_chord.obj
 0002:000c5bf0       ?_Compat@?$_Vector_const_iterator@V?$basic_string@DU?$char_traits@D@std@@V?$allocator@D@2@@std@@V?$allocator@V?$basic_string@DU?$char_traits@D@std@@V?$allocator@D@2@@std@@@2@@std@@QBEXABV12@@Z 006c7bf0 f i inputdriver_chord.obj
 0002:000c5cc0       ??0?$auto_vector@V?$auto_vector@$$CBUInputSpec@@@@@@QAE@I@Z 006c7cc0 f i inputdriver_chord.obj
 0002:000c5d70       ??1?$auto_vector@V?$auto_vector@$$CBUInputSpec@@@@@@QAE@XZ 006c7d70 f i inputdriver_chord.obj
 0002:000c5e10       ?push_back@?$auto_vector@V?$auto_vector@$$CBUInputSpec@@@@@@QAEXV?$auto_ptr@V?$auto_vector@$$CBUInputSpec@@@@@std@@@Z 006c7e10 f i inputdriver_chord.obj
 0002:000c5ee0       ??$?HDU?$char_traits@D@std@@V?$allocator@D@1@@std@@YA?AV?$basic_string@DU?$char_traits@D@std@@V?$allocator@D@2@@0@PBDABV10@@Z 006c7ee0 f i inputdriver_chord.obj
 0002:000c5fe0       ??$?B$$CBUInputSpec@@@?$auto_ptr@$$CBUInputSpec@@@std@@QAE?AU?$auto_ptr_ref@$$CBUInputSpec@@@1@XZ 006c7fe0 f i inputdriver_chord.obj
 0002:000c60c0       ??$unchecked_uninitialized_fill_n@PAV?$basic_string@DU?$char_traits@D@std@@V?$allocator@D@2@@std@@IV12@V?$allocator@V?$basic_string@DU?$char_traits@D@std@@V?$allocator@D@2@@std@@@2@@stdext@@YAXPAV?$basic_string@DU?$char_traits@D@std@@V?$allocator@D@2@@std@@IABV12@AAV?$allocator@V?$basic_string@DU?$char_traits@D@std@@V?$allocator@D@2@@std@@@2@@Z 006c80c0 f i inputdriver_chord.obj
 0002:000c6160       ??$_Destroy_range@V?$basic_string@DU?$char_traits@D@std@@V?$allocator@D@2@@std@@V?$allocator@V?$basic_string@DU?$char_traits@D@std@@V?$allocator@D@2@@std@@@2@@std@@YAXPAV?$basic_string@DU?$char_traits@D@std@@V?$allocator@D@2@@0@0AAV?$allocator@V?$basic_string@DU?$char_traits@D@std@@V?$allocator@D@2@@std@@@0@@Z 006c8160 f i inputdriver_chord.obj
 0002:000c61e0       ??$_Umove@PAV?$basic_string@DU?$char_traits@D@std@@V?$allocator@D@2@@std@@@?$vector@V?$basic_string@DU?$char_traits@D@std@@V?$allocator@D@2@@std@@V?$allocator@V?$basic_string@DU?$char_traits@D@std@@V?$allocator@D@2@@std@@@2@@std@@IAEPAV?$basic_string@DU?$char_traits@D@std@@V?$allocator@D@2@@1@PAV21@00@Z 006c81e0 f i inputdriver_chord.obj
 0002:000c6250       ??$fill@PAV?$basic_string@DU?$char_traits@D@std@@V?$allocator@D@2@@std@@V12@@std@@YAXPAV?$basic_string@DU?$char_traits@D@std@@V?$allocator@D@2@@0@0ABV10@@Z 006c8250 f i inputdriver_chord.obj
 0002:000c62c0       ??$_Unchecked_move_backward@PAV?$basic_string@DU?$char_traits@D@std@@V?$allocator@D@2@@std@@PAV12@@stdext@@YAPAV?$basic_string@DU?$char_traits@D@std@@V?$allocator@D@2@@std@@PAV12@00@Z 006c82c0 f i inputdriver_chord.obj
 0002:000c6380       ??$_Allocate@V?$basic_string@DU?$char_traits@D@std@@V?$allocator@D@2@@std@@@std@@YAPAV?$basic_string@DU?$char_traits@D@std@@V?$allocator@D@2@@0@IPAV10@@Z 006c8380 f i inputdriver_chord.obj
 0002:000c6420       ??0?$vector@PAV?$auto_vector@$$CBUInputSpec@@@@V?$allocator@PAV?$auto_vector@$$CBUInputSpec@@@@@std@@@std@@QAE@XZ 006c8420 f i inputdriver_chord.obj
 0002:000c64e0       ??1?$vector@PAV?$auto_vector@$$CBUInputSpec@@@@V?$allocator@PAV?$auto_vector@$$CBUInputSpec@@@@@std@@@std@@QAE@XZ 006c84e0 f i inputdriver_chord.obj
 0002:000c6580       ?reserve@?$vector@PAV?$auto_vector@$$CBUInputSpec@@@@V?$allocator@PAV?$auto_vector@$$CBUInputSpec@@@@@std@@@std@@QAEXI@Z 006c8580 f i inputdriver_chord.obj
 0002:000c67a0       ?push_back@?$vector@PAV?$auto_vector@$$CBUInputSpec@@@@V?$allocator@PAV?$auto_vector@$$CBUInputSpec@@@@@std@@@std@@QAEXABQAV?$auto_vector@$$CBUInputSpec@@@@@Z 006c87a0 f i inputdriver_chord.obj
 0002:000c6890       ?get@?$auto_ptr@V?$auto_vector@$$CBUInputSpec@@@@@std@@QBEPAV?$auto_vector@$$CBUInputSpec@@@@XZ 006c8890 f i inputdriver_chord.obj
 0002:000c68d0       ??0?$auto_ptr_ref@$$CBUInputSpec@@@std@@QAE@PAX@Z 006c88d0 f i inputdriver_chord.obj
 0002:000c6920       ??1?$_Vector_val@PAV?$auto_vector@$$CBUInputSpec@@@@V?$allocator@PAV?$auto_vector@$$CBUInputSpec@@@@@std@@@std@@QAE@XZ 006c8920 f i inputdriver_chord.obj
 0002:000c6970       ??1?$_Vector_iterator@PAV?$auto_vector@$$CBUInputSpec@@@@V?$allocator@PAV?$auto_vector@$$CBUInputSpec@@@@@std@@@std@@QAE@XZ 006c8970 f i inputdriver_chord.obj
 0002:000c69c0       ??1?$_Vector_const_iterator@PAV?$auto_vector@$$CBUInputSpec@@@@V?$allocator@PAV?$auto_vector@$$CBUInputSpec@@@@@std@@@std@@QAE@XZ 006c89c0 f i inputdriver_chord.obj
 0002:000c6a10       ??1?$_Ranit@PAV?$auto_vector@$$CBUInputSpec@@@@HPBQAV1@ABQAV1@@std@@QAE@XZ 006c8a10 f i inputdriver_chord.obj
 0002:000c6a60       ?capacity@?$vector@PAV?$auto_vector@$$CBUInputSpec@@@@V?$allocator@PAV?$auto_vector@$$CBUInputSpec@@@@@std@@@std@@QBEIXZ 006c8a60 f i inputdriver_chord.obj
 0002:000c6ad0       ?begin@?$vector@PAV?$auto_vector@$$CBUInputSpec@@@@V?$allocator@PAV?$auto_vector@$$CBUInputSpec@@@@@std@@@std@@QAE?AV?$_Vector_iterator@PAV?$auto_vector@$$CBUInputSpec@@@@V?$allocator@PAV?$auto_vector@$$CBUInputSpec@@@@@std@@@2@XZ 006c8ad0 f i inputdriver_chord.obj
 0002:000c6b60       ?end@?$vector@PAV?$auto_vector@$$CBUInputSpec@@@@V?$allocator@PAV?$auto_vector@$$CBUInputSpec@@@@@std@@@std@@QAE?AV?$_Vector_iterator@PAV?$auto_vector@$$CBUInputSpec@@@@V?$allocator@PAV?$auto_vector@$$CBUInputSpec@@@@@std@@@2@XZ 006c8b60 f i inputdriver_chord.obj
 0002:000c6bf0       ?max_size@?$vector@PAV?$auto_vector@$$CBUInputSpec@@@@V?$allocator@PAV?$auto_vector@$$CBUInputSpec@@@@@std@@@std@@QBEIXZ 006c8bf0 f i inputdriver_chord.obj
 0002:000c6c50       ?insert@?$vector@PAV?$auto_vector@$$CBUInputSpec@@@@V?$allocator@PAV?$auto_vector@$$CBUInputSpec@@@@@std@@@std@@QAE?AV?$_Vector_iterator@PAV?$auto_vector@$$CBUInputSpec@@@@V?$allocator@PAV?$auto_vector@$$CBUInputSpec@@@@@std@@@2@V32@ABQAV?$auto_vector@$$CBUInputSpec@@@@@Z 006c8c50 f i inputdriver_chord.obj
 0002:000c6e50       ?_Buy@?$vector@PAV?$auto_vector@$$CBUInputSpec@@@@V?$allocator@PAV?$auto_vector@$$CBUInputSpec@@@@@std@@@std@@IAE_NI@Z 006c8e50 f i inputdriver_chord.obj
 0002:000c6f30       ?_Destroy@?$vector@PAV?$auto_vector@$$CBUInputSpec@@@@V?$allocator@PAV?$auto_vector@$$CBUInputSpec@@@@@std@@@std@@IAEXPAPAV?$auto_vector@$$CBUInputSpec@@@@0@Z 006c8f30 f i inputdriver_chord.obj
 0002:000c6fa0       ?_Tidy@?$vector@PAV?$auto_vector@$$CBUInputSpec@@@@V?$allocator@PAV?$auto_vector@$$CBUInputSpec@@@@@std@@@std@@IAEXXZ 006c8fa0 f i inputdriver_chord.obj
 0002:000c7070       ?_Ufill@?$vector@PAV?$auto_vector@$$CBUInputSpec@@@@V?$allocator@PAV?$auto_vector@$$CBUInputSpec@@@@@std@@@std@@IAEPAPAV?$auto_vector@$$CBUInputSpec@@@@PAPAV3@IABQAV3@@Z 006c9070 f i inputdriver_chord.obj
 0002:000c70f0       ?_Xlen@?$vector@PAV?$auto_vector@$$CBUInputSpec@@@@V?$allocator@PAV?$auto_vector@$$CBUInputSpec@@@@@std@@@std@@KAXXZ 006c90f0 f i inputdriver_chord.obj
 0002:000c71d0       ?_Orphan_range@?$vector@PAV?$auto_vector@$$CBUInputSpec@@@@V?$allocator@PAV?$auto_vector@$$CBUInputSpec@@@@@std@@@std@@IBEXPAPAV?$auto_vector@$$CBUInputSpec@@@@0@Z 006c91d0 f i inputdriver_chord.obj
 0002:000c72d0       ??0?$_Vector_val@PAV?$auto_vector@$$CBUInputSpec@@@@V?$allocator@PAV?$auto_vector@$$CBUInputSpec@@@@@std@@@std@@IAE@V?$allocator@PAV?$auto_vector@$$CBUInputSpec@@@@@1@@Z 006c92d0 f i inputdriver_chord.obj
 0002:000c7340       ??0?$allocator@PAV?$auto_vector@$$CBUInputSpec@@@@@std@@QAE@XZ 006c9340 f i inputdriver_chord.obj
 0002:000c7380       ?deallocate@?$allocator@PAV?$auto_vector@$$CBUInputSpec@@@@@std@@QAEXPAPAV?$auto_vector@$$CBUInputSpec@@@@I@Z 006c9380 f i inputdriver_chord.obj
 0002:000c73e0       ?allocate@?$allocator@PAV?$auto_vector@$$CBUInputSpec@@@@@std@@QAEPAPAV?$auto_vector@$$CBUInputSpec@@@@I@Z 006c93e0 f i inputdriver_chord.obj
 0002:000c7440       ??0?$_Vector_iterator@PAV?$auto_vector@$$CBUInputSpec@@@@V?$allocator@PAV?$auto_vector@$$CBUInputSpec@@@@@std@@@std@@QAE@ABV01@@Z 006c9440 f i inputdriver_chord.obj
 0002:000c74a0       ??0?$_Vector_const_iterator@PAV?$auto_vector@$$CBUInputSpec@@@@V?$allocator@PAV?$auto_vector@$$CBUInputSpec@@@@@std@@@std@@QAE@ABV01@@Z 006c94a0 f i inputdriver_chord.obj
 0002:000c7510       ??0?$_Ranit@PAV?$auto_vector@$$CBUInputSpec@@@@HPBQAV1@ABQAV1@@std@@QAE@ABU01@@Z 006c9510 f i inputdriver_chord.obj
 0002:000c7570       ?_Insert_n@?$vector@PAV?$auto_vector@$$CBUInputSpec@@@@V?$allocator@PAV?$auto_vector@$$CBUInputSpec@@@@@std@@@std@@IAEXV?$_Vector_iterator@PAV?$auto_vector@$$CBUInputSpec@@@@V?$allocator@PAV?$auto_vector@$$CBUInputSpec@@@@@std@@@2@IABQAV?$auto_vector@$$CBUInputSpec@@@@@Z 006c9570 f i inputdriver_chord.obj
 0002:000c7aa0       ??0?$allocator@PAV?$auto_vector@$$CBUInputSpec@@@@@std@@QAE@ABV01@@Z 006c9aa0 f i inputdriver_chord.obj
 0002:000c7ae0       ?max_size@?$allocator@PAV?$auto_vector@$$CBUInputSpec@@@@@std@@QBEIXZ 006c9ae0 f i inputdriver_chord.obj
 0002:000c7b50       ??0?$_Vector_iterator@PAV?$auto_vector@$$CBUInputSpec@@@@V?$allocator@PAV?$auto_vector@$$CBUInputSpec@@@@@std@@@std@@QAE@PAPAV?$auto_vector@$$CBUInputSpec@@@@PBV_Container_base@1@@Z 006c9b50 f i inputdriver_chord.obj
 0002:000c7bb0       ??H?$_Vector_iterator@PAV?$auto_vector@$$CBUInputSpec@@@@V?$allocator@PAV?$auto_vector@$$CBUInputSpec@@@@@std@@@std@@QBE?AV01@H@Z 006c9bb0 f i inputdriver_chord.obj
 0002:000c7cd0       ??G?$_Vector_iterator@PAV?$auto_vector@$$CBUInputSpec@@@@V?$allocator@PAV?$auto_vector@$$CBUInputSpec@@@@@std@@@std@@QBEHABV?$_Vector_const_iterator@PAV?$auto_vector@$$CBUInputSpec@@@@V?$allocator@PAV?$auto_vector@$$CBUInputSpec@@@@@std@@@1@@Z 006c9cd0 f i inputdriver_chord.obj
 0002:000c7d30       ??Y?$_Vector_iterator@PAV?$auto_vector@$$CBUInputSpec@@@@V?$allocator@PAV?$auto_vector@$$CBUInputSpec@@@@@std@@@std@@QAEAAV01@H@Z 006c9d30 f i inputdriver_chord.obj
 0002:000c7d90       ??0?$_Vector_const_iterator@PAV?$auto_vector@$$CBUInputSpec@@@@V?$allocator@PAV?$auto_vector@$$CBUInputSpec@@@@@std@@@std@@QAE@PAPAV?$auto_vector@$$CBUInputSpec@@@@PBV_Container_base@1@@Z 006c9d90 f i inputdriver_chord.obj
 0002:000c7ec0       ??G?$_Vector_const_iterator@PAV?$auto_vector@$$CBUInputSpec@@@@V?$allocator@PAV?$auto_vector@$$CBUInputSpec@@@@@std@@@std@@QBEHABV01@@Z 006c9ec0 f i inputdriver_chord.obj
 0002:000c7f30       ??0?$_Ranit@PAV?$auto_vector@$$CBUInputSpec@@@@HPBQAV1@ABQAV1@@std@@QAE@XZ 006c9f30 f i inputdriver_chord.obj
 0002:000c7f90       ??Y?$_Vector_const_iterator@PAV?$auto_vector@$$CBUInputSpec@@@@V?$allocator@PAV?$auto_vector@$$CBUInputSpec@@@@@std@@@std@@QAEAAV01@H@Z 006c9f90 f i inputdriver_chord.obj
 0002:000c80e0       ?_Compat@?$_Vector_const_iterator@PAV?$auto_vector@$$CBUInputSpec@@@@V?$allocator@PAV?$auto_vector@$$CBUInputSpec@@@@@std@@@std@@QBEXABV12@@Z 006ca0e0 f i inputdriver_chord.obj
 0002:000c81b0       ?clear@?$auto_vector@V?$auto_vector@$$CBUInputSpec@@@@@@QAEXXZ 006ca1b0 f i inputdriver_chord.obj
 0002:000c82d0       ??$_Ptr_cat@PAV?$basic_string@DU?$char_traits@D@std@@V?$allocator@D@2@@std@@PAV12@@std@@YA?AU_Nonscalar_ptr_iterator_tag@0@AAPAV?$basic_string@DU?$char_traits@D@std@@V?$allocator@D@2@@0@0@Z 006ca2d0 f i inputdriver_chord.obj
 0002:000c8340       ??$_Uninit_fill_n@PAV?$basic_string@DU?$char_traits@D@std@@V?$allocator@D@2@@std@@IV12@V?$allocator@V?$basic_string@DU?$char_traits@D@std@@V?$allocator@D@2@@std@@@2@@std@@YAXPAV?$basic_string@DU?$char_traits@D@std@@V?$allocator@D@2@@0@IABV10@AAV?$allocator@V?$basic_string@DU?$char_traits@D@std@@V?$allocator@D@2@@std@@@0@U_Nonscalar_ptr_iterator_tag@0@U_Range_checked_iterator_tag@0@@Z 006ca340 f i inputdriver_chord.obj
 0002:000c8460       ??$_Destroy_range@V?$basic_string@DU?$char_traits@D@std@@V?$allocator@D@2@@std@@V?$allocator@V?$basic_string@DU?$char_traits@D@std@@V?$allocator@D@2@@std@@@2@@std@@YAXPAV?$basic_string@DU?$char_traits@D@std@@V?$allocator@D@2@@0@0AAV?$allocator@V?$basic_string@DU?$char_traits@D@std@@V?$allocator@D@2@@std@@@0@U_Nonscalar_ptr_iterator_tag@0@@Z 006ca460 f i inputdriver_chord.obj
 0002:000c84d0       ??$_Unchecked_uninitialized_move@PAV?$basic_string@DU?$char_traits@D@std@@V?$allocator@D@2@@std@@PAV12@V?$allocator@V?$basic_string@DU?$char_traits@D@std@@V?$allocator@D@2@@std@@@2@@stdext@@YAPAV?$basic_string@DU?$char_traits@D@std@@V?$allocator@D@2@@std@@PAV12@00AAV?$allocator@V?$basic_string@DU?$char_traits@D@std@@V?$allocator@D@2@@std@@@2@@Z 006ca4d0 f i inputdriver_chord.obj
 0002:000c8580       ??$_Checked_base@PAV?$basic_string@DU?$char_traits@D@std@@V?$allocator@D@2@@std@@@std@@YAPAV?$basic_string@DU?$char_traits@D@std@@V?$allocator@D@2@@0@AAPAV10@@Z 006ca580 f i inputdriver_chord.obj
 0002:000c8610       ??$_Fill@PAV?$basic_string@DU?$char_traits@D@std@@V?$allocator@D@2@@std@@V12@@std@@YAXPAV?$basic_string@DU?$char_traits@D@std@@V?$allocator@D@2@@0@0ABV10@@Z 006ca610 f i inputdriver_chord.obj
 0002:000c86a0       ??$_Iter_random@PAV?$basic_string@DU?$char_traits@D@std@@V?$allocator@D@2@@std@@PAV12@@std@@YA?AUrandom_access_iterator_tag@0@ABQAV?$basic_string@DU?$char_traits@D@std@@V?$allocator@D@2@@0@0@Z 006ca6a0 f i inputdriver_chord.obj
 0002:000c8710       ??$_Move_cat@PAV?$basic_string@DU?$char_traits@D@std@@V?$allocator@D@2@@std@@@std@@YA?AU_Swap_move_tag@0@ABQAV?$basic_string@DU?$char_traits@D@std@@V?$allocator@D@2@@0@@Z 006ca710 f i inputdriver_chord.obj
 0002:000c8780       ??$_Move_backward_opt@PAV?$basic_string@DU?$char_traits@D@std@@V?$allocator@D@2@@std@@PAV12@@std@@YAPAV?$basic_string@DU?$char_traits@D@std@@V?$allocator@D@2@@0@PAV10@00Urandom_access_iterator_tag@0@U_Swap_move_tag@0@U_Range_checked_iterator_tag@0@@Z 006ca780 f i inputdriver_chord.obj
 0002:000c8820       ??$_Umove@V?$_Vector_iterator@PAV?$auto_vector@$$CBUInputSpec@@@@V?$allocator@PAV?$auto_vector@$$CBUInputSpec@@@@@std@@@std@@@?$vector@PAV?$auto_vector@$$CBUInputSpec@@@@V?$allocator@PAV?$auto_vector@$$CBUInputSpec@@@@@std@@@std@@IAEPAPAV?$auto_vector@$$CBUInputSpec@@@@V?$_Vector_iterator@PAV?$auto_vector@$$CBUInputSpec@@@@V?$allocator@PAV?$auto_vector@$$CBUInputSpec@@@@@std@@@1@0PAPAV2@@Z 006ca820 f i inputdriver_chord.obj
 0002:000c8960       ??$_Destroy_range@PAV?$auto_vector@$$CBUInputSpec@@@@V?$allocator@PAV?$auto_vector@$$CBUInputSpec@@@@@std@@@std@@YAXPAPAV?$auto_vector@$$CBUInputSpec@@@@0AAV?$allocator@PAV?$auto_vector@$$CBUInputSpec@@@@@0@@Z 006ca960 f i inputdriver_chord.obj
 0002:000c89e0       ??$unchecked_uninitialized_fill_n@PAPAV?$auto_vector@$$CBUInputSpec@@@@IPAV1@V?$allocator@PAV?$auto_vector@$$CBUInputSpec@@@@@std@@@stdext@@YAXPAPAV?$auto_vector@$$CBUInputSpec@@@@IABQAV1@AAV?$allocator@PAV?$auto_vector@$$CBUInputSpec@@@@@std@@@Z 006ca9e0 f i inputdriver_chord.obj
 0002:000c8a80       ??$_Allocate@PAV?$auto_vector@$$CBUInputSpec@@@@@std@@YAPAPAV?$auto_vector@$$CBUInputSpec@@@@IPAPAV1@@Z 006caa80 f i inputdriver_chord.obj
 0002:000c8b20       ??$_Umove@PAPAV?$auto_vector@$$CBUInputSpec@@@@@?$vector@PAV?$auto_vector@$$CBUInputSpec@@@@V?$allocator@PAV?$auto_vector@$$CBUInputSpec@@@@@std@@@std@@IAEPAPAV?$auto_vector@$$CBUInputSpec@@@@PAPAV2@00@Z 006cab20 f i inputdriver_chord.obj
 0002:000c8b90       ??$fill@PAPAV?$auto_vector@$$CBUInputSpec@@@@PAV1@@std@@YAXPAPAV?$auto_vector@$$CBUInputSpec@@@@0ABQAV1@@Z 006cab90 f i inputdriver_chord.obj
 0002:000c8c00       ??$_Unchecked_move_backward@PAPAV?$auto_vector@$$CBUInputSpec@@@@PAPAV1@@stdext@@YAPAPAV?$auto_vector@$$CBUInputSpec@@@@PAPAV1@00@Z 006cac00 f i inputdriver_chord.obj
 0002:000c8cc0       ?construct@?$allocator@V?$basic_string@DU?$char_traits@D@std@@V?$allocator@D@2@@std@@@std@@QAEXPAV?$basic_string@DU?$char_traits@D@std@@V?$allocator@D@2@@2@ABV32@@Z 006cacc0 f i inputdriver_chord.obj
 0002:000c8d20       ?destroy@?$allocator@V?$basic_string@DU?$char_traits@D@std@@V?$allocator@D@2@@std@@@std@@QAEXPAV?$basic_string@DU?$char_traits@D@std@@V?$allocator@D@2@@2@@Z 006cad20 f i inputdriver_chord.obj
 0002:000c8d80       ?begin@?$auto_vector@V?$auto_vector@$$CBUInputSpec@@@@@@QAE?AV?$_Vector_iterator@PAV?$auto_vector@$$CBUInputSpec@@@@V?$allocator@PAV?$auto_vector@$$CBUInputSpec@@@@@std@@@std@@XZ 006cad80 f i inputdriver_chord.obj
 0002:000c8e00       ?end@?$auto_vector@V?$auto_vector@$$CBUInputSpec@@@@@@QAE?AV?$_Vector_iterator@PAV?$auto_vector@$$CBUInputSpec@@@@V?$allocator@PAV?$auto_vector@$$CBUInputSpec@@@@@std@@@std@@XZ 006cae00 f i inputdriver_chord.obj
 0002:000c8e80       ?clear@?$vector@PAV?$auto_vector@$$CBUInputSpec@@@@V?$allocator@PAV?$auto_vector@$$CBUInputSpec@@@@@std@@@std@@QAEXXZ 006cae80 f i inputdriver_chord.obj
 0002:000c8f90       ?erase@?$vector@PAV?$auto_vector@$$CBUInputSpec@@@@V?$allocator@PAV?$auto_vector@$$CBUInputSpec@@@@@std@@@std@@QAE?AV?$_Vector_iterator@PAV?$auto_vector@$$CBUInputSpec@@@@V?$allocator@PAV?$auto_vector@$$CBUInputSpec@@@@@std@@@2@V32@0@Z 006caf90 f i inputdriver_chord.obj
 0002:000c9140       ??9?$_Vector_const_iterator@PAV?$auto_vector@$$CBUInputSpec@@@@V?$allocator@PAV?$auto_vector@$$CBUInputSpec@@@@@std@@@std@@QBE_NABV01@@Z 006cb140 f i inputdriver_chord.obj
 0002:000c91b0       ??M?$_Vector_const_iterator@PAV?$auto_vector@$$CBUInputSpec@@@@V?$allocator@PAV?$auto_vector@$$CBUInputSpec@@@@@std@@@std@@QBE_NABV01@@Z 006cb1b0 f i inputdriver_chord.obj
 0002:000c9220       ??8?$_Vector_const_iterator@PAV?$auto_vector@$$CBUInputSpec@@@@V?$allocator@PAV?$auto_vector@$$CBUInputSpec@@@@@std@@@std@@QBE_NABV01@@Z 006cb220 f i inputdriver_chord.obj
 0002:000c9290       ??$for_each@V?$_Vector_iterator@PAV?$auto_vector@$$CBUInputSpec@@@@V?$allocator@PAV?$auto_vector@$$CBUInputSpec@@@@@std@@@std@@V?$DeletePtr@V?$auto_vector@$$CBUInputSpec@@@@@@@std@@YA?AV?$DeletePtr@V?$auto_vector@$$CBUInputSpec@@@@@@V?$_Vector_iterator@PAV?$auto_vector@$$CBUInputSpec@@@@V?$allocator@PAV?$auto_vector@$$CBUInputSpec@@@@@std@@@0@0V1@@Z 006cb290 f i inputdriver_chord.obj
 0002:000c94b0       ??$_Uninit_move@PAV?$basic_string@DU?$char_traits@D@std@@V?$allocator@D@2@@std@@PAV12@V?$allocator@V?$basic_string@DU?$char_traits@D@std@@V?$allocator@D@2@@std@@@2@@std@@YAPAV?$basic_string@DU?$char_traits@D@std@@V?$allocator@D@2@@0@PAV10@00AAV?$allocator@V?$basic_string@DU?$char_traits@D@std@@V?$allocator@D@2@@std@@@0@U_Swap_move_tag@0@U_Range_checked_iterator_tag@0@@Z 006cb4b0 f i inputdriver_chord.obj
 0002:000c96a0       ??$_Checked_base@PAV?$basic_string@DU?$char_traits@D@std@@V?$allocator@D@2@@std@@@std@@YAPAV?$basic_string@DU?$char_traits@D@std@@V?$allocator@D@2@@0@AAPAV10@U_Unchanged_checked_iterator_base_type_tag@0@@Z 006cb6a0 f i inputdriver_chord.obj
 0002:000c96e0       ??$_Debug_range@PAV?$basic_string@DU?$char_traits@D@std@@V?$allocator@D@2@@std@@@std@@YAXPAV?$basic_string@DU?$char_traits@D@std@@V?$allocator@D@2@@0@0PB_WI@Z 006cb6e0 f i inputdriver_chord.obj
 0002:000c9760       ??$_Move_backward_opt@PAV?$basic_string@DU?$char_traits@D@std@@V?$allocator@D@2@@std@@PAV12@Uforward_iterator_tag@2@@std@@YAPAV?$basic_string@DU?$char_traits@D@std@@V?$allocator@D@2@@0@PAV10@00Uforward_iterator_tag@0@U_Swap_move_tag@0@U_Range_checked_iterator_tag@0@@Z 006cb760 f i inputdriver_chord.obj
 0002:000c9800       ??$_Unchecked_uninitialized_move@V?$_Vector_iterator@PAV?$auto_vector@$$CBUInputSpec@@@@V?$allocator@PAV?$auto_vector@$$CBUInputSpec@@@@@std@@@std@@PAPAV?$auto_vector@$$CBUInputSpec@@@@V?$allocator@PAV?$auto_vector@$$CBUInputSpec@@@@@2@@stdext@@YAPAPAV?$auto_vector@$$CBUInputSpec@@@@V?$_Vector_iterator@PAV?$auto_vector@$$CBUInputSpec@@@@V?$allocator@PAV?$auto_vector@$$CBUInputSpec@@@@@std@@@std@@0PAPAV1@AAV?$allocator@PAV?$auto_vector@$$CBUInputSpec@@@@@3@@Z 006cb800 f i inputdriver_chord.obj
 0002:000c9970       ??$_Ptr_cat@PAPAV?$auto_vector@$$CBUInputSpec@@@@PAPAV1@@std@@YA?AU_Scalar_ptr_iterator_tag@0@AAPAPAV?$auto_vector@$$CBUInputSpec@@@@0@Z 006cb970 f i inputdriver_chord.obj
 0002:000c99e0       ??$_Destroy_range@PAV?$auto_vector@$$CBUInputSpec@@@@V?$allocator@PAV?$auto_vector@$$CBUInputSpec@@@@@std@@@std@@YAXPAPAV?$auto_vector@$$CBUInputSpec@@@@0AAV?$allocator@PAV?$auto_vector@$$CBUInputSpec@@@@@0@U_Scalar_ptr_iterator_tag@0@@Z 006cb9e0 f i inputdriver_chord.obj
 0002:000c9a10       ??$_Uninit_fill_n@PAPAV?$auto_vector@$$CBUInputSpec@@@@IPAV1@V?$allocator@PAV?$auto_vector@$$CBUInputSpec@@@@@std@@@std@@YAXPAPAV?$auto_vector@$$CBUInputSpec@@@@IABQAV1@AAV?$allocator@PAV?$auto_vector@$$CBUInputSpec@@@@@0@U_Scalar_ptr_iterator_tag@0@U_Range_checked_iterator_tag@0@@Z 006cba10 f i inputdriver_chord.obj
 0002:000c9a70       ??$_Unchecked_uninitialized_move@PAPAV?$auto_vector@$$CBUInputSpec@@@@PAPAV1@V?$allocator@PAV?$auto_vector@$$CBUInputSpec@@@@@std@@@stdext@@YAPAPAV?$auto_vector@$$CBUInputSpec@@@@PAPAV1@00AAV?$allocator@PAV?$auto_vector@$$CBUInputSpec@@@@@std@@@Z 006cba70 f i inputdriver_chord.obj
 0002:000c9b20       ??$_Checked_base@PAPAV?$auto_vector@$$CBUInputSpec@@@@@std@@YAPAPAV?$auto_vector@$$CBUInputSpec@@@@AAPAPAV1@@Z 006cbb20 f i inputdriver_chord.obj
 0002:000c9bb0       ??$_Fill@PAPAV?$auto_vector@$$CBUInputSpec@@@@PAV1@@std@@YAXPAPAV?$auto_vector@$$CBUInputSpec@@@@0ABQAV1@@Z 006cbbb0 f i inputdriver_chord.obj
 0002:000c9c40       ??$_Iter_random@PAPAV?$auto_vector@$$CBUInputSpec@@@@PAPAV1@@std@@YA?AUrandom_access_iterator_tag@0@ABQAPAV?$auto_vector@$$CBUInputSpec@@@@0@Z 006cbc40 f i inputdriver_chord.obj
 0002:000c9cb0       ??$_Move_cat@PAPAV?$auto_vector@$$CBUInputSpec@@@@@std@@YA?AU_Undefined_move_tag@0@ABQAPAV?$auto_vector@$$CBUInputSpec@@@@@Z 006cbcb0 f i inputdriver_chord.obj
 0002:000c9d20       ??$_Move_backward_opt@PAPAV?$auto_vector@$$CBUInputSpec@@@@PAPAV1@Urandom_access_iterator_tag@std@@U_Undefined_move_tag@3@@std@@YAPAPAV?$auto_vector@$$CBUInputSpec@@@@PAPAV1@00Urandom_access_iterator_tag@0@U_Undefined_move_tag@0@U_Range_checked_iterator_tag@0@@Z 006cbd20 f i inputdriver_chord.obj
 0002:000c9dc0       ??$_Construct@V?$basic_string@DU?$char_traits@D@std@@V?$allocator@D@2@@std@@V12@@std@@YAXPAV?$basic_string@DU?$char_traits@D@std@@V?$allocator@D@2@@0@ABV10@@Z 006cbdc0 f i inputdriver_chord.obj
 0002:000c9eb0       ??$_Destroy@V?$basic_string@DU?$char_traits@D@std@@V?$allocator@D@2@@std@@@std@@YAXPAV?$basic_string@DU?$char_traits@D@std@@V?$allocator@D@2@@0@@Z 006cbeb0 f i inputdriver_chord.obj
 0002:000c9f00       ??$unchecked_copy@PAPAV?$auto_vector@$$CBUInputSpec@@@@PAPAV1@@stdext@@YAPAPAV?$auto_vector@$$CBUInputSpec@@@@PAPAV1@00@Z 006cbf00 f i inputdriver_chord.obj
 0002:000c9fd0       ??_G?$basic_string@DU?$char_traits@D@std@@V?$allocator@D@2@@std@@QAEPAXI@Z 006cbfd0 f i inputdriver_chord.obj
 0002:000ca040       ??D?$_Vector_iterator@PAV?$auto_vector@$$CBUInputSpec@@@@V?$allocator@PAV?$auto_vector@$$CBUInputSpec@@@@@std@@@std@@QBEAAPAV?$auto_vector@$$CBUInputSpec@@@@XZ 006cc040 f i inputdriver_chord.obj
 0002:000ca090       ??E?$_Vector_iterator@PAV?$auto_vector@$$CBUInputSpec@@@@V?$allocator@PAV?$auto_vector@$$CBUInputSpec@@@@@std@@@std@@QAEAAV01@XZ 006cc090 f i inputdriver_chord.obj
 0002:000ca0f0       ??R?$DeletePtr@V?$auto_vector@$$CBUInputSpec@@@@@@QAEXPAV?$auto_vector@$$CBUInputSpec@@@@@Z 006cc0f0 f i inputdriver_chord.obj
 0002:000ca190       ??D?$_Vector_const_iterator@PAV?$auto_vector@$$CBUInputSpec@@@@V?$allocator@PAV?$auto_vector@$$CBUInputSpec@@@@@std@@@std@@QBEABQAV?$auto_vector@$$CBUInputSpec@@@@XZ 006cc190 f i inputdriver_chord.obj
 0002:000ca280       ??E?$_Vector_const_iterator@PAV?$auto_vector@$$CBUInputSpec@@@@V?$allocator@PAV?$auto_vector@$$CBUInputSpec@@@@@std@@@std@@QAEAAV01@XZ 006cc280 f i inputdriver_chord.obj
 0002:000ca3a0       ??$_Debug_range@V?$_Vector_iterator@PAV?$auto_vector@$$CBUInputSpec@@@@V?$allocator@PAV?$auto_vector@$$CBUInputSpec@@@@@std@@@std@@@std@@YAXV?$_Vector_iterator@PAV?$auto_vector@$$CBUInputSpec@@@@V?$allocator@PAV?$auto_vector@$$CBUInputSpec@@@@@std@@@0@0PB_WI@Z 006cc3a0 f i inputdriver_chord.obj
 0002:000ca4d0       ??$_Debug_pointer@V?$DeletePtr@V?$auto_vector@$$CBUInputSpec@@@@@@@std@@YAXAAV?$DeletePtr@V?$auto_vector@$$CBUInputSpec@@@@@@PB_WI@Z 006cc4d0 f i inputdriver_chord.obj
 0002:000ca500       ??$_Checked_base@V?$_Vector_iterator@PAV?$auto_vector@$$CBUInputSpec@@@@V?$allocator@PAV?$auto_vector@$$CBUInputSpec@@@@@std@@@std@@@std@@YA?AV?$_Vector_iterator@PAV?$auto_vector@$$CBUInputSpec@@@@V?$allocator@PAV?$auto_vector@$$CBUInputSpec@@@@@std@@@0@AAV10@@Z 006cc500 f i inputdriver_chord.obj
 0002:000ca5c0       ??$_Debug_pointer@V?$basic_string@DU?$char_traits@D@std@@V?$allocator@D@2@@std@@@std@@YAXPAV?$basic_string@DU?$char_traits@D@std@@V?$allocator@D@2@@0@PB_WI@Z 006cc5c0 f i inputdriver_chord.obj
 0002:000ca620       ??$swap@DU?$char_traits@D@std@@V?$allocator@D@2@@std@@YAXAAV?$basic_string@DU?$char_traits@D@std@@V?$allocator@D@2@@0@0@Z 006cc620 f i inputdriver_chord.obj
 0002:000ca670       ??$_Iter_cat@PAV?$basic_string@DU?$char_traits@D@std@@V?$allocator@D@2@@std@@@std@@YA?AUrandom_access_iterator_tag@0@ABQAV?$basic_string@DU?$char_traits@D@std@@V?$allocator@D@2@@0@@Z 006cc670 f i inputdriver_chord.obj
 0002:000ca6e0       ??$_Debug_range2@PAV?$basic_string@DU?$char_traits@D@std@@V?$allocator@D@2@@std@@@std@@YAXPAV?$basic_string@DU?$char_traits@D@std@@V?$allocator@D@2@@0@0PB_WIUrandom_access_iterator_tag@0@@Z 006cc6e0 f i inputdriver_chord.obj
 0002:000ca780       ??$_Uninit_move@V?$_Vector_iterator@PAV?$auto_vector@$$CBUInputSpec@@@@V?$allocator@PAV?$auto_vector@$$CBUInputSpec@@@@@std@@@std@@PAPAV?$auto_vector@$$CBUInputSpec@@@@V?$allocator@PAV?$auto_vector@$$CBUInputSpec@@@@@2@U_Undefined_move_tag@2@@std@@YAPAPAV?$auto_vector@$$CBUInputSpec@@@@V?$_Vector_iterator@PAV?$auto_vector@$$CBUInputSpec@@@@V?$allocator@PAV?$auto_vector@$$CBUInputSpec@@@@@std@@@0@0PAPAV1@AAV?$allocator@PAV?$auto_vector@$$CBUInputSpec@@@@@0@U_Undefined_move_tag@0@U_Range_checked_iterator_tag@0@@Z 006cc780 f i inputdriver_chord.obj
 0002:000ca8b0       ??$unchecked_fill_n@PAPAV?$auto_vector@$$CBUInputSpec@@@@IPAV1@@stdext@@YAXPAPAV?$auto_vector@$$CBUInputSpec@@@@IABQAV1@@Z 006cc8b0 f i inputdriver_chord.obj
 0002:000ca940       ??$_Uninit_move@PAPAV?$auto_vector@$$CBUInputSpec@@@@PAPAV1@V?$allocator@PAV?$auto_vector@$$CBUInputSpec@@@@@std@@U_Undefined_move_tag@3@@std@@YAPAPAV?$auto_vector@$$CBUInputSpec@@@@PAPAV1@00AAV?$allocator@PAV?$auto_vector@$$CBUInputSpec@@@@@0@U_Undefined_move_tag@0@U_Range_checked_iterator_tag@0@@Z 006cc940 f i inputdriver_chord.obj
 0002:000ca9a0       ??$_Checked_base@PAPAV?$auto_vector@$$CBUInputSpec@@@@@std@@YAPAPAV?$auto_vector@$$CBUInputSpec@@@@AAPAPAV1@U_Unchanged_checked_iterator_base_type_tag@0@@Z 006cc9a0 f i inputdriver_chord.obj
 0002:000ca9e0       ??$_Debug_range@PAPAV?$auto_vector@$$CBUInputSpec@@@@@std@@YAXPAPAV?$auto_vector@$$CBUInputSpec@@@@0PB_WI@Z 006cc9e0 f i inputdriver_chord.obj
 0002:000caa60       ??$_Copy_backward_opt@PAPAV?$auto_vector@$$CBUInputSpec@@@@PAPAV1@Urandom_access_iterator_tag@std@@@std@@YAPAPAV?$auto_vector@$$CBUInputSpec@@@@PAPAV1@00Urandom_access_iterator_tag@0@U_Scalar_ptr_iterator_tag@0@U_Range_checked_iterator_tag@0@@Z 006cca60 f i inputdriver_chord.obj
 0002:000cab40       ??$_Copy_opt@PAPAV?$auto_vector@$$CBUInputSpec@@@@PAPAV1@Urandom_access_iterator_tag@std@@@std@@YAPAPAV?$auto_vector@$$CBUInputSpec@@@@PAPAV1@00Urandom_access_iterator_tag@0@U_Scalar_ptr_iterator_tag@0@U_Range_checked_iterator_tag@0@@Z 006ccb40 f i inputdriver_chord.obj
 0002:000cac20       ?swap@?$basic_string@DU?$char_traits@D@std@@V?$allocator@D@2@@std@@QAEXAAV12@@Z 006ccc20 f i inputdriver_chord.obj
 0002:000cae40       ?_Swap_all@_Container_base@std@@QBEXAAV12@@Z 006cce40 f i inputdriver_chord.obj
 0002:000caf70       ??$_Iter_cat@V?$_Vector_iterator@PAV?$auto_vector@$$CBUInputSpec@@@@V?$allocator@PAV?$auto_vector@$$CBUInputSpec@@@@@std@@@std@@@std@@YA?AUrandom_access_iterator_tag@0@ABV?$_Vector_iterator@PAV?$auto_vector@$$CBUInputSpec@@@@V?$allocator@PAV?$auto_vector@$$CBUInputSpec@@@@@std@@@0@@Z 006ccf70 f i inputdriver_chord.obj
 0002:000cafe0       ??$_Debug_range2@V?$_Vector_iterator@PAV?$auto_vector@$$CBUInputSpec@@@@V?$allocator@PAV?$auto_vector@$$CBUInputSpec@@@@@std@@@std@@@std@@YAXV?$_Vector_iterator@PAV?$auto_vector@$$CBUInputSpec@@@@V?$allocator@PAV?$auto_vector@$$CBUInputSpec@@@@@std@@@0@0PB_WIUrandom_access_iterator_tag@0@@Z 006ccfe0 f i inputdriver_chord.obj
 0002:000cb100       ??$_Checked_base@V?$_Vector_iterator@PAV?$auto_vector@$$CBUInputSpec@@@@V?$allocator@PAV?$auto_vector@$$CBUInputSpec@@@@@std@@@std@@@std@@YA?AV?$_Vector_iterator@PAV?$auto_vector@$$CBUInputSpec@@@@V?$allocator@PAV?$auto_vector@$$CBUInputSpec@@@@@std@@@0@AAV10@U_Unchanged_checked_iterator_base_type_tag@0@@Z 006cd100 f i inputdriver_chord.obj
 0002:000cb170       ??$unchecked_uninitialized_copy@V?$_Vector_iterator@PAV?$auto_vector@$$CBUInputSpec@@@@V?$allocator@PAV?$auto_vector@$$CBUInputSpec@@@@@std@@@std@@PAPAV?$auto_vector@$$CBUInputSpec@@@@V?$allocator@PAV?$auto_vector@$$CBUInputSpec@@@@@2@@stdext@@YAPAPAV?$auto_vector@$$CBUInputSpec@@@@V?$_Vector_iterator@PAV?$auto_vector@$$CBUInputSpec@@@@V?$allocator@PAV?$auto_vector@$$CBUInputSpec@@@@@std@@@std@@0PAPAV1@AAV?$allocator@PAV?$auto_vector@$$CBUInputSpec@@@@@3@@Z 006cd170 f i inputdriver_chord.obj
 0002:000cb2e0       ??$_Iter_cat@PAPAV?$auto_vector@$$CBUInputSpec@@@@@std@@YA?AUrandom_access_iterator_tag@0@ABQAPAV?$auto_vector@$$CBUInputSpec@@@@@Z 006cd2e0 f i inputdriver_chord.obj
 0002:000cb350       ??$_Fill_n@PAPAV?$auto_vector@$$CBUInputSpec@@@@IPAV1@@std@@YAXPAPAV?$auto_vector@$$CBUInputSpec@@@@IABQAV1@Urandom_access_iterator_tag@0@U_Range_checked_iterator_tag@0@@Z 006cd350 f i inputdriver_chord.obj
 0002:000cb3e0       ??$unchecked_uninitialized_copy@PAPAV?$auto_vector@$$CBUInputSpec@@@@PAPAV1@V?$allocator@PAV?$auto_vector@$$CBUInputSpec@@@@@std@@@stdext@@YAPAPAV?$auto_vector@$$CBUInputSpec@@@@PAPAV1@00AAV?$allocator@PAV?$auto_vector@$$CBUInputSpec@@@@@std@@@Z 006cd3e0 f i inputdriver_chord.obj
 0002:000cb490       ??$_Debug_range2@PAPAV?$auto_vector@$$CBUInputSpec@@@@@std@@YAXPAPAV?$auto_vector@$$CBUInputSpec@@@@0PB_WIUrandom_access_iterator_tag@0@@Z 006cd490 f i inputdriver_chord.obj
 0002:000cb530       ??$_Debug_pointer@PAV?$auto_vector@$$CBUInputSpec@@@@@std@@YAXPAPAV?$auto_vector@$$CBUInputSpec@@@@PB_WI@Z 006cd530 f i inputdriver_chord.obj
 0002:000cb590       ??$?8DD@std@@YA_NABV?$allocator@D@0@0@Z 006cd590 f i inputdriver_chord.obj
 0002:000cb5c0       ??$_Debug_pointer@V?$_Vector_iterator@PAV?$auto_vector@$$CBUInputSpec@@@@V?$allocator@PAV?$auto_vector@$$CBUInputSpec@@@@@std@@@std@@@std@@YAXAAV?$_Vector_iterator@PAV?$auto_vector@$$CBUInputSpec@@@@V?$allocator@PAV?$auto_vector@$$CBUInputSpec@@@@@std@@@0@PB_WI@Z 006cd5c0 f i inputdriver_chord.obj
 0002:000cb5f0       ??$_Ptr_cat@V?$_Vector_iterator@PAV?$auto_vector@$$CBUInputSpec@@@@V?$allocator@PAV?$auto_vector@$$CBUInputSpec@@@@@std@@@std@@PAPAV?$auto_vector@$$CBUInputSpec@@@@@std@@YA?AU_Scalar_ptr_iterator_tag@0@AAV?$_Vector_iterator@PAV?$auto_vector@$$CBUInputSpec@@@@V?$allocator@PAV?$auto_vector@$$CBUInputSpec@@@@@std@@@0@AAPAPAV?$auto_vector@$$CBUInputSpec@@@@@Z 006cd5f0 f i inputdriver_chord.obj
 0002:000cb660       ??$_Uninit_copy@V?$_Vector_iterator@PAV?$auto_vector@$$CBUInputSpec@@@@V?$allocator@PAV?$auto_vector@$$CBUInputSpec@@@@@std@@@std@@PAPAV?$auto_vector@$$CBUInputSpec@@@@V?$allocator@PAV?$auto_vector@$$CBUInputSpec@@@@@2@@std@@YAPAPAV?$auto_vector@$$CBUInputSpec@@@@V?$_Vector_iterator@PAV?$auto_vector@$$CBUInputSpec@@@@V?$allocator@PAV?$auto_vector@$$CBUInputSpec@@@@@std@@@0@0PAPAV1@AAV?$allocator@PAV?$auto_vector@$$CBUInputSpec@@@@@0@U_Scalar_ptr_iterator_tag@0@U_Range_checked_iterator_tag@0@@Z 006cd660 f i inputdriver_chord.obj
 0002:000cb800       ??$_Fill_n@PAPAV?$auto_vector@$$CBUInputSpec@@@@IPAV1@@std@@YAXPAPAV?$auto_vector@$$CBUInputSpec@@@@IABQAV1@U_Range_checked_iterator_tag@0@@Z 006cd800 f i inputdriver_chord.obj
 0002:000cb870       ??$_Uninit_copy@PAPAV?$auto_vector@$$CBUInputSpec@@@@PAPAV1@V?$allocator@PAV?$auto_vector@$$CBUInputSpec@@@@@std@@@std@@YAPAPAV?$auto_vector@$$CBUInputSpec@@@@PAPAV1@00AAV?$allocator@PAV?$auto_vector@$$CBUInputSpec@@@@@0@U_Scalar_ptr_iterator_tag@0@U_Range_checked_iterator_tag@0@@Z 006cd870 f i inputdriver_chord.obj
 0002:000cb940       ??0ConjoinInputDriver@@QAE@XZ 006cd940 f   inputdriver_conjoin.obj
 0002:000cba50       ?parseInputSpecification@ConjoinInputDriver@@UAE?AW4InputParserState@@ABVInputSpecTokens@@AAUInputSpec@@@Z 006cda50 f   inputdriver_conjoin.obj
 0002:000cc000       ?getInput@ConjoinInputDriver@@UAE_NABUInputSpec@@AAUInputDetails@@@Z 006ce000 f   inputdriver_conjoin.obj
 0002:000cc270       ?Advance@ConjoinInputDriver@@UAEXXZ 006ce270 f   inputdriver_conjoin.obj
 0002:000cc2b0       ?getLastParseError@ConjoinInputDriver@@UAEABV?$basic_string@DU?$char_traits@D@std@@V?$allocator@D@2@@std@@W4InputParserState@@@Z 006ce2b0 f   inputdriver_conjoin.obj
 0002:000cc2f0       ?getInputDescription@ConjoinInputDriver@@UAE_NABUInputSpec@@AAVInputDescription@@@Z 006ce2f0 f   inputdriver_conjoin.obj
 0002:000cc5e0       ??0IdleInputDriver@@QAE@XZ 006ce5e0 f   inputdriver_idle.obj
 0002:000cc6f0       ??0SimpleInputDriver@@QAE@XZ 006ce6f0 f i inputdriver_idle.obj
 0002:000cc750       ??1SimpleInputDriver@@QAE@XZ 006ce750 f i inputdriver_idle.obj
 0002:000cc7a0       ?getInput@IdleInputDriver@@UAE_NABUInputSpec@@AAUInputDetails@@@Z 006ce7a0 f   inputdriver_idle.obj
 0002:000cc920       ?Advance@IdleInputDriver@@UAEXXZ 006ce920 f   inputdriver_idle.obj
 0002:000cc9d0       ?acceptDriver@IdleInputDriver@@EAE_NABV?$basic_string@DU?$char_traits@D@std@@V?$allocator@D@2@@std@@@Z 006ce9d0 f   inputdriver_idle.obj
 0002:000cca40       ?getControlID@IdleInputDriver@@EAEHABV?$basic_string@DU?$char_traits@D@std@@V?$allocator@D@2@@std@@@Z 006cea40 f   inputdriver_idle.obj
 0002:000ccb00       ?getControlType@IdleInputDriver@@EAEHH@Z 006ceb00 f   inputdriver_idle.obj
 0002:000ccb50       ?getConditionID@IdleInputDriver@@EAEHABV?$basic_string@DU?$char_traits@D@std@@V?$allocator@D@2@@std@@AAH@Z 006ceb50 f   inputdriver_idle.obj
 0002:000ccd10       ??Bios_base@std@@QBEPAXXZ  006ced10 f i inputdriver_idle.obj
 0002:000ccd70       ??_D?$basic_istringstream@DU?$char_traits@D@std@@V?$allocator@D@2@@std@@QAEXXZ 006ced70 f i inputdriver_idle.obj
 0002:000ccdd0       ?getInputDescription@IdleInputDriver@@UAE_NABUInputSpec@@AAVInputDescription@@@Z 006cedd0 f   inputdriver_idle.obj
 0002:000cce10       ??5?$basic_istream@DU?$char_traits@D@std@@@std@@QAEAAV01@AAH@Z 006cee10 f i inputdriver_idle.obj
 0002:000cd130       ??1sentry@?$basic_istream@DU?$char_traits@D@std@@@std@@QAE@XZ 006cf130 f i inputdriver_idle.obj
 0002:000cd180       ??0sentry@?$basic_istream@DU?$char_traits@D@std@@@std@@QAE@AAV12@_N@Z 006cf180 f i inputdriver_idle.obj
 0002:000cd240       ??Bsentry@?$basic_istream@DU?$char_traits@D@std@@@std@@QBE_NXZ 006cf240 f i inputdriver_idle.obj
 0002:000cd280       ??1_Sentry_base@?$basic_istream@DU?$char_traits@D@std@@@std@@QAE@XZ 006cf280 f i inputdriver_idle.obj
 0002:000cd310       ??0?$basic_istringstream@DU?$char_traits@D@std@@V?$allocator@D@2@@std@@QAE@ABV?$basic_string@DU?$char_traits@D@std@@V?$allocator@D@2@@1@H@Z 006cf310 f i inputdriver_idle.obj
 0002:000cd440       ??1?$basic_istream@DU?$char_traits@D@std@@@std@@UAE@XZ 006cf440 f i inputdriver_idle.obj
 0002:000cd490       ??1?$basic_istringstream@DU?$char_traits@D@std@@V?$allocator@D@2@@std@@UAE@XZ 006cf490 f i inputdriver_idle.obj
 0002:000cd550       ??1?$basic_stringbuf@DU?$char_traits@D@std@@V?$allocator@D@2@@std@@UAE@XZ 006cf550 f i inputdriver_idle.obj
 0002:000cd600       ?overflow@?$basic_stringbuf@DU?$char_traits@D@std@@V?$allocator@D@2@@std@@MAEHH@Z 006cf600 f i inputdriver_idle.obj
 0002:000cda20       ?pbackfail@?$basic_stringbuf@DU?$char_traits@D@std@@V?$allocator@D@2@@std@@MAEHH@Z 006cfa20 f i inputdriver_idle.obj
 0002:000cdb90       ?eq@?$char_traits@D@std@@SA_NABD0@Z 006cfb90 f i inputdriver_idle.obj
 0002:000cdbe0       ?underflow@?$basic_stringbuf@DU?$char_traits@D@std@@V?$allocator@D@2@@std@@MAEHXZ 006cfbe0 f i inputdriver_idle.obj
 0002:000cdd40       ?seekoff@?$basic_stringbuf@DU?$char_traits@D@std@@V?$allocator@D@2@@std@@MAE?AV?$fpos@H@2@JHH@Z 006cfd40 f i inputdriver_idle.obj
 0002:000cdff0       ?seekpos@?$basic_stringbuf@DU?$char_traits@D@std@@V?$allocator@D@2@@std@@MAE?AV?$fpos@H@2@V32@H@Z 006cfff0 f i inputdriver_idle.obj
 0002:000ce1e0       ??_E?$basic_istream@DU?$char_traits@D@std@@@std@@UAEPAXI@Z 006d01e0 f i inputdriver_idle.obj
 0002:000ce1e0       ??_G?$basic_istream@DU?$char_traits@D@std@@@std@@UAEPAXI@Z 006d01e0 f i inputdriver_idle.obj
 0002:000ce260       ??1?$istreambuf_iterator@DU?$char_traits@D@std@@@std@@QAE@XZ 006d0260 f i inputdriver_idle.obj
 0002:000ce2b0       ??_G?$basic_istringstream@DU?$char_traits@D@std@@V?$allocator@D@2@@std@@UAEPAXI@Z 006d02b0 f i inputdriver_idle.obj
 0002:000ce2b0       ??_E?$basic_istringstream@DU?$char_traits@D@std@@V?$allocator@D@2@@std@@UAEPAXI@Z 006d02b0 f i inputdriver_idle.obj
 0002:000ce330       ??_E?$basic_stringbuf@DU?$char_traits@D@std@@V?$allocator@D@2@@std@@UAEPAXI@Z 006d0330 f i inputdriver_idle.obj
 0002:000ce330       ??_G?$basic_stringbuf@DU?$char_traits@D@std@@V?$allocator@D@2@@std@@UAEPAXI@Z 006d0330 f i inputdriver_idle.obj
 0002:000ce3a0       ??_D?$basic_istream@DU?$char_traits@D@std@@@std@@QAEXXZ 006d03a0 f i inputdriver_idle.obj
 0002:000ce400       ??1?$_Iterator_with_base@Uinput_iterator_tag@std@@DJPADAADV_Iterator_base@2@@std@@QAE@XZ 006d0400 f i inputdriver_idle.obj
 0002:000ce450       ??0?$basic_istream@DU?$char_traits@D@std@@@std@@QAE@PAV?$basic_streambuf@DU?$char_traits@D@std@@@1@_N@Z 006d0450 f i inputdriver_idle.obj
 0002:000ce570       ?_Ipfx@?$basic_istream@DU?$char_traits@D@std@@@std@@QAE_N_N@Z 006d0570 f i inputdriver_idle.obj
 0002:000ce8f0       ?is@?$ctype@D@std@@QBE_NFD@Z 006d08f0 f i inputdriver_idle.obj
 0002:000ce950       ?sgetc@?$basic_streambuf@DU?$char_traits@D@std@@@std@@QAEHXZ 006d0950 f i inputdriver_idle.obj
 0002:000ce9f0       ?snextc@?$basic_streambuf@DU?$char_traits@D@std@@@std@@QAEHXZ 006d09f0 f i inputdriver_idle.obj
 0002:000ceae0       ??0_Sentry_base@?$basic_istream@DU?$char_traits@D@std@@@std@@QAE@AAV12@@Z 006d0ae0 f i inputdriver_idle.obj
 0002:000ceb80       ?sbumpc@?$basic_streambuf@DU?$char_traits@D@std@@@std@@QAEHXZ 006d0b80 f i inputdriver_idle.obj
 0002:000cec20       ?_Gnpreinc@?$basic_streambuf@DU?$char_traits@D@std@@@std@@IAEPADXZ 006d0c20 f i inputdriver_idle.obj
 0002:000cec90       ??0?$basic_stringbuf@DU?$char_traits@D@std@@V?$allocator@D@2@@std@@QAE@ABV?$basic_string@DU?$char_traits@D@std@@V?$allocator@D@2@@1@H@Z 006d0c90 f i inputdriver_idle.obj
 0002:000ced80       ?_Tidy@?$basic_stringbuf@DU?$char_traits@D@std@@V?$allocator@D@2@@std@@IAEXXZ 006d0d80 f i inputdriver_idle.obj
 0002:000cee80       ?get@?$num_get@DV?$istreambuf_iterator@DU?$char_traits@D@std@@@std@@@std@@QBE?AV?$istreambuf_iterator@DU?$char_traits@D@std@@@2@V32@0AAVios_base@2@AAHAAJ@Z 006d0e80 f i inputdriver_idle.obj
 0002:000cefd0       ??0?$istreambuf_iterator@DU?$char_traits@D@std@@@std@@QAE@PAV?$basic_streambuf@DU?$char_traits@D@std@@@1@@Z 006d0fd0 f i inputdriver_idle.obj
 0002:000cf050       ??0?$istreambuf_iterator@DU?$char_traits@D@std@@@std@@QAE@ABV01@@Z 006d1050 f i inputdriver_idle.obj
 0002:000cf0e0       ??0?$_Iterator_with_base@Uinput_iterator_tag@std@@DJPADAADV_Iterator_base@2@@std@@QAE@XZ 006d10e0 f i inputdriver_idle.obj
 0002:000cf140       ??0?$_Iterator_with_base@Uinput_iterator_tag@std@@DJPADAADV_Iterator_base@2@@std@@QAE@ABU01@@Z 006d1140 f i inputdriver_idle.obj
 0002:000cf1a0       ?_Init@?$basic_stringbuf@DU?$char_traits@D@std@@V?$allocator@D@2@@std@@IAEXPBDIH@Z 006d11a0 f i inputdriver_idle.obj
 0002:000cf330       ?_Getstate@?$basic_stringbuf@DU?$char_traits@D@std@@V?$allocator@D@2@@std@@AAEHH@Z 006d1330 f i inputdriver_idle.obj
 0002:000cf3d0       ??$use_facet@V?$num_get@DV?$istreambuf_iterator@DU?$char_traits@D@std@@@std@@@std@@@std@@YAABV?$num_get@DV?$istreambuf_iterator@DU?$char_traits@D@std@@@std@@@0@ABVlocale@0@@Z 006d13d0 f i inputdriver_idle.obj
 0002:000cf590       ?_Getcat@?$num_get@DV?$istreambuf_iterator@DU?$char_traits@D@std@@@std@@@std@@SAIPAPBVfacet@locale@2@@Z 006d1590 f i inputdriver_idle.obj
 0002:000cf6c0       ??0?$num_get@DV?$istreambuf_iterator@DU?$char_traits@D@std@@@std@@@std@@QAE@I@Z 006d16c0 f i inputdriver_idle.obj
 0002:000cf800       ?do_get@?$num_get@DV?$istreambuf_iterator@DU?$char_traits@D@std@@@std@@@std@@MBE?AV?$istreambuf_iterator@DU?$char_traits@D@std@@@2@V32@0AAVios_base@2@AAHAA_N@Z 006d1800 f i inputdriver_idle.obj
 0002:000cfc80       ?do_get@?$num_get@DV?$istreambuf_iterator@DU?$char_traits@D@std@@@std@@@std@@MBE?AV?$istreambuf_iterator@DU?$char_traits@D@std@@@2@V32@0AAVios_base@2@AAHAAG@Z 006d1c80 f i inputdriver_idle.obj
 0002:000cffa0       ?do_get@?$num_get@DV?$istreambuf_iterator@DU?$char_traits@D@std@@@std@@@std@@MBE?AV?$istreambuf_iterator@DU?$char_traits@D@std@@@2@V32@0AAVios_base@2@AAHAAI@Z 006d1fa0 f i inputdriver_idle.obj
 0002:000d02c0       ?do_get@?$num_get@DV?$istreambuf_iterator@DU?$char_traits@D@std@@@std@@@std@@MBE?AV?$istreambuf_iterator@DU?$char_traits@D@std@@@2@V32@0AAVios_base@2@AAHAAJ@Z 006d22c0 f i inputdriver_idle.obj
 0002:000d0570       ?do_get@?$num_get@DV?$istreambuf_iterator@DU?$char_traits@D@std@@@std@@@std@@MBE?AV?$istreambuf_iterator@DU?$char_traits@D@std@@@2@V32@0AAVios_base@2@AAHAAK@Z 006d2570 f i inputdriver_idle.obj
 0002:000d0820       ?do_get@?$num_get@DV?$istreambuf_iterator@DU?$char_traits@D@std@@@std@@@std@@MBE?AV?$istreambuf_iterator@DU?$char_traits@D@std@@@2@V32@0AAVios_base@2@AAHAA_J@Z 006d2820 f i inputdriver_idle.obj
 0002:000d0ac0       ?do_get@?$num_get@DV?$istreambuf_iterator@DU?$char_traits@D@std@@@std@@@std@@MBE?AV?$istreambuf_iterator@DU?$char_traits@D@std@@@2@V32@0AAVios_base@2@AAHAA_K@Z 006d2ac0 f i inputdriver_idle.obj
 0002:000d0d60       ?do_get@?$num_get@DV?$istreambuf_iterator@DU?$char_traits@D@std@@@std@@@std@@MBE?AV?$istreambuf_iterator@DU?$char_traits@D@std@@@2@V32@0AAVios_base@2@AAHAAM@Z 006d2d60 f i inputdriver_idle.obj
 0002:000d1010       ?do_get@?$num_get@DV?$istreambuf_iterator@DU?$char_traits@D@std@@@std@@@std@@MBE?AV?$istreambuf_iterator@DU?$char_traits@D@std@@@2@V32@0AAVios_base@2@AAHAAN@Z 006d3010 f i inputdriver_idle.obj
 0002:000d12c0       ?do_get@?$num_get@DV?$istreambuf_iterator@DU?$char_traits@D@std@@@std@@@std@@MBE?AV?$istreambuf_iterator@DU?$char_traits@D@std@@@2@V32@0AAVios_base@2@AAHAAO@Z 006d32c0 f i inputdriver_idle.obj
 0002:000d1570       ?do_get@?$num_get@DV?$istreambuf_iterator@DU?$char_traits@D@std@@@std@@@std@@MBE?AV?$istreambuf_iterator@DU?$char_traits@D@std@@@2@V32@0AAVios_base@2@AAHAAPAX@Z 006d3570 f i inputdriver_idle.obj
 0002:000d1880       ??_E?$num_get@DV?$istreambuf_iterator@DU?$char_traits@D@std@@@std@@@std@@MAEPAXI@Z 006d3880 f i inputdriver_idle.obj
 0002:000d1880       ??_G?$num_get@DV?$istreambuf_iterator@DU?$char_traits@D@std@@@std@@@std@@MAEPAXI@Z 006d3880 f i inputdriver_idle.obj
 0002:000d18f0       ??1?$num_get@DV?$istreambuf_iterator@DU?$char_traits@D@std@@@std@@@std@@MAE@XZ 006d38f0 f i inputdriver_idle.obj
 0002:000d1950       ??Y?$basic_string@DU?$char_traits@D@std@@V?$allocator@D@2@@std@@QAEAAV01@D@Z 006d3950 f i inputdriver_idle.obj
 0002:000d19b0       ?_Getifld@?$num_get@DV?$istreambuf_iterator@DU?$char_traits@D@std@@@std@@@std@@ABAHPADAAV?$istreambuf_iterator@DU?$char_traits@D@std@@@2@1HABVlocale@2@@Z 006d39b0 f i inputdriver_idle.obj
 0002:000d2120       ?_Getffld@?$num_get@DV?$istreambuf_iterator@DU?$char_traits@D@std@@@std@@@std@@ABAHPADAAV?$istreambuf_iterator@DU?$char_traits@D@std@@@2@1ABVlocale@2@@Z 006d4120 f i inputdriver_idle.obj
 0002:000d2c40       ??D?$istreambuf_iterator@DU?$char_traits@D@std@@@std@@QBEDXZ 006d4c40 f i inputdriver_idle.obj
 0002:000d2cd0       ??E?$istreambuf_iterator@DU?$char_traits@D@std@@@std@@QAEAAV01@XZ 006d4cd0 f i inputdriver_idle.obj
 0002:000d2d50       ?_Inc@?$istreambuf_iterator@DU?$char_traits@D@std@@@std@@AAEXXZ 006d4d50 f i inputdriver_idle.obj
 0002:000d2e10       ?_Peek@?$istreambuf_iterator@DU?$char_traits@D@std@@@std@@AAEDXZ 006d4e10 f i inputdriver_idle.obj
 0002:000d2f10       ??$_Debug_range@V?$istreambuf_iterator@DU?$char_traits@D@std@@@std@@@std@@YAXV?$istreambuf_iterator@DU?$char_traits@D@std@@@0@0PB_WI@Z 006d4f10 f i inputdriver_idle.obj
 0002:000d3040       ??$_Getloctxt@DV?$istreambuf_iterator@DU?$char_traits@D@std@@@std@@@std@@YAHAAV?$istreambuf_iterator@DU?$char_traits@D@std@@@0@0IPBD@Z 006d5040 f i inputdriver_idle.obj
 0002:000d33b0       ??$?8DU?$char_traits@D@std@@@std@@YA_NABV?$istreambuf_iterator@DU?$char_traits@D@std@@@0@0@Z 006d53b0 f i inputdriver_idle.obj
 0002:000d3400       ??$?9DU?$char_traits@D@std@@@std@@YA_NABV?$istreambuf_iterator@DU?$char_traits@D@std@@@0@0@Z 006d5400 f i inputdriver_idle.obj
 0002:000d3460       ??$_Maklocbyte@D@std@@YADDABU_Cvtvec@@@Z 006d5460 f i inputdriver_idle.obj
 0002:000d34a0       ?equal@?$istreambuf_iterator@DU?$char_traits@D@std@@@std@@QBE_NABV12@@Z 006d54a0 f i inputdriver_idle.obj
 0002:000d3570       ?_Init@?$num_get@DV?$istreambuf_iterator@DU?$char_traits@D@std@@@std@@@std@@IAEXABV_Locinfo@2@@Z 006d5570 f i inputdriver_idle.obj
 0002:000d35e0       ??$_Iter_cat@V?$istreambuf_iterator@DU?$char_traits@D@std@@@std@@@std@@YA?AUinput_iterator_tag@0@ABV?$istreambuf_iterator@DU?$char_traits@D@std@@@0@@Z 006d55e0 f i inputdriver_idle.obj
 0002:000d3650       ??$_Debug_range2@V?$istreambuf_iterator@DU?$char_traits@D@std@@@std@@@std@@YAXV?$istreambuf_iterator@DU?$char_traits@D@std@@@0@0PB_WIUinput_iterator_tag@0@@Z 006d5650 f i inputdriver_idle.obj
 0002:000d36f0       ??0InvertInputDriver@@QAE@XZ 006d56f0 f   inputdriver_invert.obj
 0002:000d3800       ?getInput@InvertInputDriver@@UAE_NABUInputSpec@@AAUInputDetails@@@Z 006d5800 f   inputdriver_invert.obj
 0002:000d38d0       ?Advance@InvertInputDriver@@UAEXXZ 006d58d0 f   inputdriver_invert.obj
 0002:000d3910       ?getLastParseError@InvertInputDriver@@UAEABV?$basic_string@DU?$char_traits@D@std@@V?$allocator@D@2@@std@@W4InputParserState@@@Z 006d5910 f   inputdriver_invert.obj
 0002:000d3950       ?parseInputSpecification@InvertInputDriver@@UAE?AW4InputParserState@@ABVInputSpecTokens@@AAUInputSpec@@@Z 006d5950 f   inputdriver_invert.obj
 0002:000d3d30       ?getInputDescription@InvertInputDriver@@UAE_NABUInputSpec@@AAVInputDescription@@@Z 006d5d30 f   inputdriver_invert.obj
 0002:000d3ea0       ??A?$auto_vector@$$CBUInputSpec@@@@QAE?AVauto_lvalue@0@I@Z 006d5ea0 f i inputdriver_invert.obj
 0002:000d3f10       ??Bauto_lvalue@?$auto_vector@$$CBUInputSpec@@@@QBEPBUInputSpec@@XZ 006d5f10 f i inputdriver_invert.obj
 0002:000d3f50       ??0?$auto_ptr@VInputSpecTokens@@@std@@QAE@U?$auto_ptr_ref@VInputSpecTokens@@@1@@Z 006d5f50 f i inputdriver_invert.obj
 0002:000d3fc0       ??1?$auto_ptr@VInputSpecTokens@@@std@@QAE@XZ 006d5fc0 f i inputdriver_invert.obj
 0002:000d4060       ??D?$auto_ptr@VInputSpecTokens@@@std@@QBEAAVInputSpecTokens@@XZ 006d6060 f i inputdriver_invert.obj
 0002:000d40e0       ??_GInputSpecTokens@@QAEPAXI@Z 006d60e0 f i inputdriver_invert.obj
 0002:000d4150       ??0auto_lvalue@?$auto_vector@$$CBUInputSpec@@@@QAE@AAPBUInputSpec@@@Z 006d6150 f i inputdriver_invert.obj
 0002:000d41a0       ??$?BVInputSpecTokens@@@?$auto_ptr@VInputSpecTokens@@@std@@QAE?AU?$auto_ptr_ref@VInputSpecTokens@@@1@XZ 006d61a0 f i inputdriver_invert.obj
 0002:000d4280       ??0?$auto_ptr_ref@VInputSpecTokens@@@std@@QAE@PAX@Z 006d6280 f i inputdriver_invert.obj
 0002:000d42d0       ??0PipeInputDriver@@QAE@XZ 006d62d0 f   inputdriver_pipe.obj
 0002:000d43e0       ?parseInputSpec@PipeInputDriver@@AAE?AW4InputParserState@@AAV?$basic_ostringstream@DU?$char_traits@D@std@@V?$allocator@D@2@@std@@AAV?$auto_vector@$$CBUInputSpec@@@@@Z 006d63e0 f   inputdriver_pipe.obj
 0002:000d4740       ?parseInputSpecification@PipeInputDriver@@UAE?AW4InputParserState@@ABVInputSpecTokens@@AAUInputSpec@@@Z 006d6740 f   inputdriver_pipe.obj
 0002:000d5040       ??0InputFilterWithArgs@@QAE@XZ 006d7040 f i inputdriver_pipe.obj
 0002:000d50a0       ??_D?$basic_ostringstream@DU?$char_traits@D@std@@V?$allocator@D@2@@std@@QAEXXZ 006d70a0 f i inputdriver_pipe.obj
 0002:000d5100       ?getInput@PipeInputDriver@@UAE_NABUInputSpec@@AAUInputDetails@@@Z 006d7100 f   inputdriver_pipe.obj
 0002:000d51c0       ?Advance@PipeInputDriver@@UAEXXZ 006d71c0 f   inputdriver_pipe.obj
 0002:000d5200       ?getLastParseError@PipeInputDriver@@UAEABV?$basic_string@DU?$char_traits@D@std@@V?$allocator@D@2@@std@@W4InputParserState@@@Z 006d7200 f   inputdriver_pipe.obj
 0002:000d5240       ?size@?$auto_vector@UInputFilterWithArgs@@@@QBEIXZ 006d7240 f i inputdriver_pipe.obj
 0002:000d5290       ??A?$auto_vector@UInputFilterWithArgs@@@@QAE?AVauto_lvalue@0@I@Z 006d7290 f i inputdriver_pipe.obj
 0002:000d5300       ??0?$basic_ostringstream@DU?$char_traits@D@std@@V?$allocator@D@2@@std@@QAE@H@Z 006d7300 f i inputdriver_pipe.obj
 0002:000d5420       ??1?$basic_ostringstream@DU?$char_traits@D@std@@V?$allocator@D@2@@std@@UAE@XZ 006d7420 f i inputdriver_pipe.obj
 0002:000d54e0       ?str@?$basic_ostringstream@DU?$char_traits@D@std@@V?$allocator@D@2@@std@@QBE?AV?$basic_string@DU?$char_traits@D@std@@V?$allocator@D@2@@2@XZ 006d74e0 f i inputdriver_pipe.obj
 0002:000d5560       ?str@?$basic_ostringstream@DU?$char_traits@D@std@@V?$allocator@D@2@@std@@QAEXABV?$basic_string@DU?$char_traits@D@std@@V?$allocator@D@2@@2@@Z 006d7560 f i inputdriver_pipe.obj
 0002:000d55c0       ??0?$auto_ptr@UInputFilterWithArgs@@@std@@QAE@PAUInputFilterWithArgs@@@Z 006d75c0 f i inputdriver_pipe.obj
 0002:000d5610       ??0?$auto_ptr@UInputFilterWithArgs@@@std@@QAE@AAV01@@Z 006d7610 f i inputdriver_pipe.obj
 0002:000d5670       ??1?$auto_ptr@UInputFilterWithArgs@@@std@@QAE@XZ 006d7670 f i inputdriver_pipe.obj
 0002:000d5710       ??C?$auto_ptr@UInputFilterWithArgs@@@std@@QBEPAUInputFilterWithArgs@@XZ 006d7710 f i inputdriver_pipe.obj
 0002:000d5760       ??E?$_String_const_iterator@DU?$char_traits@D@std@@V?$allocator@D@2@@std@@QAEAAV01@XZ 006d7760 f i inputdriver_pipe.obj
 0002:000d58a0       ??9?$_String_const_iterator@DU?$char_traits@D@std@@V?$allocator@D@2@@std@@QBE_NABV01@@Z 006d78a0 f i inputdriver_pipe.obj
 0002:000d5910       ??Bauto_lvalue@?$auto_vector@UInputFilterWithArgs@@@@QBEPAUInputFilterWithArgs@@XZ 006d7910 f i inputdriver_pipe.obj
 0002:000d5950       ??_E?$basic_ostringstream@DU?$char_traits@D@std@@V?$allocator@D@2@@std@@UAEPAXI@Z 006d7950 f i inputdriver_pipe.obj
 0002:000d5950       ??_G?$basic_ostringstream@DU?$char_traits@D@std@@V?$allocator@D@2@@std@@UAEPAXI@Z 006d7950 f i inputdriver_pipe.obj
 0002:000d59d0       ??_GInputFilterWithArgs@@QAEPAXI@Z 006d79d0 f i inputdriver_pipe.obj
 0002:000d5a40       ??1InputFilterWithArgs@@QAE@XZ 006d7a40 f i inputdriver_pipe.obj
 0002:000d5aa0       ?size@?$vector@PAUInputFilterWithArgs@@V?$allocator@PAUInputFilterWithArgs@@@std@@@std@@QBEIXZ 006d7aa0 f i inputdriver_pipe.obj
 0002:000d5b10       ??A?$vector@PAUInputFilterWithArgs@@V?$allocator@PAUInputFilterWithArgs@@@std@@@std@@QAEAAPAUInputFilterWithArgs@@I@Z 006d7b10 f i inputdriver_pipe.obj
 0002:000d5c50       ??0?$basic_stringbuf@DU?$char_traits@D@std@@V?$allocator@D@2@@std@@QAE@H@Z 006d7c50 f i inputdriver_pipe.obj
 0002:000d5d30       ?str@?$basic_stringbuf@DU?$char_traits@D@std@@V?$allocator@D@2@@std@@QBE?AV?$basic_string@DU?$char_traits@D@std@@V?$allocator@D@2@@2@XZ 006d7d30 f i inputdriver_pipe.obj
 0002:000d5fe0       ?str@?$basic_stringbuf@DU?$char_traits@D@std@@V?$allocator@D@2@@std@@QAEXABV?$basic_string@DU?$char_traits@D@std@@V?$allocator@D@2@@2@@Z 006d7fe0 f i inputdriver_pipe.obj
 0002:000d6060       ??D?$auto_ptr@UInputFilterWithArgs@@@std@@QBEAAUInputFilterWithArgs@@XZ 006d8060 f i inputdriver_pipe.obj
 0002:000d60e0       ?release@?$auto_ptr@UInputFilterWithArgs@@@std@@QAEPAUInputFilterWithArgs@@XZ 006d80e0 f i inputdriver_pipe.obj
 0002:000d6130       ??8?$_String_const_iterator@DU?$char_traits@D@std@@V?$allocator@D@2@@std@@QBE_NABV01@@Z 006d8130 f i inputdriver_pipe.obj
 0002:000d61a0       ??0auto_lvalue@?$auto_vector@UInputFilterWithArgs@@@@QAE@AAPAUInputFilterWithArgs@@@Z 006d81a0 f i inputdriver_pipe.obj
 0002:000d61f0       ??0?$basic_string@DU?$char_traits@D@std@@V?$allocator@D@2@@std@@QAE@PBDI@Z 006d81f0 f i inputdriver_pipe.obj
 0002:000d62c0       ??0?$auto_vector@UInputFilterWithArgs@@@@QAE@I@Z 006d82c0 f i inputdriver_pipe.obj
 0002:000d6370       ??1?$auto_vector@UInputFilterWithArgs@@@@QAE@XZ 006d8370 f i inputdriver_pipe.obj
 0002:000d6410       ?push_back@?$auto_vector@UInputFilterWithArgs@@@@QAEXV?$auto_ptr@UInputFilterWithArgs@@@std@@@Z 006d8410 f i inputdriver_pipe.obj
 0002:000d64e0       ??0?$vector@PAUInputFilterWithArgs@@V?$allocator@PAUInputFilterWithArgs@@@std@@@std@@QAE@XZ 006d84e0 f i inputdriver_pipe.obj
 0002:000d65a0       ??1?$vector@PAUInputFilterWithArgs@@V?$allocator@PAUInputFilterWithArgs@@@std@@@std@@QAE@XZ 006d85a0 f i inputdriver_pipe.obj
 0002:000d6640       ?reserve@?$vector@PAUInputFilterWithArgs@@V?$allocator@PAUInputFilterWithArgs@@@std@@@std@@QAEXI@Z 006d8640 f i inputdriver_pipe.obj
 0002:000d6860       ?push_back@?$vector@PAUInputFilterWithArgs@@V?$allocator@PAUInputFilterWithArgs@@@std@@@std@@QAEXABQAUInputFilterWithArgs@@@Z 006d8860 f i inputdriver_pipe.obj
 0002:000d6950       ?get@?$auto_ptr@UInputFilterWithArgs@@@std@@QBEPAUInputFilterWithArgs@@XZ 006d8950 f i inputdriver_pipe.obj
 0002:000d6990       ??1?$_Vector_val@PAUInputFilterWithArgs@@V?$allocator@PAUInputFilterWithArgs@@@std@@@std@@QAE@XZ 006d8990 f i inputdriver_pipe.obj
 0002:000d69e0       ??1?$_Vector_iterator@PAUInputFilterWithArgs@@V?$allocator@PAUInputFilterWithArgs@@@std@@@std@@QAE@XZ 006d89e0 f i inputdriver_pipe.obj
 0002:000d6a30       ??1?$_Vector_const_iterator@PAUInputFilterWithArgs@@V?$allocator@PAUInputFilterWithArgs@@@std@@@std@@QAE@XZ 006d8a30 f i inputdriver_pipe.obj
 0002:000d6a80       ??1?$_Ranit@PAUInputFilterWithArgs@@HPBQAU1@ABQAU1@@std@@QAE@XZ 006d8a80 f i inputdriver_pipe.obj
 0002:000d6ad0       ?capacity@?$vector@PAUInputFilterWithArgs@@V?$allocator@PAUInputFilterWithArgs@@@std@@@std@@QBEIXZ 006d8ad0 f i inputdriver_pipe.obj
 0002:000d6b40       ?begin@?$vector@PAUInputFilterWithArgs@@V?$allocator@PAUInputFilterWithArgs@@@std@@@std@@QAE?AV?$_Vector_iterator@PAUInputFilterWithArgs@@V?$allocator@PAUInputFilterWithArgs@@@std@@@2@XZ 006d8b40 f i inputdriver_pipe.obj
 0002:000d6bd0       ?end@?$vector@PAUInputFilterWithArgs@@V?$allocator@PAUInputFilterWithArgs@@@std@@@std@@QAE?AV?$_Vector_iterator@PAUInputFilterWithArgs@@V?$allocator@PAUInputFilterWithArgs@@@std@@@2@XZ 006d8bd0 f i inputdriver_pipe.obj
 0002:000d6c60       ?max_size@?$vector@PAUInputFilterWithArgs@@V?$allocator@PAUInputFilterWithArgs@@@std@@@std@@QBEIXZ 006d8c60 f i inputdriver_pipe.obj
 0002:000d6cc0       ?insert@?$vector@PAUInputFilterWithArgs@@V?$allocator@PAUInputFilterWithArgs@@@std@@@std@@QAE?AV?$_Vector_iterator@PAUInputFilterWithArgs@@V?$allocator@PAUInputFilterWithArgs@@@std@@@2@V32@ABQAUInputFilterWithArgs@@@Z 006d8cc0 f i inputdriver_pipe.obj
 0002:000d6ec0       ?_Buy@?$vector@PAUInputFilterWithArgs@@V?$allocator@PAUInputFilterWithArgs@@@std@@@std@@IAE_NI@Z 006d8ec0 f i inputdriver_pipe.obj
 0002:000d6fa0       ?_Destroy@?$vector@PAUInputFilterWithArgs@@V?$allocator@PAUInputFilterWithArgs@@@std@@@std@@IAEXPAPAUInputFilterWithArgs@@0@Z 006d8fa0 f i inputdriver_pipe.obj
 0002:000d7010       ?_Tidy@?$vector@PAUInputFilterWithArgs@@V?$allocator@PAUInputFilterWithArgs@@@std@@@std@@IAEXXZ 006d9010 f i inputdriver_pipe.obj
 0002:000d70e0       ?_Ufill@?$vector@PAUInputFilterWithArgs@@V?$allocator@PAUInputFilterWithArgs@@@std@@@std@@IAEPAPAUInputFilterWithArgs@@PAPAU3@IABQAU3@@Z 006d90e0 f i inputdriver_pipe.obj
 0002:000d7160       ?_Xlen@?$vector@PAUInputFilterWithArgs@@V?$allocator@PAUInputFilterWithArgs@@@std@@@std@@KAXXZ 006d9160 f i inputdriver_pipe.obj
 0002:000d7240       ?_Orphan_range@?$vector@PAUInputFilterWithArgs@@V?$allocator@PAUInputFilterWithArgs@@@std@@@std@@IBEXPAPAUInputFilterWithArgs@@0@Z 006d9240 f i inputdriver_pipe.obj
 0002:000d7340       ??0?$_Vector_val@PAUInputFilterWithArgs@@V?$allocator@PAUInputFilterWithArgs@@@std@@@std@@IAE@V?$allocator@PAUInputFilterWithArgs@@@1@@Z 006d9340 f i inputdriver_pipe.obj
 0002:000d73b0       ??0?$allocator@PAUInputFilterWithArgs@@@std@@QAE@XZ 006d93b0 f i inputdriver_pipe.obj
 0002:000d73f0       ?deallocate@?$allocator@PAUInputFilterWithArgs@@@std@@QAEXPAPAUInputFilterWithArgs@@I@Z 006d93f0 f i inputdriver_pipe.obj
 0002:000d7450       ?allocate@?$allocator@PAUInputFilterWithArgs@@@std@@QAEPAPAUInputFilterWithArgs@@I@Z 006d9450 f i inputdriver_pipe.obj
 0002:000d74b0       ??0?$_Vector_iterator@PAUInputFilterWithArgs@@V?$allocator@PAUInputFilterWithArgs@@@std@@@std@@QAE@ABV01@@Z 006d94b0 f i inputdriver_pipe.obj
 0002:000d7510       ??0?$_Vector_const_iterator@PAUInputFilterWithArgs@@V?$allocator@PAUInputFilterWithArgs@@@std@@@std@@QAE@ABV01@@Z 006d9510 f i inputdriver_pipe.obj
 0002:000d7580       ??0?$_Ranit@PAUInputFilterWithArgs@@HPBQAU1@ABQAU1@@std@@QAE@ABU01@@Z 006d9580 f i inputdriver_pipe.obj
 0002:000d75e0       ?_Insert_n@?$vector@PAUInputFilterWithArgs@@V?$allocator@PAUInputFilterWithArgs@@@std@@@std@@IAEXV?$_Vector_iterator@PAUInputFilterWithArgs@@V?$allocator@PAUInputFilterWithArgs@@@std@@@2@IABQAUInputFilterWithArgs@@@Z 006d95e0 f i inputdriver_pipe.obj
 0002:000d7b10       ??0?$allocator@PAUInputFilterWithArgs@@@std@@QAE@ABV01@@Z 006d9b10 f i inputdriver_pipe.obj
 0002:000d7b50       ?max_size@?$allocator@PAUInputFilterWithArgs@@@std@@QBEIXZ 006d9b50 f i inputdriver_pipe.obj
 0002:000d7bc0       ??0?$_Vector_iterator@PAUInputFilterWithArgs@@V?$allocator@PAUInputFilterWithArgs@@@std@@@std@@QAE@PAPAUInputFilterWithArgs@@PBV_Container_base@1@@Z 006d9bc0 f i inputdriver_pipe.obj
 0002:000d7c20       ??H?$_Vector_iterator@PAUInputFilterWithArgs@@V?$allocator@PAUInputFilterWithArgs@@@std@@@std@@QBE?AV01@H@Z 006d9c20 f i inputdriver_pipe.obj
 0002:000d7d40       ??G?$_Vector_iterator@PAUInputFilterWithArgs@@V?$allocator@PAUInputFilterWithArgs@@@std@@@std@@QBEHABV?$_Vector_const_iterator@PAUInputFilterWithArgs@@V?$allocator@PAUInputFilterWithArgs@@@std@@@1@@Z 006d9d40 f i inputdriver_pipe.obj
 0002:000d7da0       ??Y?$_Vector_iterator@PAUInputFilterWithArgs@@V?$allocator@PAUInputFilterWithArgs@@@std@@@std@@QAEAAV01@H@Z 006d9da0 f i inputdriver_pipe.obj
 0002:000d7e00       ??0?$_Vector_const_iterator@PAUInputFilterWithArgs@@V?$allocator@PAUInputFilterWithArgs@@@std@@@std@@QAE@PAPAUInputFilterWithArgs@@PBV_Container_base@1@@Z 006d9e00 f i inputdriver_pipe.obj
 0002:000d7f30       ??G?$_Vector_const_iterator@PAUInputFilterWithArgs@@V?$allocator@PAUInputFilterWithArgs@@@std@@@std@@QBEHABV01@@Z 006d9f30 f i inputdriver_pipe.obj
 0002:000d7fa0       ??0?$_Ranit@PAUInputFilterWithArgs@@HPBQAU1@ABQAU1@@std@@QAE@XZ 006d9fa0 f i inputdriver_pipe.obj
 0002:000d8000       ??Y?$_Vector_const_iterator@PAUInputFilterWithArgs@@V?$allocator@PAUInputFilterWithArgs@@@std@@@std@@QAEAAV01@H@Z 006da000 f i inputdriver_pipe.obj
 0002:000d8150       ?_Compat@?$_Vector_const_iterator@PAUInputFilterWithArgs@@V?$allocator@PAUInputFilterWithArgs@@@std@@@std@@QBEXABV12@@Z 006da150 f i inputdriver_pipe.obj
 0002:000d8220       ?clear@?$auto_vector@UInputFilterWithArgs@@@@QAEXXZ 006da220 f i inputdriver_pipe.obj
 0002:000d8340       ??$_Umove@V?$_Vector_iterator@PAUInputFilterWithArgs@@V?$allocator@PAUInputFilterWithArgs@@@std@@@std@@@?$vector@PAUInputFilterWithArgs@@V?$allocator@PAUInputFilterWithArgs@@@std@@@std@@IAEPAPAUInputFilterWithArgs@@V?$_Vector_iterator@PAUInputFilterWithArgs@@V?$allocator@PAUInputFilterWithArgs@@@std@@@1@0PAPAU2@@Z 006da340 f i inputdriver_pipe.obj
 0002:000d8480       ??$_Destroy_range@PAUInputFilterWithArgs@@V?$allocator@PAUInputFilterWithArgs@@@std@@@std@@YAXPAPAUInputFilterWithArgs@@0AAV?$allocator@PAUInputFilterWithArgs@@@0@@Z 006da480 f i inputdriver_pipe.obj
 0002:000d8500       ??$unchecked_uninitialized_fill_n@PAPAUInputFilterWithArgs@@IPAU1@V?$allocator@PAUInputFilterWithArgs@@@std@@@stdext@@YAXPAPAUInputFilterWithArgs@@IABQAU1@AAV?$allocator@PAUInputFilterWithArgs@@@std@@@Z 006da500 f i inputdriver_pipe.obj
 0002:000d85a0       ??$_Allocate@PAUInputFilterWithArgs@@@std@@YAPAPAUInputFilterWithArgs@@IPAPAU1@@Z 006da5a0 f i inputdriver_pipe.obj
 0002:000d8640       ??$_Umove@PAPAUInputFilterWithArgs@@@?$vector@PAUInputFilterWithArgs@@V?$allocator@PAUInputFilterWithArgs@@@std@@@std@@IAEPAPAUInputFilterWithArgs@@PAPAU2@00@Z 006da640 f i inputdriver_pipe.obj
 0002:000d86b0       ??$fill@PAPAUInputFilterWithArgs@@PAU1@@std@@YAXPAPAUInputFilterWithArgs@@0ABQAU1@@Z 006da6b0 f i inputdriver_pipe.obj
 0002:000d8720       ??$_Unchecked_move_backward@PAPAUInputFilterWithArgs@@PAPAU1@@stdext@@YAPAPAUInputFilterWithArgs@@PAPAU1@00@Z 006da720 f i inputdriver_pipe.obj
 0002:000d87e0       ?begin@?$auto_vector@UInputFilterWithArgs@@@@QAE?AV?$_Vector_iterator@PAUInputFilterWithArgs@@V?$allocator@PAUInputFilterWithArgs@@@std@@@std@@XZ 006da7e0 f i inputdriver_pipe.obj
 0002:000d8860       ?end@?$auto_vector@UInputFilterWithArgs@@@@QAE?AV?$_Vector_iterator@PAUInputFilterWithArgs@@V?$allocator@PAUInputFilterWithArgs@@@std@@@std@@XZ 006da860 f i inputdriver_pipe.obj
 0002:000d88e0       ?clear@?$vector@PAUInputFilterWithArgs@@V?$allocator@PAUInputFilterWithArgs@@@std@@@std@@QAEXXZ 006da8e0 f i inputdriver_pipe.obj
 0002:000d89f0       ?erase@?$vector@PAUInputFilterWithArgs@@V?$allocator@PAUInputFilterWithArgs@@@std@@@std@@QAE?AV?$_Vector_iterator@PAUInputFilterWithArgs@@V?$allocator@PAUInputFilterWithArgs@@@std@@@2@V32@0@Z 006da9f0 f i inputdriver_pipe.obj
 0002:000d8ba0       ??9?$_Vector_const_iterator@PAUInputFilterWithArgs@@V?$allocator@PAUInputFilterWithArgs@@@std@@@std@@QBE_NABV01@@Z 006daba0 f i inputdriver_pipe.obj
 0002:000d8c10       ??M?$_Vector_const_iterator@PAUInputFilterWithArgs@@V?$allocator@PAUInputFilterWithArgs@@@std@@@std@@QBE_NABV01@@Z 006dac10 f i inputdriver_pipe.obj
 0002:000d8c80       ??8?$_Vector_const_iterator@PAUInputFilterWithArgs@@V?$allocator@PAUInputFilterWithArgs@@@std@@@std@@QBE_NABV01@@Z 006dac80 f i inputdriver_pipe.obj
 0002:000d8cf0       ??$for_each@V?$_Vector_iterator@PAUInputFilterWithArgs@@V?$allocator@PAUInputFilterWithArgs@@@std@@@std@@V?$DeletePtr@UInputFilterWithArgs@@@@@std@@YA?AV?$DeletePtr@UInputFilterWithArgs@@@@V?$_Vector_iterator@PAUInputFilterWithArgs@@V?$allocator@PAUInputFilterWithArgs@@@std@@@0@0V1@@Z 006dacf0 f i inputdriver_pipe.obj
 0002:000d8f10       ??$_Unchecked_uninitialized_move@V?$_Vector_iterator@PAUInputFilterWithArgs@@V?$allocator@PAUInputFilterWithArgs@@@std@@@std@@PAPAUInputFilterWithArgs@@V?$allocator@PAUInputFilterWithArgs@@@2@@stdext@@YAPAPAUInputFilterWithArgs@@V?$_Vector_iterator@PAUInputFilterWithArgs@@V?$allocator@PAUInputFilterWithArgs@@@std@@@std@@0PAPAU1@AAV?$allocator@PAUInputFilterWithArgs@@@3@@Z 006daf10 f i inputdriver_pipe.obj
 0002:000d9080       ??$_Ptr_cat@PAPAUInputFilterWithArgs@@PAPAU1@@std@@YA?AU_Scalar_ptr_iterator_tag@0@AAPAPAUInputFilterWithArgs@@0@Z 006db080 f i inputdriver_pipe.obj
 0002:000d90f0       ??$_Destroy_range@PAUInputFilterWithArgs@@V?$allocator@PAUInputFilterWithArgs@@@std@@@std@@YAXPAPAUInputFilterWithArgs@@0AAV?$allocator@PAUInputFilterWithArgs@@@0@U_Scalar_ptr_iterator_tag@0@@Z 006db0f0 f i inputdriver_pipe.obj
 0002:000d9120       ??$_Uninit_fill_n@PAPAUInputFilterWithArgs@@IPAU1@V?$allocator@PAUInputFilterWithArgs@@@std@@@std@@YAXPAPAUInputFilterWithArgs@@IABQAU1@AAV?$allocator@PAUInputFilterWithArgs@@@0@U_Scalar_ptr_iterator_tag@0@U_Range_checked_iterator_tag@0@@Z 006db120 f i inputdriver_pipe.obj
 0002:000d9180       ??$_Unchecked_uninitialized_move@PAPAUInputFilterWithArgs@@PAPAU1@V?$allocator@PAUInputFilterWithArgs@@@std@@@stdext@@YAPAPAUInputFilterWithArgs@@PAPAU1@00AAV?$allocator@PAUInputFilterWithArgs@@@std@@@Z 006db180 f i inputdriver_pipe.obj
 0002:000d9230       ??$_Checked_base@PAPAUInputFilterWithArgs@@@std@@YAPAPAUInputFilterWithArgs@@AAPAPAU1@@Z 006db230 f i inputdriver_pipe.obj
 0002:000d92c0       ??$_Fill@PAPAUInputFilterWithArgs@@PAU1@@std@@YAXPAPAUInputFilterWithArgs@@0ABQAU1@@Z 006db2c0 f i inputdriver_pipe.obj
 0002:000d9350       ??$_Iter_random@PAPAUInputFilterWithArgs@@PAPAU1@@std@@YA?AUrandom_access_iterator_tag@0@ABQAPAUInputFilterWithArgs@@0@Z 006db350 f i inputdriver_pipe.obj
 0002:000d93c0       ??$_Move_cat@PAPAUInputFilterWithArgs@@@std@@YA?AU_Undefined_move_tag@0@ABQAPAUInputFilterWithArgs@@@Z 006db3c0 f i inputdriver_pipe.obj
 0002:000d9430       ??$_Move_backward_opt@PAPAUInputFilterWithArgs@@PAPAU1@Urandom_access_iterator_tag@std@@U_Undefined_move_tag@3@@std@@YAPAPAUInputFilterWithArgs@@PAPAU1@00Urandom_access_iterator_tag@0@U_Undefined_move_tag@0@U_Range_checked_iterator_tag@0@@Z 006db430 f i inputdriver_pipe.obj
 0002:000d94d0       ??$unchecked_copy@PAPAUInputFilterWithArgs@@PAPAU1@@stdext@@YAPAPAUInputFilterWithArgs@@PAPAU1@00@Z 006db4d0 f i inputdriver_pipe.obj
 0002:000d95a0       ??D?$_Vector_iterator@PAUInputFilterWithArgs@@V?$allocator@PAUInputFilterWithArgs@@@std@@@std@@QBEAAPAUInputFilterWithArgs@@XZ 006db5a0 f i inputdriver_pipe.obj
 0002:000d95f0       ??E?$_Vector_iterator@PAUInputFilterWithArgs@@V?$allocator@PAUInputFilterWithArgs@@@std@@@std@@QAEAAV01@XZ 006db5f0 f i inputdriver_pipe.obj
 0002:000d9650       ??R?$DeletePtr@UInputFilterWithArgs@@@@QAEXPAUInputFilterWithArgs@@@Z 006db650 f i inputdriver_pipe.obj
 0002:000d96f0       ??D?$_Vector_const_iterator@PAUInputFilterWithArgs@@V?$allocator@PAUInputFilterWithArgs@@@std@@@std@@QBEABQAUInputFilterWithArgs@@XZ 006db6f0 f i inputdriver_pipe.obj
 0002:000d97e0       ??E?$_Vector_const_iterator@PAUInputFilterWithArgs@@V?$allocator@PAUInputFilterWithArgs@@@std@@@std@@QAEAAV01@XZ 006db7e0 f i inputdriver_pipe.obj
 0002:000d9900       ??$_Debug_range@V?$_Vector_iterator@PAUInputFilterWithArgs@@V?$allocator@PAUInputFilterWithArgs@@@std@@@std@@@std@@YAXV?$_Vector_iterator@PAUInputFilterWithArgs@@V?$allocator@PAUInputFilterWithArgs@@@std@@@0@0PB_WI@Z 006db900 f i inputdriver_pipe.obj
 0002:000d9a30       ??$_Debug_pointer@V?$DeletePtr@UInputFilterWithArgs@@@@@std@@YAXAAV?$DeletePtr@UInputFilterWithArgs@@@@PB_WI@Z 006dba30 f i inputdriver_pipe.obj
 0002:000d9a60       ??$_Checked_base@V?$_Vector_iterator@PAUInputFilterWithArgs@@V?$allocator@PAUInputFilterWithArgs@@@std@@@std@@@std@@YA?AV?$_Vector_iterator@PAUInputFilterWithArgs@@V?$allocator@PAUInputFilterWithArgs@@@std@@@0@AAV10@@Z 006dba60 f i inputdriver_pipe.obj
 0002:000d9b20       ??$_Uninit_move@V?$_Vector_iterator@PAUInputFilterWithArgs@@V?$allocator@PAUInputFilterWithArgs@@@std@@@std@@PAPAUInputFilterWithArgs@@V?$allocator@PAUInputFilterWithArgs@@@2@U_Undefined_move_tag@2@@std@@YAPAPAUInputFilterWithArgs@@V?$_Vector_iterator@PAUInputFilterWithArgs@@V?$allocator@PAUInputFilterWithArgs@@@std@@@0@0PAPAU1@AAV?$allocator@PAUInputFilterWithArgs@@@0@U_Undefined_move_tag@0@U_Range_checked_iterator_tag@0@@Z 006dbb20 f i inputdriver_pipe.obj
 0002:000d9c50       ??$unchecked_fill_n@PAPAUInputFilterWithArgs@@IPAU1@@stdext@@YAXPAPAUInputFilterWithArgs@@IABQAU1@@Z 006dbc50 f i inputdriver_pipe.obj
 0002:000d9ce0       ??$_Uninit_move@PAPAUInputFilterWithArgs@@PAPAU1@V?$allocator@PAUInputFilterWithArgs@@@std@@U_Undefined_move_tag@3@@std@@YAPAPAUInputFilterWithArgs@@PAPAU1@00AAV?$allocator@PAUInputFilterWithArgs@@@0@U_Undefined_move_tag@0@U_Range_checked_iterator_tag@0@@Z 006dbce0 f i inputdriver_pipe.obj
 0002:000d9d40       ??$_Checked_base@PAPAUInputFilterWithArgs@@@std@@YAPAPAUInputFilterWithArgs@@AAPAPAU1@U_Unchanged_checked_iterator_base_type_tag@0@@Z 006dbd40 f i inputdriver_pipe.obj
 0002:000d9d80       ??$_Debug_range@PAPAUInputFilterWithArgs@@@std@@YAXPAPAUInputFilterWithArgs@@0PB_WI@Z 006dbd80 f i inputdriver_pipe.obj
 0002:000d9e00       ??$_Copy_backward_opt@PAPAUInputFilterWithArgs@@PAPAU1@Urandom_access_iterator_tag@std@@@std@@YAPAPAUInputFilterWithArgs@@PAPAU1@00Urandom_access_iterator_tag@0@U_Scalar_ptr_iterator_tag@0@U_Range_checked_iterator_tag@0@@Z 006dbe00 f i inputdriver_pipe.obj
 0002:000d9ee0       ??$_Copy_opt@PAPAUInputFilterWithArgs@@PAPAU1@Urandom_access_iterator_tag@std@@@std@@YAPAPAUInputFilterWithArgs@@PAPAU1@00Urandom_access_iterator_tag@0@U_Scalar_ptr_iterator_tag@0@U_Range_checked_iterator_tag@0@@Z 006dbee0 f i inputdriver_pipe.obj
 0002:000d9fc0       ??$_Iter_cat@V?$_Vector_iterator@PAUInputFilterWithArgs@@V?$allocator@PAUInputFilterWithArgs@@@std@@@std@@@std@@YA?AUrandom_access_iterator_tag@0@ABV?$_Vector_iterator@PAUInputFilterWithArgs@@V?$allocator@PAUInputFilterWithArgs@@@std@@@0@@Z 006dbfc0 f i inputdriver_pipe.obj
 0002:000da030       ??$_Debug_range2@V?$_Vector_iterator@PAUInputFilterWithArgs@@V?$allocator@PAUInputFilterWithArgs@@@std@@@std@@@std@@YAXV?$_Vector_iterator@PAUInputFilterWithArgs@@V?$allocator@PAUInputFilterWithArgs@@@std@@@0@0PB_WIUrandom_access_iterator_tag@0@@Z 006dc030 f i inputdriver_pipe.obj
 0002:000da150       ??$_Checked_base@V?$_Vector_iterator@PAUInputFilterWithArgs@@V?$allocator@PAUInputFilterWithArgs@@@std@@@std@@@std@@YA?AV?$_Vector_iterator@PAUInputFilterWithArgs@@V?$allocator@PAUInputFilterWithArgs@@@std@@@0@AAV10@U_Unchanged_checked_iterator_base_type_tag@0@@Z 006dc150 f i inputdriver_pipe.obj
 0002:000da1c0       ??$unchecked_uninitialized_copy@V?$_Vector_iterator@PAUInputFilterWithArgs@@V?$allocator@PAUInputFilterWithArgs@@@std@@@std@@PAPAUInputFilterWithArgs@@V?$allocator@PAUInputFilterWithArgs@@@2@@stdext@@YAPAPAUInputFilterWithArgs@@V?$_Vector_iterator@PAUInputFilterWithArgs@@V?$allocator@PAUInputFilterWithArgs@@@std@@@std@@0PAPAU1@AAV?$allocator@PAUInputFilterWithArgs@@@3@@Z 006dc1c0 f i inputdriver_pipe.obj
 0002:000da330       ??$_Iter_cat@PAPAUInputFilterWithArgs@@@std@@YA?AUrandom_access_iterator_tag@0@ABQAPAUInputFilterWithArgs@@@Z 006dc330 f i inputdriver_pipe.obj
 0002:000da3a0       ??$_Fill_n@PAPAUInputFilterWithArgs@@IPAU1@@std@@YAXPAPAUInputFilterWithArgs@@IABQAU1@Urandom_access_iterator_tag@0@U_Range_checked_iterator_tag@0@@Z 006dc3a0 f i inputdriver_pipe.obj
 0002:000da430       ??$unchecked_uninitialized_copy@PAPAUInputFilterWithArgs@@PAPAU1@V?$allocator@PAUInputFilterWithArgs@@@std@@@stdext@@YAPAPAUInputFilterWithArgs@@PAPAU1@00AAV?$allocator@PAUInputFilterWithArgs@@@std@@@Z 006dc430 f i inputdriver_pipe.obj
 0002:000da4e0       ??$_Debug_range2@PAPAUInputFilterWithArgs@@@std@@YAXPAPAUInputFilterWithArgs@@0PB_WIUrandom_access_iterator_tag@0@@Z 006dc4e0 f i inputdriver_pipe.obj
 0002:000da580       ??$_Debug_pointer@PAUInputFilterWithArgs@@@std@@YAXPAPAUInputFilterWithArgs@@PB_WI@Z 006dc580 f i inputdriver_pipe.obj
 0002:000da5e0       ??$_Debug_pointer@V?$_Vector_iterator@PAUInputFilterWithArgs@@V?$allocator@PAUInputFilterWithArgs@@@std@@@std@@@std@@YAXAAV?$_Vector_iterator@PAUInputFilterWithArgs@@V?$allocator@PAUInputFilterWithArgs@@@std@@@0@PB_WI@Z 006dc5e0 f i inputdriver_pipe.obj
 0002:000da610       ??$_Ptr_cat@V?$_Vector_iterator@PAUInputFilterWithArgs@@V?$allocator@PAUInputFilterWithArgs@@@std@@@std@@PAPAUInputFilterWithArgs@@@std@@YA?AU_Scalar_ptr_iterator_tag@0@AAV?$_Vector_iterator@PAUInputFilterWithArgs@@V?$allocator@PAUInputFilterWithArgs@@@std@@@0@AAPAPAUInputFilterWithArgs@@@Z 006dc610 f i inputdriver_pipe.obj
 0002:000da680       ??$_Uninit_copy@V?$_Vector_iterator@PAUInputFilterWithArgs@@V?$allocator@PAUInputFilterWithArgs@@@std@@@std@@PAPAUInputFilterWithArgs@@V?$allocator@PAUInputFilterWithArgs@@@2@@std@@YAPAPAUInputFilterWithArgs@@V?$_Vector_iterator@PAUInputFilterWithArgs@@V?$allocator@PAUInputFilterWithArgs@@@std@@@0@0PAPAU1@AAV?$allocator@PAUInputFilterWithArgs@@@0@U_Scalar_ptr_iterator_tag@0@U_Range_checked_iterator_tag@0@@Z 006dc680 f i inputdriver_pipe.obj
 0002:000da820       ??$_Fill_n@PAPAUInputFilterWithArgs@@IPAU1@@std@@YAXPAPAUInputFilterWithArgs@@IABQAU1@U_Range_checked_iterator_tag@0@@Z 006dc820 f i inputdriver_pipe.obj
 0002:000da890       ??$_Uninit_copy@PAPAUInputFilterWithArgs@@PAPAU1@V?$allocator@PAUInputFilterWithArgs@@@std@@@std@@YAPAPAUInputFilterWithArgs@@PAPAU1@00AAV?$allocator@PAUInputFilterWithArgs@@@0@U_Scalar_ptr_iterator_tag@0@U_Range_checked_iterator_tag@0@@Z 006dc890 f i inputdriver_pipe.obj
 0002:000da960       ??0PrefsInputDriver@@QAE@XZ 006dc960 f   inputdriver_prefs.obj
 0002:000daa60       ?parseInputSpecification@PrefsInputDriver@@UAE?AW4InputParserState@@ABVInputSpecTokens@@AAUInputSpec@@@Z 006dca60 f   inputdriver_prefs.obj
 0002:000dae70       ?getInput@PrefsInputDriver@@UAE_NABUInputSpec@@AAUInputDetails@@@Z 006dce70 f   inputdriver_prefs.obj
 0002:000daf80       ?Advance@PrefsInputDriver@@UAEXXZ 006dcf80 f   inputdriver_prefs.obj
 0002:000dafc0       ?getLastParseError@PrefsInputDriver@@UAEABV?$basic_string@DU?$char_traits@D@std@@V?$allocator@D@2@@std@@W4InputParserState@@@Z 006dcfc0 f   inputdriver_prefs.obj
 0002:000db010       ?getInputDescription@PrefsInputDriver@@UAE_NABUInputSpec@@AAVInputDescription@@@Z 006dd010 f   inputdriver_prefs.obj
 0002:000db0c0       ?keyPosition@PrefsInputDriver@@AAEHABV?$basic_string@DU?$char_traits@D@std@@V?$allocator@D@2@@std@@@Z 006dd0c0 f   inputdriver_prefs.obj
 0002:000db4b0       ??1?$_Vector_iterator@PAV?$basic_string@DU?$char_traits@D@std@@V?$allocator@D@2@@std@@V?$allocator@PAV?$basic_string@DU?$char_traits@D@std@@V?$allocator@D@2@@std@@@2@@std@@QAE@XZ 006dd4b0 f i inputdriver_prefs.obj
 0002:000db500       ??4?$_Vector_iterator@PAV?$basic_string@DU?$char_traits@D@std@@V?$allocator@D@2@@std@@V?$allocator@PAV?$basic_string@DU?$char_traits@D@std@@V?$allocator@D@2@@std@@@2@@std@@QAEAAV01@ABV01@@Z 006dd500 f i inputdriver_prefs.obj
 0002:000db560       ??1?$_Vector_const_iterator@PAV?$basic_string@DU?$char_traits@D@std@@V?$allocator@D@2@@std@@V?$allocator@PAV?$basic_string@DU?$char_traits@D@std@@V?$allocator@D@2@@std@@@2@@std@@QAE@XZ 006dd560 f i inputdriver_prefs.obj
 0002:000db5b0       ??4?$_Vector_const_iterator@PAV?$basic_string@DU?$char_traits@D@std@@V?$allocator@D@2@@std@@V?$allocator@PAV?$basic_string@DU?$char_traits@D@std@@V?$allocator@D@2@@std@@@2@@std@@QAEAAV01@ABV01@@Z 006dd5b0 f i inputdriver_prefs.obj
 0002:000db620       ??1?$_Ranit@PAV?$basic_string@DU?$char_traits@D@std@@V?$allocator@D@2@@std@@HPBQAV12@ABQAV12@@std@@QAE@XZ 006dd620 f i inputdriver_prefs.obj
 0002:000db670       ??4?$_Ranit@PAV?$basic_string@DU?$char_traits@D@std@@V?$allocator@D@2@@std@@HPBQAV12@ABQAV12@@std@@QAEAAU01@ABU01@@Z 006dd670 f i inputdriver_prefs.obj
 0002:000db6d0       ?size@?$auto_vector@V?$basic_string@DU?$char_traits@D@std@@V?$allocator@D@2@@std@@@@QBEIXZ 006dd6d0 f i inputdriver_prefs.obj
 0002:000db720       ??A?$auto_vector@V?$basic_string@DU?$char_traits@D@std@@V?$allocator@D@2@@std@@@@QAE?AVauto_lvalue@0@I@Z 006dd720 f i inputdriver_prefs.obj
 0002:000db790       ?begin@?$auto_vector@V?$basic_string@DU?$char_traits@D@std@@V?$allocator@D@2@@std@@@@QAE?AV?$_Vector_iterator@PAV?$basic_string@DU?$char_traits@D@std@@V?$allocator@D@2@@std@@V?$allocator@PAV?$basic_string@DU?$char_traits@D@std@@V?$allocator@D@2@@std@@@2@@std@@XZ 006dd790 f i inputdriver_prefs.obj
 0002:000db810       ?end@?$auto_vector@V?$basic_string@DU?$char_traits@D@std@@V?$allocator@D@2@@std@@@@QAE?AV?$_Vector_iterator@PAV?$basic_string@DU?$char_traits@D@std@@V?$allocator@D@2@@std@@V?$allocator@PAV?$basic_string@DU?$char_traits@D@std@@V?$allocator@D@2@@std@@@2@@std@@XZ 006dd810 f i inputdriver_prefs.obj
 0002:000db890       ??Cauto_lvalue@?$auto_vector@V?$basic_string@DU?$char_traits@D@std@@V?$allocator@D@2@@std@@@@QBEPAV?$basic_string@DU?$char_traits@D@std@@V?$allocator@D@2@@std@@XZ 006dd890 f i inputdriver_prefs.obj
 0002:000db8d0       ??0?$_Vector_iterator@PAV?$basic_string@DU?$char_traits@D@std@@V?$allocator@D@2@@std@@V?$allocator@PAV?$basic_string@DU?$char_traits@D@std@@V?$allocator@D@2@@std@@@2@@std@@QAE@XZ 006dd8d0 f i inputdriver_prefs.obj
 0002:000db930       ??D?$_Vector_iterator@PAV?$basic_string@DU?$char_traits@D@std@@V?$allocator@D@2@@std@@V?$allocator@PAV?$basic_string@DU?$char_traits@D@std@@V?$allocator@D@2@@std@@@2@@std@@QBEAAPAV?$basic_string@DU?$char_traits@D@std@@V?$allocator@D@2@@1@XZ 006dd930 f i inputdriver_prefs.obj
 0002:000db980       ??E?$_Vector_iterator@PAV?$basic_string@DU?$char_traits@D@std@@V?$allocator@D@2@@std@@V?$allocator@PAV?$basic_string@DU?$char_traits@D@std@@V?$allocator@D@2@@std@@@2@@std@@QAEAAV01@XZ 006dd980 f i inputdriver_prefs.obj
 0002:000db9e0       ??G?$_Vector_iterator@PAV?$basic_string@DU?$char_traits@D@std@@V?$allocator@D@2@@std@@V?$allocator@PAV?$basic_string@DU?$char_traits@D@std@@V?$allocator@D@2@@std@@@2@@std@@QBEHABV?$_Vector_const_iterator@PAV?$basic_string@DU?$char_traits@D@std@@V?$allocator@D@2@@std@@V?$allocator@PAV?$basic_string@DU?$char_traits@D@std@@V?$allocator@D@2@@std@@@2@@1@@Z 006dd9e0 f i inputdriver_prefs.obj
 0002:000dba40       ??8?$_Vector_const_iterator@PAV?$basic_string@DU?$char_traits@D@std@@V?$allocator@D@2@@std@@V?$allocator@PAV?$basic_string@DU?$char_traits@D@std@@V?$allocator@D@2@@std@@@2@@std@@QBE_NABV01@@Z 006dda40 f i inputdriver_prefs.obj
 0002:000dbab0       ??9?$_Vector_const_iterator@PAV?$basic_string@DU?$char_traits@D@std@@V?$allocator@D@2@@std@@V?$allocator@PAV?$basic_string@DU?$char_traits@D@std@@V?$allocator@D@2@@std@@@2@@std@@QBE_NABV01@@Z 006ddab0 f i inputdriver_prefs.obj
 0002:000dbb20       ??0?$auto_ptr@V?$basic_string@DU?$char_traits@D@std@@V?$allocator@D@2@@std@@@std@@QAE@PAV?$basic_string@DU?$char_traits@D@std@@V?$allocator@D@2@@1@@Z 006ddb20 f i inputdriver_prefs.obj
 0002:000dbb70       ??0?$auto_ptr@V?$basic_string@DU?$char_traits@D@std@@V?$allocator@D@2@@std@@@std@@QAE@U?$auto_ptr_ref@V?$basic_string@DU?$char_traits@D@std@@V?$allocator@D@2@@std@@@1@@Z 006ddb70 f i inputdriver_prefs.obj
 0002:000dbbe0       ??1?$auto_ptr@V?$basic_string@DU?$char_traits@D@std@@V?$allocator@D@2@@std@@@std@@QAE@XZ 006ddbe0 f i inputdriver_prefs.obj
 0002:000dbc80       ?begin@?$vector@PAV?$basic_string@DU?$char_traits@D@std@@V?$allocator@D@2@@std@@V?$allocator@PAV?$basic_string@DU?$char_traits@D@std@@V?$allocator@D@2@@std@@@2@@std@@QAE?AV?$_Vector_iterator@PAV?$basic_string@DU?$char_traits@D@std@@V?$allocator@D@2@@std@@V?$allocator@PAV?$basic_string@DU?$char_traits@D@std@@V?$allocator@D@2@@std@@@2@@2@XZ 006ddc80 f i inputdriver_prefs.obj
 0002:000dbd10       ?end@?$vector@PAV?$basic_string@DU?$char_traits@D@std@@V?$allocator@D@2@@std@@V?$allocator@PAV?$basic_string@DU?$char_traits@D@std@@V?$allocator@D@2@@std@@@2@@std@@QAE?AV?$_Vector_iterator@PAV?$basic_string@DU?$char_traits@D@std@@V?$allocator@D@2@@std@@V?$allocator@PAV?$basic_string@DU?$char_traits@D@std@@V?$allocator@D@2@@std@@@2@@2@XZ 006ddd10 f i inputdriver_prefs.obj
 0002:000dbda0       ?size@?$vector@PAV?$basic_string@DU?$char_traits@D@std@@V?$allocator@D@2@@std@@V?$allocator@PAV?$basic_string@DU?$char_traits@D@std@@V?$allocator@D@2@@std@@@2@@std@@QBEIXZ 006ddda0 f i inputdriver_prefs.obj
 0002:000dbe10       ??A?$vector@PAV?$basic_string@DU?$char_traits@D@std@@V?$allocator@D@2@@std@@V?$allocator@PAV?$basic_string@DU?$char_traits@D@std@@V?$allocator@D@2@@std@@@2@@std@@QAEAAPAV?$basic_string@DU?$char_traits@D@std@@V?$allocator@D@2@@1@I@Z 006dde10 f i inputdriver_prefs.obj
 0002:000dbf50       ??0auto_lvalue@?$auto_vector@V?$basic_string@DU?$char_traits@D@std@@V?$allocator@D@2@@std@@@@QAE@AAPAV?$basic_string@DU?$char_traits@D@std@@V?$allocator@D@2@@std@@@Z 006ddf50 f i inputdriver_prefs.obj
 0002:000dbfa0       ??0?$_Vector_const_iterator@PAV?$basic_string@DU?$char_traits@D@std@@V?$allocator@D@2@@std@@V?$allocator@PAV?$basic_string@DU?$char_traits@D@std@@V?$allocator@D@2@@std@@@2@@std@@QAE@XZ 006ddfa0 f i inputdriver_prefs.obj
 0002:000dc000       ??D?$_Vector_const_iterator@PAV?$basic_string@DU?$char_traits@D@std@@V?$allocator@D@2@@std@@V?$allocator@PAV?$basic_string@DU?$char_traits@D@std@@V?$allocator@D@2@@std@@@2@@std@@QBEABQAV?$basic_string@DU?$char_traits@D@std@@V?$allocator@D@2@@1@XZ 006de000 f i inputdriver_prefs.obj
 0002:000dc0f0       ??E?$_Vector_const_iterator@PAV?$basic_string@DU?$char_traits@D@std@@V?$allocator@D@2@@std@@V?$allocator@PAV?$basic_string@DU?$char_traits@D@std@@V?$allocator@D@2@@std@@@2@@std@@QAEAAV01@XZ 006de0f0 f i inputdriver_prefs.obj
 0002:000dc210       ??G?$_Vector_const_iterator@PAV?$basic_string@DU?$char_traits@D@std@@V?$allocator@D@2@@std@@V?$allocator@PAV?$basic_string@DU?$char_traits@D@std@@V?$allocator@D@2@@std@@@2@@std@@QBEHABV01@@Z 006de210 f i inputdriver_prefs.obj
 0002:000dc280       ?_Compat@?$_Vector_const_iterator@PAV?$basic_string@DU?$char_traits@D@std@@V?$allocator@D@2@@std@@V?$allocator@PAV?$basic_string@DU?$char_traits@D@std@@V?$allocator@D@2@@std@@@2@@std@@QBEXABV12@@Z 006de280 f i inputdriver_prefs.obj
 0002:000dc350       ??0?$_Ranit@PAV?$basic_string@DU?$char_traits@D@std@@V?$allocator@D@2@@std@@HPBQAV12@ABQAV12@@std@@QAE@XZ 006de350 f i inputdriver_prefs.obj
 0002:000dc3b0       ??0?$_Vector_iterator@PAV?$basic_string@DU?$char_traits@D@std@@V?$allocator@D@2@@std@@V?$allocator@PAV?$basic_string@DU?$char_traits@D@std@@V?$allocator@D@2@@std@@@2@@std@@QAE@PAPAV?$basic_string@DU?$char_traits@D@std@@V?$allocator@D@2@@1@PBV_Container_base@1@@Z 006de3b0 f i inputdriver_prefs.obj
 0002:000dc410       ??0?$_Vector_const_iterator@PAV?$basic_string@DU?$char_traits@D@std@@V?$allocator@D@2@@std@@V?$allocator@PAV?$basic_string@DU?$char_traits@D@std@@V?$allocator@D@2@@std@@@2@@std@@QAE@PAPAV?$basic_string@DU?$char_traits@D@std@@V?$allocator@D@2@@1@PBV_Container_base@1@@Z 006de410 f i inputdriver_prefs.obj
 0002:000dc540       ??0?$auto_vector@V?$basic_string@DU?$char_traits@D@std@@V?$allocator@D@2@@std@@@@QAE@I@Z 006de540 f i inputdriver_prefs.obj
 0002:000dc5f0       ??1?$auto_vector@V?$basic_string@DU?$char_traits@D@std@@V?$allocator@D@2@@std@@@@QAE@XZ 006de5f0 f i inputdriver_prefs.obj
 0002:000dc690       ?push_back@?$auto_vector@V?$basic_string@DU?$char_traits@D@std@@V?$allocator@D@2@@std@@@@QAEXV?$auto_ptr@V?$basic_string@DU?$char_traits@D@std@@V?$allocator@D@2@@std@@@std@@@Z 006de690 f i inputdriver_prefs.obj
 0002:000dc760       ??$?8DU?$char_traits@D@std@@V?$allocator@D@1@@std@@YA_NPBDABV?$basic_string@DU?$char_traits@D@std@@V?$allocator@D@2@@0@@Z 006de760 f i inputdriver_prefs.obj
 0002:000dc7c0       ??$?8DU?$char_traits@D@std@@V?$allocator@D@1@@std@@YA_NABV?$basic_string@DU?$char_traits@D@std@@V?$allocator@D@2@@0@0@Z 006de7c0 f i inputdriver_prefs.obj
 0002:000dc820       ?compare@?$basic_string@DU?$char_traits@D@std@@V?$allocator@D@2@@std@@QBEHABV12@@Z 006de820 f i inputdriver_prefs.obj
 0002:000dc8a0       ??$?BV?$basic_string@DU?$char_traits@D@std@@V?$allocator@D@2@@std@@@?$auto_ptr@V?$basic_string@DU?$char_traits@D@std@@V?$allocator@D@2@@std@@@std@@QAE?AU?$auto_ptr_ref@V?$basic_string@DU?$char_traits@D@std@@V?$allocator@D@2@@std@@@1@XZ 006de8a0 f i inputdriver_prefs.obj
 0002:000dc980       ??0?$vector@PAV?$basic_string@DU?$char_traits@D@std@@V?$allocator@D@2@@std@@V?$allocator@PAV?$basic_string@DU?$char_traits@D@std@@V?$allocator@D@2@@std@@@2@@std@@QAE@XZ 006de980 f i inputdriver_prefs.obj
 0002:000dca40       ??1?$vector@PAV?$basic_string@DU?$char_traits@D@std@@V?$allocator@D@2@@std@@V?$allocator@PAV?$basic_string@DU?$char_traits@D@std@@V?$allocator@D@2@@std@@@2@@std@@QAE@XZ 006dea40 f i inputdriver_prefs.obj
 0002:000dcae0       ?reserve@?$vector@PAV?$basic_string@DU?$char_traits@D@std@@V?$allocator@D@2@@std@@V?$allocator@PAV?$basic_string@DU?$char_traits@D@std@@V?$allocator@D@2@@std@@@2@@std@@QAEXI@Z 006deae0 f i inputdriver_prefs.obj
 0002:000dcd00       ?push_back@?$vector@PAV?$basic_string@DU?$char_traits@D@std@@V?$allocator@D@2@@std@@V?$allocator@PAV?$basic_string@DU?$char_traits@D@std@@V?$allocator@D@2@@std@@@2@@std@@QAEXABQAV?$basic_string@DU?$char_traits@D@std@@V?$allocator@D@2@@2@@Z 006ded00 f i inputdriver_prefs.obj
 0002:000dcdf0       ?get@?$auto_ptr@V?$basic_string@DU?$char_traits@D@std@@V?$allocator@D@2@@std@@@std@@QBEPAV?$basic_string@DU?$char_traits@D@std@@V?$allocator@D@2@@2@XZ 006dedf0 f i inputdriver_prefs.obj
 0002:000dce30       ?release@?$auto_ptr@V?$basic_string@DU?$char_traits@D@std@@V?$allocator@D@2@@std@@@std@@QAEPAV?$basic_string@DU?$char_traits@D@std@@V?$allocator@D@2@@2@XZ 006dee30 f i inputdriver_prefs.obj
 0002:000dce80       ??0?$auto_ptr_ref@V?$basic_string@DU?$char_traits@D@std@@V?$allocator@D@2@@std@@@std@@QAE@PAX@Z 006dee80 f i inputdriver_prefs.obj
 0002:000dced0       ??1?$_Vector_val@PAV?$basic_string@DU?$char_traits@D@std@@V?$allocator@D@2@@std@@V?$allocator@PAV?$basic_string@DU?$char_traits@D@std@@V?$allocator@D@2@@std@@@2@@std@@QAE@XZ 006deed0 f i inputdriver_prefs.obj
 0002:000dcf20       ?capacity@?$vector@PAV?$basic_string@DU?$char_traits@D@std@@V?$allocator@D@2@@std@@V?$allocator@PAV?$basic_string@DU?$char_traits@D@std@@V?$allocator@D@2@@std@@@2@@std@@QBEIXZ 006def20 f i inputdriver_prefs.obj
 0002:000dcf90       ?max_size@?$vector@PAV?$basic_string@DU?$char_traits@D@std@@V?$allocator@D@2@@std@@V?$allocator@PAV?$basic_string@DU?$char_traits@D@std@@V?$allocator@D@2@@std@@@2@@std@@QBEIXZ 006def90 f i inputdriver_prefs.obj
 0002:000dcff0       ?insert@?$vector@PAV?$basic_string@DU?$char_traits@D@std@@V?$allocator@D@2@@std@@V?$allocator@PAV?$basic_string@DU?$char_traits@D@std@@V?$allocator@D@2@@std@@@2@@std@@QAE?AV?$_Vector_iterator@PAV?$basic_string@DU?$char_traits@D@std@@V?$allocator@D@2@@std@@V?$allocator@PAV?$basic_string@DU?$char_traits@D@std@@V?$allocator@D@2@@std@@@2@@2@V32@ABQAV?$basic_string@DU?$char_traits@D@std@@V?$allocator@D@2@@2@@Z 006deff0 f i inputdriver_prefs.obj
 0002:000dd1f0       ?_Buy@?$vector@PAV?$basic_string@DU?$char_traits@D@std@@V?$allocator@D@2@@std@@V?$allocator@PAV?$basic_string@DU?$char_traits@D@std@@V?$allocator@D@2@@std@@@2@@std@@IAE_NI@Z 006df1f0 f i inputdriver_prefs.obj
 0002:000dd2d0       ?_Destroy@?$vector@PAV?$basic_string@DU?$char_traits@D@std@@V?$allocator@D@2@@std@@V?$allocator@PAV?$basic_string@DU?$char_traits@D@std@@V?$allocator@D@2@@std@@@2@@std@@IAEXPAPAV?$basic_string@DU?$char_traits@D@std@@V?$allocator@D@2@@2@0@Z 006df2d0 f i inputdriver_prefs.obj
 0002:000dd340       ?_Tidy@?$vector@PAV?$basic_string@DU?$char_traits@D@std@@V?$allocator@D@2@@std@@V?$allocator@PAV?$basic_string@DU?$char_traits@D@std@@V?$allocator@D@2@@std@@@2@@std@@IAEXXZ 006df340 f i inputdriver_prefs.obj
 0002:000dd410       ?_Ufill@?$vector@PAV?$basic_string@DU?$char_traits@D@std@@V?$allocator@D@2@@std@@V?$allocator@PAV?$basic_string@DU?$char_traits@D@std@@V?$allocator@D@2@@std@@@2@@std@@IAEPAPAV?$basic_string@DU?$char_traits@D@std@@V?$allocator@D@2@@2@PAPAV32@IABQAV32@@Z 006df410 f i inputdriver_prefs.obj
 0002:000dd490       ?_Xlen@?$vector@PAV?$basic_string@DU?$char_traits@D@std@@V?$allocator@D@2@@std@@V?$allocator@PAV?$basic_string@DU?$char_traits@D@std@@V?$allocator@D@2@@std@@@2@@std@@KAXXZ 006df490 f i inputdriver_prefs.obj
 0002:000dd570       ?_Orphan_range@?$vector@PAV?$basic_string@DU?$char_traits@D@std@@V?$allocator@D@2@@std@@V?$allocator@PAV?$basic_string@DU?$char_traits@D@std@@V?$allocator@D@2@@std@@@2@@std@@IBEXPAPAV?$basic_string@DU?$char_traits@D@std@@V?$allocator@D@2@@2@0@Z 006df570 f i inputdriver_prefs.obj
 0002:000dd670       ??0?$_Vector_val@PAV?$basic_string@DU?$char_traits@D@std@@V?$allocator@D@2@@std@@V?$allocator@PAV?$basic_string@DU?$char_traits@D@std@@V?$allocator@D@2@@std@@@2@@std@@IAE@V?$allocator@PAV?$basic_string@DU?$char_traits@D@std@@V?$allocator@D@2@@std@@@1@@Z 006df670 f i inputdriver_prefs.obj
 0002:000dd6e0       ??0?$allocator@PAV?$basic_string@DU?$char_traits@D@std@@V?$allocator@D@2@@std@@@std@@QAE@XZ 006df6e0 f i inputdriver_prefs.obj
 0002:000dd720       ?deallocate@?$allocator@PAV?$basic_string@DU?$char_traits@D@std@@V?$allocator@D@2@@std@@@std@@QAEXPAPAV?$basic_string@DU?$char_traits@D@std@@V?$allocator@D@2@@2@I@Z 006df720 f i inputdriver_prefs.obj
 0002:000dd780       ?allocate@?$allocator@PAV?$basic_string@DU?$char_traits@D@std@@V?$allocator@D@2@@std@@@std@@QAEPAPAV?$basic_string@DU?$char_traits@D@std@@V?$allocator@D@2@@2@I@Z 006df780 f i inputdriver_prefs.obj
 0002:000dd7e0       ??0?$_Vector_iterator@PAV?$basic_string@DU?$char_traits@D@std@@V?$allocator@D@2@@std@@V?$allocator@PAV?$basic_string@DU?$char_traits@D@std@@V?$allocator@D@2@@std@@@2@@std@@QAE@ABV01@@Z 006df7e0 f i inputdriver_prefs.obj
 0002:000dd840       ??0?$_Vector_const_iterator@PAV?$basic_string@DU?$char_traits@D@std@@V?$allocator@D@2@@std@@V?$allocator@PAV?$basic_string@DU?$char_traits@D@std@@V?$allocator@D@2@@std@@@2@@std@@QAE@ABV01@@Z 006df840 f i inputdriver_prefs.obj
 0002:000dd8b0       ??0?$_Ranit@PAV?$basic_string@DU?$char_traits@D@std@@V?$allocator@D@2@@std@@HPBQAV12@ABQAV12@@std@@QAE@ABU01@@Z 006df8b0 f i inputdriver_prefs.obj
 0002:000dd910       ?_Insert_n@?$vector@PAV?$basic_string@DU?$char_traits@D@std@@V?$allocator@D@2@@std@@V?$allocator@PAV?$basic_string@DU?$char_traits@D@std@@V?$allocator@D@2@@std@@@2@@std@@IAEXV?$_Vector_iterator@PAV?$basic_string@DU?$char_traits@D@std@@V?$allocator@D@2@@std@@V?$allocator@PAV?$basic_string@DU?$char_traits@D@std@@V?$allocator@D@2@@std@@@2@@2@IABQAV?$basic_string@DU?$char_traits@D@std@@V?$allocator@D@2@@2@@Z 006df910 f i inputdriver_prefs.obj
 0002:000dde40       ??0?$allocator@PAV?$basic_string@DU?$char_traits@D@std@@V?$allocator@D@2@@std@@@std@@QAE@ABV01@@Z 006dfe40 f i inputdriver_prefs.obj
 0002:000dde80       ?max_size@?$allocator@PAV?$basic_string@DU?$char_traits@D@std@@V?$allocator@D@2@@std@@@std@@QBEIXZ 006dfe80 f i inputdriver_prefs.obj
 0002:000ddef0       ??H?$_Vector_iterator@PAV?$basic_string@DU?$char_traits@D@std@@V?$allocator@D@2@@std@@V?$allocator@PAV?$basic_string@DU?$char_traits@D@std@@V?$allocator@D@2@@std@@@2@@std@@QBE?AV01@H@Z 006dfef0 f i inputdriver_prefs.obj
 0002:000de010       ??Y?$_Vector_iterator@PAV?$basic_string@DU?$char_traits@D@std@@V?$allocator@D@2@@std@@V?$allocator@PAV?$basic_string@DU?$char_traits@D@std@@V?$allocator@D@2@@std@@@2@@std@@QAEAAV01@H@Z 006e0010 f i inputdriver_prefs.obj
 0002:000de070       ??Y?$_Vector_const_iterator@PAV?$basic_string@DU?$char_traits@D@std@@V?$allocator@D@2@@std@@V?$allocator@PAV?$basic_string@DU?$char_traits@D@std@@V?$allocator@D@2@@std@@@2@@std@@QAEAAV01@H@Z 006e0070 f i inputdriver_prefs.obj
 0002:000de1c0       ?clear@?$auto_vector@V?$basic_string@DU?$char_traits@D@std@@V?$allocator@D@2@@std@@@@QAEXXZ 006e01c0 f i inputdriver_prefs.obj
 0002:000de2e0       ??$_Umove@V?$_Vector_iterator@PAV?$basic_string@DU?$char_traits@D@std@@V?$allocator@D@2@@std@@V?$allocator@PAV?$basic_string@DU?$char_traits@D@std@@V?$allocator@D@2@@std@@@2@@std@@@?$vector@PAV?$basic_string@DU?$char_traits@D@std@@V?$allocator@D@2@@std@@V?$allocator@PAV?$basic_string@DU?$char_traits@D@std@@V?$allocator@D@2@@std@@@2@@std@@IAEPAPAV?$basic_string@DU?$char_traits@D@std@@V?$allocator@D@2@@1@V?$_Vector_iterator@PAV?$basic_string@DU?$char_traits@D@std@@V?$allocator@D@2@@std@@V?$allocator@PAV?$basic_string@DU?$char_traits@D@std@@V?$allocator@D@2@@std@@@2@@1@0PAPAV21@@Z 006e02e0 f i inputdriver_prefs.obj
 0002:000de420       ??$_Destroy_range@PAV?$basic_string@DU?$char_traits@D@std@@V?$allocator@D@2@@std@@V?$allocator@PAV?$basic_string@DU?$char_traits@D@std@@V?$allocator@D@2@@std@@@2@@std@@YAXPAPAV?$basic_string@DU?$char_traits@D@std@@V?$allocator@D@2@@0@0AAV?$allocator@PAV?$basic_string@DU?$char_traits@D@std@@V?$allocator@D@2@@std@@@0@@Z 006e0420 f i inputdriver_prefs.obj
 0002:000de4a0       ??$unchecked_uninitialized_fill_n@PAPAV?$basic_string@DU?$char_traits@D@std@@V?$allocator@D@2@@std@@IPAV12@V?$allocator@PAV?$basic_string@DU?$char_traits@D@std@@V?$allocator@D@2@@std@@@2@@stdext@@YAXPAPAV?$basic_string@DU?$char_traits@D@std@@V?$allocator@D@2@@std@@IABQAV12@AAV?$allocator@PAV?$basic_string@DU?$char_traits@D@std@@V?$allocator@D@2@@std@@@2@@Z 006e04a0 f i inputdriver_prefs.obj
 0002:000de540       ??$_Allocate@PAV?$basic_string@DU?$char_traits@D@std@@V?$allocator@D@2@@std@@@std@@YAPAPAV?$basic_string@DU?$char_traits@D@std@@V?$allocator@D@2@@0@IPAPAV10@@Z 006e0540 f i inputdriver_prefs.obj
 0002:000de5e0       ??$_Umove@PAPAV?$basic_string@DU?$char_traits@D@std@@V?$allocator@D@2@@std@@@?$vector@PAV?$basic_string@DU?$char_traits@D@std@@V?$allocator@D@2@@std@@V?$allocator@PAV?$basic_string@DU?$char_traits@D@std@@V?$allocator@D@2@@std@@@2@@std@@IAEPAPAV?$basic_string@DU?$char_traits@D@std@@V?$allocator@D@2@@1@PAPAV21@00@Z 006e05e0 f i inputdriver_prefs.obj
 0002:000de650       ??$fill@PAPAV?$basic_string@DU?$char_traits@D@std@@V?$allocator@D@2@@std@@PAV12@@std@@YAXPAPAV?$basic_string@DU?$char_traits@D@std@@V?$allocator@D@2@@0@0ABQAV10@@Z 006e0650 f i inputdriver_prefs.obj
 0002:000de6c0       ??$_Unchecked_move_backward@PAPAV?$basic_string@DU?$char_traits@D@std@@V?$allocator@D@2@@std@@PAPAV12@@stdext@@YAPAPAV?$basic_string@DU?$char_traits@D@std@@V?$allocator@D@2@@std@@PAPAV12@00@Z 006e06c0 f i inputdriver_prefs.obj
 0002:000de780       ?clear@?$vector@PAV?$basic_string@DU?$char_traits@D@std@@V?$allocator@D@2@@std@@V?$allocator@PAV?$basic_string@DU?$char_traits@D@std@@V?$allocator@D@2@@std@@@2@@std@@QAEXXZ 006e0780 f i inputdriver_prefs.obj
 0002:000de890       ?erase@?$vector@PAV?$basic_string@DU?$char_traits@D@std@@V?$allocator@D@2@@std@@V?$allocator@PAV?$basic_string@DU?$char_traits@D@std@@V?$allocator@D@2@@std@@@2@@std@@QAE?AV?$_Vector_iterator@PAV?$basic_string@DU?$char_traits@D@std@@V?$allocator@D@2@@std@@V?$allocator@PAV?$basic_string@DU?$char_traits@D@std@@V?$allocator@D@2@@std@@@2@@2@V32@0@Z 006e0890 f i inputdriver_prefs.obj
 0002:000dea40       ??M?$_Vector_const_iterator@PAV?$basic_string@DU?$char_traits@D@std@@V?$allocator@D@2@@std@@V?$allocator@PAV?$basic_string@DU?$char_traits@D@std@@V?$allocator@D@2@@std@@@2@@std@@QBE_NABV01@@Z 006e0a40 f i inputdriver_prefs.obj
 0002:000deab0       ??$for_each@V?$_Vector_iterator@PAV?$basic_string@DU?$char_traits@D@std@@V?$allocator@D@2@@std@@V?$allocator@PAV?$basic_string@DU?$char_traits@D@std@@V?$allocator@D@2@@std@@@2@@std@@V?$DeletePtr@V?$basic_string@DU?$char_traits@D@std@@V?$allocator@D@2@@std@@@@@std@@YA?AV?$DeletePtr@V?$basic_string@DU?$char_traits@D@std@@V?$allocator@D@2@@std@@@@V?$_Vector_iterator@PAV?$basic_string@DU?$char_traits@D@std@@V?$allocator@D@2@@std@@V?$allocator@PAV?$basic_string@DU?$char_traits@D@std@@V?$allocator@D@2@@std@@@2@@0@0V1@@Z 006e0ab0 f i inputdriver_prefs.obj
 0002:000decd0       ??$_Unchecked_uninitialized_move@V?$_Vector_iterator@PAV?$basic_string@DU?$char_traits@D@std@@V?$allocator@D@2@@std@@V?$allocator@PAV?$basic_string@DU?$char_traits@D@std@@V?$allocator@D@2@@std@@@2@@std@@PAPAV?$basic_string@DU?$char_traits@D@std@@V?$allocator@D@2@@2@V?$allocator@PAV?$basic_string@DU?$char_traits@D@std@@V?$allocator@D@2@@std@@@2@@stdext@@YAPAPAV?$basic_string@DU?$char_traits@D@std@@V?$allocator@D@2@@std@@V?$_Vector_iterator@PAV?$basic_string@DU?$char_traits@D@std@@V?$allocator@D@2@@std@@V?$allocator@PAV?$basic_string@DU?$char_traits@D@std@@V?$allocator@D@2@@std@@@2@@2@0PAPAV12@AAV?$allocator@PAV?$basic_string@DU?$char_traits@D@std@@V?$allocator@D@2@@std@@@2@@Z 006e0cd0 f i inputdriver_prefs.obj
 0002:000dee40       ??$_Ptr_cat@PAPAV?$basic_string@DU?$char_traits@D@std@@V?$allocator@D@2@@std@@PAPAV12@@std@@YA?AU_Scalar_ptr_iterator_tag@0@AAPAPAV?$basic_string@DU?$char_traits@D@std@@V?$allocator@D@2@@0@0@Z 006e0e40 f i inputdriver_prefs.obj
 0002:000deeb0       ??$_Destroy_range@PAV?$basic_string@DU?$char_traits@D@std@@V?$allocator@D@2@@std@@V?$allocator@PAV?$basic_string@DU?$char_traits@D@std@@V?$allocator@D@2@@std@@@2@@std@@YAXPAPAV?$basic_string@DU?$char_traits@D@std@@V?$allocator@D@2@@0@0AAV?$allocator@PAV?$basic_string@DU?$char_traits@D@std@@V?$allocator@D@2@@std@@@0@U_Scalar_ptr_iterator_tag@0@@Z 006e0eb0 f i inputdriver_prefs.obj
 0002:000deee0       ??$_Uninit_fill_n@PAPAV?$basic_string@DU?$char_traits@D@std@@V?$allocator@D@2@@std@@IPAV12@V?$allocator@PAV?$basic_string@DU?$char_traits@D@std@@V?$allocator@D@2@@std@@@2@@std@@YAXPAPAV?$basic_string@DU?$char_traits@D@std@@V?$allocator@D@2@@0@IABQAV10@AAV?$allocator@PAV?$basic_string@DU?$char_traits@D@std@@V?$allocator@D@2@@std@@@0@U_Scalar_ptr_iterator_tag@0@U_Range_checked_iterator_tag@0@@Z 006e0ee0 f i inputdriver_prefs.obj
 0002:000def40       ??$_Unchecked_uninitialized_move@PAPAV?$basic_string@DU?$char_traits@D@std@@V?$allocator@D@2@@std@@PAPAV12@V?$allocator@PAV?$basic_string@DU?$char_traits@D@std@@V?$allocator@D@2@@std@@@2@@stdext@@YAPAPAV?$basic_string@DU?$char_traits@D@std@@V?$allocator@D@2@@std@@PAPAV12@00AAV?$allocator@PAV?$basic_string@DU?$char_traits@D@std@@V?$allocator@D@2@@std@@@2@@Z 006e0f40 f i inputdriver_prefs.obj
 0002:000deff0       ??$_Checked_base@PAPAV?$basic_string@DU?$char_traits@D@std@@V?$allocator@D@2@@std@@@std@@YAPAPAV?$basic_string@DU?$char_traits@D@std@@V?$allocator@D@2@@0@AAPAPAV10@@Z 006e0ff0 f i inputdriver_prefs.obj
 0002:000df080       ??$_Fill@PAPAV?$basic_string@DU?$char_traits@D@std@@V?$allocator@D@2@@std@@PAV12@@std@@YAXPAPAV?$basic_string@DU?$char_traits@D@std@@V?$allocator@D@2@@0@0ABQAV10@@Z 006e1080 f i inputdriver_prefs.obj
 0002:000df110       ??$_Iter_random@PAPAV?$basic_string@DU?$char_traits@D@std@@V?$allocator@D@2@@std@@PAPAV12@@std@@YA?AUrandom_access_iterator_tag@0@ABQAPAV?$basic_string@DU?$char_traits@D@std@@V?$allocator@D@2@@0@0@Z 006e1110 f i inputdriver_prefs.obj
 0002:000df180       ??$_Move_cat@PAPAV?$basic_string@DU?$char_traits@D@std@@V?$allocator@D@2@@std@@@std@@YA?AU_Undefined_move_tag@0@ABQAPAV?$basic_string@DU?$char_traits@D@std@@V?$allocator@D@2@@0@@Z 006e1180 f i inputdriver_prefs.obj
 0002:000df1f0       ??$_Move_backward_opt@PAPAV?$basic_string@DU?$char_traits@D@std@@V?$allocator@D@2@@std@@PAPAV12@Urandom_access_iterator_tag@2@U_Undefined_move_tag@2@@std@@YAPAPAV?$basic_string@DU?$char_traits@D@std@@V?$allocator@D@2@@0@PAPAV10@00Urandom_access_iterator_tag@0@U_Undefined_move_tag@0@U_Range_checked_iterator_tag@0@@Z 006e11f0 f i inputdriver_prefs.obj
 0002:000df290       ??$unchecked_copy@PAPAV?$basic_string@DU?$char_traits@D@std@@V?$allocator@D@2@@std@@PAPAV12@@stdext@@YAPAPAV?$basic_string@DU?$char_traits@D@std@@V?$allocator@D@2@@std@@PAPAV12@00@Z 006e1290 f i inputdriver_prefs.obj
 0002:000df360       ??R?$DeletePtr@V?$basic_string@DU?$char_traits@D@std@@V?$allocator@D@2@@std@@@@QAEXPAV?$basic_string@DU?$char_traits@D@std@@V?$allocator@D@2@@std@@@Z 006e1360 f i inputdriver_prefs.obj
 0002:000df400       ??$_Debug_range@V?$_Vector_iterator@PAV?$basic_string@DU?$char_traits@D@std@@V?$allocator@D@2@@std@@V?$allocator@PAV?$basic_string@DU?$char_traits@D@std@@V?$allocator@D@2@@std@@@2@@std@@@std@@YAXV?$_Vector_iterator@PAV?$basic_string@DU?$char_traits@D@std@@V?$allocator@D@2@@std@@V?$allocator@PAV?$basic_string@DU?$char_traits@D@std@@V?$allocator@D@2@@std@@@2@@0@0PB_WI@Z 006e1400 f i inputdriver_prefs.obj
 0002:000df530       ??$_Debug_pointer@V?$DeletePtr@V?$basic_string@DU?$char_traits@D@std@@V?$allocator@D@2@@std@@@@@std@@YAXAAV?$DeletePtr@V?$basic_string@DU?$char_traits@D@std@@V?$allocator@D@2@@std@@@@PB_WI@Z 006e1530 f i inputdriver_prefs.obj
 0002:000df560       ??$_Checked_base@V?$_Vector_iterator@PAV?$basic_string@DU?$char_traits@D@std@@V?$allocator@D@2@@std@@V?$allocator@PAV?$basic_string@DU?$char_traits@D@std@@V?$allocator@D@2@@std@@@2@@std@@@std@@YA?AV?$_Vector_iterator@PAV?$basic_string@DU?$char_traits@D@std@@V?$allocator@D@2@@std@@V?$allocator@PAV?$basic_string@DU?$char_traits@D@std@@V?$allocator@D@2@@std@@@2@@0@AAV10@@Z 006e1560 f i inputdriver_prefs.obj
 0002:000df620       ??$_Uninit_move@V?$_Vector_iterator@PAV?$basic_string@DU?$char_traits@D@std@@V?$allocator@D@2@@std@@V?$allocator@PAV?$basic_string@DU?$char_traits@D@std@@V?$allocator@D@2@@std@@@2@@std@@PAPAV?$basic_string@DU?$char_traits@D@std@@V?$allocator@D@2@@2@V?$allocator@PAV?$basic_string@DU?$char_traits@D@std@@V?$allocator@D@2@@std@@@2@U_Undefined_move_tag@2@@std@@YAPAPAV?$basic_string@DU?$char_traits@D@std@@V?$allocator@D@2@@0@V?$_Vector_iterator@PAV?$basic_string@DU?$char_traits@D@std@@V?$allocator@D@2@@std@@V?$allocator@PAV?$basic_string@DU?$char_traits@D@std@@V?$allocator@D@2@@std@@@2@@0@0PAPAV10@AAV?$allocator@PAV?$basic_string@DU?$char_traits@D@std@@V?$allocator@D@2@@std@@@0@U_Undefined_move_tag@0@U_Range_checked_iterator_tag@0@@Z 006e1620 f i inputdriver_prefs.obj
 0002:000df750       ??$unchecked_fill_n@PAPAV?$basic_string@DU?$char_traits@D@std@@V?$allocator@D@2@@std@@IPAV12@@stdext@@YAXPAPAV?$basic_string@DU?$char_traits@D@std@@V?$allocator@D@2@@std@@IABQAV12@@Z 006e1750 f i inputdriver_prefs.obj
 0002:000df7e0       ??$_Uninit_move@PAPAV?$basic_string@DU?$char_traits@D@std@@V?$allocator@D@2@@std@@PAPAV12@V?$allocator@PAV?$basic_string@DU?$char_traits@D@std@@V?$allocator@D@2@@std@@@2@U_Undefined_move_tag@2@@std@@YAPAPAV?$basic_string@DU?$char_traits@D@std@@V?$allocator@D@2@@0@PAPAV10@00AAV?$allocator@PAV?$basic_string@DU?$char_traits@D@std@@V?$allocator@D@2@@std@@@0@U_Undefined_move_tag@0@U_Range_checked_iterator_tag@0@@Z 006e17e0 f i inputdriver_prefs.obj
 0002:000df840       ??$_Checked_base@PAPAV?$basic_string@DU?$char_traits@D@std@@V?$allocator@D@2@@std@@@std@@YAPAPAV?$basic_string@DU?$char_traits@D@std@@V?$allocator@D@2@@0@AAPAPAV10@U_Unchanged_checked_iterator_base_type_tag@0@@Z 006e1840 f i inputdriver_prefs.obj
 0002:000df880       ??$_Debug_range@PAPAV?$basic_string@DU?$char_traits@D@std@@V?$allocator@D@2@@std@@@std@@YAXPAPAV?$basic_string@DU?$char_traits@D@std@@V?$allocator@D@2@@0@0PB_WI@Z 006e1880 f i inputdriver_prefs.obj
 0002:000df900       ??$_Copy_backward_opt@PAPAV?$basic_string@DU?$char_traits@D@std@@V?$allocator@D@2@@std@@PAPAV12@Urandom_access_iterator_tag@2@@std@@YAPAPAV?$basic_string@DU?$char_traits@D@std@@V?$allocator@D@2@@0@PAPAV10@00Urandom_access_iterator_tag@0@U_Scalar_ptr_iterator_tag@0@U_Range_checked_iterator_tag@0@@Z 006e1900 f i inputdriver_prefs.obj
 0002:000df9e0       ??$_Copy_opt@PAPAV?$basic_string@DU?$char_traits@D@std@@V?$allocator@D@2@@std@@PAPAV12@Urandom_access_iterator_tag@2@@std@@YAPAPAV?$basic_string@DU?$char_traits@D@std@@V?$allocator@D@2@@0@PAPAV10@00Urandom_access_iterator_tag@0@U_Scalar_ptr_iterator_tag@0@U_Range_checked_iterator_tag@0@@Z 006e19e0 f i inputdriver_prefs.obj
 0002:000dfac0       ??$_Iter_cat@V?$_Vector_iterator@PAV?$basic_string@DU?$char_traits@D@std@@V?$allocator@D@2@@std@@V?$allocator@PAV?$basic_string@DU?$char_traits@D@std@@V?$allocator@D@2@@std@@@2@@std@@@std@@YA?AUrandom_access_iterator_tag@0@ABV?$_Vector_iterator@PAV?$basic_string@DU?$char_traits@D@std@@V?$allocator@D@2@@std@@V?$allocator@PAV?$basic_string@DU?$char_traits@D@std@@V?$allocator@D@2@@std@@@2@@0@@Z 006e1ac0 f i inputdriver_prefs.obj
 0002:000dfb30       ??$_Debug_range2@V?$_Vector_iterator@PAV?$basic_string@DU?$char_traits@D@std@@V?$allocator@D@2@@std@@V?$allocator@PAV?$basic_string@DU?$char_traits@D@std@@V?$allocator@D@2@@std@@@2@@std@@@std@@YAXV?$_Vector_iterator@PAV?$basic_string@DU?$char_traits@D@std@@V?$allocator@D@2@@std@@V?$allocator@PAV?$basic_string@DU?$char_traits@D@std@@V?$allocator@D@2@@std@@@2@@0@0PB_WIUrandom_access_iterator_tag@0@@Z 006e1b30 f i inputdriver_prefs.obj
 0002:000dfc50       ??$_Checked_base@V?$_Vector_iterator@PAV?$basic_string@DU?$char_traits@D@std@@V?$allocator@D@2@@std@@V?$allocator@PAV?$basic_string@DU?$char_traits@D@std@@V?$allocator@D@2@@std@@@2@@std@@@std@@YA?AV?$_Vector_iterator@PAV?$basic_string@DU?$char_traits@D@std@@V?$allocator@D@2@@std@@V?$allocator@PAV?$basic_string@DU?$char_traits@D@std@@V?$allocator@D@2@@std@@@2@@0@AAV10@U_Unchanged_checked_iterator_base_type_tag@0@@Z 006e1c50 f i inputdriver_prefs.obj
 0002:000dfcc0       ??$unchecked_uninitialized_copy@V?$_Vector_iterator@PAV?$basic_string@DU?$char_traits@D@std@@V?$allocator@D@2@@std@@V?$allocator@PAV?$basic_string@DU?$char_traits@D@std@@V?$allocator@D@2@@std@@@2@@std@@PAPAV?$basic_string@DU?$char_traits@D@std@@V?$allocator@D@2@@2@V?$allocator@PAV?$basic_string@DU?$char_traits@D@std@@V?$allocator@D@2@@std@@@2@@stdext@@YAPAPAV?$basic_string@DU?$char_traits@D@std@@V?$allocator@D@2@@std@@V?$_Vector_iterator@PAV?$basic_string@DU?$char_traits@D@std@@V?$allocator@D@2@@std@@V?$allocator@PAV?$basic_string@DU?$char_traits@D@std@@V?$allocator@D@2@@std@@@2@@2@0PAPAV12@AAV?$allocator@PAV?$basic_string@DU?$char_traits@D@std@@V?$allocator@D@2@@std@@@2@@Z 006e1cc0 f i inputdriver_prefs.obj
 0002:000dfe30       ??$_Iter_cat@PAPAV?$basic_string@DU?$char_traits@D@std@@V?$allocator@D@2@@std@@@std@@YA?AUrandom_access_iterator_tag@0@ABQAPAV?$basic_string@DU?$char_traits@D@std@@V?$allocator@D@2@@0@@Z 006e1e30 f i inputdriver_prefs.obj
 0002:000dfea0       ??$_Fill_n@PAPAV?$basic_string@DU?$char_traits@D@std@@V?$allocator@D@2@@std@@IPAV12@@std@@YAXPAPAV?$basic_string@DU?$char_traits@D@std@@V?$allocator@D@2@@0@IABQAV10@Urandom_access_iterator_tag@0@U_Range_checked_iterator_tag@0@@Z 006e1ea0 f i inputdriver_prefs.obj
 0002:000dff30       ??$unchecked_uninitialized_copy@PAPAV?$basic_string@DU?$char_traits@D@std@@V?$allocator@D@2@@std@@PAPAV12@V?$allocator@PAV?$basic_string@DU?$char_traits@D@std@@V?$allocator@D@2@@std@@@2@@stdext@@YAPAPAV?$basic_string@DU?$char_traits@D@std@@V?$allocator@D@2@@std@@PAPAV12@00AAV?$allocator@PAV?$basic_string@DU?$char_traits@D@std@@V?$allocator@D@2@@std@@@2@@Z 006e1f30 f i inputdriver_prefs.obj
 0002:000dffe0       ??$_Debug_range2@PAPAV?$basic_string@DU?$char_traits@D@std@@V?$allocator@D@2@@std@@@std@@YAXPAPAV?$basic_string@DU?$char_traits@D@std@@V?$allocator@D@2@@0@0PB_WIUrandom_access_iterator_tag@0@@Z 006e1fe0 f i inputdriver_prefs.obj
 0002:000e0080       ??$_Debug_pointer@PAV?$basic_string@DU?$char_traits@D@std@@V?$allocator@D@2@@std@@@std@@YAXPAPAV?$basic_string@DU?$char_traits@D@std@@V?$allocator@D@2@@0@PB_WI@Z 006e2080 f i inputdriver_prefs.obj
 0002:000e00e0       ??$_Debug_pointer@V?$_Vector_iterator@PAV?$basic_string@DU?$char_traits@D@std@@V?$allocator@D@2@@std@@V?$allocator@PAV?$basic_string@DU?$char_traits@D@std@@V?$allocator@D@2@@std@@@2@@std@@@std@@YAXAAV?$_Vector_iterator@PAV?$basic_string@DU?$char_traits@D@std@@V?$allocator@D@2@@std@@V?$allocator@PAV?$basic_string@DU?$char_traits@D@std@@V?$allocator@D@2@@std@@@2@@0@PB_WI@Z 006e20e0 f i inputdriver_prefs.obj
 0002:000e0110       ??$_Ptr_cat@V?$_Vector_iterator@PAV?$basic_string@DU?$char_traits@D@std@@V?$allocator@D@2@@std@@V?$allocator@PAV?$basic_string@DU?$char_traits@D@std@@V?$allocator@D@2@@std@@@2@@std@@PAPAV?$basic_string@DU?$char_traits@D@std@@V?$allocator@D@2@@2@@std@@YA?AU_Scalar_ptr_iterator_tag@0@AAV?$_Vector_iterator@PAV?$basic_string@DU?$char_traits@D@std@@V?$allocator@D@2@@std@@V?$allocator@PAV?$basic_string@DU?$char_traits@D@std@@V?$allocator@D@2@@std@@@2@@0@AAPAPAV?$basic_string@DU?$char_traits@D@std@@V?$allocator@D@2@@0@@Z 006e2110 f i inputdriver_prefs.obj
 0002:000e0180       ??$_Uninit_copy@V?$_Vector_iterator@PAV?$basic_string@DU?$char_traits@D@std@@V?$allocator@D@2@@std@@V?$allocator@PAV?$basic_string@DU?$char_traits@D@std@@V?$allocator@D@2@@std@@@2@@std@@PAPAV?$basic_string@DU?$char_traits@D@std@@V?$allocator@D@2@@2@V?$allocator@PAV?$basic_string@DU?$char_traits@D@std@@V?$allocator@D@2@@std@@@2@@std@@YAPAPAV?$basic_string@DU?$char_traits@D@std@@V?$allocator@D@2@@0@V?$_Vector_iterator@PAV?$basic_string@DU?$char_traits@D@std@@V?$allocator@D@2@@std@@V?$allocator@PAV?$basic_string@DU?$char_traits@D@std@@V?$allocator@D@2@@std@@@2@@0@0PAPAV10@AAV?$allocator@PAV?$basic_string@DU?$char_traits@D@std@@V?$allocator@D@2@@std@@@0@U_Scalar_ptr_iterator_tag@0@U_Range_checked_iterator_tag@0@@Z 006e2180 f i inputdriver_prefs.obj
 0002:000e0320       ??$_Fill_n@PAPAV?$basic_string@DU?$char_traits@D@std@@V?$allocator@D@2@@std@@IPAV12@@std@@YAXPAPAV?$basic_string@DU?$char_traits@D@std@@V?$allocator@D@2@@0@IABQAV10@U_Range_checked_iterator_tag@0@@Z 006e2320 f i inputdriver_prefs.obj
 0002:000e0390       ??$_Uninit_copy@PAPAV?$basic_string@DU?$char_traits@D@std@@V?$allocator@D@2@@std@@PAPAV12@V?$allocator@PAV?$basic_string@DU?$char_traits@D@std@@V?$allocator@D@2@@std@@@2@@std@@YAPAPAV?$basic_string@DU?$char_traits@D@std@@V?$allocator@D@2@@0@PAPAV10@00AAV?$allocator@PAV?$basic_string@DU?$char_traits@D@std@@V?$allocator@D@2@@std@@@0@U_Scalar_ptr_iterator_tag@0@U_Range_checked_iterator_tag@0@@Z 006e2390 f i inputdriver_prefs.obj
 0002:000e0460       ?parseInputSpecification@SimpleInputDriver@@UAE?AW4InputParserState@@ABVInputSpecTokens@@AAUInputSpec@@@Z 006e2460 f   inputdriver_simple.obj
 0002:000e0570       ?acceptToken@SimpleInputDriver@@MAE_NAAW4InputParserState@@ABV?$basic_string@DU?$char_traits@D@std@@V?$allocator@D@2@@std@@AAUInputSpec@@@Z 006e2570 f   inputdriver_simple.obj
 0002:000e07b0       ?getConditionID@SimpleInputDriver@@MAEHABV?$basic_string@DU?$char_traits@D@std@@V?$allocator@D@2@@std@@AAH@Z 006e27b0 f   inputdriver_simple.obj
 0002:000e0810       ?writeExtraSpecInfo@SimpleInputDriver@@MAE?AW4InputParserState@@AAUInputSpec@@@Z 006e2810 f   inputdriver_simple.obj
 0002:000e0850       ?parseExtraToken@SimpleInputDriver@@MAE?AW4InputParserState@@ABV?$basic_string@DU?$char_traits@D@std@@V?$allocator@D@2@@std@@AAUInputSpec@@@Z 006e2850 f   inputdriver_simple.obj
 0002:000e0890       ?getLastParseError@SimpleInputDriver@@UAEABV?$basic_string@DU?$char_traits@D@std@@V?$allocator@D@2@@std@@W4InputParserState@@@Z 006e2890 f   inputdriver_simple.obj
 0002:000e08e0       ?parseInputSpecification@ValueInputDriver@@UAE?AW4InputParserState@@ABVInputSpecTokens@@AAUInputSpec@@@Z 006e28e0 f   inputdriver_value.obj
 0002:000e0a80       ?getInput@ValueInputDriver@@UAE_NABUInputSpec@@AAUInputDetails@@@Z 006e2a80 f   inputdriver_value.obj
 0002:000e0b40       ?Advance@ValueInputDriver@@UAEXXZ 006e2b40 f   inputdriver_value.obj
 0002:000e0b80       ?getLastParseError@ValueInputDriver@@UAEABV?$basic_string@DU?$char_traits@D@std@@V?$allocator@D@2@@std@@W4InputParserState@@@Z 006e2b80 f   inputdriver_value.obj
 0002:000e0bd0       ??0W32InputDriver@@QAE@XZ  006e2bd0 f   inputdriver_win32.obj
 0002:000e0df0       ??0W32EventProcessor@@QAE@XZ 006e2df0 f i inputdriver_win32.obj
 0002:000e0e40       ??1W32InputDriver@@QAE@XZ  006e2e40 f   inputdriver_win32.obj
 0002:000e0f30       ?getInput@W32InputDriver@@UAE_NABUInputSpec@@AAUInputDetails@@@Z 006e2f30 f   inputdriver_win32.obj
 0002:000e0fd0       ?getKeyInput@W32InputDriver@@AAE_NABUInputSpec@@AAUInputDetails@@@Z 006e2fd0 f   inputdriver_win32.obj
 0002:000e1120       ?getMouseInput@W32InputDriver@@AAE_NABUInputSpec@@AAUInputDetails@@@Z 006e3120 f   inputdriver_win32.obj
 0002:000e13a0       ?isIdle@W32InputDriver@@UAE_NXZ 006e33a0 f   inputdriver_win32.obj
 0002:000e1570       ?getInputMode@W32InputDriver@@UAE?AW4InputMode@@XZ 006e3570 f   inputdriver_win32.obj
 0002:000e15b0       ?SetMousePosNoVelocity@W32InputDriver@@QAEXHH@Z 006e35b0 f   inputdriver_win32.obj
 0002:000e1630       ?getFirstActiveInput@W32InputDriver@@UAE_NAAUInputSpec@@_N@Z 006e3630 f   inputdriver_win32.obj
 0002:000e1730       ?Advance@W32InputDriver@@UAEXXZ 006e3730 f   inputdriver_win32.obj
 0002:000e18b0       ?PollForEvents@W32InputDriver@@UAEXXZ 006e38b0 f   inputdriver_win32.obj
 0002:000e1910       ?WndProc@W32InputDriver@@UAGJPAUHWND__@@IIJ@Z 006e3910 f   inputdriver_win32.obj
 0002:000e1db0       ?acceptDriver@W32InputDriver@@EAE_NABV?$basic_string@DU?$char_traits@D@std@@V?$allocator@D@2@@std@@@Z 006e3db0 f   inputdriver_win32.obj
 0002:000e1e70       ?getControlID@W32InputDriver@@EAEHABV?$basic_string@DU?$char_traits@D@std@@V?$allocator@D@2@@std@@@Z 006e3e70 f   inputdriver_win32.obj
 0002:000e1ff0       ?writeExtraSpecInfo@W32InputDriver@@EAE?AW4InputParserState@@AAUInputSpec@@@Z 006e3ff0 f   inputdriver_win32.obj
 0002:000e2040       ?getControlType@W32InputDriver@@EAEHH@Z 006e4040 f   inputdriver_win32.obj
 0002:000e20d0       ?getMouseControlType@W32InputDriver@@AAEHH@Z 006e40d0 f   inputdriver_win32.obj
 0002:000e2190       ?getKeyId@W32InputDriver@@AAEHABV?$basic_string@DU?$char_traits@D@std@@V?$allocator@D@2@@std@@@Z 006e4190 f   inputdriver_win32.obj
 0002:000e2260       ?getInputDescription@W32InputDriver@@UAE_NABUInputSpec@@AAVInputDescription@@@Z 006e4260 f   inputdriver_win32.obj
 0002:000e29a0       ??0XInputDriver@@QAE@XZ    006e49a0 f   inputdriver_xinput.obj
 0002:000e2ac0       ?getInput@XInputDriver@@UAE_NABUInputSpec@@AAUInputDetails@@@Z 006e4ac0 f   inputdriver_xinput.obj
 0002:000e3050       ?isIdle@XInputDriver@@UAE_NXZ 006e5050 f   inputdriver_xinput.obj
 0002:000e3120       ?getInputMode@XInputDriver@@UAE?AW4InputMode@@XZ 006e5120 f   inputdriver_xinput.obj
 0002:000e3160       ?getButtonInput@XInputDriver@@AAE_NGABUInputSpec@@AAUInputDetails@@@Z 006e5160 f   inputdriver_xinput.obj
 0002:000e3360       ?getThumbInput@XInputDriver@@AAE_NABUInputSpec@@AAUInputDetails@@@Z 006e5360 f   inputdriver_xinput.obj
 0002:000e37a0       ?round@@YAHN@Z             006e57a0 f i inputdriver_xinput.obj
 0002:000e3830       ?getTriggerInput@XInputDriver@@AAE_NABUInputSpec@@AAUInputDetails@@@Z 006e5830 f   inputdriver_xinput.obj
 0002:000e3af0       ?correctDeadZones@XInputDriver@@AAEXAAU_XINPUT_STATE@@@Z 006e5af0 f   inputdriver_xinput.obj
 0002:000e3c20       ?scaleInputs@XInputDriver@@AAEXAAU_XINPUT_STATE@@@Z 006e5c20 f   inputdriver_xinput.obj
 0002:000e3ee0       ?floor@@YAMM@Z             006e5ee0 f i inputdriver_xinput.obj
 0002:000e3f40       ?getThumbDirection@XInputDriver@@AAE_NHABUInputSpec@@IAAUInputDetails@@@Z 006e5f40 f   inputdriver_xinput.obj
 0002:000e43b0       ?Advance@XInputDriver@@UAEXXZ 006e63b0 f   inputdriver_xinput.obj
 0002:000e4490       ?acceptDriver@XInputDriver@@EAE_NABV?$basic_string@DU?$char_traits@D@std@@V?$allocator@D@2@@std@@@Z 006e6490 f   inputdriver_xinput.obj
 0002:000e4500       ?getControlID@XInputDriver@@EAEHABV?$basic_string@DU?$char_traits@D@std@@V?$allocator@D@2@@std@@@Z 006e6500 f   inputdriver_xinput.obj
 0002:000e45c0       ?getControlType@XInputDriver@@EAEHH@Z 006e65c0 f   inputdriver_xinput.obj
 0002:000e4610       ?getConditionID@XInputDriver@@MAEHABV?$basic_string@DU?$char_traits@D@std@@V?$allocator@D@2@@std@@AAH@Z 006e6610 f   inputdriver_xinput.obj
 0002:000e46a0       ?writeExtraSpecInfo@XInputDriver@@EAE?AW4InputParserState@@AAUInputSpec@@@Z 006e66a0 f   inputdriver_xinput.obj
 0002:000e4770       ?parseExtraToken@XInputDriver@@EAE?AW4InputParserState@@ABV?$basic_string@DU?$char_traits@D@std@@V?$allocator@D@2@@std@@AAUInputSpec@@@Z 006e6770 f   inputdriver_xinput.obj
 0002:000e49a0       ?getInputDescription@XInputDriver@@UAE_NABUInputSpec@@AAVInputDescription@@@Z 006e69a0 f   inputdriver_xinput.obj
 0002:000e4bf0       ?setName@InputFilter@@IAEXABV?$basic_string@DU?$char_traits@D@std@@V?$allocator@D@2@@std@@@Z 006e6bf0 f   inputfilter.obj
 0002:000e4c50       ?getName@InputFilter@@UBEABV?$basic_string@DU?$char_traits@D@std@@V?$allocator@D@2@@std@@XZ 006e6c50 f   inputfilter.obj
 0002:000e4c90       ??6@YAAAV?$basic_ostream@DU?$char_traits@D@std@@@std@@AAV01@ABVInputFilter@@@Z 006e6c90 f   inputfilter.obj
 0002:000e4d20       ?filter@DirectionInputFilter@@UAE_NABV?$auto_vector@$$CBUInputDetails@@@@ABUInputFilterSpec@@AAUInputDetails@@@Z 006e6d20 f   inputfilter_direction.obj
 0002:000e4d60       ?parseFilterSpecification@DirectionInputFilter@@UAE_NABVInputSpecTokens@@AAUInputFilterSpec@@@Z 006e6d60 f   inputfilter_direction.obj
 0002:000e4f40       ?calcDetails@DirectionInputFilter@@UAEXABUInputFilterSpec@@AAUInputDetails@@@Z 006e6f40 f   inputfilter_direction.obj
 0002:000e4f80       ?registerDeltaID@InputFilterWithDelta@@IAEXAAUInputFilterSpec@@@Z 006e6f80 f   inputfilter_withdelta.obj
 0002:000e5320       ?getOldDetails@InputFilterWithDelta@@IBEABUInputDetails@@I@Z 006e7320 f   inputfilter_withdelta.obj
 0002:000e53c0       ?getOldDetails@InputFilterWithDelta@@IBEABUInputDetails@@ABUInputFilterSpec@@@Z 006e73c0 f   inputfilter_withdelta.obj
 0002:000e5420       ?getDetails@InputFilterWithDelta@@IBEABUInputDetails@@I@Z 006e7420 f   inputfilter_withdelta.obj
 0002:000e54c0       ?getDetails@InputFilterWithDelta@@IBEABUInputDetails@@ABUInputFilterSpec@@@Z 006e74c0 f   inputfilter_withdelta.obj
 0002:000e5520       ?getDelta@InputFilterWithDelta@@MBEHIAAUInputDetails@@@Z 006e7520 f   inputfilter_withdelta.obj
 0002:000e56b0       ?getDelta@InputFilterWithDelta@@MBEHABUInputFilterSpec@@AAUInputDetails@@@Z 006e76b0 f   inputfilter_withdelta.obj
 0002:000e5730       ?ageDetails@InputFilterWithDelta@@IAEXXZ 006e7730 f   inputfilter_withdelta.obj
 0002:000e5790       ?Advance@InputFilterWithDelta@@UAEXXZ 006e7790 f   inputfilter_withdelta.obj
 0002:000e58e0       ?size@?$auto_vector@$$CBUInputFilterSpec@@@@QBEIXZ 006e78e0 f i inputfilter_withdelta.obj
 0002:000e5930       ??A?$auto_vector@$$CBUInputFilterSpec@@@@QAE?AVauto_lvalue@0@I@Z 006e7930 f i inputfilter_withdelta.obj
 0002:000e59a0       ?size@?$auto_vector@UInputDetails@@@@QBEIXZ 006e79a0 f i inputfilter_withdelta.obj
 0002:000e59f0       ?swap@?$auto_vector@UInputDetails@@@@QAEXAAV1@@Z 006e79f0 f i inputfilter_withdelta.obj
 0002:000e5a50       ??A?$auto_vector@UInputDetails@@@@QBEPBUInputDetails@@I@Z 006e7a50 f i inputfilter_withdelta.obj
 0002:000e5ab0       ??A?$auto_vector@UInputDetails@@@@QAE?AVauto_lvalue@0@I@Z 006e7ab0 f i inputfilter_withdelta.obj
 0002:000e5b20       ??0?$auto_ptr@$$CBUInputFilterSpec@@@std@@QAE@PBUInputFilterSpec@@@Z 006e7b20 f i inputfilter_withdelta.obj
 0002:000e5b70       ??0?$auto_ptr@$$CBUInputFilterSpec@@@std@@QAE@U?$auto_ptr_ref@$$CBUInputFilterSpec@@@1@@Z 006e7b70 f i inputfilter_withdelta.obj
 0002:000e5be0       ??1?$auto_ptr@$$CBUInputFilterSpec@@@std@@QAE@XZ 006e7be0 f i inputfilter_withdelta.obj
 0002:000e5c50       ??0?$auto_ptr@UInputDetails@@@std@@QAE@PAUInputDetails@@@Z 006e7c50 f i inputfilter_withdelta.obj
 0002:000e5ca0       ??0?$auto_ptr@UInputDetails@@@std@@QAE@U?$auto_ptr_ref@UInputDetails@@@1@@Z 006e7ca0 f i inputfilter_withdelta.obj
 0002:000e5d10       ??1?$auto_ptr@UInputDetails@@@std@@QAE@XZ 006e7d10 f i inputfilter_withdelta.obj
 0002:000e5d80       ??Bauto_lvalue@?$auto_vector@$$CBUInputFilterSpec@@@@QBEPBUInputFilterSpec@@XZ 006e7d80 f i inputfilter_withdelta.obj
 0002:000e5dc0       ??Bauto_lvalue@?$auto_vector@UInputDetails@@@@QBEPAUInputDetails@@XZ 006e7dc0 f i inputfilter_withdelta.obj
 0002:000e5e00       ?size@?$vector@PBUInputFilterSpec@@V?$allocator@PBUInputFilterSpec@@@std@@@std@@QBEIXZ 006e7e00 f i inputfilter_withdelta.obj
 0002:000e5e70       ??A?$vector@PBUInputFilterSpec@@V?$allocator@PBUInputFilterSpec@@@std@@@std@@QAEAAPBUInputFilterSpec@@I@Z 006e7e70 f i inputfilter_withdelta.obj
 0002:000e5fb0       ?size@?$vector@PAUInputDetails@@V?$allocator@PAUInputDetails@@@std@@@std@@QBEIXZ 006e7fb0 f i inputfilter_withdelta.obj
 0002:000e6020       ??A?$vector@PAUInputDetails@@V?$allocator@PAUInputDetails@@@std@@@std@@QBEABQAUInputDetails@@I@Z 006e8020 f i inputfilter_withdelta.obj
 0002:000e6160       ??A?$vector@PAUInputDetails@@V?$allocator@PAUInputDetails@@@std@@@std@@QAEAAPAUInputDetails@@I@Z 006e8160 f i inputfilter_withdelta.obj
 0002:000e62a0       ?swap@?$vector@PAUInputDetails@@V?$allocator@PAUInputDetails@@@std@@@std@@QAEXAAV12@@Z 006e82a0 f i inputfilter_withdelta.obj
 0002:000e6430       ??0auto_lvalue@?$auto_vector@$$CBUInputFilterSpec@@@@QAE@AAPBUInputFilterSpec@@@Z 006e8430 f i inputfilter_withdelta.obj
 0002:000e6480       ??0auto_lvalue@?$auto_vector@UInputDetails@@@@QAE@AAPAUInputDetails@@@Z 006e8480 f i inputfilter_withdelta.obj
 0002:000e64d0       ??0?$vector@PAUInputDetails@@V?$allocator@PAUInputDetails@@@std@@@std@@QAE@ABV01@@Z 006e84d0 f i inputfilter_withdelta.obj
 0002:000e6670       ??1?$vector@PAUInputDetails@@V?$allocator@PAUInputDetails@@@std@@@std@@QAE@XZ 006e8670 f i inputfilter_withdelta.obj
 0002:000e6710       ??4?$vector@PAUInputDetails@@V?$allocator@PAUInputDetails@@@std@@@std@@QAEAAV01@ABV01@@Z 006e8710 f i inputfilter_withdelta.obj
 0002:000e6930       ??1?$_Vector_val@PAUInputDetails@@V?$allocator@PAUInputDetails@@@std@@@std@@QAE@XZ 006e8930 f i inputfilter_withdelta.obj
 0002:000e6980       ??1?$_Vector_const_iterator@PAUInputDetails@@V?$allocator@PAUInputDetails@@@std@@@std@@QAE@XZ 006e8980 f i inputfilter_withdelta.obj
 0002:000e69d0       ??1?$_Ranit@PAUInputDetails@@HPBQAU1@ABQAU1@@std@@QAE@XZ 006e89d0 f i inputfilter_withdelta.obj
 0002:000e6a20       ?capacity@?$vector@PAUInputDetails@@V?$allocator@PAUInputDetails@@@std@@@std@@QBEIXZ 006e8a20 f i inputfilter_withdelta.obj
 0002:000e6a90       ?begin@?$vector@PAUInputDetails@@V?$allocator@PAUInputDetails@@@std@@@std@@QBE?AV?$_Vector_const_iterator@PAUInputDetails@@V?$allocator@PAUInputDetails@@@std@@@2@XZ 006e8a90 f i inputfilter_withdelta.obj
 0002:000e6b20       ?end@?$vector@PAUInputDetails@@V?$allocator@PAUInputDetails@@@std@@@std@@QBE?AV?$_Vector_const_iterator@PAUInputDetails@@V?$allocator@PAUInputDetails@@@std@@@2@XZ 006e8b20 f i inputfilter_withdelta.obj
 0002:000e6bb0       ?clear@?$vector@PAUInputDetails@@V?$allocator@PAUInputDetails@@@std@@@std@@QAEXXZ 006e8bb0 f i inputfilter_withdelta.obj
 0002:000e6cc0       ?_Buy@?$vector@PAUInputDetails@@V?$allocator@PAUInputDetails@@@std@@@std@@IAE_NI@Z 006e8cc0 f i inputfilter_withdelta.obj
 0002:000e6da0       ?_Destroy@?$vector@PAUInputDetails@@V?$allocator@PAUInputDetails@@@std@@@std@@IAEXPAPAUInputDetails@@0@Z 006e8da0 f i inputfilter_withdelta.obj
 0002:000e6e10       ?_Tidy@?$vector@PAUInputDetails@@V?$allocator@PAUInputDetails@@@std@@@std@@IAEXXZ 006e8e10 f i inputfilter_withdelta.obj
 0002:000e6ee0       ??0?$_Vector_val@PAUInputDetails@@V?$allocator@PAUInputDetails@@@std@@@std@@IAE@V?$allocator@PAUInputDetails@@@1@@Z 006e8ee0 f i inputfilter_withdelta.obj
 0002:000e6f50       ??0?$allocator@PAUInputDetails@@@std@@QAE@ABV01@@Z 006e8f50 f i inputfilter_withdelta.obj
 0002:000e6f90       ?deallocate@?$allocator@PAUInputDetails@@@std@@QAEXPAPAUInputDetails@@I@Z 006e8f90 f i inputfilter_withdelta.obj
 0002:000e6ff0       ??1?$_Vector_iterator@PAUInputDetails@@V?$allocator@PAUInputDetails@@@std@@@std@@QAE@XZ 006e8ff0 f i inputfilter_withdelta.obj
 0002:000e7040       ?begin@?$vector@PAUInputDetails@@V?$allocator@PAUInputDetails@@@std@@@std@@QAE?AV?$_Vector_iterator@PAUInputDetails@@V?$allocator@PAUInputDetails@@@std@@@2@XZ 006e9040 f i inputfilter_withdelta.obj
 0002:000e70d0       ?end@?$vector@PAUInputDetails@@V?$allocator@PAUInputDetails@@@std@@@std@@QAE?AV?$_Vector_iterator@PAUInputDetails@@V?$allocator@PAUInputDetails@@@std@@@2@XZ 006e90d0 f i inputfilter_withdelta.obj
 0002:000e7160       ?max_size@?$vector@PAUInputDetails@@V?$allocator@PAUInputDetails@@@std@@@std@@QBEIXZ 006e9160 f i inputfilter_withdelta.obj
 0002:000e71c0       ?erase@?$vector@PAUInputDetails@@V?$allocator@PAUInputDetails@@@std@@@std@@QAE?AV?$_Vector_iterator@PAUInputDetails@@V?$allocator@PAUInputDetails@@@std@@@2@V32@0@Z 006e91c0 f i inputfilter_withdelta.obj
 0002:000e7370       ?_Xlen@?$vector@PAUInputDetails@@V?$allocator@PAUInputDetails@@@std@@@std@@KAXXZ 006e9370 f i inputfilter_withdelta.obj
 0002:000e7450       ?allocate@?$allocator@PAUInputDetails@@@std@@QAEPAPAUInputDetails@@I@Z 006e9450 f i inputfilter_withdelta.obj
 0002:000e74b0       ??0?$_Vector_const_iterator@PAUInputDetails@@V?$allocator@PAUInputDetails@@@std@@@std@@QAE@PAPAUInputDetails@@PBV_Container_base@1@@Z 006e94b0 f i inputfilter_withdelta.obj
 0002:000e75e0       ??0?$_Ranit@PAUInputDetails@@HPBQAU1@ABQAU1@@std@@QAE@XZ 006e95e0 f i inputfilter_withdelta.obj
 0002:000e7640       ?_Orphan_range@?$vector@PAUInputDetails@@V?$allocator@PAUInputDetails@@@std@@@std@@IBEXPAPAUInputDetails@@0@Z 006e9640 f i inputfilter_withdelta.obj
 0002:000e7740       ?max_size@?$allocator@PAUInputDetails@@@std@@QBEIXZ 006e9740 f i inputfilter_withdelta.obj
 0002:000e77b0       ??9?$_Vector_const_iterator@PAUInputDetails@@V?$allocator@PAUInputDetails@@@std@@@std@@QBE_NABV01@@Z 006e97b0 f i inputfilter_withdelta.obj
 0002:000e7820       ??M?$_Vector_const_iterator@PAUInputDetails@@V?$allocator@PAUInputDetails@@@std@@@std@@QBE_NABV01@@Z 006e9820 f i inputfilter_withdelta.obj
 0002:000e7890       ??0?$_Vector_iterator@PAUInputDetails@@V?$allocator@PAUInputDetails@@@std@@@std@@QAE@PAPAUInputDetails@@PBV_Container_base@1@@Z 006e9890 f i inputfilter_withdelta.obj
 0002:000e78f0       ??8?$_Vector_const_iterator@PAUInputDetails@@V?$allocator@PAUInputDetails@@@std@@@std@@QBE_NABV01@@Z 006e98f0 f i inputfilter_withdelta.obj
 0002:000e7960       ?_Compat@?$_Vector_const_iterator@PAUInputDetails@@V?$allocator@PAUInputDetails@@@std@@@std@@QBEXABV12@@Z 006e9960 f i inputfilter_withdelta.obj
 0002:000e7a30       ?push_back@?$auto_vector@$$CBUInputFilterSpec@@@@QAEXV?$auto_ptr@$$CBUInputFilterSpec@@@std@@@Z 006e9a30 f i inputfilter_withdelta.obj
 0002:000e7b00       ?push_back@?$auto_vector@UInputDetails@@@@QAEXV?$auto_ptr@UInputDetails@@@std@@@Z 006e9b00 f i inputfilter_withdelta.obj
 0002:000e7bd0       ??$?B$$CBUInputFilterSpec@@@?$auto_ptr@$$CBUInputFilterSpec@@@std@@QAE?AU?$auto_ptr_ref@$$CBUInputFilterSpec@@@1@XZ 006e9bd0 f i inputfilter_withdelta.obj
 0002:000e7cb0       ??$?BUInputDetails@@@?$auto_ptr@UInputDetails@@@std@@QAE?AU?$auto_ptr_ref@UInputDetails@@@1@XZ 006e9cb0 f i inputfilter_withdelta.obj
 0002:000e7d90       ??$?8PAUInputDetails@@PAU0@@std@@YA_NABV?$allocator@PAUInputDetails@@@0@0@Z 006e9d90 f i inputfilter_withdelta.obj
 0002:000e7dc0       ??$swap@PAPAUInputDetails@@@std@@YAXAAPAPAUInputDetails@@0@Z 006e9dc0 f i inputfilter_withdelta.obj
 0002:000e7e10       ??$_Ucopy@V?$_Vector_const_iterator@PAUInputDetails@@V?$allocator@PAUInputDetails@@@std@@@std@@@?$vector@PAUInputDetails@@V?$allocator@PAUInputDetails@@@std@@@std@@IAEPAPAUInputDetails@@V?$_Vector_const_iterator@PAUInputDetails@@V?$allocator@PAUInputDetails@@@std@@@1@0PAPAU2@@Z 006e9e10 f i inputfilter_withdelta.obj
 0002:000e7f50       ??$unchecked_copy@PAPAUInputDetails@@PAPAU1@@stdext@@YAPAPAUInputDetails@@PAPAU1@00@Z 006e9f50 f i inputfilter_withdelta.obj
 0002:000e8020       ??$_Ucopy@PAPAUInputDetails@@@?$vector@PAUInputDetails@@V?$allocator@PAUInputDetails@@@std@@@std@@IAEPAPAUInputDetails@@PAPAU2@00@Z 006ea020 f i inputfilter_withdelta.obj
 0002:000e8090       ??$_Destroy_range@PAUInputDetails@@V?$allocator@PAUInputDetails@@@std@@@std@@YAXPAPAUInputDetails@@0AAV?$allocator@PAUInputDetails@@@0@@Z 006ea090 f i inputfilter_withdelta.obj
 0002:000e8110       ??$_Allocate@PAUInputDetails@@@std@@YAPAPAUInputDetails@@IPAPAU1@@Z 006ea110 f i inputfilter_withdelta.obj
 0002:000e81b0       ??0?$_Vector_const_iterator@PAUInputDetails@@V?$allocator@PAUInputDetails@@@std@@@std@@QAE@ABV01@@Z 006ea1b0 f i inputfilter_withdelta.obj
 0002:000e8220       ??0?$_Ranit@PAUInputDetails@@HPBQAU1@ABQAU1@@std@@QAE@ABU01@@Z 006ea220 f i inputfilter_withdelta.obj
 0002:000e8280       ?push_back@?$vector@PBUInputFilterSpec@@V?$allocator@PBUInputFilterSpec@@@std@@@std@@QAEXABQBUInputFilterSpec@@@Z 006ea280 f i inputfilter_withdelta.obj
 0002:000e8370       ?push_back@?$vector@PAUInputDetails@@V?$allocator@PAUInputDetails@@@std@@@std@@QAEXABQAUInputDetails@@@Z 006ea370 f i inputfilter_withdelta.obj
 0002:000e8460       ?get@?$auto_ptr@$$CBUInputFilterSpec@@@std@@QBEPBUInputFilterSpec@@XZ 006ea460 f i inputfilter_withdelta.obj
 0002:000e84a0       ?release@?$auto_ptr@$$CBUInputFilterSpec@@@std@@QAEPBUInputFilterSpec@@XZ 006ea4a0 f i inputfilter_withdelta.obj
 0002:000e84f0       ??0?$auto_ptr_ref@$$CBUInputFilterSpec@@@std@@QAE@PAX@Z 006ea4f0 f i inputfilter_withdelta.obj
 0002:000e8540       ?get@?$auto_ptr@UInputDetails@@@std@@QBEPAUInputDetails@@XZ 006ea540 f i inputfilter_withdelta.obj
 0002:000e8580       ?release@?$auto_ptr@UInputDetails@@@std@@QAEPAUInputDetails@@XZ 006ea580 f i inputfilter_withdelta.obj
 0002:000e85d0       ??0?$auto_ptr_ref@UInputDetails@@@std@@QAE@PAX@Z 006ea5d0 f i inputfilter_withdelta.obj
 0002:000e8620       ??1?$_Vector_iterator@PBUInputFilterSpec@@V?$allocator@PBUInputFilterSpec@@@std@@@std@@QAE@XZ 006ea620 f i inputfilter_withdelta.obj
 0002:000e8670       ??1?$_Vector_const_iterator@PBUInputFilterSpec@@V?$allocator@PBUInputFilterSpec@@@std@@@std@@QAE@XZ 006ea670 f i inputfilter_withdelta.obj
 0002:000e86c0       ??1?$_Ranit@PBUInputFilterSpec@@HPBQBU1@ABQBU1@@std@@QAE@XZ 006ea6c0 f i inputfilter_withdelta.obj
 0002:000e8710       ?capacity@?$vector@PBUInputFilterSpec@@V?$allocator@PBUInputFilterSpec@@@std@@@std@@QBEIXZ 006ea710 f i inputfilter_withdelta.obj
 0002:000e8780       ?end@?$vector@PBUInputFilterSpec@@V?$allocator@PBUInputFilterSpec@@@std@@@std@@QAE?AV?$_Vector_iterator@PBUInputFilterSpec@@V?$allocator@PBUInputFilterSpec@@@std@@@2@XZ 006ea780 f i inputfilter_withdelta.obj
 0002:000e8810       ?insert@?$vector@PBUInputFilterSpec@@V?$allocator@PBUInputFilterSpec@@@std@@@std@@QAE?AV?$_Vector_iterator@PBUInputFilterSpec@@V?$allocator@PBUInputFilterSpec@@@std@@@2@V32@ABQBUInputFilterSpec@@@Z 006ea810 f i inputfilter_withdelta.obj
 0002:000e8a10       ?_Ufill@?$vector@PBUInputFilterSpec@@V?$allocator@PBUInputFilterSpec@@@std@@@std@@IAEPAPBUInputFilterSpec@@PAPBU3@IABQBU3@@Z 006eaa10 f i inputfilter_withdelta.obj
 0002:000e8a90       ?_Orphan_range@?$vector@PBUInputFilterSpec@@V?$allocator@PBUInputFilterSpec@@@std@@@std@@IBEXPAPBUInputFilterSpec@@0@Z 006eaa90 f i inputfilter_withdelta.obj
 0002:000e8b90       ?insert@?$vector@PAUInputDetails@@V?$allocator@PAUInputDetails@@@std@@@std@@QAE?AV?$_Vector_iterator@PAUInputDetails@@V?$allocator@PAUInputDetails@@@std@@@2@V32@ABQAUInputDetails@@@Z 006eab90 f i inputfilter_withdelta.obj
 0002:000e8d90       ?_Ufill@?$vector@PAUInputDetails@@V?$allocator@PAUInputDetails@@@std@@@std@@IAEPAPAUInputDetails@@PAPAU3@IABQAU3@@Z 006ead90 f i inputfilter_withdelta.obj
 0002:000e8e10       ??0?$_Vector_iterator@PBUInputFilterSpec@@V?$allocator@PBUInputFilterSpec@@@std@@@std@@QAE@ABV01@@Z 006eae10 f i inputfilter_withdelta.obj
 0002:000e8e70       ??0?$_Vector_iterator@PAUInputDetails@@V?$allocator@PAUInputDetails@@@std@@@std@@QAE@ABV01@@Z 006eae70 f i inputfilter_withdelta.obj
 0002:000e8ed0       ??0?$_Vector_const_iterator@PBUInputFilterSpec@@V?$allocator@PBUInputFilterSpec@@@std@@@std@@QAE@ABV01@@Z 006eaed0 f i inputfilter_withdelta.obj
 0002:000e8f40       ??0?$_Ranit@PBUInputFilterSpec@@HPBQBU1@ABQBU1@@std@@QAE@ABU01@@Z 006eaf40 f i inputfilter_withdelta.obj
 0002:000e8fa0       ?begin@?$vector@PBUInputFilterSpec@@V?$allocator@PBUInputFilterSpec@@@std@@@std@@QAE?AV?$_Vector_iterator@PBUInputFilterSpec@@V?$allocator@PBUInputFilterSpec@@@std@@@2@XZ 006eafa0 f i inputfilter_withdelta.obj
 0002:000e9030       ?_Insert_n@?$vector@PBUInputFilterSpec@@V?$allocator@PBUInputFilterSpec@@@std@@@std@@IAEXV?$_Vector_iterator@PBUInputFilterSpec@@V?$allocator@PBUInputFilterSpec@@@std@@@2@IABQBUInputFilterSpec@@@Z 006eb030 f i inputfilter_withdelta.obj
 0002:000e9560       ?_Insert_n@?$vector@PAUInputDetails@@V?$allocator@PAUInputDetails@@@std@@@std@@IAEXV?$_Vector_iterator@PAUInputDetails@@V?$allocator@PAUInputDetails@@@std@@@2@IABQAUInputDetails@@@Z 006eb560 f i inputfilter_withdelta.obj
 0002:000e9a90       ??H?$_Vector_iterator@PAUInputDetails@@V?$allocator@PAUInputDetails@@@std@@@std@@QBE?AV01@H@Z 006eba90 f i inputfilter_withdelta.obj
 0002:000e9bb0       ??G?$_Vector_iterator@PAUInputDetails@@V?$allocator@PAUInputDetails@@@std@@@std@@QBEHABV?$_Vector_const_iterator@PAUInputDetails@@V?$allocator@PAUInputDetails@@@std@@@1@@Z 006ebbb0 f i inputfilter_withdelta.obj
 0002:000e9c10       ??0?$_Vector_iterator@PBUInputFilterSpec@@V?$allocator@PBUInputFilterSpec@@@std@@@std@@QAE@PAPBUInputFilterSpec@@PBV_Container_base@1@@Z 006ebc10 f i inputfilter_withdelta.obj
 0002:000e9c70       ??H?$_Vector_iterator@PBUInputFilterSpec@@V?$allocator@PBUInputFilterSpec@@@std@@@std@@QBE?AV01@H@Z 006ebc70 f i inputfilter_withdelta.obj
 0002:000e9d90       ??G?$_Vector_iterator@PBUInputFilterSpec@@V?$allocator@PBUInputFilterSpec@@@std@@@std@@QBEHABV?$_Vector_const_iterator@PBUInputFilterSpec@@V?$allocator@PBUInputFilterSpec@@@std@@@1@@Z 006ebd90 f i inputfilter_withdelta.obj
 0002:000e9df0       ?max_size@?$vector@PBUInputFilterSpec@@V?$allocator@PBUInputFilterSpec@@@std@@@std@@QBEIXZ 006ebdf0 f i inputfilter_withdelta.obj
 0002:000e9e50       ?_Destroy@?$vector@PBUInputFilterSpec@@V?$allocator@PBUInputFilterSpec@@@std@@@std@@IAEXPAPBUInputFilterSpec@@0@Z 006ebe50 f i inputfilter_withdelta.obj
 0002:000e9ec0       ?_Xlen@?$vector@PBUInputFilterSpec@@V?$allocator@PBUInputFilterSpec@@@std@@@std@@KAXXZ 006ebec0 f i inputfilter_withdelta.obj
 0002:000e9fa0       ?deallocate@?$allocator@PBUInputFilterSpec@@@std@@QAEXPAPBUInputFilterSpec@@I@Z 006ebfa0 f i inputfilter_withdelta.obj
 0002:000ea000       ?allocate@?$allocator@PBUInputFilterSpec@@@std@@QAEPAPBUInputFilterSpec@@I@Z 006ec000 f i inputfilter_withdelta.obj
 0002:000ea060       ??G?$_Vector_const_iterator@PAUInputDetails@@V?$allocator@PAUInputDetails@@@std@@@std@@QBEHABV01@@Z 006ec060 f i inputfilter_withdelta.obj
 0002:000ea0d0       ??Y?$_Vector_iterator@PAUInputDetails@@V?$allocator@PAUInputDetails@@@std@@@std@@QAEAAV01@H@Z 006ec0d0 f i inputfilter_withdelta.obj
 0002:000ea130       ??Y?$_Vector_iterator@PBUInputFilterSpec@@V?$allocator@PBUInputFilterSpec@@@std@@@std@@QAEAAV01@H@Z 006ec130 f i inputfilter_withdelta.obj
 0002:000ea190       ??0?$_Vector_const_iterator@PBUInputFilterSpec@@V?$allocator@PBUInputFilterSpec@@@std@@@std@@QAE@PAPBUInputFilterSpec@@PBV_Container_base@1@@Z 006ec190 f i inputfilter_withdelta.obj
 0002:000ea2c0       ??G?$_Vector_const_iterator@PBUInputFilterSpec@@V?$allocator@PBUInputFilterSpec@@@std@@@std@@QBEHABV01@@Z 006ec2c0 f i inputfilter_withdelta.obj
 0002:000ea330       ??0?$_Ranit@PBUInputFilterSpec@@HPBQBU1@ABQBU1@@std@@QAE@XZ 006ec330 f i inputfilter_withdelta.obj
 0002:000ea390       ?max_size@?$allocator@PBUInputFilterSpec@@@std@@QBEIXZ 006ec390 f i inputfilter_withdelta.obj
 0002:000ea400       ??Y?$_Vector_const_iterator@PAUInputDetails@@V?$allocator@PAUInputDetails@@@std@@@std@@QAEAAV01@H@Z 006ec400 f i inputfilter_withdelta.obj
 0002:000ea550       ??Y?$_Vector_const_iterator@PBUInputFilterSpec@@V?$allocator@PBUInputFilterSpec@@@std@@@std@@QAEAAV01@H@Z 006ec550 f i inputfilter_withdelta.obj
 0002:000ea6a0       ?_Compat@?$_Vector_const_iterator@PBUInputFilterSpec@@V?$allocator@PBUInputFilterSpec@@@std@@@std@@QBEXABV12@@Z 006ec6a0 f i inputfilter_withdelta.obj
 0002:000ea770       ??$unchecked_uninitialized_copy@V?$_Vector_const_iterator@PAUInputDetails@@V?$allocator@PAUInputDetails@@@std@@@std@@PAPAUInputDetails@@V?$allocator@PAUInputDetails@@@2@@stdext@@YAPAPAUInputDetails@@V?$_Vector_const_iterator@PAUInputDetails@@V?$allocator@PAUInputDetails@@@std@@@std@@0PAPAU1@AAV?$allocator@PAUInputDetails@@@3@@Z 006ec770 f i inputfilter_withdelta.obj
 0002:000ea8e0       ??$_Checked_base@PAPAUInputDetails@@@std@@YAPAPAUInputDetails@@AAPAPAU1@@Z 006ec8e0 f i inputfilter_withdelta.obj
 0002:000ea970       ??$_Iter_random@PAPAUInputDetails@@PAPAU1@@std@@YA?AUrandom_access_iterator_tag@0@ABQAPAUInputDetails@@0@Z 006ec970 f i inputfilter_withdelta.obj
 0002:000ea9e0       ??$_Ptr_cat@PAPAUInputDetails@@PAPAU1@@std@@YA?AU_Scalar_ptr_iterator_tag@0@AAPAPAUInputDetails@@0@Z 006ec9e0 f i inputfilter_withdelta.obj
 0002:000eaa50       ??$_Copy_opt@PAPAUInputDetails@@PAPAU1@Urandom_access_iterator_tag@std@@@std@@YAPAPAUInputDetails@@PAPAU1@00Urandom_access_iterator_tag@0@U_Scalar_ptr_iterator_tag@0@U_Range_checked_iterator_tag@0@@Z 006eca50 f i inputfilter_withdelta.obj
 0002:000eab30       ??$unchecked_uninitialized_copy@PAPAUInputDetails@@PAPAU1@V?$allocator@PAUInputDetails@@@std@@@stdext@@YAPAPAUInputDetails@@PAPAU1@00AAV?$allocator@PAUInputDetails@@@std@@@Z 006ecb30 f i inputfilter_withdelta.obj
 0002:000eabe0       ??$_Destroy_range@PAUInputDetails@@V?$allocator@PAUInputDetails@@@std@@@std@@YAXPAPAUInputDetails@@0AAV?$allocator@PAUInputDetails@@@0@U_Scalar_ptr_iterator_tag@0@@Z 006ecbe0 f i inputfilter_withdelta.obj
 0002:000eac10       ??$unchecked_uninitialized_fill_n@PAPBUInputFilterSpec@@IPBU1@V?$allocator@PBUInputFilterSpec@@@std@@@stdext@@YAXPAPBUInputFilterSpec@@IABQBU1@AAV?$allocator@PBUInputFilterSpec@@@std@@@Z 006ecc10 f i inputfilter_withdelta.obj
 0002:000eacb0       ??$unchecked_uninitialized_fill_n@PAPAUInputDetails@@IPAU1@V?$allocator@PAUInputDetails@@@std@@@stdext@@YAXPAPAUInputDetails@@IABQAU1@AAV?$allocator@PAUInputDetails@@@std@@@Z 006eccb0 f i inputfilter_withdelta.obj
 0002:000ead50       ??$_Umove@PAPBUInputFilterSpec@@@?$vector@PBUInputFilterSpec@@V?$allocator@PBUInputFilterSpec@@@std@@@std@@IAEPAPBUInputFilterSpec@@PAPBU2@00@Z 006ecd50 f i inputfilter_withdelta.obj
 0002:000eadc0       ??$fill@PAPBUInputFilterSpec@@PBU1@@std@@YAXPAPBUInputFilterSpec@@0ABQBU1@@Z 006ecdc0 f i inputfilter_withdelta.obj
 0002:000eae30       ??$_Unchecked_move_backward@PAPBUInputFilterSpec@@PAPBU1@@stdext@@YAPAPBUInputFilterSpec@@PAPBU1@00@Z 006ece30 f i inputfilter_withdelta.obj
 0002:000eaef0       ??$_Umove@PAPAUInputDetails@@@?$vector@PAUInputDetails@@V?$allocator@PAUInputDetails@@@std@@@std@@IAEPAPAUInputDetails@@PAPAU2@00@Z 006ecef0 f i inputfilter_withdelta.obj
 0002:000eaf60       ??$fill@PAPAUInputDetails@@PAU1@@std@@YAXPAPAUInputDetails@@0ABQAU1@@Z 006ecf60 f i inputfilter_withdelta.obj
 0002:000eafd0       ??$_Unchecked_move_backward@PAPAUInputDetails@@PAPAU1@@stdext@@YAPAPAUInputDetails@@PAPAU1@00@Z 006ecfd0 f i inputfilter_withdelta.obj
 0002:000eb090       ??$_Destroy_range@PBUInputFilterSpec@@V?$allocator@PBUInputFilterSpec@@@std@@@std@@YAXPAPBUInputFilterSpec@@0AAV?$allocator@PBUInputFilterSpec@@@0@@Z 006ed090 f i inputfilter_withdelta.obj
 0002:000eb110       ??$_Allocate@PBUInputFilterSpec@@@std@@YAPAPBUInputFilterSpec@@IPAPBU1@@Z 006ed110 f i inputfilter_withdelta.obj
 0002:000eb1b0       ??$_Checked_base@V?$_Vector_const_iterator@PAUInputDetails@@V?$allocator@PAUInputDetails@@@std@@@std@@@std@@YA?AV?$_Vector_const_iterator@PAUInputDetails@@V?$allocator@PAUInputDetails@@@std@@@0@AAV10@@Z 006ed1b0 f i inputfilter_withdelta.obj
 0002:000eb270       ??$_Ptr_cat@V?$_Vector_const_iterator@PAUInputDetails@@V?$allocator@PAUInputDetails@@@std@@@std@@PAPAUInputDetails@@@std@@YA?AU_Scalar_ptr_iterator_tag@0@AAV?$_Vector_const_iterator@PAUInputDetails@@V?$allocator@PAUInputDetails@@@std@@@0@AAPAPAUInputDetails@@@Z 006ed270 f i inputfilter_withdelta.obj
 0002:000eb2e0       ??$_Uninit_copy@V?$_Vector_const_iterator@PAUInputDetails@@V?$allocator@PAUInputDetails@@@std@@@std@@PAPAUInputDetails@@V?$allocator@PAUInputDetails@@@2@@std@@YAPAPAUInputDetails@@V?$_Vector_const_iterator@PAUInputDetails@@V?$allocator@PAUInputDetails@@@std@@@0@0PAPAU1@AAV?$allocator@PAUInputDetails@@@0@U_Scalar_ptr_iterator_tag@0@U_Range_checked_iterator_tag@0@@Z 006ed2e0 f i inputfilter_withdelta.obj
 0002:000eb480       ??$_Checked_base@PAPAUInputDetails@@@std@@YAPAPAUInputDetails@@AAPAPAU1@U_Unchanged_checked_iterator_base_type_tag@0@@Z 006ed480 f i inputfilter_withdelta.obj
 0002:000eb4c0       ??$_Debug_range@PAPAUInputDetails@@@std@@YAXPAPAUInputDetails@@0PB_WI@Z 006ed4c0 f i inputfilter_withdelta.obj
 0002:000eb540       ??$_Debug_pointer@PAUInputDetails@@@std@@YAXPAPAUInputDetails@@PB_WI@Z 006ed540 f i inputfilter_withdelta.obj
 0002:000eb5a0       ??$_Uninit_copy@PAPAUInputDetails@@PAPAU1@V?$allocator@PAUInputDetails@@@std@@@std@@YAPAPAUInputDetails@@PAPAU1@00AAV?$allocator@PAUInputDetails@@@0@U_Scalar_ptr_iterator_tag@0@U_Range_checked_iterator_tag@0@@Z 006ed5a0 f i inputfilter_withdelta.obj
 0002:000eb670       ??$_Ptr_cat@PAPBUInputFilterSpec@@PAPBU1@@std@@YA?AU_Scalar_ptr_iterator_tag@0@AAPAPBUInputFilterSpec@@0@Z 006ed670 f i inputfilter_withdelta.obj
 0002:000eb6e0       ??$_Uninit_fill_n@PAPBUInputFilterSpec@@IPBU1@V?$allocator@PBUInputFilterSpec@@@std@@@std@@YAXPAPBUInputFilterSpec@@IABQBU1@AAV?$allocator@PBUInputFilterSpec@@@0@U_Scalar_ptr_iterator_tag@0@U_Range_checked_iterator_tag@0@@Z 006ed6e0 f i inputfilter_withdelta.obj
 0002:000eb740       ??$_Uninit_fill_n@PAPAUInputDetails@@IPAU1@V?$allocator@PAUInputDetails@@@std@@@std@@YAXPAPAUInputDetails@@IABQAU1@AAV?$allocator@PAUInputDetails@@@0@U_Scalar_ptr_iterator_tag@0@U_Range_checked_iterator_tag@0@@Z 006ed740 f i inputfilter_withdelta.obj
 0002:000eb7a0       ??$_Unchecked_uninitialized_move@PAPBUInputFilterSpec@@PAPBU1@V?$allocator@PBUInputFilterSpec@@@std@@@stdext@@YAPAPBUInputFilterSpec@@PAPBU1@00AAV?$allocator@PBUInputFilterSpec@@@std@@@Z 006ed7a0 f i inputfilter_withdelta.obj
 0002:000eb850       ??$_Checked_base@PAPBUInputFilterSpec@@@std@@YAPAPBUInputFilterSpec@@AAPAPBU1@@Z 006ed850 f i inputfilter_withdelta.obj
 0002:000eb8e0       ??$_Fill@PAPBUInputFilterSpec@@PBU1@@std@@YAXPAPBUInputFilterSpec@@0ABQBU1@@Z 006ed8e0 f i inputfilter_withdelta.obj
 0002:000eb970       ??$_Iter_random@PAPBUInputFilterSpec@@PAPBU1@@std@@YA?AUrandom_access_iterator_tag@0@ABQAPBUInputFilterSpec@@0@Z 006ed970 f i inputfilter_withdelta.obj
 0002:000eb9e0       ??$_Move_cat@PAPBUInputFilterSpec@@@std@@YA?AU_Undefined_move_tag@0@ABQAPBUInputFilterSpec@@@Z 006ed9e0 f i inputfilter_withdelta.obj
 0002:000eba50       ??$_Move_backward_opt@PAPBUInputFilterSpec@@PAPBU1@Urandom_access_iterator_tag@std@@U_Undefined_move_tag@3@@std@@YAPAPBUInputFilterSpec@@PAPBU1@00Urandom_access_iterator_tag@0@U_Undefined_move_tag@0@U_Range_checked_iterator_tag@0@@Z 006eda50 f i inputfilter_withdelta.obj
 0002:000ebaf0       ??$_Unchecked_uninitialized_move@PAPAUInputDetails@@PAPAU1@V?$allocator@PAUInputDetails@@@std@@@stdext@@YAPAPAUInputDetails@@PAPAU1@00AAV?$allocator@PAUInputDetails@@@std@@@Z 006edaf0 f i inputfilter_withdelta.obj
 0002:000ebba0       ??$_Fill@PAPAUInputDetails@@PAU1@@std@@YAXPAPAUInputDetails@@0ABQAU1@@Z 006edba0 f i inputfilter_withdelta.obj
 0002:000ebc30       ??$_Move_cat@PAPAUInputDetails@@@std@@YA?AU_Undefined_move_tag@0@ABQAPAUInputDetails@@@Z 006edc30 f i inputfilter_withdelta.obj
 0002:000ebca0       ??$_Move_backward_opt@PAPAUInputDetails@@PAPAU1@Urandom_access_iterator_tag@std@@U_Undefined_move_tag@3@@std@@YAPAPAUInputDetails@@PAPAU1@00Urandom_access_iterator_tag@0@U_Undefined_move_tag@0@U_Range_checked_iterator_tag@0@@Z 006edca0 f i inputfilter_withdelta.obj
 0002:000ebd40       ??$_Destroy_range@PBUInputFilterSpec@@V?$allocator@PBUInputFilterSpec@@@std@@@std@@YAXPAPBUInputFilterSpec@@0AAV?$allocator@PBUInputFilterSpec@@@0@U_Scalar_ptr_iterator_tag@0@@Z 006edd40 f i inputfilter_withdelta.obj
 0002:000ebd70       ??D?$_Vector_const_iterator@PAUInputDetails@@V?$allocator@PAUInputDetails@@@std@@@std@@QBEABQAUInputDetails@@XZ 006edd70 f i inputfilter_withdelta.obj
 0002:000ebe60       ??$_Checked_base@V?$_Vector_const_iterator@PAUInputDetails@@V?$allocator@PAUInputDetails@@@std@@@std@@@std@@YA?AV?$_Vector_const_iterator@PAUInputDetails@@V?$allocator@PAUInputDetails@@@std@@@0@AAV10@U_Unchanged_checked_iterator_base_type_tag@0@@Z 006ede60 f i inputfilter_withdelta.obj
 0002:000ebed0       ??$_Debug_range@V?$_Vector_const_iterator@PAUInputDetails@@V?$allocator@PAUInputDetails@@@std@@@std@@@std@@YAXV?$_Vector_const_iterator@PAUInputDetails@@V?$allocator@PAUInputDetails@@@std@@@0@0PB_WI@Z 006eded0 f i inputfilter_withdelta.obj
 0002:000ec000       ??$_Iter_cat@PAPAUInputDetails@@@std@@YA?AUrandom_access_iterator_tag@0@ABQAPAUInputDetails@@@Z 006ee000 f i inputfilter_withdelta.obj
 0002:000ec070       ??$_Debug_range2@PAPAUInputDetails@@@std@@YAXPAPAUInputDetails@@0PB_WIUrandom_access_iterator_tag@0@@Z 006ee070 f i inputfilter_withdelta.obj
 0002:000ec110       ??$unchecked_fill_n@PAPBUInputFilterSpec@@IPBU1@@stdext@@YAXPAPBUInputFilterSpec@@IABQBU1@@Z 006ee110 f i inputfilter_withdelta.obj
 0002:000ec1a0       ??$unchecked_fill_n@PAPAUInputDetails@@IPAU1@@stdext@@YAXPAPAUInputDetails@@IABQAU1@@Z 006ee1a0 f i inputfilter_withdelta.obj
 0002:000ec230       ??$_Uninit_move@PAPBUInputFilterSpec@@PAPBU1@V?$allocator@PBUInputFilterSpec@@@std@@U_Undefined_move_tag@3@@std@@YAPAPBUInputFilterSpec@@PAPBU1@00AAV?$allocator@PBUInputFilterSpec@@@0@U_Undefined_move_tag@0@U_Range_checked_iterator_tag@0@@Z 006ee230 f i inputfilter_withdelta.obj
 0002:000ec290       ??$_Checked_base@PAPBUInputFilterSpec@@@std@@YAPAPBUInputFilterSpec@@AAPAPBU1@U_Unchanged_checked_iterator_base_type_tag@0@@Z 006ee290 f i inputfilter_withdelta.obj
 0002:000ec2d0       ??$_Debug_range@PAPBUInputFilterSpec@@@std@@YAXPAPBUInputFilterSpec@@0PB_WI@Z 006ee2d0 f i inputfilter_withdelta.obj
 0002:000ec350       ??$_Copy_backward_opt@PAPBUInputFilterSpec@@PAPBU1@Urandom_access_iterator_tag@std@@@std@@YAPAPBUInputFilterSpec@@PAPBU1@00Urandom_access_iterator_tag@0@U_Scalar_ptr_iterator_tag@0@U_Range_checked_iterator_tag@0@@Z 006ee350 f i inputfilter_withdelta.obj
 0002:000ec430       ??$_Uninit_move@PAPAUInputDetails@@PAPAU1@V?$allocator@PAUInputDetails@@@std@@U_Undefined_move_tag@3@@std@@YAPAPAUInputDetails@@PAPAU1@00AAV?$allocator@PAUInputDetails@@@0@U_Undefined_move_tag@0@U_Range_checked_iterator_tag@0@@Z 006ee430 f i inputfilter_withdelta.obj
 0002:000ec490       ??$_Copy_backward_opt@PAPAUInputDetails@@PAPAU1@Urandom_access_iterator_tag@std@@@std@@YAPAPAUInputDetails@@PAPAU1@00Urandom_access_iterator_tag@0@U_Scalar_ptr_iterator_tag@0@U_Range_checked_iterator_tag@0@@Z 006ee490 f i inputfilter_withdelta.obj
 0002:000ec570       ??$_Iter_cat@V?$_Vector_const_iterator@PAUInputDetails@@V?$allocator@PAUInputDetails@@@std@@@std@@@std@@YA?AUrandom_access_iterator_tag@0@ABV?$_Vector_const_iterator@PAUInputDetails@@V?$allocator@PAUInputDetails@@@std@@@0@@Z 006ee570 f i inputfilter_withdelta.obj
 0002:000ec5e0       ??$_Debug_range2@V?$_Vector_const_iterator@PAUInputDetails@@V?$allocator@PAUInputDetails@@@std@@@std@@@std@@YAXV?$_Vector_const_iterator@PAUInputDetails@@V?$allocator@PAUInputDetails@@@std@@@0@0PB_WIUrandom_access_iterator_tag@0@@Z 006ee5e0 f i inputfilter_withdelta.obj
 0002:000ec700       ??$_Iter_cat@PAPBUInputFilterSpec@@@std@@YA?AUrandom_access_iterator_tag@0@ABQAPBUInputFilterSpec@@@Z 006ee700 f i inputfilter_withdelta.obj
 0002:000ec770       ??$_Fill_n@PAPBUInputFilterSpec@@IPBU1@@std@@YAXPAPBUInputFilterSpec@@IABQBU1@Urandom_access_iterator_tag@0@U_Range_checked_iterator_tag@0@@Z 006ee770 f i inputfilter_withdelta.obj
 0002:000ec800       ??$_Fill_n@PAPAUInputDetails@@IPAU1@@std@@YAXPAPAUInputDetails@@IABQAU1@Urandom_access_iterator_tag@0@U_Range_checked_iterator_tag@0@@Z 006ee800 f i inputfilter_withdelta.obj
 0002:000ec890       ??$unchecked_uninitialized_copy@PAPBUInputFilterSpec@@PAPBU1@V?$allocator@PBUInputFilterSpec@@@std@@@stdext@@YAPAPBUInputFilterSpec@@PAPBU1@00AAV?$allocator@PBUInputFilterSpec@@@std@@@Z 006ee890 f i inputfilter_withdelta.obj
 0002:000ec940       ??$_Debug_range2@PAPBUInputFilterSpec@@@std@@YAXPAPBUInputFilterSpec@@0PB_WIUrandom_access_iterator_tag@0@@Z 006ee940 f i inputfilter_withdelta.obj
 0002:000ec9e0       ??$_Debug_pointer@PBUInputFilterSpec@@@std@@YAXPAPBUInputFilterSpec@@PB_WI@Z 006ee9e0 f i inputfilter_withdelta.obj
 0002:000eca40       ??$_Debug_pointer@V?$_Vector_const_iterator@PAUInputDetails@@V?$allocator@PAUInputDetails@@@std@@@std@@@std@@YAXAAV?$_Vector_const_iterator@PAUInputDetails@@V?$allocator@PAUInputDetails@@@std@@@0@PB_WI@Z 006eea40 f i inputfilter_withdelta.obj
 0002:000eca70       ??$_Fill_n@PAPBUInputFilterSpec@@IPBU1@@std@@YAXPAPBUInputFilterSpec@@IABQBU1@U_Range_checked_iterator_tag@0@@Z 006eea70 f i inputfilter_withdelta.obj
 0002:000ecae0       ??$_Fill_n@PAPAUInputDetails@@IPAU1@@std@@YAXPAPAUInputDetails@@IABQAU1@U_Range_checked_iterator_tag@0@@Z 006eeae0 f i inputfilter_withdelta.obj
 0002:000ecb50       ??$_Uninit_copy@PAPBUInputFilterSpec@@PAPBU1@V?$allocator@PBUInputFilterSpec@@@std@@@std@@YAPAPBUInputFilterSpec@@PAPBU1@00AAV?$allocator@PBUInputFilterSpec@@@0@U_Scalar_ptr_iterator_tag@0@U_Range_checked_iterator_tag@0@@Z 006eeb50 f i inputfilter_withdelta.obj
 0002:000ecc20       ??0InputFilterManager@@QAE@XZ 006eec20 f   inputfiltermanager.obj
 0002:000ecc80       ??1InputFilterManager@@QAE@XZ 006eec80 f   inputfiltermanager.obj
 0002:000ecdc0       ??_GInputFilter@@QAEPAXI@Z 006eedc0 f i inputfiltermanager.obj
 0002:000ece30       ??1InputFilter@@QAE@XZ     006eee30 f i inputfiltermanager.obj
 0002:000ece90       ?addFilter@InputFilterManager@@QAEXPAVInputFilter@@@Z 006eee90 f   inputfiltermanager.obj
 0002:000ecef0       ?parseFilterSpecString@InputFilterManager@@QAE_NABV?$basic_string@DU?$char_traits@D@std@@V?$allocator@D@2@@std@@AAUInputFilterSpec@@AAV23@@Z 006eeef0 f   inputfiltermanager.obj
 0002:000ed020       ?parseFilterSpecTokens@InputFilterManager@@QAE_NABVInputSpecTokens@@AAUInputFilterSpec@@AAV?$basic_string@DU?$char_traits@D@std@@V?$allocator@D@2@@std@@@Z 006ef020 f   inputfiltermanager.obj
 0002:000ed120       ?filter@InputFilterManager@@QAE_NABV?$auto_vector@$$CBUInputSpec@@@@ABUInputFilterSpec@@AAUInputDetails@@@Z 006ef120 f   inputfiltermanager.obj
 0002:000ed380       ?filter@InputFilterManager@@QAE_NABV?$auto_vector@$$CBUInputDetails@@@@ABUInputFilterSpec@@AAUInputDetails@@@Z 006ef380 f   inputfiltermanager.obj
 0002:000ed410       ?Advance@InputFilterManager@@QAEXXZ 006ef410 f   inputfiltermanager.obj
 0002:000ed450       ??0?$vector@PAVInputFilter@@V?$allocator@PAVInputFilter@@@std@@@std@@QAE@XZ 006ef450 f i inputfiltermanager.obj
 0002:000ed510       ??1?$vector@PAVInputFilter@@V?$allocator@PAVInputFilter@@@std@@@std@@QAE@XZ 006ef510 f i inputfiltermanager.obj
 0002:000ed5b0       ?size@?$vector@PAVInputFilter@@V?$allocator@PAVInputFilter@@@std@@@std@@QBEIXZ 006ef5b0 f i inputfiltermanager.obj
 0002:000ed620       ??A?$vector@PAVInputFilter@@V?$allocator@PAVInputFilter@@@std@@@std@@QAEAAPAVInputFilter@@I@Z 006ef620 f i inputfiltermanager.obj
 0002:000ed760       ?push_back@?$vector@PAVInputFilter@@V?$allocator@PAVInputFilter@@@std@@@std@@QAEXABQAVInputFilter@@@Z 006ef760 f i inputfiltermanager.obj
 0002:000ed850       ??1?$_Vector_val@PAVInputFilter@@V?$allocator@PAVInputFilter@@@std@@@std@@QAE@XZ 006ef850 f i inputfiltermanager.obj
 0002:000ed8a0       ??1?$_Vector_iterator@PAVInputFilter@@V?$allocator@PAVInputFilter@@@std@@@std@@QAE@XZ 006ef8a0 f i inputfiltermanager.obj
 0002:000ed8f0       ??1?$_Vector_const_iterator@PAVInputFilter@@V?$allocator@PAVInputFilter@@@std@@@std@@QAE@XZ 006ef8f0 f i inputfiltermanager.obj
 0002:000ed940       ??1?$_Ranit@PAVInputFilter@@HPBQAV1@ABQAV1@@std@@QAE@XZ 006ef940 f i inputfiltermanager.obj
 0002:000ed990       ?capacity@?$vector@PAVInputFilter@@V?$allocator@PAVInputFilter@@@std@@@std@@QBEIXZ 006ef990 f i inputfiltermanager.obj
 0002:000eda00       ?end@?$vector@PAVInputFilter@@V?$allocator@PAVInputFilter@@@std@@@std@@QAE?AV?$_Vector_iterator@PAVInputFilter@@V?$allocator@PAVInputFilter@@@std@@@2@XZ 006efa00 f i inputfiltermanager.obj
 0002:000eda90       ?insert@?$vector@PAVInputFilter@@V?$allocator@PAVInputFilter@@@std@@@std@@QAE?AV?$_Vector_iterator@PAVInputFilter@@V?$allocator@PAVInputFilter@@@std@@@2@V32@ABQAVInputFilter@@@Z 006efa90 f i inputfiltermanager.obj
 0002:000edc90       ?_Buy@?$vector@PAVInputFilter@@V?$allocator@PAVInputFilter@@@std@@@std@@IAE_NI@Z 006efc90 f i inputfiltermanager.obj
 0002:000edd70       ?_Tidy@?$vector@PAVInputFilter@@V?$allocator@PAVInputFilter@@@std@@@std@@IAEXXZ 006efd70 f i inputfiltermanager.obj
 0002:000ede40       ?_Ufill@?$vector@PAVInputFilter@@V?$allocator@PAVInputFilter@@@std@@@std@@IAEPAPAVInputFilter@@PAPAV3@IABQAV3@@Z 006efe40 f i inputfiltermanager.obj
 0002:000edec0       ?_Orphan_range@?$vector@PAVInputFilter@@V?$allocator@PAVInputFilter@@@std@@@std@@IBEXPAPAVInputFilter@@0@Z 006efec0 f i inputfiltermanager.obj
 0002:000edfc0       ??0?$_Vector_val@PAVInputFilter@@V?$allocator@PAVInputFilter@@@std@@@std@@IAE@V?$allocator@PAVInputFilter@@@1@@Z 006effc0 f i inputfiltermanager.obj
 0002:000ee030       ??0?$allocator@PAVInputFilter@@@std@@QAE@XZ 006f0030 f i inputfiltermanager.obj
 0002:000ee070       ??0?$_Vector_iterator@PAVInputFilter@@V?$allocator@PAVInputFilter@@@std@@@std@@QAE@ABV01@@Z 006f0070 f i inputfiltermanager.obj
 0002:000ee0d0       ??0?$_Vector_const_iterator@PAVInputFilter@@V?$allocator@PAVInputFilter@@@std@@@std@@QAE@ABV01@@Z 006f00d0 f i inputfiltermanager.obj
 0002:000ee140       ??0?$_Ranit@PAVInputFilter@@HPBQAV1@ABQAV1@@std@@QAE@ABU01@@Z 006f0140 f i inputfiltermanager.obj
 0002:000ee1a0       ?begin@?$vector@PAVInputFilter@@V?$allocator@PAVInputFilter@@@std@@@std@@QAE?AV?$_Vector_iterator@PAVInputFilter@@V?$allocator@PAVInputFilter@@@std@@@2@XZ 006f01a0 f i inputfiltermanager.obj
 0002:000ee230       ?max_size@?$vector@PAVInputFilter@@V?$allocator@PAVInputFilter@@@std@@@std@@QBEIXZ 006f0230 f i inputfiltermanager.obj
 0002:000ee290       ?_Destroy@?$vector@PAVInputFilter@@V?$allocator@PAVInputFilter@@@std@@@std@@IAEXPAPAVInputFilter@@0@Z 006f0290 f i inputfiltermanager.obj
 0002:000ee300       ?_Insert_n@?$vector@PAVInputFilter@@V?$allocator@PAVInputFilter@@@std@@@std@@IAEXV?$_Vector_iterator@PAVInputFilter@@V?$allocator@PAVInputFilter@@@std@@@2@IABQAVInputFilter@@@Z 006f0300 f i inputfiltermanager.obj
 0002:000ee830       ?_Xlen@?$vector@PAVInputFilter@@V?$allocator@PAVInputFilter@@@std@@@std@@KAXXZ 006f0830 f i inputfiltermanager.obj
 0002:000ee910       ??0?$allocator@PAVInputFilter@@@std@@QAE@ABV01@@Z 006f0910 f i inputfiltermanager.obj
 0002:000ee950       ?deallocate@?$allocator@PAVInputFilter@@@std@@QAEXPAPAVInputFilter@@I@Z 006f0950 f i inputfiltermanager.obj
 0002:000ee9b0       ?allocate@?$allocator@PAVInputFilter@@@std@@QAEPAPAVInputFilter@@I@Z 006f09b0 f i inputfiltermanager.obj
 0002:000eea10       ??0?$_Vector_iterator@PAVInputFilter@@V?$allocator@PAVInputFilter@@@std@@@std@@QAE@PAPAVInputFilter@@PBV_Container_base@1@@Z 006f0a10 f i inputfiltermanager.obj
 0002:000eea70       ??H?$_Vector_iterator@PAVInputFilter@@V?$allocator@PAVInputFilter@@@std@@@std@@QBE?AV01@H@Z 006f0a70 f i inputfiltermanager.obj
 0002:000eeb90       ??G?$_Vector_iterator@PAVInputFilter@@V?$allocator@PAVInputFilter@@@std@@@std@@QBEHABV?$_Vector_const_iterator@PAVInputFilter@@V?$allocator@PAVInputFilter@@@std@@@1@@Z 006f0b90 f i inputfiltermanager.obj
 0002:000eebf0       ?max_size@?$allocator@PAVInputFilter@@@std@@QBEIXZ 006f0bf0 f i inputfiltermanager.obj
 0002:000eec60       ??Y?$_Vector_iterator@PAVInputFilter@@V?$allocator@PAVInputFilter@@@std@@@std@@QAEAAV01@H@Z 006f0c60 f i inputfiltermanager.obj
 0002:000eecc0       ??0?$_Vector_const_iterator@PAVInputFilter@@V?$allocator@PAVInputFilter@@@std@@@std@@QAE@PAPAVInputFilter@@PBV_Container_base@1@@Z 006f0cc0 f i inputfiltermanager.obj
 0002:000eedf0       ??G?$_Vector_const_iterator@PAVInputFilter@@V?$allocator@PAVInputFilter@@@std@@@std@@QBEHABV01@@Z 006f0df0 f i inputfiltermanager.obj
 0002:000eee60       ??0?$_Ranit@PAVInputFilter@@HPBQAV1@ABQAV1@@std@@QAE@XZ 006f0e60 f i inputfiltermanager.obj
 0002:000eeec0       ??Y?$_Vector_const_iterator@PAVInputFilter@@V?$allocator@PAVInputFilter@@@std@@@std@@QAEAAV01@H@Z 006f0ec0 f i inputfiltermanager.obj
 0002:000ef010       ?_Compat@?$_Vector_const_iterator@PAVInputFilter@@V?$allocator@PAVInputFilter@@@std@@@std@@QBEXABV12@@Z 006f1010 f i inputfiltermanager.obj
 0002:000ef0e0       ??0?$auto_vector@$$CBUInputDetails@@@@QAE@I@Z 006f10e0 f i inputfiltermanager.obj
 0002:000ef190       ??1?$auto_vector@$$CBUInputDetails@@@@QAE@XZ 006f1190 f i inputfiltermanager.obj
 0002:000ef230       ?push_back@?$auto_vector@$$CBUInputDetails@@@@QAEXV?$auto_ptr@$$CBUInputDetails@@@std@@@Z 006f1230 f i inputfiltermanager.obj
 0002:000ef300       ??1?$auto_ptr@$$CBUInputDetails@@@std@@QAE@XZ 006f1300 f i inputfiltermanager.obj
 0002:000ef370       ??$?B$$CBUInputDetails@@@?$auto_ptr@UInputDetails@@@std@@QAE?AV?$auto_ptr@$$CBUInputDetails@@@1@XZ 006f1370 f i inputfiltermanager.obj
 0002:000ef400       ??$unchecked_uninitialized_fill_n@PAPAVInputFilter@@IPAV1@V?$allocator@PAVInputFilter@@@std@@@stdext@@YAXPAPAVInputFilter@@IABQAV1@AAV?$allocator@PAVInputFilter@@@std@@@Z 006f1400 f i inputfiltermanager.obj
 0002:000ef4a0       ??$_Destroy_range@PAVInputFilter@@V?$allocator@PAVInputFilter@@@std@@@std@@YAXPAPAVInputFilter@@0AAV?$allocator@PAVInputFilter@@@0@@Z 006f14a0 f i inputfiltermanager.obj
 0002:000ef520       ??$_Umove@PAPAVInputFilter@@@?$vector@PAVInputFilter@@V?$allocator@PAVInputFilter@@@std@@@std@@IAEPAPAVInputFilter@@PAPAV2@00@Z 006f1520 f i inputfiltermanager.obj
 0002:000ef590       ??$fill@PAPAVInputFilter@@PAV1@@std@@YAXPAPAVInputFilter@@0ABQAV1@@Z 006f1590 f i inputfiltermanager.obj
 0002:000ef600       ??$_Unchecked_move_backward@PAPAVInputFilter@@PAPAV1@@stdext@@YAPAPAVInputFilter@@PAPAV1@00@Z 006f1600 f i inputfiltermanager.obj
 0002:000ef6c0       ??$_Allocate@PAVInputFilter@@@std@@YAPAPAVInputFilter@@IPAPAV1@@Z 006f16c0 f i inputfiltermanager.obj
 0002:000ef760       ??0?$vector@PBUInputDetails@@V?$allocator@PBUInputDetails@@@std@@@std@@QAE@XZ 006f1760 f i inputfiltermanager.obj
 0002:000ef820       ??1?$vector@PBUInputDetails@@V?$allocator@PBUInputDetails@@@std@@@std@@QAE@XZ 006f1820 f i inputfiltermanager.obj
 0002:000ef8c0       ?reserve@?$vector@PBUInputDetails@@V?$allocator@PBUInputDetails@@@std@@@std@@QAEXI@Z 006f18c0 f i inputfiltermanager.obj
 0002:000efae0       ?push_back@?$vector@PBUInputDetails@@V?$allocator@PBUInputDetails@@@std@@@std@@QAEXABQBUInputDetails@@@Z 006f1ae0 f i inputfiltermanager.obj
 0002:000efbd0       ??0?$auto_ptr@$$CBUInputDetails@@@std@@QAE@U?$auto_ptr_ref@$$CBUInputDetails@@@1@@Z 006f1bd0 f i inputfiltermanager.obj
 0002:000efc40       ?get@?$auto_ptr@$$CBUInputDetails@@@std@@QBEPBUInputDetails@@XZ 006f1c40 f i inputfiltermanager.obj
 0002:000efc80       ?release@?$auto_ptr@$$CBUInputDetails@@@std@@QAEPBUInputDetails@@XZ 006f1c80 f i inputfiltermanager.obj
 0002:000efcd0       ??1?$_Vector_val@PBUInputDetails@@V?$allocator@PBUInputDetails@@@std@@@std@@QAE@XZ 006f1cd0 f i inputfiltermanager.obj
 0002:000efd20       ??1?$_Vector_iterator@PBUInputDetails@@V?$allocator@PBUInputDetails@@@std@@@std@@QAE@XZ 006f1d20 f i inputfiltermanager.obj
 0002:000efd70       ??1?$_Vector_const_iterator@PBUInputDetails@@V?$allocator@PBUInputDetails@@@std@@@std@@QAE@XZ 006f1d70 f i inputfiltermanager.obj
 0002:000efdc0       ??1?$_Ranit@PBUInputDetails@@HPBQBU1@ABQBU1@@std@@QAE@XZ 006f1dc0 f i inputfiltermanager.obj
 0002:000efe10       ?capacity@?$vector@PBUInputDetails@@V?$allocator@PBUInputDetails@@@std@@@std@@QBEIXZ 006f1e10 f i inputfiltermanager.obj
 0002:000efe80       ?begin@?$vector@PBUInputDetails@@V?$allocator@PBUInputDetails@@@std@@@std@@QAE?AV?$_Vector_iterator@PBUInputDetails@@V?$allocator@PBUInputDetails@@@std@@@2@XZ 006f1e80 f i inputfiltermanager.obj
 0002:000eff10       ?end@?$vector@PBUInputDetails@@V?$allocator@PBUInputDetails@@@std@@@std@@QAE?AV?$_Vector_iterator@PBUInputDetails@@V?$allocator@PBUInputDetails@@@std@@@2@XZ 006f1f10 f i inputfiltermanager.obj
 0002:000effa0       ?size@?$vector@PBUInputDetails@@V?$allocator@PBUInputDetails@@@std@@@std@@QBEIXZ 006f1fa0 f i inputfiltermanager.obj
 0002:000f0010       ?max_size@?$vector@PBUInputDetails@@V?$allocator@PBUInputDetails@@@std@@@std@@QBEIXZ 006f2010 f i inputfiltermanager.obj
 0002:000f0070       ?insert@?$vector@PBUInputDetails@@V?$allocator@PBUInputDetails@@@std@@@std@@QAE?AV?$_Vector_iterator@PBUInputDetails@@V?$allocator@PBUInputDetails@@@std@@@2@V32@ABQBUInputDetails@@@Z 006f2070 f i inputfiltermanager.obj
 0002:000f0270       ?_Buy@?$vector@PBUInputDetails@@V?$allocator@PBUInputDetails@@@std@@@std@@IAE_NI@Z 006f2270 f i inputfiltermanager.obj
 0002:000f0350       ?_Destroy@?$vector@PBUInputDetails@@V?$allocator@PBUInputDetails@@@std@@@std@@IAEXPAPBUInputDetails@@0@Z 006f2350 f i inputfiltermanager.obj
 0002:000f03c0       ?_Tidy@?$vector@PBUInputDetails@@V?$allocator@PBUInputDetails@@@std@@@std@@IAEXXZ 006f23c0 f i inputfiltermanager.obj
 0002:000f0490       ?_Ufill@?$vector@PBUInputDetails@@V?$allocator@PBUInputDetails@@@std@@@std@@IAEPAPBUInputDetails@@PAPBU3@IABQBU3@@Z 006f2490 f i inputfiltermanager.obj
 0002:000f0510       ?_Xlen@?$vector@PBUInputDetails@@V?$allocator@PBUInputDetails@@@std@@@std@@KAXXZ 006f2510 f i inputfiltermanager.obj
 0002:000f05f0       ?_Orphan_range@?$vector@PBUInputDetails@@V?$allocator@PBUInputDetails@@@std@@@std@@IBEXPAPBUInputDetails@@0@Z 006f25f0 f i inputfiltermanager.obj
 0002:000f06f0       ??0?$_Vector_val@PBUInputDetails@@V?$allocator@PBUInputDetails@@@std@@@std@@IAE@V?$allocator@PBUInputDetails@@@1@@Z 006f26f0 f i inputfiltermanager.obj
 0002:000f0760       ??0?$allocator@PBUInputDetails@@@std@@QAE@XZ 006f2760 f i inputfiltermanager.obj
 0002:000f07a0       ?deallocate@?$allocator@PBUInputDetails@@@std@@QAEXPAPBUInputDetails@@I@Z 006f27a0 f i inputfiltermanager.obj
 0002:000f0800       ?allocate@?$allocator@PBUInputDetails@@@std@@QAEPAPBUInputDetails@@I@Z 006f2800 f i inputfiltermanager.obj
 0002:000f0860       ??0?$_Vector_iterator@PBUInputDetails@@V?$allocator@PBUInputDetails@@@std@@@std@@QAE@ABV01@@Z 006f2860 f i inputfiltermanager.obj
 0002:000f08c0       ??0?$_Vector_const_iterator@PBUInputDetails@@V?$allocator@PBUInputDetails@@@std@@@std@@QAE@ABV01@@Z 006f28c0 f i inputfiltermanager.obj
 0002:000f0930       ??0?$_Ranit@PBUInputDetails@@HPBQBU1@ABQBU1@@std@@QAE@ABU01@@Z 006f2930 f i inputfiltermanager.obj
 0002:000f0990       ?_Insert_n@?$vector@PBUInputDetails@@V?$allocator@PBUInputDetails@@@std@@@std@@IAEXV?$_Vector_iterator@PBUInputDetails@@V?$allocator@PBUInputDetails@@@std@@@2@IABQBUInputDetails@@@Z 006f2990 f i inputfiltermanager.obj
 0002:000f0ec0       ??0?$allocator@PBUInputDetails@@@std@@QAE@ABV01@@Z 006f2ec0 f i inputfiltermanager.obj
 0002:000f0f00       ?max_size@?$allocator@PBUInputDetails@@@std@@QBEIXZ 006f2f00 f i inputfiltermanager.obj
 0002:000f0f70       ??0?$_Vector_iterator@PBUInputDetails@@V?$allocator@PBUInputDetails@@@std@@@std@@QAE@PAPBUInputDetails@@PBV_Container_base@1@@Z 006f2f70 f i inputfiltermanager.obj
 0002:000f0fd0       ??H?$_Vector_iterator@PBUInputDetails@@V?$allocator@PBUInputDetails@@@std@@@std@@QBE?AV01@H@Z 006f2fd0 f i inputfiltermanager.obj
 0002:000f10f0       ??G?$_Vector_iterator@PBUInputDetails@@V?$allocator@PBUInputDetails@@@std@@@std@@QBEHABV?$_Vector_const_iterator@PBUInputDetails@@V?$allocator@PBUInputDetails@@@std@@@1@@Z 006f30f0 f i inputfiltermanager.obj
 0002:000f1150       ??Y?$_Vector_iterator@PBUInputDetails@@V?$allocator@PBUInputDetails@@@std@@@std@@QAEAAV01@H@Z 006f3150 f i inputfiltermanager.obj
 0002:000f11b0       ??0?$_Vector_const_iterator@PBUInputDetails@@V?$allocator@PBUInputDetails@@@std@@@std@@QAE@PAPBUInputDetails@@PBV_Container_base@1@@Z 006f31b0 f i inputfiltermanager.obj
 0002:000f12e0       ??G?$_Vector_const_iterator@PBUInputDetails@@V?$allocator@PBUInputDetails@@@std@@@std@@QBEHABV01@@Z 006f32e0 f i inputfiltermanager.obj
 0002:000f1350       ??0?$_Ranit@PBUInputDetails@@HPBQBU1@ABQBU1@@std@@QAE@XZ 006f3350 f i inputfiltermanager.obj
 0002:000f13b0       ??Y?$_Vector_const_iterator@PBUInputDetails@@V?$allocator@PBUInputDetails@@@std@@@std@@QAEAAV01@H@Z 006f33b0 f i inputfiltermanager.obj
 0002:000f1500       ?_Compat@?$_Vector_const_iterator@PBUInputDetails@@V?$allocator@PBUInputDetails@@@std@@@std@@QBEXABV12@@Z 006f3500 f i inputfiltermanager.obj
 0002:000f15d0       ?clear@?$auto_vector@$$CBUInputDetails@@@@QAEXXZ 006f35d0 f i inputfiltermanager.obj
 0002:000f16f0       ??$?0UInputDetails@@@?$auto_ptr@$$CBUInputDetails@@@std@@QAE@AAV?$auto_ptr@UInputDetails@@@1@@Z 006f36f0 f i inputfiltermanager.obj
 0002:000f1750       ??$?B$$CBUInputDetails@@@?$auto_ptr@$$CBUInputDetails@@@std@@QAE?AU?$auto_ptr_ref@$$CBUInputDetails@@@1@XZ 006f3750 f i inputfiltermanager.obj
 0002:000f1830       ??$_Ptr_cat@PAPAVInputFilter@@PAPAV1@@std@@YA?AU_Scalar_ptr_iterator_tag@0@AAPAPAVInputFilter@@0@Z 006f3830 f i inputfiltermanager.obj
 0002:000f18a0       ??$_Uninit_fill_n@PAPAVInputFilter@@IPAV1@V?$allocator@PAVInputFilter@@@std@@@std@@YAXPAPAVInputFilter@@IABQAV1@AAV?$allocator@PAVInputFilter@@@0@U_Scalar_ptr_iterator_tag@0@U_Range_checked_iterator_tag@0@@Z 006f38a0 f i inputfiltermanager.obj
 0002:000f1900       ??$_Destroy_range@PAVInputFilter@@V?$allocator@PAVInputFilter@@@std@@@std@@YAXPAPAVInputFilter@@0AAV?$allocator@PAVInputFilter@@@0@U_Scalar_ptr_iterator_tag@0@@Z 006f3900 f i inputfiltermanager.obj
 0002:000f1930       ??$_Unchecked_uninitialized_move@PAPAVInputFilter@@PAPAV1@V?$allocator@PAVInputFilter@@@std@@@stdext@@YAPAPAVInputFilter@@PAPAV1@00AAV?$allocator@PAVInputFilter@@@std@@@Z 006f3930 f i inputfiltermanager.obj
 0002:000f19e0       ??$_Checked_base@PAPAVInputFilter@@@std@@YAPAPAVInputFilter@@AAPAPAV1@@Z 006f39e0 f i inputfiltermanager.obj
 0002:000f1a70       ??$_Fill@PAPAVInputFilter@@PAV1@@std@@YAXPAPAVInputFilter@@0ABQAV1@@Z 006f3a70 f i inputfiltermanager.obj
 0002:000f1b00       ??$_Iter_random@PAPAVInputFilter@@PAPAV1@@std@@YA?AUrandom_access_iterator_tag@0@ABQAPAVInputFilter@@0@Z 006f3b00 f i inputfiltermanager.obj
 0002:000f1b70       ??$_Move_cat@PAPAVInputFilter@@@std@@YA?AU_Undefined_move_tag@0@ABQAPAVInputFilter@@@Z 006f3b70 f i inputfiltermanager.obj
 0002:000f1be0       ??$_Move_backward_opt@PAPAVInputFilter@@PAPAV1@Urandom_access_iterator_tag@std@@U_Undefined_move_tag@3@@std@@YAPAPAVInputFilter@@PAPAV1@00Urandom_access_iterator_tag@0@U_Undefined_move_tag@0@U_Range_checked_iterator_tag@0@@Z 006f3be0 f i inputfiltermanager.obj
 0002:000f1c80       ??$_Umove@V?$_Vector_iterator@PBUInputDetails@@V?$allocator@PBUInputDetails@@@std@@@std@@@?$vector@PBUInputDetails@@V?$allocator@PBUInputDetails@@@std@@@std@@IAEPAPBUInputDetails@@V?$_Vector_iterator@PBUInputDetails@@V?$allocator@PBUInputDetails@@@std@@@1@0PAPBU2@@Z 006f3c80 f i inputfiltermanager.obj
 0002:000f1dc0       ??$_Destroy_range@PBUInputDetails@@V?$allocator@PBUInputDetails@@@std@@@std@@YAXPAPBUInputDetails@@0AAV?$allocator@PBUInputDetails@@@0@@Z 006f3dc0 f i inputfiltermanager.obj
 0002:000f1e40       ??$unchecked_uninitialized_fill_n@PAPBUInputDetails@@IPBU1@V?$allocator@PBUInputDetails@@@std@@@stdext@@YAXPAPBUInputDetails@@IABQBU1@AAV?$allocator@PBUInputDetails@@@std@@@Z 006f3e40 f i inputfiltermanager.obj
 0002:000f1ee0       ??$_Allocate@PBUInputDetails@@@std@@YAPAPBUInputDetails@@IPAPBU1@@Z 006f3ee0 f i inputfiltermanager.obj
 0002:000f1f80       ??$_Umove@PAPBUInputDetails@@@?$vector@PBUInputDetails@@V?$allocator@PBUInputDetails@@@std@@@std@@IAEPAPBUInputDetails@@PAPBU2@00@Z 006f3f80 f i inputfiltermanager.obj
 0002:000f1ff0       ??$fill@PAPBUInputDetails@@PBU1@@std@@YAXPAPBUInputDetails@@0ABQBU1@@Z 006f3ff0 f i inputfiltermanager.obj
 0002:000f2060       ??$_Unchecked_move_backward@PAPBUInputDetails@@PAPBU1@@stdext@@YAPAPBUInputDetails@@PAPBU1@00@Z 006f4060 f i inputfiltermanager.obj
 0002:000f2120       ?begin@?$auto_vector@$$CBUInputDetails@@@@QAE?AV?$_Vector_iterator@PBUInputDetails@@V?$allocator@PBUInputDetails@@@std@@@std@@XZ 006f4120 f i inputfiltermanager.obj
 0002:000f21a0       ?end@?$auto_vector@$$CBUInputDetails@@@@QAE?AV?$_Vector_iterator@PBUInputDetails@@V?$allocator@PBUInputDetails@@@std@@@std@@XZ 006f41a0 f i inputfiltermanager.obj
 0002:000f2220       ?clear@?$vector@PBUInputDetails@@V?$allocator@PBUInputDetails@@@std@@@std@@QAEXXZ 006f4220 f i inputfiltermanager.obj
 0002:000f2330       ??0?$auto_ptr_ref@$$CBUInputDetails@@@std@@QAE@PAX@Z 006f4330 f i inputfiltermanager.obj
 0002:000f2380       ?erase@?$vector@PBUInputDetails@@V?$allocator@PBUInputDetails@@@std@@@std@@QAE?AV?$_Vector_iterator@PBUInputDetails@@V?$allocator@PBUInputDetails@@@std@@@2@V32@0@Z 006f4380 f i inputfiltermanager.obj
 0002:000f2530       ??9?$_Vector_const_iterator@PBUInputDetails@@V?$allocator@PBUInputDetails@@@std@@@std@@QBE_NABV01@@Z 006f4530 f i inputfiltermanager.obj
 0002:000f25a0       ??M?$_Vector_const_iterator@PBUInputDetails@@V?$allocator@PBUInputDetails@@@std@@@std@@QBE_NABV01@@Z 006f45a0 f i inputfiltermanager.obj
 0002:000f2610       ??8?$_Vector_const_iterator@PBUInputDetails@@V?$allocator@PBUInputDetails@@@std@@@std@@QBE_NABV01@@Z 006f4610 f i inputfiltermanager.obj
 0002:000f2680       ??$for_each@V?$_Vector_iterator@PBUInputDetails@@V?$allocator@PBUInputDetails@@@std@@@std@@V?$DeletePtr@$$CBUInputDetails@@@@@std@@YA?AV?$DeletePtr@$$CBUInputDetails@@@@V?$_Vector_iterator@PBUInputDetails@@V?$allocator@PBUInputDetails@@@std@@@0@0V1@@Z 006f4680 f i inputfiltermanager.obj
 0002:000f28a0       ??$unchecked_fill_n@PAPAVInputFilter@@IPAV1@@stdext@@YAXPAPAVInputFilter@@IABQAV1@@Z 006f48a0 f i inputfiltermanager.obj
 0002:000f2930       ??$_Uninit_move@PAPAVInputFilter@@PAPAV1@V?$allocator@PAVInputFilter@@@std@@U_Undefined_move_tag@3@@std@@YAPAPAVInputFilter@@PAPAV1@00AAV?$allocator@PAVInputFilter@@@0@U_Undefined_move_tag@0@U_Range_checked_iterator_tag@0@@Z 006f4930 f i inputfiltermanager.obj
 0002:000f2990       ??$_Checked_base@PAPAVInputFilter@@@std@@YAPAPAVInputFilter@@AAPAPAV1@U_Unchanged_checked_iterator_base_type_tag@0@@Z 006f4990 f i inputfiltermanager.obj
 0002:000f29d0       ??$_Debug_range@PAPAVInputFilter@@@std@@YAXPAPAVInputFilter@@0PB_WI@Z 006f49d0 f i inputfiltermanager.obj
 0002:000f2a50       ??$_Copy_backward_opt@PAPAVInputFilter@@PAPAV1@Urandom_access_iterator_tag@std@@@std@@YAPAPAVInputFilter@@PAPAV1@00Urandom_access_iterator_tag@0@U_Scalar_ptr_iterator_tag@0@U_Range_checked_iterator_tag@0@@Z 006f4a50 f i inputfiltermanager.obj
 0002:000f2b30       ??$_Unchecked_uninitialized_move@V?$_Vector_iterator@PBUInputDetails@@V?$allocator@PBUInputDetails@@@std@@@std@@PAPBUInputDetails@@V?$allocator@PBUInputDetails@@@2@@stdext@@YAPAPBUInputDetails@@V?$_Vector_iterator@PBUInputDetails@@V?$allocator@PBUInputDetails@@@std@@@std@@0PAPBU1@AAV?$allocator@PBUInputDetails@@@3@@Z 006f4b30 f i inputfiltermanager.obj
 0002:000f2ca0       ??$_Ptr_cat@PAPBUInputDetails@@PAPBU1@@std@@YA?AU_Scalar_ptr_iterator_tag@0@AAPAPBUInputDetails@@0@Z 006f4ca0 f i inputfiltermanager.obj
 0002:000f2d10       ??$_Destroy_range@PBUInputDetails@@V?$allocator@PBUInputDetails@@@std@@@std@@YAXPAPBUInputDetails@@0AAV?$allocator@PBUInputDetails@@@0@U_Scalar_ptr_iterator_tag@0@@Z 006f4d10 f i inputfiltermanager.obj
 0002:000f2d40       ??$_Uninit_fill_n@PAPBUInputDetails@@IPBU1@V?$allocator@PBUInputDetails@@@std@@@std@@YAXPAPBUInputDetails@@IABQBU1@AAV?$allocator@PBUInputDetails@@@0@U_Scalar_ptr_iterator_tag@0@U_Range_checked_iterator_tag@0@@Z 006f4d40 f i inputfiltermanager.obj
 0002:000f2da0       ??$_Unchecked_uninitialized_move@PAPBUInputDetails@@PAPBU1@V?$allocator@PBUInputDetails@@@std@@@stdext@@YAPAPBUInputDetails@@PAPBU1@00AAV?$allocator@PBUInputDetails@@@std@@@Z 006f4da0 f i inputfiltermanager.obj
 0002:000f2e50       ??$_Checked_base@PAPBUInputDetails@@@std@@YAPAPBUInputDetails@@AAPAPBU1@@Z 006f4e50 f i inputfiltermanager.obj
 0002:000f2ee0       ??$_Fill@PAPBUInputDetails@@PBU1@@std@@YAXPAPBUInputDetails@@0ABQBU1@@Z 006f4ee0 f i inputfiltermanager.obj
 0002:000f2f70       ??$_Iter_random@PAPBUInputDetails@@PAPBU1@@std@@YA?AUrandom_access_iterator_tag@0@ABQAPBUInputDetails@@0@Z 006f4f70 f i inputfiltermanager.obj
 0002:000f2fe0       ??$_Move_cat@PAPBUInputDetails@@@std@@YA?AU_Undefined_move_tag@0@ABQAPBUInputDetails@@@Z 006f4fe0 f i inputfiltermanager.obj
 0002:000f3050       ??$_Move_backward_opt@PAPBUInputDetails@@PAPBU1@Urandom_access_iterator_tag@std@@U_Undefined_move_tag@3@@std@@YAPAPBUInputDetails@@PAPBU1@00Urandom_access_iterator_tag@0@U_Undefined_move_tag@0@U_Range_checked_iterator_tag@0@@Z 006f5050 f i inputfiltermanager.obj
 0002:000f30f0       ??$unchecked_copy@PAPBUInputDetails@@PAPBU1@@stdext@@YAPAPBUInputDetails@@PAPBU1@00@Z 006f50f0 f i inputfiltermanager.obj
 0002:000f31c0       ??D?$_Vector_iterator@PBUInputDetails@@V?$allocator@PBUInputDetails@@@std@@@std@@QBEAAPBUInputDetails@@XZ 006f51c0 f i inputfiltermanager.obj
 0002:000f3210       ??E?$_Vector_iterator@PBUInputDetails@@V?$allocator@PBUInputDetails@@@std@@@std@@QAEAAV01@XZ 006f5210 f i inputfiltermanager.obj
 0002:000f3270       ??R?$DeletePtr@$$CBUInputDetails@@@@QAEXPBUInputDetails@@@Z 006f5270 f i inputfiltermanager.obj
 0002:000f32e0       ??D?$_Vector_const_iterator@PBUInputDetails@@V?$allocator@PBUInputDetails@@@std@@@std@@QBEABQBUInputDetails@@XZ 006f52e0 f i inputfiltermanager.obj
 0002:000f33d0       ??E?$_Vector_const_iterator@PBUInputDetails@@V?$allocator@PBUInputDetails@@@std@@@std@@QAEAAV01@XZ 006f53d0 f i inputfiltermanager.obj
 0002:000f34f0       ??$_Debug_range@V?$_Vector_iterator@PBUInputDetails@@V?$allocator@PBUInputDetails@@@std@@@std@@@std@@YAXV?$_Vector_iterator@PBUInputDetails@@V?$allocator@PBUInputDetails@@@std@@@0@0PB_WI@Z 006f54f0 f i inputfiltermanager.obj
 0002:000f3620       ??$_Debug_pointer@V?$DeletePtr@$$CBUInputDetails@@@@@std@@YAXAAV?$DeletePtr@$$CBUInputDetails@@@@PB_WI@Z 006f5620 f i inputfiltermanager.obj
 0002:000f3650       ??$_Checked_base@V?$_Vector_iterator@PBUInputDetails@@V?$allocator@PBUInputDetails@@@std@@@std@@@std@@YA?AV?$_Vector_iterator@PBUInputDetails@@V?$allocator@PBUInputDetails@@@std@@@0@AAV10@@Z 006f5650 f i inputfiltermanager.obj
 0002:000f3710       ??$_Iter_cat@PAPAVInputFilter@@@std@@YA?AUrandom_access_iterator_tag@0@ABQAPAVInputFilter@@@Z 006f5710 f i inputfiltermanager.obj
 0002:000f3780       ??$_Fill_n@PAPAVInputFilter@@IPAV1@@std@@YAXPAPAVInputFilter@@IABQAV1@Urandom_access_iterator_tag@0@U_Range_checked_iterator_tag@0@@Z 006f5780 f i inputfiltermanager.obj
 0002:000f3810       ??$unchecked_uninitialized_copy@PAPAVInputFilter@@PAPAV1@V?$allocator@PAVInputFilter@@@std@@@stdext@@YAPAPAVInputFilter@@PAPAV1@00AAV?$allocator@PAVInputFilter@@@std@@@Z 006f5810 f i inputfiltermanager.obj
 0002:000f38c0       ??$_Debug_range2@PAPAVInputFilter@@@std@@YAXPAPAVInputFilter@@0PB_WIUrandom_access_iterator_tag@0@@Z 006f58c0 f i inputfiltermanager.obj
 0002:000f3960       ??$_Debug_pointer@PAVInputFilter@@@std@@YAXPAPAVInputFilter@@PB_WI@Z 006f5960 f i inputfiltermanager.obj
 0002:000f39c0       ??$_Uninit_move@V?$_Vector_iterator@PBUInputDetails@@V?$allocator@PBUInputDetails@@@std@@@std@@PAPBUInputDetails@@V?$allocator@PBUInputDetails@@@2@U_Undefined_move_tag@2@@std@@YAPAPBUInputDetails@@V?$_Vector_iterator@PBUInputDetails@@V?$allocator@PBUInputDetails@@@std@@@0@0PAPBU1@AAV?$allocator@PBUInputDetails@@@0@U_Undefined_move_tag@0@U_Range_checked_iterator_tag@0@@Z 006f59c0 f i inputfiltermanager.obj
 0002:000f3af0       ??$unchecked_fill_n@PAPBUInputDetails@@IPBU1@@stdext@@YAXPAPBUInputDetails@@IABQBU1@@Z 006f5af0 f i inputfiltermanager.obj
 0002:000f3b80       ??$_Uninit_move@PAPBUInputDetails@@PAPBU1@V?$allocator@PBUInputDetails@@@std@@U_Undefined_move_tag@3@@std@@YAPAPBUInputDetails@@PAPBU1@00AAV?$allocator@PBUInputDetails@@@0@U_Undefined_move_tag@0@U_Range_checked_iterator_tag@0@@Z 006f5b80 f i inputfiltermanager.obj
 0002:000f3be0       ??$_Checked_base@PAPBUInputDetails@@@std@@YAPAPBUInputDetails@@AAPAPBU1@U_Unchanged_checked_iterator_base_type_tag@0@@Z 006f5be0 f i inputfiltermanager.obj
 0002:000f3c20       ??$_Debug_range@PAPBUInputDetails@@@std@@YAXPAPBUInputDetails@@0PB_WI@Z 006f5c20 f i inputfiltermanager.obj
 0002:000f3ca0       ??$_Copy_backward_opt@PAPBUInputDetails@@PAPBU1@Urandom_access_iterator_tag@std@@@std@@YAPAPBUInputDetails@@PAPBU1@00Urandom_access_iterator_tag@0@U_Scalar_ptr_iterator_tag@0@U_Range_checked_iterator_tag@0@@Z 006f5ca0 f i inputfiltermanager.obj
 0002:000f3d80       ??$_Copy_opt@PAPBUInputDetails@@PAPBU1@Urandom_access_iterator_tag@std@@@std@@YAPAPBUInputDetails@@PAPBU1@00Urandom_access_iterator_tag@0@U_Scalar_ptr_iterator_tag@0@U_Range_checked_iterator_tag@0@@Z 006f5d80 f i inputfiltermanager.obj
