 darwinia_d

 Timestamp is 4bd1b105 (Fri Apr 23 15:39:01 2010)

 Preferred load address is 00400000

 Start         Length     Name                   Class
 0001:00000000 00212ef1H .textbss                DATA
 0002:00000000 004291a2H .text                   CODE
 0002:004291b0 00019097H .text$x                 CODE
 0002:00442250 00002863H .text$yc                CODE
 0002:00444ac0 00001cd3H .text$yd                CODE
 0003:00000000 00000104H .CRT$XCA                DATA
 0003:00000104 00000160H .CRT$XCC                DATA
 0003:00000264 000001e6H .CRT$XCU                DATA
 0003:0000044c 00000104H .CRT$XCZ                DATA
 0003:00000550 00000104H .CRT$XIA                DATA
 0003:00000654 0000011cH .CRT$XIC                DATA
 0003:00000770 00000104H .CRT$XID                DATA
 0003:00000874 00000104H .CRT$XIY                DATA
 0003:00000978 00000104H .CRT$XIZ                DATA
 0003:00000a7c 00000104H .CRT$XPA                DATA
 0003:00000b80 00000109H .CRT$XPX                DATA
 0003:00000c8c 00000104H .CRT$XPXA               DATA
 0003:00000d90 00000104H .CRT$XPZ                DATA
 0003:00000e94 00000104H .CRT$XTA                DATA
 0003:00000f98 00000104H .CRT$XTZ                DATA
 0003:000010a0 000c7c44H .rdata                  DATA
 0003:000c8ce4 00000178H .rdata$debug            DATA
 0003:000c8e5c 0000982aH .rdata$r                DATA
 0003:000d2688 00000104H .rtc$IAA                DATA
 0003:000d278c 000005ccH .rtc$IMZ                DATA
 0003:000d2d58 00000104H .rtc$IZZ                DATA
 0003:000d2e5c 00000104H .rtc$TAA                DATA
 0003:000d2f60 000005ccH .rtc$TMZ                DATA
 0003:000d352c 00000104H .rtc$TZZ                DATA
 0003:000d3630 0001623bH .xdata$x                DATA
 0003:000e986b 00000000H .edata                  DATA
 0004:00000000 0001c4ccH .data                   DATA
 0004:0001c4e0 00014810H .bss                    DATA
 0005:00000000 00000118H .idata$2                DATA
 0005:00000118 00000014H .idata$3                DATA
 0005:0000012c 000006fcH .idata$4                DATA
 0005:00000828 000006fcH .idata$5                DATA
 0005:00000f24 0000144bH .idata$6                DATA
 0006:00000000 00000020H .didat$2                DATA
 0006:00000020 00000020H .didat$3                DATA
 0006:00000040 00000030H .didat$4                DATA
 0006:00000070 00000030H .didat$5                DATA
 0006:000000a0 00000108H .didat$7                DATA
 0007:00000000 000004a8H .rsrc$01                DATA
 0007:000004b0 0004007cH .rsrc$02                DATA

  Address         Publics by Value              Rva+Base       Lib:Object

 0000:00000000       __except_list              00000000     <absolute>
 0000:00000000       ___safe_se_handler_count   00000000     <absolute>
 0000:00000000       ___safe_se_handler_table   00000000     <absolute>
 0000:00000000       ___ImageBase               00400000     <linker-defined>
 0001:00000000       __enc$textbss$begin        00401000     <linker-defined>
 0001:00212ef1       __enc$textbss$end          00613ef1     <linker-defined>
 0002:0001cf60       ??_H@YGXPAXIHP6EPAX0@Z@Z   00630f60 f i buildings_window.obj
 0002:0001cfd0       ??0BuildingEditWindow@@QAE@PAD@Z 00630fd0 f   buildings_window.obj
 0002:0001d040       ??_EBuildingEditWindow@@UAEPAXI@Z 00631040 f i buildings_window.obj
 0002:0001d040       ??_GBuildingEditWindow@@UAEPAXI@Z 00631040 f i buildings_window.obj
 0002:0001d0b0       ??1BuildingEditWindow@@UAE@XZ 006310b0 f   buildings_window.obj
 0002:0001d120       ?Create@BuildingEditWindow@@UAEXXZ 00631120 f   buildings_window.obj
 0002:0001f7a0       ?GetUniqueId@WorldObjectId@@QBEHXZ 006337a0 f i buildings_window.obj
 0002:0001f7e0       ??0ToolButton@@QAE@H@Z     006337e0 f i buildings_window.obj
 0002:0001f850       ?MouseUp@ToolButton@@UAEXXZ 00633850 f i buildings_window.obj
 0002:0001f8a0       ?Render@ToolButton@@UAEXHH_N0@Z 006338a0 f i buildings_window.obj
 0002:0001fa00       ??_EToolButton@@UAEPAXI@Z  00633a00 f i buildings_window.obj
 0002:0001fa00       ??_GToolButton@@UAEPAXI@Z  00633a00 f i buildings_window.obj
 0002:0001fa70       ??1ToolButton@@UAE@XZ      00633a70 f i buildings_window.obj
 0002:0001fac0       ??1DarwiniaButton@@UAE@XZ  00633ac0 f i buildings_window.obj
 0002:0001fb10       ??0DeleteBuildingButton@@QAE@XZ 00633b10 f i buildings_window.obj
 0002:0001fb80       ?MouseUp@DeleteBuildingButton@@UAEXXZ 00633b80 f i buildings_window.obj
 0002:0001fc90       ??_EDeleteBuildingButton@@UAEPAXI@Z 00633c90 f i buildings_window.obj
 0002:0001fc90       ??_GDeleteBuildingButton@@UAEPAXI@Z 00633c90 f i buildings_window.obj
 0002:0001fd00       ??1DeleteBuildingButton@@UAE@XZ 00633d00 f i buildings_window.obj
 0002:0001fd50       ??0TeamButton@@QAE@H@Z     00633d50 f i buildings_window.obj
 0002:0001fde0       ?MouseUp@TeamButton@@UAEXXZ 00633de0 f i buildings_window.obj
 0002:0001fe70       ?SetTeamId@WorldObjectId@@QAEXE@Z 00633e70 f i buildings_window.obj
 0002:0001fec0       ?Render@TeamButton@@UAEXHH_N0@Z 00633ec0 f i buildings_window.obj
 0002:000200b0       ?glColor3ub@@YAXEEE@Z      006340b0 f i buildings_window.obj
 0002:00020110       ?glColor3ubv@@YAXPBE@Z     00634110 f i buildings_window.obj
 0002:00020180       ?glVertex2i@@YAXHH@Z       00634180 f i buildings_window.obj
 0002:000201f0       ?GetTeamId@WorldObjectId@@QBEEXZ 006341f0 f i buildings_window.obj
 0002:00020230       ??_ETeamButton@@UAEPAXI@Z  00634230 f i buildings_window.obj
 0002:00020230       ??_GTeamButton@@UAEPAXI@Z  00634230 f i buildings_window.obj
 0002:000202a0       ??1TeamButton@@UAE@XZ      006342a0 f i buildings_window.obj
 0002:000202f0       ?MouseUp@ClearLinksButton@?FJ@??Create@BuildingEditWindow@@UAEXXZ@UAEXXZ 006342f0 f   buildings_window.obj
 0002:00020360       ??0CloneBuildingButton@@QAE@XZ 00634360 f i buildings_window.obj
 0002:000203c0       ?MouseUp@CloneBuildingButton@@EAEXXZ 006343c0 f i buildings_window.obj
 0002:00020650       ??0Vector3@@QAE@XZ         00634650 f i buildings_window.obj
 0002:000206b0       ??4Vector3@@QAEABV0@ABV0@@Z 006346b0 f i buildings_window.obj
 0002:00020720       ?SetUniqueId@WorldObjectId@@QAEXH@Z 00634720 f i buildings_window.obj
 0002:00020770       ??0ClearLinksButton@?FJ@??Create@BuildingEditWindow@@UAEXXZ@QAE@XZ 00634770 f i buildings_window.obj
 0002:000207d0       ??_ECloneBuildingButton@@UAEPAXI@Z 006347d0 f i buildings_window.obj
 0002:000207d0       ??_GCloneBuildingButton@@UAEPAXI@Z 006347d0 f i buildings_window.obj
 0002:00020840       ??_GClearLinksButton@?FJ@??Create@BuildingEditWindow@@UAEXXZ@UAEPAXI@Z 00634840 f i buildings_window.obj
 0002:00020840       ??_EClearLinksButton@?FJ@??Create@BuildingEditWindow@@UAEXXZ@UAEPAXI@Z 00634840 f i buildings_window.obj
 0002:000208b0       ??1CloneBuildingButton@@UAE@XZ 006348b0 f i buildings_window.obj
 0002:00020900       ??1ClearLinksButton@?FJ@??Create@BuildingEditWindow@@UAEXXZ@UAE@XZ 00634900 f i buildings_window.obj
 0002:00020950       ?Render@BuildingEditWindow@@UAEX_N@Z 00634950 f   buildings_window.obj
 0002:00020b50       ??0BuildingsCreateWindow@@QAE@PAD@Z 00634b50 f   buildings_window.obj
 0002:00020bd0       ??_EBuildingsCreateWindow@@UAEPAXI@Z 00634bd0 f i buildings_window.obj
 0002:00020bd0       ??_GBuildingsCreateWindow@@UAEPAXI@Z 00634bd0 f i buildings_window.obj
 0002:00020c40       ??1BuildingsCreateWindow@@UAE@XZ 00634c40 f   buildings_window.obj
 0002:00020d20       ?Create@BuildingsCreateWindow@@UAEXXZ 00634d20 f   buildings_window.obj
 0002:00020fc0       ??0NewBuildingButton@@QAE@XZ 00634fc0 f i buildings_window.obj
 0002:00021020       ?MouseUp@NewBuildingButton@@UAEXXZ 00635020 f i buildings_window.obj
 0002:00021200       ??_ENewBuildingButton@@UAEPAXI@Z 00635200 f i buildings_window.obj
 0002:00021200       ??_GNewBuildingButton@@UAEPAXI@Z 00635200 f i buildings_window.obj
 0002:00021270       ??1NewBuildingButton@@UAE@XZ 00635270 f i buildings_window.obj
 0002:000212c0       ?allocate@?$_DebugHeapAllocator@D@std@@QAAPADIPBX@Z 006352c0 f i buildings_window.obj
 0002:00021380       ??0bad_alloc@std@@QAE@PBD@Z 00635380 f i buildings_window.obj
 0002:000213f0       ??1bad_alloc@std@@UAE@XZ   006353f0 f i buildings_window.obj
 0002:00021450       ??_Gbad_alloc@std@@UAEPAXI@Z 00635450 f i buildings_window.obj
 0002:00021450       ??_Ebad_alloc@std@@UAEPAXI@Z 00635450 f i buildings_window.obj
 0002:000214c0       ?allocate@?$_DebugHeapAllocator@D@std@@QAEPADI@Z 006354c0 f i buildings_window.obj
 0002:00021580       ?deallocate@?$_DebugHeapAllocator@D@std@@QAEXPADI@Z 00635580 f i buildings_window.obj
 0002:000215e0       ??0bad_alloc@std@@QAE@ABV01@@Z 006355e0 f i buildings_window.obj
 0002:00021650       ??0?$_DebugHeapAllocator@D@std@@QAE@XZ 00635650 f i buildings_window.obj
 0002:000216b0       ??0?$allocator@D@std@@QAE@XZ 006356b0 f i buildings_window.obj
 0002:000216f0       ??0?$_DebugHeapAllocator@D@std@@QAE@ABV01@@Z 006356f0 f i buildings_window.obj
 0002:00021750       ??0?$allocator@D@std@@QAE@ABV01@@Z 00635750 f i buildings_window.obj
 0002:00021790       ??$_DebugHeapDelete@X@std@@YAXPAX@Z 00635790 f i buildings_window.obj
 0002:000217f0       ?PutData@?$LList@PAVBuilding@@@@QAEXABQAVBuilding@@@Z 006357f0 f i buildings_window.obj
 0002:00021850       ?PutDataAtEnd@?$LList@PAVBuilding@@@@QAEXABQAVBuilding@@@Z 00635850 f i buildings_window.obj
 0002:000219e0       ??0?$LListItem@PAVBuilding@@@@QAE@XZ 006359e0 f i buildings_window.obj
 0002:00021a40       ??0BuyNowWindow@@QAE@XZ    00635a40 f   buynow_window.obj
 0002:00021b90       ??_EBuyNowWindow@@UAEPAXI@Z 00635b90 f i buynow_window.obj
 0002:00021b90       ??_GBuyNowWindow@@UAEPAXI@Z 00635b90 f i buynow_window.obj
 0002:00021c00       ??1BuyNowWindow@@UAE@XZ    00635c00 f i buynow_window.obj
 0002:00021c50       ?Create@BuyNowWindow@@UAEXXZ 00635c50 f   buynow_window.obj
 0002:00021ee0       ??0BuyNowButton@@QAE@XZ    00635ee0 f i buynow_window.obj
 0002:00021f40       ?MouseUp@BuyNowButton@@EAEXXZ 00635f40 f i buynow_window.obj
 0002:00021fb0       ??_EBuyNowButton@@UAEPAXI@Z 00635fb0 f i buynow_window.obj
 0002:00021fb0       ??_GBuyNowButton@@UAEPAXI@Z 00635fb0 f i buynow_window.obj
 0002:00022020       ??1BuyNowButton@@UAE@XZ    00636020 f i buynow_window.obj
 0002:00022070       ?Render@BuyNowWindow@@UAEX_N@Z 00636070 f   buynow_window.obj
 0002:00022210       ?glColor4f@@YAXMMMM@Z      00636210 f i buynow_window.obj
 0002:00022510       ??0CameraAnimMainEditWindow@@QAE@PAD@Z 00636510 f   camera_anim_window.obj
 0002:00022580       ??_GCameraAnimMainEditWindow@@UAEPAXI@Z 00636580 f i camera_anim_window.obj
 0002:00022580       ??_ECameraAnimMainEditWindow@@UAEPAXI@Z 00636580 f i camera_anim_window.obj
 0002:000225f0       ??1CameraAnimMainEditWindow@@UAE@XZ 006365f0 f   camera_anim_window.obj
 0002:000226f0       ?Create@CameraAnimMainEditWindow@@UAEXXZ 006366f0 f   camera_anim_window.obj
 0002:00022750       ?AddButtons@CameraAnimMainEditWindow@@QAEXXZ 00636750 f   camera_anim_window.obj
 0002:00022c90       ??0NewAnimButton@@QAE@XZ   00636c90 f i camera_anim_window.obj
 0002:00022cf0       ?MouseUp@NewAnimButton@@UAEXXZ 00636cf0 f i camera_anim_window.obj
 0002:00022e80       ??0CameraAnimation@@QAE@XZ 00636e80 f i camera_anim_window.obj
 0002:00022ee0       ??0DeleteAnimButton@@QAE@XZ 00636ee0 f i camera_anim_window.obj
 0002:00022f40       ?MouseUp@DeleteAnimButton@@UAEXXZ 00636f40 f i camera_anim_window.obj
 0002:00023090       ??_GCameraAnimation@@QAEPAXI@Z 00637090 f i camera_anim_window.obj
 0002:00023100       ??1CameraAnimation@@QAE@XZ 00637100 f i camera_anim_window.obj
 0002:000231a0       ??0SelectAnimButton@@QAE@XZ 006371a0 f i camera_anim_window.obj
 0002:00023200       ?MouseUp@SelectAnimButton@@UAEXXZ 00637200 f i camera_anim_window.obj
 0002:000232c0       ??_GNewAnimButton@@UAEPAXI@Z 006372c0 f i camera_anim_window.obj
 0002:000232c0       ??_ENewAnimButton@@UAEPAXI@Z 006372c0 f i camera_anim_window.obj
 0002:00023330       ??_GDeleteAnimButton@@UAEPAXI@Z 00637330 f i camera_anim_window.obj
 0002:00023330       ??_EDeleteAnimButton@@UAEPAXI@Z 00637330 f i camera_anim_window.obj
 0002:000233a0       ??_GSelectAnimButton@@UAEPAXI@Z 006373a0 f i camera_anim_window.obj
 0002:000233a0       ??_ESelectAnimButton@@UAEPAXI@Z 006373a0 f i camera_anim_window.obj
 0002:00023410       ??1NewAnimButton@@UAE@XZ   00637410 f i camera_anim_window.obj
 0002:00023460       ??1DeleteAnimButton@@UAE@XZ 00637460 f i camera_anim_window.obj
 0002:000234b0       ??1SelectAnimButton@@UAE@XZ 006374b0 f i camera_anim_window.obj
 0002:00023500       ?RemoveButtons@CameraAnimMainEditWindow@@QAEXXZ 00637500 f   camera_anim_window.obj
 0002:00023580       ??0CameraAnimSecondaryEditWindow@@QAE@PADH@Z 00637580 f   camera_anim_window.obj
 0002:000236a0       ??_ECameraAnimSecondaryEditWindow@@UAEPAXI@Z 006376a0 f i camera_anim_window.obj
 0002:000236a0       ??_GCameraAnimSecondaryEditWindow@@UAEPAXI@Z 006376a0 f i camera_anim_window.obj
 0002:00023710       ??1CameraAnimSecondaryEditWindow@@UAE@XZ 00637710 f   camera_anim_window.obj
 0002:00023780       ?Create@CameraAnimSecondaryEditWindow@@UAEXXZ 00637780 f   camera_anim_window.obj
 0002:000237e0       ?AddButtons@CameraAnimSecondaryEditWindow@@QAEXXZ 006377e0 f   camera_anim_window.obj
 0002:00024080       ??0NewNodeButton@@QAE@XZ   00638080 f i camera_anim_window.obj
 0002:000240e0       ?MouseUp@NewNodeButton@@UAEXXZ 006380e0 f i camera_anim_window.obj
 0002:00024150       ?Render@NewNodeButton@@UAEXHH_N0@Z 00638150 f i camera_anim_window.obj
 0002:00024210       ??0CamBeforeMountButton@@QAE@XZ 00638210 f i camera_anim_window.obj
 0002:00024270       ?MouseUp@CamBeforeMountButton@@UAEXXZ 00638270 f i camera_anim_window.obj
 0002:00024470       ??0CamAnimNode@@QAE@XZ     00638470 f i camera_anim_window.obj
 0002:000244d0       ??0StartPreviewButton@@QAE@XZ 006384d0 f i camera_anim_window.obj
 0002:00024530       ?MouseUp@StartPreviewButton@@UAEXXZ 00638530 f i camera_anim_window.obj
 0002:000245d0       ??0StopPreviewButton@@QAE@XZ 006385d0 f i camera_anim_window.obj
 0002:00024630       ?MouseUp@StopPreviewButton@@UAEXXZ 00638630 f i camera_anim_window.obj
 0002:00024690       ??0SelectMountButton@@QAE@XZ 00638690 f i camera_anim_window.obj
 0002:000246f0       ?Render@SelectMountButton@@UAEXHH_N0@Z 006386f0 f i camera_anim_window.obj
 0002:00024750       ??0DeleteNodeButton@@QAE@XZ 00638750 f i camera_anim_window.obj
 0002:000247b0       ?MouseUp@DeleteNodeButton@@UAEXXZ 006387b0 f i camera_anim_window.obj
 0002:000248c0       ??_ENewNodeButton@@UAEPAXI@Z 006388c0 f i camera_anim_window.obj
 0002:000248c0       ??_GNewNodeButton@@UAEPAXI@Z 006388c0 f i camera_anim_window.obj
 0002:00024930       ??_GCamBeforeMountButton@@UAEPAXI@Z 00638930 f i camera_anim_window.obj
 0002:00024930       ??_ECamBeforeMountButton@@UAEPAXI@Z 00638930 f i camera_anim_window.obj
 0002:000249a0       ??_GStartPreviewButton@@UAEPAXI@Z 006389a0 f i camera_anim_window.obj
 0002:000249a0       ??_EStartPreviewButton@@UAEPAXI@Z 006389a0 f i camera_anim_window.obj
 0002:00024a10       ??_GStopPreviewButton@@UAEPAXI@Z 00638a10 f i camera_anim_window.obj
 0002:00024a10       ??_EStopPreviewButton@@UAEPAXI@Z 00638a10 f i camera_anim_window.obj
 0002:00024a80       ??_GSelectMountButton@@UAEPAXI@Z 00638a80 f i camera_anim_window.obj
 0002:00024a80       ??_ESelectMountButton@@UAEPAXI@Z 00638a80 f i camera_anim_window.obj
 0002:00024af0       ??_GDeleteNodeButton@@UAEPAXI@Z 00638af0 f i camera_anim_window.obj
 0002:00024af0       ??_EDeleteNodeButton@@UAEPAXI@Z 00638af0 f i camera_anim_window.obj
 0002:00024b60       ??1NewNodeButton@@UAE@XZ   00638b60 f i camera_anim_window.obj
 0002:00024bb0       ??1CamBeforeMountButton@@UAE@XZ 00638bb0 f i camera_anim_window.obj
 0002:00024c00       ??1StartPreviewButton@@UAE@XZ 00638c00 f i camera_anim_window.obj
 0002:00024c50       ??1StopPreviewButton@@UAE@XZ 00638c50 f i camera_anim_window.obj
 0002:00024ca0       ??1SelectMountButton@@UAE@XZ 00638ca0 f i camera_anim_window.obj
 0002:00024cf0       ??1DeleteNodeButton@@UAE@XZ 00638cf0 f i camera_anim_window.obj
 0002:00024d40       ?RemoveButtons@CameraAnimSecondaryEditWindow@@QAEXXZ 00638d40 f   camera_anim_window.obj
 0002:00024e30       ?Size@?$LList@PAVEclButton@@@@QBEHXZ 00638e30 f i camera_anim_window.obj
 0002:00024e70       ??A?$LList@PAVEclButton@@@@QAEPAVEclButton@@H@Z 00638e70 f i camera_anim_window.obj
 0002:00024ed0       ??0?$LList@PAVCamAnimNode@@@@QAE@XZ 00638ed0 f i camera_anim_window.obj
 0002:00024f50       ??1?$LList@PAVCamAnimNode@@@@QAE@XZ 00638f50 f i camera_anim_window.obj
 0002:00024fa0       ?PutData@?$LList@PAVCamAnimNode@@@@QAEXABQAVCamAnimNode@@@Z 00638fa0 f i camera_anim_window.obj
 0002:00025000       ?GetData@?$LList@PAVCamAnimNode@@@@QBEPAVCamAnimNode@@H@Z 00639000 f i camera_anim_window.obj
 0002:000251a0       ?RemoveData@?$LList@PAVCamAnimNode@@@@QAEXH@Z 006391a0 f i camera_anim_window.obj
 0002:00025330       ?Size@?$LList@PAVCamAnimNode@@@@QBEHXZ 00639330 f i camera_anim_window.obj
 0002:00025370       ?EmptyAndDelete@?$LList@PAVCamAnimNode@@@@QAEXXZ 00639370 f i camera_anim_window.obj
 0002:00025430       ??A?$LList@PAVCamAnimNode@@@@QAEPAVCamAnimNode@@H@Z 00639430 f i camera_anim_window.obj
 0002:00025490       ?PutData@?$LList@PAVCameraAnimation@@@@QAEXABQAVCameraAnimation@@@Z 00639490 f i camera_anim_window.obj
 0002:000254f0       ?GetData@?$LList@PAVCameraAnimation@@@@QBEPAVCameraAnimation@@H@Z 006394f0 f i camera_anim_window.obj
 0002:00025690       ?RemoveData@?$LList@PAVCameraAnimation@@@@QAEXH@Z 00639690 f i camera_anim_window.obj
 0002:00025820       ?Size@?$LList@PAVCameraAnimation@@@@QBEHXZ 00639820 f i camera_anim_window.obj
 0002:00025860       ??A?$LList@PAVCameraAnimation@@@@QAEPAVCameraAnimation@@H@Z 00639860 f i camera_anim_window.obj
 0002:000258c0       ??_G?$LListItem@PAVCamAnimNode@@@@QAEPAXI@Z 006398c0 f i camera_anim_window.obj
 0002:00025930       ??_GCamAnimNode@@QAEPAXI@Z 00639930 f i camera_anim_window.obj
 0002:000259a0       ??1CamAnimNode@@QAE@XZ     006399a0 f i camera_anim_window.obj
 0002:00025a10       ??_G?$LListItem@PAVCameraAnimation@@@@QAEPAXI@Z 00639a10 f i camera_anim_window.obj
 0002:00025a80       ?GetData@?$LList@PAVEclButton@@@@QBEPAVEclButton@@H@Z 00639a80 f i camera_anim_window.obj
 0002:00025c20       ?PutDataAtEnd@?$LList@PAVCamAnimNode@@@@QAEXABQAVCamAnimNode@@@Z 00639c20 f i camera_anim_window.obj
 0002:00025db0       ?ValidIndex@?$LList@PAVCamAnimNode@@@@QBE_NH@Z 00639db0 f i camera_anim_window.obj
 0002:00025e20       ?Empty@?$LList@PAVCamAnimNode@@@@QAEXXZ 00639e20 f i camera_anim_window.obj
 0002:00025f20       ??1?$LListItem@PAVCamAnimNode@@@@QAE@XZ 00639f20 f i camera_anim_window.obj
 0002:00025f60       ?PutDataAtEnd@?$LList@PAVCameraAnimation@@@@QAEXABQAVCameraAnimation@@@Z 00639f60 f i camera_anim_window.obj
 0002:000260f0       ?ValidIndex@?$LList@PAVCameraAnimation@@@@QBE_NH@Z 0063a0f0 f i camera_anim_window.obj
 0002:00026160       ??1?$LListItem@PAVCameraAnimation@@@@QAE@XZ 0063a160 f i camera_anim_window.obj
 0002:000261a0       ?ValidIndex@?$LList@PAVEclButton@@@@QBE_NH@Z 0063a1a0 f i camera_anim_window.obj
 0002:00026210       ??0?$LListItem@PAVCamAnimNode@@@@QAE@XZ 0063a210 f i camera_anim_window.obj
 0002:00026270       ??0?$LListItem@PAVCameraAnimation@@@@QAE@XZ 0063a270 f i camera_anim_window.obj
 0002:000262d0       ??0CameraMountEditWindow@@QAE@PAD@Z 0063a2d0 f   camera_mount_window.obj
 0002:00026340       ??_GCameraMountEditWindow@@UAEPAXI@Z 0063a340 f i camera_mount_window.obj
 0002:00026340       ??_ECameraMountEditWindow@@UAEPAXI@Z 0063a340 f i camera_mount_window.obj
 0002:000263b0       ??1CameraMountEditWindow@@UAE@XZ 0063a3b0 f   camera_mount_window.obj
 0002:000264b0       ?Create@CameraMountEditWindow@@UAEXXZ 0063a4b0 f   camera_mount_window.obj
 0002:00026be0       ??0GotoMountButton@@QAE@PAD@Z 0063abe0 f i camera_mount_window.obj
 0002:00026c50       ?MouseUp@GotoMountButton@@UAEXXZ 0063ac50 f i camera_mount_window.obj
 0002:00026db0       ??_GGotoMountButton@@UAEPAXI@Z 0063adb0 f i camera_mount_window.obj
 0002:00026db0       ??_EGotoMountButton@@UAEPAXI@Z 0063adb0 f i camera_mount_window.obj
 0002:00026e20       ??1GotoMountButton@@UAE@XZ 0063ae20 f i camera_mount_window.obj
 0002:00026e70       ??0DeleteMountButton@@QAE@PAD@Z 0063ae70 f i camera_mount_window.obj
 0002:00026ee0       ?MouseUp@DeleteMountButton@@UAEXXZ 0063aee0 f i camera_mount_window.obj
 0002:00027090       ??_GDeleteMountButton@@UAEPAXI@Z 0063b090 f i camera_mount_window.obj
 0002:00027090       ??_EDeleteMountButton@@UAEPAXI@Z 0063b090 f i camera_mount_window.obj
 0002:00027100       ??1DeleteMountButton@@UAE@XZ 0063b100 f i camera_mount_window.obj
 0002:00027150       ??0UpdateMountButton@@QAE@PAD@Z 0063b150 f i camera_mount_window.obj
 0002:000271c0       ?MouseUp@UpdateMountButton@@UAEXXZ 0063b1c0 f i camera_mount_window.obj
 0002:00027360       ?GetPos@Camera@@QAE?AVVector3@@XZ 0063b360 f i camera_mount_window.obj
 0002:000273c0       ?GetFront@Camera@@QAE?AVVector3@@XZ 0063b3c0 f i camera_mount_window.obj
 0002:00027420       ?GetUp@Camera@@QAE?AVVector3@@XZ 0063b420 f i camera_mount_window.obj
 0002:00027480       ??_EUpdateMountButton@@UAEPAXI@Z 0063b480 f i camera_mount_window.obj
 0002:00027480       ??_GUpdateMountButton@@UAEPAXI@Z 0063b480 f i camera_mount_window.obj
 0002:000274f0       ??1UpdateMountButton@@UAE@XZ 0063b4f0 f i camera_mount_window.obj
 0002:00027540       ??0NewMountButton@@QAE@XZ  0063b540 f i camera_mount_window.obj
 0002:000275a0       ?MouseUp@NewMountButton@@UAEXXZ 0063b5a0 f i camera_mount_window.obj
 0002:000277c0       ??0CameraMount@@QAE@XZ     0063b7c0 f i camera_mount_window.obj
 0002:00027840       ??_GNewMountButton@@UAEPAXI@Z 0063b840 f i camera_mount_window.obj
 0002:00027840       ??_ENewMountButton@@UAEPAXI@Z 0063b840 f i camera_mount_window.obj
 0002:000278b0       ??1NewMountButton@@UAE@XZ  0063b8b0 f i camera_mount_window.obj
 0002:00027900       ?PutDataAtEnd@?$LList@PAVCameraMount@@@@QAEXABQAVCameraMount@@@Z 0063b900 f i camera_mount_window.obj
 0002:00027a90       ?GetData@?$LList@PAVCameraMount@@@@QBEPAVCameraMount@@H@Z 0063ba90 f i camera_mount_window.obj
 0002:00027c30       ?RemoveData@?$LList@PAVCameraMount@@@@QAEXH@Z 0063bc30 f i camera_mount_window.obj
 0002:00027dc0       ?Size@?$LList@PAVCameraMount@@@@QBEHXZ 0063bdc0 f i camera_mount_window.obj
 0002:00027e00       ??A?$LList@PAVCameraMount@@@@QAEPAVCameraMount@@H@Z 0063be00 f i camera_mount_window.obj
 0002:00027e60       ??_G?$LListItem@PAVCameraMount@@@@QAEPAXI@Z 0063be60 f i camera_mount_window.obj
 0002:00027ed0       ?ValidIndex@?$LList@PAVCameraMount@@@@QBE_NH@Z 0063bed0 f i camera_mount_window.obj
 0002:00027f40       ??0?$LListItem@PAVCameraMount@@@@QAE@XZ 0063bf40 f i camera_mount_window.obj
 0002:00027fa0       ??1?$LListItem@PAVCameraMount@@@@QAE@XZ 0063bfa0 f i camera_mount_window.obj
 0002:00027fe0       ?Create@CheatWindow@@UAEXXZ 0063bfe0 f   cheat_window.obj
 0002:00028020       ??0CheatWindow@@QAE@PAD@Z  0063c020 f   cheat_window.obj
 0002:00028090       ??_ECheatWindow@@UAEPAXI@Z 0063c090 f i cheat_window.obj
 0002:00028090       ??_GCheatWindow@@UAEPAXI@Z 0063c090 f i cheat_window.obj
 0002:00028100       ??1CheatWindow@@UAE@XZ     0063c100 f i cheat_window.obj
 0002:00028150       ??0DarwiniaButton@@QAE@XZ  0063c150 f   darwinia_window.obj
 0002:00028200       ??_EDarwiniaButton@@UAEPAXI@Z 0063c200 f i darwinia_window.obj
 0002:00028200       ??_GDarwiniaButton@@UAEPAXI@Z 0063c200 f i darwinia_window.obj
 0002:00028270       ?SetShortProperties@DarwiniaButton@@UAEXPBDHHHHPAD1@Z 0063c270 f   darwinia_window.obj
 0002:00028330       ?SetDisabled@DarwiniaButton@@QAEX_N@Z 0063c330 f   darwinia_window.obj
 0002:00028380       ?Render@DarwiniaButton@@UAEXHH_N0@Z 0063c380 f   darwinia_window.obj
 0002:00028ca0       ?glVertex2f@@YAXMM@Z       0063cca0 f i darwinia_window.obj
 0002:00028d10       ?UpdateButtonHighlight@DarwiniaButton@@QAEXXZ 0063cd10 f   darwinia_window.obj
 0002:00028df0       ??0BorderlessButton@@QAE@XZ 0063cdf0 f   darwinia_window.obj
 0002:00028e50       ??_EBorderlessButton@@UAEPAXI@Z 0063ce50 f i darwinia_window.obj
 0002:00028e50       ??_GBorderlessButton@@UAEPAXI@Z 0063ce50 f i darwinia_window.obj
 0002:00028ec0       ??1BorderlessButton@@UAE@XZ 0063cec0 f i darwinia_window.obj
 0002:00028f10       ?SetShortProperties@BorderlessButton@@UAEXPBDHHHHPAD1@Z 0063cf10 f   darwinia_window.obj
 0002:00028fd0       ?Render@BorderlessButton@@UAEXHH_N0@Z 0063cfd0 f   darwinia_window.obj
 0002:00029980       ??0DarwiniaWindow@@QAE@PBD@Z 0063d980 f   darwinia_window.obj
 0002:00029ab0       ??_GDarwiniaWindow@@UAEPAXI@Z 0063dab0 f i darwinia_window.obj
 0002:00029ab0       ??_EDarwiniaWindow@@UAEPAXI@Z 0063dab0 f i darwinia_window.obj
 0002:00029b20       ??1DarwiniaWindow@@UAE@XZ  0063db20 f   darwinia_window.obj
 0002:00029c10       ?CreateValueControl@DarwiniaWindow@@QAEXPBDHPAXHMMMPAVDarwiniaButton@@HH@Z 0063dc10 f   darwinia_window.obj
 0002:0002a140       ?RemoveValueControl@DarwiniaWindow@@QAEXPAD@Z 0063e140 f   darwinia_window.obj
 0002:0002a260       ?CreateColourControl@DarwiniaWindow@@QAEXPBDPAHHPAVDarwiniaButton@@HH@Z 0063e260 f   darwinia_window.obj
 0002:0002a3e0       ?Create@DarwiniaWindow@@UAEXXZ 0063e3e0 f   darwinia_window.obj
 0002:0002a530       ?Remove@DarwiniaWindow@@UAEXXZ 0063e530 f   darwinia_window.obj
 0002:0002a5e0       ?GetClientRectX1@DarwiniaWindow@@QAEHXZ 0063e5e0 f   darwinia_window.obj
 0002:0002a620       ?GetClientRectX2@DarwiniaWindow@@QAEHXZ 0063e620 f   darwinia_window.obj
 0002:0002a660       ?GetClientRectY1@DarwiniaWindow@@QAEHXZ 0063e660 f   darwinia_window.obj
 0002:0002a6c0       ?GetClientRectY2@DarwiniaWindow@@QAEHXZ 0063e6c0 f   darwinia_window.obj
 0002:0002a700       ?Render@DarwiniaWindow@@UAEX_N@Z 0063e700 f   darwinia_window.obj
 0002:0002b060       ?glTexCoord2f@@YAXMM@Z     0063f060 f i darwinia_window.obj
 0002:0002b0c0       ?GetMenuSize@DarwiniaWindow@@QAEHH@Z 0063f0c0 f   darwinia_window.obj
 0002:0002b160       ?SetMenuSize@DarwiniaWindow@@QAEXHH@Z 0063f160 f   darwinia_window.obj
 0002:0002b220       ?Update@DarwiniaWindow@@UAEXXZ 0063f220 f   darwinia_window.obj
 0002:0002b490       ?SetCurrentButton@DarwiniaWindow@@QAEXPAVEclButton@@@Z 0063f490 f   darwinia_window.obj
 0002:0002b540       ?MouseUp@GameExitButton@@EAEXXZ 0063f540 f   darwinia_window.obj
 0002:0002b590       ??0CloseButton@@QAE@XZ     0063f590 f   darwinia_window.obj
 0002:0002b600       ??_GCloseButton@@UAEPAXI@Z 0063f600 f i darwinia_window.obj
 0002:0002b600       ??_ECloseButton@@UAEPAXI@Z 0063f600 f i darwinia_window.obj
 0002:0002b670       ??1CloseButton@@UAE@XZ     0063f670 f i darwinia_window.obj
 0002:0002b6c0       ?MouseUp@CloseButton@@UAEXXZ 0063f6c0 f   darwinia_window.obj
 0002:0002b720       ?Render@CloseButton@@UAEXHH_N0@Z 0063f720 f   darwinia_window.obj
 0002:0002baf0       ?Render@InvertedBox@@UAEXHH_N0@Z 0063faf0 f   darwinia_window.obj
 0002:0002be90       ?Render@LabelButton@@UAEXHH_N0@Z 0063fe90 f   darwinia_window.obj
 0002:0002bfb0       ??0?$LList@PAVEclButton@@@@QAE@XZ 0063ffb0 f i darwinia_window.obj
 0002:0002c030       ??1?$LList@PAVEclButton@@@@QAE@XZ 00640030 f i darwinia_window.obj
 0002:0002c080       ?Empty@?$LList@PAVEclButton@@@@QAEXXZ 00640080 f i darwinia_window.obj
 0002:0002c180       ?GetData@?$LList@PAVEclWindow@@@@QBEPAVEclWindow@@H@Z 00640180 f i darwinia_window.obj
 0002:0002c320       ??_G?$LListItem@PAVEclButton@@@@QAEPAXI@Z 00640320 f i darwinia_window.obj
 0002:0002c390       ??1?$LListItem@PAVEclButton@@@@QAE@XZ 00640390 f i darwinia_window.obj
 0002:0002c3d0       ?ValidIndex@?$LList@PAVEclWindow@@@@QBE_NH@Z 006403d0 f i darwinia_window.obj
 0002:0002c440       ??0DebugMenu@@QAE@PAD@Z    00640440 f   debugmenu.obj
 0002:0002c4e0       ??_EDebugMenu@@UAEPAXI@Z   006404e0 f i debugmenu.obj
 0002:0002c4e0       ??_GDebugMenu@@UAEPAXI@Z   006404e0 f i debugmenu.obj
 0002:0002c550       ??1DebugMenu@@UAE@XZ       00640550 f i debugmenu.obj
 0002:0002c5a0       ?Advance@DebugMenu@@QAEXXZ 006405a0 f   debugmenu.obj
 0002:0002c5e0       ?Create@DebugMenu@@UAEXXZ  006405e0 f   debugmenu.obj
 0002:0002cb00       ??0ProfileButton@@QAE@XZ   00640b00 f i debugmenu.obj
 0002:0002cb60       ?MouseUp@ProfileButton@@UAEXXZ 00640b60 f i debugmenu.obj
 0002:0002cbb0       ??0NetworkButton@@QAE@XZ   00640bb0 f i debugmenu.obj
 0002:0002cc10       ?MouseUp@NetworkButton@@UAEXXZ 00640c10 f i debugmenu.obj
 0002:0002cc60       ??0FPSButton@@QAE@XZ       00640c60 f i debugmenu.obj
 0002:0002ccc0       ?MouseUp@FPSButton@@UAEXXZ 00640cc0 f i debugmenu.obj
 0002:0002cd10       ??0DebugCameraButton@@QAE@XZ 00640d10 f i debugmenu.obj
 0002:0002cd70       ?MouseUp@DebugCameraButton@@UAEXXZ 00640d70 f i debugmenu.obj
 0002:0002cdc0       ??0EditorButton@@QAE@XZ    00640dc0 f i debugmenu.obj
 0002:0002ce20       ?MouseUp@EditorButton@@UAEXXZ 00640e20 f i debugmenu.obj
 0002:0002ce70       ??_GProfileButton@@UAEPAXI@Z 00640e70 f i debugmenu.obj
 0002:0002ce70       ??_EProfileButton@@UAEPAXI@Z 00640e70 f i debugmenu.obj
 0002:0002cee0       ??_ENetworkButton@@UAEPAXI@Z 00640ee0 f i debugmenu.obj
 0002:0002cee0       ??_GNetworkButton@@UAEPAXI@Z 00640ee0 f i debugmenu.obj
 0002:0002cf50       ??_EFPSButton@@UAEPAXI@Z   00640f50 f i debugmenu.obj
 0002:0002cf50       ??_GFPSButton@@UAEPAXI@Z   00640f50 f i debugmenu.obj
 0002:0002cfc0       ??_GDebugCameraButton@@UAEPAXI@Z 00640fc0 f i debugmenu.obj
 0002:0002cfc0       ??_EDebugCameraButton@@UAEPAXI@Z 00640fc0 f i debugmenu.obj
 0002:0002d030       ??_EEditorButton@@UAEPAXI@Z 00641030 f i debugmenu.obj
 0002:0002d030       ??_GEditorButton@@UAEPAXI@Z 00641030 f i debugmenu.obj
 0002:0002d0a0       ??1ProfileButton@@UAE@XZ   006410a0 f i debugmenu.obj
 0002:0002d0f0       ??1NetworkButton@@UAE@XZ   006410f0 f i debugmenu.obj
 0002:0002d140       ??1FPSButton@@UAE@XZ       00641140 f i debugmenu.obj
 0002:0002d190       ??1DebugCameraButton@@UAE@XZ 00641190 f i debugmenu.obj
 0002:0002d1e0       ??1EditorButton@@UAE@XZ    006411e0 f i debugmenu.obj
 0002:0002d230       ?Render@DebugMenu@@UAEX_N@Z 00641230 f   debugmenu.obj
 0002:0002d470       ?DebugMenu@DebugKeyBindings@@SAXXZ 00641470 f   debugmenu.obj
 0002:0002d5b0       ?ProfileButton@DebugKeyBindings@@SAXXZ 006415b0 f   debugmenu.obj
 0002:0002d730       ?NetworkButton@DebugKeyBindings@@SAXXZ 00641730 f   debugmenu.obj
 0002:0002d890       ?EditorButton@DebugKeyBindings@@SAXXZ 00641890 f   debugmenu.obj
 0002:0002d8d0       ?DebugCameraButton@DebugKeyBindings@@SAXXZ 006418d0 f   debugmenu.obj
 0002:0002d920       ?FPSButton@DebugKeyBindings@@SAXXZ 00641920 f   debugmenu.obj
 0002:0002d980       ?ReallyQuitButton@DebugKeyBindings@@SAXXZ 00641980 f   debugmenu.obj
 0002:0002da90       ?ToggleFullscreenButton@DebugKeyBindings@@SAXXZ 00641a90 f   debugmenu.obj
 0002:0002db50       ??0DemoEndWindow@@QAE@M_N@Z 00641b50 f   demoend_window.obj
 0002:0002dcb0       ??_EDemoEndWindow@@UAEPAXI@Z 00641cb0 f i demoend_window.obj
 0002:0002dcb0       ??_GDemoEndWindow@@UAEPAXI@Z 00641cb0 f i demoend_window.obj
 0002:0002dd20       ??1DemoEndWindow@@UAE@XZ   00641d20 f i demoend_window.obj
 0002:0002dd70       ?Create@DemoEndWindow@@UAEXXZ 00641d70 f   demoend_window.obj
 0002:0002dfd0       ??0ExitDemoButton@@QAE@XZ  00641fd0 f i demoend_window.obj
 0002:0002e030       ?MouseUp@ExitDemoButton@@EAEXXZ 00642030 f i demoend_window.obj
 0002:0002e0d0       ?Render@ExitDemoButton@@EAEXHH_N0@Z 006420d0 f i demoend_window.obj
 0002:0002e5d0       ??0BuyOnlineButton@@QAE@XZ 006425d0 f i demoend_window.obj
 0002:0002e630       ?MouseUp@BuyOnlineButton@@EAEXXZ 00642630 f i demoend_window.obj
 0002:0002e6d0       ?Render@BuyOnlineButton@@EAEXHH_N0@Z 006426d0 f i demoend_window.obj
 0002:0002eb80       ??_GExitDemoButton@@UAEPAXI@Z 00642b80 f i demoend_window.obj
 0002:0002eb80       ??_EExitDemoButton@@UAEPAXI@Z 00642b80 f i demoend_window.obj
 0002:0002ebf0       ??_EBuyOnlineButton@@UAEPAXI@Z 00642bf0 f i demoend_window.obj
 0002:0002ebf0       ??_GBuyOnlineButton@@UAEPAXI@Z 00642bf0 f i demoend_window.obj
 0002:0002ec60       ??1ExitDemoButton@@UAE@XZ  00642c60 f i demoend_window.obj
 0002:0002ecb0       ??1BuyOnlineButton@@UAE@XZ 00642cb0 f i demoend_window.obj
 0002:0002ed00       ?GetAlpha@DemoEndWindow@@QAEMXZ 00642d00 f   demoend_window.obj
 0002:0002edf0       ?ShowExitButton@DemoEndWindow@@QAE_NXZ 00642df0 f   demoend_window.obj
 0002:0002ee90       ?Render@DemoEndWindow@@UAEX_N@Z 00642e90 f   demoend_window.obj
 0002:0002f590       ??0DropDownOptionData@@QAE@PBDH@Z 00643590 f   drop_down_menu.obj
 0002:0002f600       ?NewStr@@YAPADPBD@Z        00643600 f i drop_down_menu.obj
 0002:0002f680       ??1DropDownOptionData@@QAE@XZ 00643680 f   drop_down_menu.obj
 0002:0002f6f0       ??0DropDownWindow@@QAE@PAD0@Z 006436f0 f   drop_down_menu.obj
 0002:0002f770       ??_GDropDownWindow@@UAEPAXI@Z 00643770 f i drop_down_menu.obj
 0002:0002f770       ??_EDropDownWindow@@UAEPAXI@Z 00643770 f i drop_down_menu.obj
 0002:0002f7e0       ??1DropDownWindow@@UAE@XZ  006437e0 f i drop_down_menu.obj
 0002:0002f830       ?Update@DropDownWindow@@UAEXXZ 00643830 f   drop_down_menu.obj
 0002:0002f8b0       ?CreateDropDownWindow@DropDownWindow@@SAPAV1@PAD0@Z 006438b0 f   drop_down_menu.obj
 0002:0002f9e0       ?RemoveDropDownWindow@DropDownWindow@@SAXXZ 006439e0 f   drop_down_menu.obj
 0002:0002fa50       ??0DropDownMenu@@QAE@_N@Z  00643a50 f   drop_down_menu.obj
 0002:0002fb50       ??_GDropDownMenu@@UAEPAXI@Z 00643b50 f i drop_down_menu.obj
 0002:0002fb50       ??_EDropDownMenu@@UAEPAXI@Z 00643b50 f i drop_down_menu.obj
 0002:0002fbc0       ??1DropDownMenu@@UAE@XZ    00643bc0 f   drop_down_menu.obj
 0002:0002fc80       ?Empty@DropDownMenu@@QAEXXZ 00643c80 f   drop_down_menu.obj
 0002:0002fd10       ?AddOption@DropDownMenu@@QAEXPBDH@Z 00643d10 f   drop_down_menu.obj
 0002:0002ff30       ?SelectOption@DropDownMenu@@UAEXH@Z 00643f30 f   drop_down_menu.obj
 0002:00030050       ?SelectOption2@DropDownMenu@@QAE_NPBD@Z 00644050 f   drop_down_menu.obj
 0002:00030150       ?GetSelectionValue@DropDownMenu@@QAEHXZ 00644150 f   drop_down_menu.obj
 0002:000301f0       ?GetSelectionName@DropDownMenu@@QAEPBDXZ 006441f0 f   drop_down_menu.obj
 0002:00030290       ?RegisterInt@DropDownMenu@@QAEXPAH@Z 00644290 f   drop_down_menu.obj
 0002:00030310       ?FindValue@DropDownMenu@@QAEHH@Z 00644310 f   drop_down_menu.obj
 0002:000303c0       ?Render@DropDownMenu@@UAEXHH_N0@Z 006443c0 f   drop_down_menu.obj
 0002:00030510       ?CreateMenu@DropDownMenu@@QAEXXZ 00644510 f   drop_down_menu.obj
 0002:000309d0       ?RemoveMenu@DropDownMenu@@QAEXXZ 006449d0 f   drop_down_menu.obj
 0002:00030a20       ?MouseUp@DropDownMenu@@UAEXXZ 00644a20 f   drop_down_menu.obj
 0002:00030ab0       ?IsMenuVisible@DropDownMenu@@QAE_NXZ 00644ab0 f   drop_down_menu.obj
 0002:00030b10       ??0DropDownMenuOption@@QAE@XZ 00644b10 f   drop_down_menu.obj
 0002:00030ba0       ??_EDropDownMenuOption@@UAEPAXI@Z 00644ba0 f i drop_down_menu.obj
 0002:00030ba0       ??_GDropDownMenuOption@@UAEPAXI@Z 00644ba0 f i drop_down_menu.obj
 0002:00030c10       ??1DropDownMenuOption@@UAE@XZ 00644c10 f   drop_down_menu.obj
 0002:00030d00       ?SetParentMenu@DropDownMenuOption@@QAEXPAVEclWindow@@PAVDropDownMenu@@H@Z 00644d00 f   drop_down_menu.obj
 0002:00030e20       ?Render@DropDownMenuOption@@UAEXHH_N0@Z 00644e20 f   drop_down_menu.obj
 0002:00030f30       ?ceil@@YAMM@Z              00644f30 f i drop_down_menu.obj
 0002:00030f90       _ceilf                     00644f90 f i drop_down_menu.obj
 0002:00031000       ?MouseUp@DropDownMenuOption@@UAEXXZ 00645000 f   drop_down_menu.obj
 0002:000310e0       ?PutData@?$LList@PAVEclButton@@@@QAEXABQAVEclButton@@@Z 006450e0 f i drop_down_menu.obj
 0002:00031140       ??0?$LList@PAVDropDownOptionData@@@@QAE@XZ 00645140 f i drop_down_menu.obj
 0002:000311c0       ??1?$LList@PAVDropDownOptionData@@@@QAE@XZ 006451c0 f i drop_down_menu.obj
 0002:00031210       ?PutDataAtEnd@?$LList@PAVDropDownOptionData@@@@QAEXABQAVDropDownOptionData@@@Z 00645210 f i drop_down_menu.obj
 0002:000313a0       ?PutDataAtIndex@?$LList@PAVDropDownOptionData@@@@QAEXABQAVDropDownOptionData@@H@Z 006453a0 f i drop_down_menu.obj
 0002:000315a0       ?Size@?$LList@PAVDropDownOptionData@@@@QBEHXZ 006455a0 f i drop_down_menu.obj
 0002:000315e0       ?EmptyAndDelete@?$LList@PAVDropDownOptionData@@@@QAEXXZ 006455e0 f i drop_down_menu.obj
 0002:000316a0       ??A?$LList@PAVDropDownOptionData@@@@QAEPAVDropDownOptionData@@H@Z 006456a0 f i drop_down_menu.obj
 0002:00031700       ??_GDropDownOptionData@@QAEPAXI@Z 00645700 f i drop_down_menu.obj
 0002:00031770       ?PutDataAtEnd@?$LList@PAVEclButton@@@@QAEXABQAVEclButton@@@Z 00645770 f i drop_down_menu.obj
 0002:00031900       ?PutDataAtStart@?$LList@PAVDropDownOptionData@@@@QAEXABQAVDropDownOptionData@@@Z 00645900 f i drop_down_menu.obj
 0002:00031a90       ?GetData@?$LList@PAVDropDownOptionData@@@@QBEPAVDropDownOptionData@@H@Z 00645a90 f i drop_down_menu.obj
 0002:00031c30       ?RemoveData@?$LList@PAVDropDownOptionData@@@@QAEXH@Z 00645c30 f i drop_down_menu.obj
 0002:00031dc0       ?Empty@?$LList@PAVDropDownOptionData@@@@QAEXXZ 00645dc0 f i drop_down_menu.obj
 0002:00031ec0       ??0?$LListItem@PAVDropDownOptionData@@@@QAE@XZ 00645ec0 f i drop_down_menu.obj
 0002:00031f20       ??_G?$LListItem@PAVDropDownOptionData@@@@QAEPAXI@Z 00645f20 f i drop_down_menu.obj
 0002:00031f90       ??0?$LListItem@PAVEclButton@@@@QAE@XZ 00645f90 f i drop_down_menu.obj
 0002:00031ff0       ?ValidIndex@?$LList@PAVDropDownOptionData@@@@QBE_NH@Z 00645ff0 f i drop_down_menu.obj
 0002:00032060       ??1?$LListItem@PAVDropDownOptionData@@@@QAE@XZ 00646060 f i drop_down_menu.obj
 0002:000320a0       ??0MainEditWindow@@QAE@PAD@Z 006460a0 f   editor_window.obj
 0002:00032120       ??_GMainEditWindow@@UAEPAXI@Z 00646120 f i editor_window.obj
 0002:00032120       ??_EMainEditWindow@@UAEPAXI@Z 00646120 f i editor_window.obj
 0002:00032190       ??1MainEditWindow@@UAE@XZ  00646190 f i editor_window.obj
 0002:000321e0       ?Create@MainEditWindow@@UAEXXZ 006461e0 f   editor_window.obj
 0002:000328a0       ??0MainEditWindowButton@@QAE@H@Z 006468a0 f i editor_window.obj
 0002:00032910       ?MouseUp@MainEditWindowButton@@UAEXXZ 00646910 f i editor_window.obj
 0002:00032ab0       ?Render@MainEditWindowButton@@UAEXHH_N0@Z 00646ab0 f i editor_window.obj
 0002:00032b60       ??_EMainEditWindowButton@@UAEPAXI@Z 00646b60 f i editor_window.obj
 0002:00032b60       ??_GMainEditWindowButton@@UAEPAXI@Z 00646b60 f i editor_window.obj
 0002:00032bd0       ??1MainEditWindowButton@@UAE@XZ 00646bd0 f i editor_window.obj
 0002:00032c20       ??0FileDialog@@QAE@PBD000_N@Z 00646c20 f   filedialog.obj
 0002:00032e40       ??_GFileDialog@@UAEPAXI@Z  00646e40 f i filedialog.obj
 0002:00032e40       ??_EFileDialog@@UAEPAXI@Z  00646e40 f i filedialog.obj
 0002:00032eb0       ??1FileDialog@@UAE@XZ      00646eb0 f   filedialog.obj
 0002:000330a0       ??_G?$LList@PAD@@QAEPAXI@Z 006470a0 f i filedialog.obj
 0002:00033110       ??_GScrollBar@@QAEPAXI@Z   00647110 f i filedialog.obj
 0002:00033180       ?Create@FileDialog@@UAEXXZ 00647180 f   filedialog.obj
 0002:00033690       ??0FileButton@@QAE@H@Z     00647690 f i filedialog.obj
 0002:00033720       ?MouseUp@FileButton@@UAEXXZ 00647720 f i filedialog.obj
 0002:00033870       ?Render@FileButton@@UAEXHH_N0@Z 00647870 f i filedialog.obj
 0002:00033b40       ??_GFileButton@@UAEPAXI@Z  00647b40 f i filedialog.obj
 0002:00033b40       ??_EFileButton@@UAEPAXI@Z  00647b40 f i filedialog.obj
 0002:00033bb0       ??1FileButton@@UAE@XZ      00647bb0 f i filedialog.obj
 0002:00033c00       ??0SelectedButton@@QAE@XZ  00647c00 f i filedialog.obj
 0002:00033c60       ?Render@SelectedButton@@EAEXHH_N0@Z 00647c60 f i filedialog.obj
 0002:00033db0       ??0FileCancelButton@@QAE@XZ 00647db0 f i filedialog.obj
 0002:00033e10       ?MouseUp@FileCancelButton@@EAEXXZ 00647e10 f i filedialog.obj
 0002:00033e70       ??0FileOKButton@@QAE@XZ    00647e70 f i filedialog.obj
 0002:00033ed0       ?MouseUp@FileOKButton@@UAEXXZ 00647ed0 f i filedialog.obj
 0002:00034050       ??_ESelectedButton@@UAEPAXI@Z 00648050 f i filedialog.obj
 0002:00034050       ??_GSelectedButton@@UAEPAXI@Z 00648050 f i filedialog.obj
 0002:000340c0       ??_EFileCancelButton@@UAEPAXI@Z 006480c0 f i filedialog.obj
 0002:000340c0       ??_GFileCancelButton@@UAEPAXI@Z 006480c0 f i filedialog.obj
 0002:00034130       ??_EFileOKButton@@UAEPAXI@Z 00648130 f i filedialog.obj
 0002:00034130       ??_GFileOKButton@@UAEPAXI@Z 00648130 f i filedialog.obj
 0002:000341a0       ??1SelectedButton@@UAE@XZ  006481a0 f i filedialog.obj
 0002:000341f0       ??1FileCancelButton@@UAE@XZ 006481f0 f i filedialog.obj
 0002:00034240       ??1FileOKButton@@UAE@XZ    00648240 f i filedialog.obj
 0002:00034290       ?Remove@FileDialog@@UAEXXZ 00648290 f   filedialog.obj
 0002:000342f0       ?SetDirectory@FileDialog@@QAEXPBD@Z 006482f0 f   filedialog.obj
 0002:00034390       ?SetFilter@FileDialog@@QAEXPBD@Z 00648390 f   filedialog.obj
 0002:00034410       ?SetParent@FileDialog@@QAEXPBD@Z 00648410 f   filedialog.obj
 0002:00034490       ?FileSelected@FileDialog@@UAEXPAD@Z 00648490 f   filedialog.obj
 0002:000344d0       ?RefreshFileList@FileDialog@@QAEXXZ 006484d0 f   filedialog.obj
 0002:00034600       ?FileClicked@FileDialog@@QAEXH@Z 00648600 f   filedialog.obj
 0002:000346f0       ?IsFileSelected@FileDialog@@QAEHH@Z 006486f0 f   filedialog.obj
 0002:000347a0       ??0?$LList@H@@QAE@XZ       006487a0 f i filedialog.obj
 0002:00034820       ??1?$LList@H@@QAE@XZ       00648820 f i filedialog.obj
 0002:00034870       ?PutData@?$LList@H@@QAEXABH@Z 00648870 f i filedialog.obj
 0002:000348d0       ?RemoveData@?$LList@H@@QAEXH@Z 006488d0 f i filedialog.obj
 0002:00034a60       ?Size@?$LList@H@@QBEHXZ    00648a60 f i filedialog.obj
 0002:00034aa0       ?Empty@?$LList@H@@QAEXXZ   00648aa0 f i filedialog.obj
 0002:00034ba0       ??A?$LList@H@@QAEHH@Z      00648ba0 f i filedialog.obj
 0002:00034c00       ??1?$LList@PAD@@QAE@XZ     00648c00 f i filedialog.obj
 0002:00034c50       ?GetData@?$LList@PAD@@QBEPADH@Z 00648c50 f i filedialog.obj
 0002:00034df0       ?Size@?$LList@PAD@@QBEHXZ  00648df0 f i filedialog.obj
 0002:00034e30       ?ValidIndex@?$LList@PAD@@QBE_NH@Z 00648e30 f i filedialog.obj
 0002:00034ea0       ?EmptyAndDelete@?$LList@PAD@@QAEXXZ 00648ea0 f i filedialog.obj
 0002:00034f40       ??_G?$LListItem@H@@QAEPAXI@Z 00648f40 f i filedialog.obj
 0002:00034fb0       ?PutDataAtEnd@?$LList@H@@QAEXABH@Z 00648fb0 f i filedialog.obj
 0002:00035140       ?GetData@?$LList@H@@QBEHH@Z 00649140 f i filedialog.obj
 0002:000352e0       ??1?$LListItem@H@@QAE@XZ   006492e0 f i filedialog.obj
 0002:00035320       ?RemoveData@?$LList@PAD@@QAEXH@Z 00649320 f i filedialog.obj
 0002:000354b0       ?Empty@?$LList@PAD@@QAEXXZ 006494b0 f i filedialog.obj
 0002:000355b0       ??_G?$LListItem@PAD@@QAEPAXI@Z 006495b0 f i filedialog.obj
 0002:00035620       ?ValidIndex@?$LList@H@@QBE_NH@Z 00649620 f i filedialog.obj
 0002:00035690       ??0?$LListItem@H@@QAE@XZ   00649690 f i filedialog.obj
 0002:000356f0       ??1?$LListItem@PAD@@QAE@XZ 006496f0 f i filedialog.obj
 0002:00035730       ??0GlobalWorldEditorWindow@@QAE@XZ 00649730 f   globalworldeditor_window.obj
 0002:00035810       ??_GGlobalWorldEditorWindow@@UAEPAXI@Z 00649810 f i globalworldeditor_window.obj
 0002:00035810       ??_EGlobalWorldEditorWindow@@UAEPAXI@Z 00649810 f i globalworldeditor_window.obj
 0002:00035880       ??1GlobalWorldEditorWindow@@UAE@XZ 00649880 f i globalworldeditor_window.obj
 0002:000358d0       ?Create@GlobalWorldEditorWindow@@UAEXXZ 006498d0 f   globalworldeditor_window.obj
 0002:00035d80       ??0SetModeButton@@QAE@XZ   00649d80 f i globalworldeditor_window.obj
 0002:00035de0       ?MouseUp@SetModeButton@@UAEXXZ 00649de0 f i globalworldeditor_window.obj
 0002:00035e30       ?Render@SetModeButton@@UAEXHH_N0@Z 00649e30 f i globalworldeditor_window.obj
 0002:00035ed0       ??0NewLocationButton@@QAE@XZ 00649ed0 f i globalworldeditor_window.obj
 0002:00035f30       ?MouseUp@NewLocationButton@@EAEXXZ 00649f30 f i globalworldeditor_window.obj
 0002:00036310       ?Set@Vector3@@QAEXMMM@Z    0064a310 f i globalworldeditor_window.obj
 0002:00036370       ??0SaveLocationsButton@@QAE@XZ 0064a370 f i globalworldeditor_window.obj
 0002:000363d0       ?MouseUp@SaveLocationsButton@@EAEXXZ 0064a3d0 f i globalworldeditor_window.obj
 0002:00036540       ??_GSetModeButton@@UAEPAXI@Z 0064a540 f i globalworldeditor_window.obj
 0002:00036540       ??_ESetModeButton@@UAEPAXI@Z 0064a540 f i globalworldeditor_window.obj
 0002:000365b0       ??_ENewLocationButton@@UAEPAXI@Z 0064a5b0 f i globalworldeditor_window.obj
 0002:000365b0       ??_GNewLocationButton@@UAEPAXI@Z 0064a5b0 f i globalworldeditor_window.obj
 0002:00036620       ??_ESaveLocationsButton@@UAEPAXI@Z 0064a620 f i globalworldeditor_window.obj
 0002:00036620       ??_GSaveLocationsButton@@UAEPAXI@Z 0064a620 f i globalworldeditor_window.obj
 0002:00036690       ??1SetModeButton@@UAE@XZ   0064a690 f i globalworldeditor_window.obj
 0002:000366e0       ??1NewLocationButton@@UAE@XZ 0064a6e0 f i globalworldeditor_window.obj
 0002:00036730       ??1SaveLocationsButton@@UAE@XZ 0064a730 f i globalworldeditor_window.obj
 0002:00036780       ?Update@GlobalWorldEditorWindow@@UAEXXZ 0064a780 f   globalworldeditor_window.obj
 0002:00036800       ??0InputField@@QAE@XZ      0064a800 f   input_field.obj
 0002:00036900       ??_EInputField@@UAEPAXI@Z  0064a900 f i input_field.obj
 0002:00036900       ??_GInputField@@UAEPAXI@Z  0064a900 f i input_field.obj
 0002:00036970       ??1InputField@@UAE@XZ      0064a970 f i input_field.obj
 0002:000369c0       ?SetCallback@InputField@@QAEXPAVDarwiniaButton@@@Z 0064a9c0 f   input_field.obj
 0002:00036a10       ?Render@InputField@@UAEXHH_N0@Z 0064aa10 f   input_field.obj
 0002:000372c0       _fmodf                     0064b2c0 f i input_field.obj
 0002:00037330       ?MouseUp@InputField@@UAEXXZ 0064b330 f   input_field.obj
 0002:00037390       ?Keypress@InputField@@UAEXH_N00@Z 0064b390 f   input_field.obj
 0002:000377b0       ?RegisterChar@InputField@@QAEXPAE@Z 0064b7b0 f   input_field.obj
 0002:00037880       ?RegisterInt@InputField@@QAEXPAH@Z 0064b880 f   input_field.obj
 0002:00037950       ?RegisterFloat@InputField@@QAEXPAM@Z 0064b950 f   input_field.obj
 0002:00037a20       ?RegisterString@InputField@@QAEXPAD@Z 0064ba20 f   input_field.obj
 0002:00037af0       ?ClampToBounds@InputField@@QAEXXZ 0064baf0 f   input_field.obj
 0002:00037da0       ?Refresh@InputField@@QAEXXZ 0064bda0 f   input_field.obj
 0002:00037f40       ??0InputScroller@@QAE@XZ   0064bf40 f   input_field.obj
 0002:00037fd0       ??_GInputScroller@@UAEPAXI@Z 0064bfd0 f i input_field.obj
 0002:00037fd0       ??_EInputScroller@@UAEPAXI@Z 0064bfd0 f i input_field.obj
 0002:00038040       ??1InputScroller@@UAE@XZ   0064c040 f i input_field.obj
 0002:00038090       ?Render@InputScroller@@UAEXHH_N0@Z 0064c090 f   input_field.obj
 0002:000383e0       ?MouseDown@InputScroller@@UAEXXZ 0064c3e0 f   input_field.obj
 0002:00038460       ?MouseUp@InputScroller@@UAEXXZ 0064c460 f   input_field.obj
 0002:000384b0       ??0ColourWidget@@QAE@XZ    0064c4b0 f   input_field.obj
 0002:00038530       ??_EColourWidget@@UAEPAXI@Z 0064c530 f i input_field.obj
 0002:00038530       ??_GColourWidget@@UAEPAXI@Z 0064c530 f i input_field.obj
 0002:000385a0       ??1ColourWidget@@UAE@XZ    0064c5a0 f i input_field.obj
 0002:000385f0       ?Render@ColourWidget@@UAEXHH_N0@Z 0064c5f0 f   input_field.obj
 0002:00038740       ?glColor4ubv@@YAXPBE@Z     0064c740 f i input_field.obj
 0002:000387b0       ?MouseUp@ColourWidget@@UAEXXZ 0064c7b0 f   input_field.obj
 0002:00038910       ?SetValue@ColourWidget@@QAEXPAH@Z 0064c910 f   input_field.obj
 0002:00038960       ?SetCallback@ColourWidget@@QAEXPAVDarwiniaButton@@@Z 0064c960 f   input_field.obj
 0002:000389b0       ??0ColourWindow@@QAE@PAD@Z 0064c9b0 f   input_field.obj
 0002:00038a40       ??_EColourWindow@@UAEPAXI@Z 0064ca40 f i input_field.obj
 0002:00038a40       ??_GColourWindow@@UAEPAXI@Z 0064ca40 f i input_field.obj
 0002:00038ab0       ??1ColourWindow@@UAE@XZ    0064cab0 f i input_field.obj
 0002:00038b00       ?SetValue@ColourWindow@@QAEXPAH@Z 0064cb00 f   input_field.obj
 0002:00038b50       ?SetCallback@ColourWindow@@QAEXPAVDarwiniaButton@@@Z 0064cb50 f   input_field.obj
 0002:00038ba0       ?Create@ColourWindow@@UAEXXZ 0064cba0 f   input_field.obj
 0002:00038e10       ?Render@ColourWindow@@UAEX_N@Z 0064ce10 f   input_field.obj
 0002:00038f50       ??0InstantUnitEditWindow@@QAE@PAD@Z 0064cf50 f   instant_unit_window.obj
 0002:00038fc0       ??_EInstantUnitEditWindow@@UAEPAXI@Z 0064cfc0 f i instant_unit_window.obj
 0002:00038fc0       ??_GInstantUnitEditWindow@@UAEPAXI@Z 0064cfc0 f i instant_unit_window.obj
 0002:00039030       ??1InstantUnitEditWindow@@UAE@XZ 0064d030 f   instant_unit_window.obj
 0002:000390a0       ?Create@InstantUnitEditWindow@@UAEXXZ 0064d0a0 f   instant_unit_window.obj
 0002:00039610       ??0EditButton@@QAE@XZ      0064d610 f i instant_unit_window.obj
 0002:00039670       ?MouseUp@EditButton@@UAEXXZ 0064d670 f i instant_unit_window.obj
 0002:00039700       ??_EEditButton@@UAEPAXI@Z  0064d700 f i instant_unit_window.obj
 0002:00039700       ??_GEditButton@@UAEPAXI@Z  0064d700 f i instant_unit_window.obj
 0002:00039770       ??1EditButton@@UAE@XZ      0064d770 f i instant_unit_window.obj
 0002:000397c0       ??0TeamButton1@@QAE@H@Z    0064d7c0 f i instant_unit_window.obj
 0002:00039850       ?MouseUp@TeamButton1@@UAEXXZ 0064d850 f i instant_unit_window.obj
 0002:000398e0       ?Render@TeamButton1@@UAEXHH_N0@Z 0064d8e0 f i instant_unit_window.obj
 0002:00039ad0       ??_ETeamButton1@@UAEPAXI@Z 0064dad0 f i instant_unit_window.obj
 0002:00039ad0       ??_GTeamButton1@@UAEPAXI@Z 0064dad0 f i instant_unit_window.obj
 0002:00039b40       ??1TeamButton1@@UAE@XZ     0064db40 f i instant_unit_window.obj
 0002:00039b90       ??0DeleteInstantUnitButton@@QAE@XZ 0064db90 f i instant_unit_window.obj
 0002:00039c00       ?MouseUp@DeleteInstantUnitButton@@UAEXXZ 0064dc00 f i instant_unit_window.obj
 0002:00039d60       ??_GDeleteInstantUnitButton@@UAEPAXI@Z 0064dd60 f i instant_unit_window.obj
 0002:00039d60       ??_EDeleteInstantUnitButton@@UAEPAXI@Z 0064dd60 f i instant_unit_window.obj
 0002:00039dd0       ??1DeleteInstantUnitButton@@UAE@XZ 0064ddd0 f i instant_unit_window.obj
 0002:00039e20       ??0InstantUnitCreateWindow@@QAE@PAD@Z 0064de20 f   instant_unit_window.obj
 0002:00039e90       ??_GInstantUnitCreateWindow@@UAEPAXI@Z 0064de90 f i instant_unit_window.obj
 0002:00039e90       ??_EInstantUnitCreateWindow@@UAEPAXI@Z 0064de90 f i instant_unit_window.obj
 0002:00039f00       ??1InstantUnitCreateWindow@@UAE@XZ 0064df00 f   instant_unit_window.obj
 0002:00039fe0       ?Create@InstantUnitCreateWindow@@UAEXXZ 0064dfe0 f   instant_unit_window.obj
 0002:0003a200       ??0CreateButton@@QAE@XZ    0064e200 f i instant_unit_window.obj
 0002:0003a260       ?MouseUp@CreateButton@@UAEXXZ 0064e260 f i instant_unit_window.obj
 0002:0003a6f0       ??0InstantUnit@@QAE@XZ     0064e6f0 f i instant_unit_window.obj
 0002:0003a7c0       ??_GCreateButton@@UAEPAXI@Z 0064e7c0 f i instant_unit_window.obj
 0002:0003a7c0       ??_ECreateButton@@UAEPAXI@Z 0064e7c0 f i instant_unit_window.obj
 0002:0003a830       ??1CreateButton@@UAE@XZ    0064e830 f i instant_unit_window.obj
 0002:0003a880       ?PutData@?$LList@PAVInstantUnit@@@@QAEXABQAVInstantUnit@@@Z 0064e880 f i instant_unit_window.obj
 0002:0003a8e0       ?GetData@?$LList@PAVInstantUnit@@@@QBEPAVInstantUnit@@H@Z 0064e8e0 f i instant_unit_window.obj
 0002:0003aa80       ?RemoveData@?$LList@PAVInstantUnit@@@@QAEXH@Z 0064ea80 f i instant_unit_window.obj
 0002:0003ac10       ?Size@?$LList@PAVInstantUnit@@@@QBEHXZ 0064ec10 f i instant_unit_window.obj
 0002:0003ac50       ??_G?$LListItem@PAVInstantUnit@@@@QAEPAXI@Z 0064ec50 f i instant_unit_window.obj
 0002:0003acc0       ?PutDataAtEnd@?$LList@PAVInstantUnit@@@@QAEXABQAVInstantUnit@@@Z 0064ecc0 f i instant_unit_window.obj
 0002:0003ae50       ?ValidIndex@?$LList@PAVInstantUnit@@@@QBE_NH@Z 0064ee50 f i instant_unit_window.obj
 0002:0003aec0       ??1?$LListItem@PAVInstantUnit@@@@QAE@XZ 0064eec0 f i instant_unit_window.obj
 0002:0003af00       ??0?$LListItem@PAVInstantUnit@@@@QAE@XZ 0064ef00 f i instant_unit_window.obj
 0002:0003af60       ??0LandscapeTileEditWindow@@QAE@PADH@Z 0064ef60 f   landscape_window.obj
 0002:0003afe0       ??_GLandscapeTileEditWindow@@UAEPAXI@Z 0064efe0 f i landscape_window.obj
 0002:0003afe0       ??_ELandscapeTileEditWindow@@UAEPAXI@Z 0064efe0 f i landscape_window.obj
 0002:0003b050       ??1LandscapeTileEditWindow@@UAE@XZ 0064f050 f   landscape_window.obj
 0002:0003b0c0       ?Create@LandscapeTileEditWindow@@UAEXXZ 0064f0c0 f   landscape_window.obj
 0002:0003bae0       _floorf                    0064fae0 f i landscape_window.obj
 0002:0003bb50       ??0LandscapeTileButton@@QAE@PAVLandscapeTile@@@Z 0064fb50 f i landscape_window.obj
 0002:0003bbc0       ?MouseUp@LandscapeTileButton@@UAEXXZ 0064fbc0 f i landscape_window.obj
 0002:0003c2f0       ??_ELandscapeTileButton@@UAEPAXI@Z 006502f0 f i landscape_window.obj
 0002:0003c2f0       ??_GLandscapeTileButton@@UAEPAXI@Z 006502f0 f i landscape_window.obj
 0002:0003c360       ??1LandscapeTileButton@@UAE@XZ 00650360 f i landscape_window.obj
 0002:0003c3b0       ??0LandscapeFlattenAreaEditWindow@@QAE@PADH@Z 006503b0 f   landscape_window.obj
 0002:0003c430       ??_GLandscapeFlattenAreaEditWindow@@UAEPAXI@Z 00650430 f i landscape_window.obj
 0002:0003c430       ??_ELandscapeFlattenAreaEditWindow@@UAEPAXI@Z 00650430 f i landscape_window.obj
 0002:0003c4a0       ??1LandscapeFlattenAreaEditWindow@@UAE@XZ 006504a0 f   landscape_window.obj
 0002:0003c510       ?Create@LandscapeFlattenAreaEditWindow@@UAEXXZ 00650510 f   landscape_window.obj
 0002:0003c890       ??0LandscapeFlattenAreaDeleteButton@@QAE@H@Z 00650890 f i landscape_window.obj
 0002:0003c900       ?MouseUp@LandscapeFlattenAreaDeleteButton@@UAEXXZ 00650900 f i landscape_window.obj
 0002:0003c9a0       ??_ELandscapeFlattenAreaDeleteButton@@UAEPAXI@Z 006509a0 f i landscape_window.obj
 0002:0003c9a0       ??_GLandscapeFlattenAreaDeleteButton@@UAEPAXI@Z 006509a0 f i landscape_window.obj
 0002:0003ca10       ??1LandscapeFlattenAreaDeleteButton@@UAE@XZ 00650a10 f i landscape_window.obj
 0002:0003ca60       ??0LandscapeEditWindow@@QAE@PAD@Z 00650a60 f   landscape_window.obj
 0002:0003cad0       ??_ELandscapeEditWindow@@UAEPAXI@Z 00650ad0 f i landscape_window.obj
 0002:0003cad0       ??_GLandscapeEditWindow@@UAEPAXI@Z 00650ad0 f i landscape_window.obj
 0002:0003cb40       ??1LandscapeEditWindow@@UAE@XZ 00650b40 f   landscape_window.obj
 0002:0003cc40       ?Create@LandscapeEditWindow@@UAEXXZ 00650c40 f   landscape_window.obj
 0002:0003d390       ??0NewTileButton@@QAE@XZ   00651390 f i landscape_window.obj
 0002:0003d3f0       ?MouseUp@NewTileButton@@UAEXXZ 006513f0 f i landscape_window.obj
 0002:0003d6d0       ??0NewFlattenAreaButton@@QAE@XZ 006516d0 f i landscape_window.obj
 0002:0003d730       ?MouseUp@NewFlattenAreaButton@@UAEXXZ 00651730 f i landscape_window.obj
 0002:0003d9b0       ??0LandscapeFlattenArea@@QAE@XZ 006519b0 f i landscape_window.obj
 0002:0003da10       ??0ScaleLandscapeButton@@QAE@XZ 00651a10 f i landscape_window.obj
 0002:0003da70       ?MouseUp@ScaleLandscapeButton@@UAEXXZ 00651a70 f i landscape_window.obj
 0002:0003ddb0       ??_GNewTileButton@@UAEPAXI@Z 00651db0 f i landscape_window.obj
 0002:0003ddb0       ??_ENewTileButton@@UAEPAXI@Z 00651db0 f i landscape_window.obj
 0002:0003de20       ??_GNewFlattenAreaButton@@UAEPAXI@Z 00651e20 f i landscape_window.obj
 0002:0003de20       ??_ENewFlattenAreaButton@@UAEPAXI@Z 00651e20 f i landscape_window.obj
 0002:0003de90       ??_EScaleLandscapeButton@@UAEPAXI@Z 00651e90 f i landscape_window.obj
 0002:0003de90       ??_GScaleLandscapeButton@@UAEPAXI@Z 00651e90 f i landscape_window.obj
 0002:0003df00       ??1NewTileButton@@UAE@XZ   00651f00 f i landscape_window.obj
 0002:0003df50       ??1NewFlattenAreaButton@@UAE@XZ 00651f50 f i landscape_window.obj
 0002:0003dfa0       ??1ScaleLandscapeButton@@UAE@XZ 00651fa0 f i landscape_window.obj
 0002:0003dff0       ??0LandscapeGuideGridWindow@@QAE@PADH@Z 00651ff0 f   landscape_window.obj
 0002:0003e090       ??_GLandscapeGuideGridWindow@@UAEPAXI@Z 00652090 f i landscape_window.obj
 0002:0003e090       ??_ELandscapeGuideGridWindow@@UAEPAXI@Z 00652090 f i landscape_window.obj
 0002:0003e100       ??1LandscapeGuideGridWindow@@UAE@XZ 00652100 f   landscape_window.obj
 0002:0003e160       ?Create@LandscapeGuideGridWindow@@UAEXXZ 00652160 f   landscape_window.obj
 0002:0003e7f0       ??0GuideGridTool@@QAE@H@Z  006527f0 f i landscape_window.obj
 0002:0003e860       ?Render@GuideGridTool@@UAEXHH_N0@Z 00652860 f i landscape_window.obj
 0002:0003e910       ?MouseUp@GuideGridTool@@UAEXXZ 00652910 f i landscape_window.obj
 0002:0003e970       ??_EGuideGridTool@@UAEPAXI@Z 00652970 f i landscape_window.obj
 0002:0003e970       ??_GGuideGridTool@@UAEPAXI@Z 00652970 f i landscape_window.obj
 0002:0003e9e0       ??1GuideGridTool@@UAE@XZ   006529e0 f i landscape_window.obj
 0002:0003ea30       ??0GuideGridButton@@QAE@XZ 00652a30 f i landscape_window.obj
 0002:0003ea90       ?MouseUp@GuideGridButton@@UAEXXZ 00652a90 f i landscape_window.obj
 0002:0003eba0       ??0GuideGrid@@QAE@XZ       00652ba0 f i landscape_window.obj
 0002:0003ec00       ?Render@GuideGrid@@UAEXHH_N0@Z 00652c00 f i landscape_window.obj
 0002:0003ed00       ?RenderBorder@GuideGrid@@QAEXHH_N0@Z 00652d00 f i landscape_window.obj
 0002:0003ee50       ?glColor3f@@YAXMMM@Z       00652e50 f i landscape_window.obj
 0002:0003eec0       ?RenderGrid@GuideGrid@@QAEXHH_N0@Z 00652ec0 f i landscape_window.obj
 0002:0003f100       ?RenderColours@GuideGrid@@QAEXHH_N0@Z 00653100 f i landscape_window.obj
 0002:0003f340       ?RenderMouse@GuideGrid@@QAEXHH_N0@Z 00653340 f i landscape_window.obj
 0002:0003f5b0       ?HandleMouseInput@GuideGrid@@QAEXXZ 006535b0 f i landscape_window.obj
 0002:0003f9e0       ?GetToolEffect@GuideGrid@@QAEMHH@Z 006539e0 f i landscape_window.obj
 0002:0003fc00       _sqrtf                     00653c00 f i landscape_window.obj
 0002:0003fc70       ??_EGuideGridButton@@UAEPAXI@Z 00653c70 f i landscape_window.obj
 0002:0003fc70       ??_GGuideGridButton@@UAEPAXI@Z 00653c70 f i landscape_window.obj
 0002:0003fce0       ??_EGuideGrid@@UAEPAXI@Z   00653ce0 f i landscape_window.obj
 0002:0003fce0       ??_GGuideGrid@@UAEPAXI@Z   00653ce0 f i landscape_window.obj
 0002:0003fd50       ??1GuideGridButton@@UAE@XZ 00653d50 f i landscape_window.obj
 0002:0003fda0       ??1GuideGrid@@UAE@XZ       00653da0 f i landscape_window.obj
 0002:0003fdf0       ?PutDataAtEnd@?$LList@PAVLandscapeTile@@@@QAEXABQAVLandscapeTile@@@Z 00653df0 f i landscape_window.obj
 0002:0003ff80       ?GetData@?$LList@PAVLandscapeTile@@@@QBEPAVLandscapeTile@@H@Z 00653f80 f i landscape_window.obj
 0002:00040120       ?Size@?$LList@PAVLandscapeTile@@@@QBEHXZ 00654120 f i landscape_window.obj
 0002:00040160       ??A?$LList@PAVLandscapeTile@@@@QAEPAVLandscapeTile@@H@Z 00654160 f i landscape_window.obj
 0002:000401c0       ?PutDataAtEnd@?$LList@PAVLandscapeFlattenArea@@@@QAEXABQAVLandscapeFlattenArea@@@Z 006541c0 f i landscape_window.obj
 0002:00040350       ?GetData@?$LList@PAVLandscapeFlattenArea@@@@QBEPAVLandscapeFlattenArea@@H@Z 00654350 f i landscape_window.obj
 0002:000404f0       ?RemoveData@?$LList@PAVLandscapeFlattenArea@@@@QAEXH@Z 006544f0 f i landscape_window.obj
 0002:00040680       ?Size@?$LList@PAVBuilding@@@@QBEHXZ 00654680 f i landscape_window.obj
 0002:000406c0       ??A?$LList@PAVBuilding@@@@QAEPAVBuilding@@H@Z 006546c0 f i landscape_window.obj
 0002:00040720       ??A?$LList@PAVInstantUnit@@@@QAEPAVInstantUnit@@H@Z 00654720 f i landscape_window.obj
 0002:00040780       ?GetData@?$Array2D@E@@QBEABEGG@Z 00654780 f i landscape_window.obj
 0002:00040810       ?PutData@?$Array2D@E@@QAEXGGABE@Z 00654810 f i landscape_window.obj
 0002:000408a0       ?GetNumColumns@?$Array2D@E@@QBEGXZ 006548a0 f i landscape_window.obj
 0002:000408e0       ??_G?$LListItem@PAVLandscapeFlattenArea@@@@QAEPAXI@Z 006548e0 f i landscape_window.obj
 0002:00040950       ?ValidIndex@?$LList@PAVLandscapeTile@@@@QBE_NH@Z 00654950 f i landscape_window.obj
 0002:000409c0       ??0?$LListItem@PAVLandscapeTile@@@@QAE@XZ 006549c0 f i landscape_window.obj
 0002:00040a20       ?ValidIndex@?$LList@PAVLandscapeFlattenArea@@@@QBE_NH@Z 00654a20 f i landscape_window.obj
 0002:00040a90       ??0?$LListItem@PAVLandscapeFlattenArea@@@@QAE@XZ 00654a90 f i landscape_window.obj
 0002:00040af0       ??1?$LListItem@PAVLandscapeFlattenArea@@@@QAE@XZ 00654af0 f i landscape_window.obj
 0002:00040b30       ?GetData@?$LList@PAVBuilding@@@@QBEPAVBuilding@@H@Z 00654b30 f i landscape_window.obj
 0002:00040cd0       ?ValidIndex@?$LList@PAVBuilding@@@@QBE_NH@Z 00654cd0 f i landscape_window.obj
 0002:00040d40       ??0LightsEditWindow@@QAE@PAD@Z 00654d40 f   lights_window.obj
 0002:00040db0       ??_GLightsEditWindow@@UAEPAXI@Z 00654db0 f i lights_window.obj
 0002:00040db0       ??_ELightsEditWindow@@UAEPAXI@Z 00654db0 f i lights_window.obj
 0002:00040e20       ??1LightsEditWindow@@UAE@XZ 00654e20 f   lights_window.obj
 0002:00040ee0       ?Create@LightsEditWindow@@UAEXXZ 00654ee0 f   lights_window.obj
 0002:000418a0       ??0LightButton@@QAE@H@Z    006558a0 f i lights_window.obj
 0002:00041910       ?MouseUp@LightButton@@UAEXXZ 00655910 f i lights_window.obj
 0002:000419a0       ?Render@LightButton@@UAEXHH_N0@Z 006559a0 f i lights_window.obj
 0002:00041a40       ??_GLightButton@@UAEPAXI@Z 00655a40 f i lights_window.obj
 0002:00041a40       ??_ELightButton@@UAEPAXI@Z 00655a40 f i lights_window.obj
 0002:00041ab0       ??1LightButton@@UAE@XZ     00655ab0 f i lights_window.obj
 0002:00041b00       ??0LightGammaButton@@QAE@H@Z 00655b00 f i lights_window.obj
 0002:00041b70       ?MouseUp@LightGammaButton@@UAEXXZ 00655b70 f i lights_window.obj
 0002:00041c30       ??_GLightGammaButton@@UAEPAXI@Z 00655c30 f i lights_window.obj
 0002:00041c30       ??_ELightGammaButton@@UAEPAXI@Z 00655c30 f i lights_window.obj
 0002:00041ca0       ??1LightGammaButton@@UAE@XZ 00655ca0 f i lights_window.obj
 0002:00041cf0       ??0NewLightButton@@QAE@XZ  00655cf0 f i lights_window.obj
 0002:00041d50       ?MouseUp@NewLightButton@@EAEXXZ 00655d50 f i lights_window.obj
 0002:00041ed0       ??0LabelButton@@QAE@XZ     00655ed0 f i lights_window.obj
 0002:00041f30       ??_ENewLightButton@@UAEPAXI@Z 00655f30 f i lights_window.obj
 0002:00041f30       ??_GNewLightButton@@UAEPAXI@Z 00655f30 f i lights_window.obj
 0002:00041fa0       ??_ELabelButton@@UAEPAXI@Z 00655fa0 f i lights_window.obj
 0002:00041fa0       ??_GLabelButton@@UAEPAXI@Z 00655fa0 f i lights_window.obj
 0002:00042010       ??1NewLightButton@@UAE@XZ  00656010 f i lights_window.obj
 0002:00042060       ??1LabelButton@@UAE@XZ     00656060 f i lights_window.obj
 0002:000420b0       ?GetData@?$DArray@PAVLight@@@@QBEPAVLight@@H@Z 006560b0 f i lights_window.obj
 0002:000421d0       ?Size@?$DArray@PAVLight@@@@QBEHXZ 006561d0 f i lights_window.obj
 0002:00042210       ??A?$DArray@PAVLight@@@@QAEAAPAVLight@@H@Z 00656210 f i lights_window.obj
 0002:00042330       ?PutData@?$FastDArray@PAVLight@@@@QAEHABQAVLight@@@Z 00656330 f i lights_window.obj
 0002:00042490       ?Grow@?$FastDArray@PAVLight@@@@IAEXXZ 00656490 f i lights_window.obj
 0002:00042530       ?SetSize@?$FastDArray@PAVLight@@@@QAEXH@Z 00656530 f i lights_window.obj
 0002:000429c0       ?RebuildFreeList@?$FastDArray@PAVLight@@@@IAEXXZ 006569c0 f i lights_window.obj
 0002:00042b30       ?RebuildNumUsed@?$FastDArray@PAVLight@@@@IAEXXZ 00656b30 f i lights_window.obj
 0002:00042bd0       ??0MainMenuWindow@@QAE@XZ  00656bd0 f   mainmenus.obj
 0002:00042d20       ??_GMainMenuWindow@@UAEPAXI@Z 00656d20 f i mainmenus.obj
 0002:00042d20       ??_EMainMenuWindow@@UAEPAXI@Z 00656d20 f i mainmenus.obj
 0002:00042d90       ??1MainMenuWindow@@UAE@XZ  00656d90 f i mainmenus.obj
 0002:00042de0       ?Render@MainMenuWindow@@UAEX_N@Z 00656de0 f   mainmenus.obj
 0002:00042e40       ??0OptionsMenuWindow@@QAE@XZ 00656e40 f   mainmenus.obj
 0002:00042f40       ??_EOptionsMenuWindow@@UAEPAXI@Z 00656f40 f i mainmenus.obj
 0002:00042f40       ??_GOptionsMenuWindow@@UAEPAXI@Z 00656f40 f i mainmenus.obj
 0002:00042fb0       ??1OptionsMenuWindow@@UAE@XZ 00656fb0 f i mainmenus.obj
 0002:00043000       ?Create@OptionsMenuWindow@@UAEXXZ 00657000 f   mainmenus.obj
 0002:000437e0       ??0ScreenOptionsButton@@QAE@XZ 006577e0 f i mainmenus.obj
 0002:00043840       ?MouseUp@ScreenOptionsButton@@EAEXXZ 00657840 f i mainmenus.obj
 0002:00043970       ??0GraphicsOptionsButton@@QAE@XZ 00657970 f i mainmenus.obj
 0002:000439d0       ?MouseUp@GraphicsOptionsButton@@EAEXXZ 006579d0 f i mainmenus.obj
 0002:00043b00       ??0SoundOptionsButton@@QAE@XZ 00657b00 f i mainmenus.obj
 0002:00043b60       ?MouseUp@SoundOptionsButton@@EAEXXZ 00657b60 f i mainmenus.obj
 0002:00043c90       ??0KeybindingsOptionsButton@@QAE@XZ 00657c90 f i mainmenus.obj
 0002:00043cf0       ?MouseUp@KeybindingsOptionsButton@@EAEXXZ 00657cf0 f i mainmenus.obj
 0002:00043e20       ??0OtherOptionsButton@@QAE@XZ 00657e20 f i mainmenus.obj
 0002:00043e80       ?MouseUp@OtherOptionsButton@@EAEXXZ 00657e80 f i mainmenus.obj
 0002:00043fb0       ??_EScreenOptionsButton@@UAEPAXI@Z 00657fb0 f i mainmenus.obj
 0002:00043fb0       ??_GScreenOptionsButton@@UAEPAXI@Z 00657fb0 f i mainmenus.obj
 0002:00044020       ??_EGraphicsOptionsButton@@UAEPAXI@Z 00658020 f i mainmenus.obj
 0002:00044020       ??_GGraphicsOptionsButton@@UAEPAXI@Z 00658020 f i mainmenus.obj
 0002:00044090       ??_ESoundOptionsButton@@UAEPAXI@Z 00658090 f i mainmenus.obj
 0002:00044090       ??_GSoundOptionsButton@@UAEPAXI@Z 00658090 f i mainmenus.obj
 0002:00044100       ??_EKeybindingsOptionsButton@@UAEPAXI@Z 00658100 f i mainmenus.obj
 0002:00044100       ??_GKeybindingsOptionsButton@@UAEPAXI@Z 00658100 f i mainmenus.obj
 0002:00044170       ??_EOtherOptionsButton@@UAEPAXI@Z 00658170 f i mainmenus.obj
 0002:00044170       ??_GOtherOptionsButton@@UAEPAXI@Z 00658170 f i mainmenus.obj
 0002:000441e0       ??1ScreenOptionsButton@@UAE@XZ 006581e0 f i mainmenus.obj
 0002:00044230       ??1GraphicsOptionsButton@@UAE@XZ 00658230 f i mainmenus.obj
 0002:00044280       ??1SoundOptionsButton@@UAE@XZ 00658280 f i mainmenus.obj
 0002:000442d0       ??1KeybindingsOptionsButton@@UAE@XZ 006582d0 f i mainmenus.obj
 0002:00044320       ??1OtherOptionsButton@@UAE@XZ 00658320 f i mainmenus.obj
 0002:00044370       ??0LocationWindow@@QAE@XZ  00658370 f   mainmenus.obj
 0002:000444c0       ??_GLocationWindow@@UAEPAXI@Z 006584c0 f i mainmenus.obj
 0002:000444c0       ??_ELocationWindow@@UAEPAXI@Z 006584c0 f i mainmenus.obj
 0002:00044530       ??1LocationWindow@@UAE@XZ  00658530 f i mainmenus.obj
 0002:00044580       ?Create@LocationWindow@@UAEXXZ 00658580 f   mainmenus.obj
 0002:00045210       ??0ResetLevelButton@@QAE@XZ 00659210 f i mainmenus.obj
 0002:00045270       ?MouseUp@ResetLevelButton@@EAEXXZ 00659270 f i mainmenus.obj
 0002:00045370       ??0GameExitButton@@QAE@XZ  00659370 f i mainmenus.obj
 0002:000453d0       ??0ExitLevelButton@@QAE@XZ 006593d0 f i mainmenus.obj
 0002:00045430       ?MouseUp@ExitLevelButton@@EAEXXZ 00659430 f i mainmenus.obj
 0002:00045580       ??0WebsiteButton@@QAE@XZ   00659580 f i mainmenus.obj
 0002:000455e0       ?MouseUp@WebsiteButton@@UAEXXZ 006595e0 f i mainmenus.obj
 0002:00045870       ??0OptionsButton@@QAE@XZ   00659870 f i mainmenus.obj
 0002:000458d0       ?MouseUp@OptionsButton@@EAEXXZ 006598d0 f i mainmenus.obj
 0002:00045a00       ??0SkipPrologueWindowButton@@QAE@XZ 00659a00 f i mainmenus.obj
 0002:00045a60       ?MouseUp@SkipPrologueWindowButton@@EAEXXZ 00659a60 f i mainmenus.obj
 0002:00045b90       ??_EResetLevelButton@@UAEPAXI@Z 00659b90 f i mainmenus.obj
 0002:00045b90       ??_GResetLevelButton@@UAEPAXI@Z 00659b90 f i mainmenus.obj
 0002:00045c00       ??_EGameExitButton@@UAEPAXI@Z 00659c00 f i mainmenus.obj
 0002:00045c00       ??_GGameExitButton@@UAEPAXI@Z 00659c00 f i mainmenus.obj
 0002:00045c70       ??_EExitLevelButton@@UAEPAXI@Z 00659c70 f i mainmenus.obj
 0002:00045c70       ??_GExitLevelButton@@UAEPAXI@Z 00659c70 f i mainmenus.obj
 0002:00045ce0       ??_EWebsiteButton@@UAEPAXI@Z 00659ce0 f i mainmenus.obj
 0002:00045ce0       ??_GWebsiteButton@@UAEPAXI@Z 00659ce0 f i mainmenus.obj
 0002:00045d50       ??_EOptionsButton@@UAEPAXI@Z 00659d50 f i mainmenus.obj
 0002:00045d50       ??_GOptionsButton@@UAEPAXI@Z 00659d50 f i mainmenus.obj
 0002:00045dc0       ??_ESkipPrologueWindowButton@@UAEPAXI@Z 00659dc0 f i mainmenus.obj
 0002:00045dc0       ??_GSkipPrologueWindowButton@@UAEPAXI@Z 00659dc0 f i mainmenus.obj
 0002:00045e30       ??1ResetLevelButton@@UAE@XZ 00659e30 f i mainmenus.obj
 0002:00045e80       ??1GameExitButton@@UAE@XZ  00659e80 f i mainmenus.obj
 0002:00045ed0       ??1ExitLevelButton@@UAE@XZ 00659ed0 f i mainmenus.obj
 0002:00045f20       ??1WebsiteButton@@UAE@XZ   00659f20 f i mainmenus.obj
 0002:00045f70       ??1OptionsButton@@UAE@XZ   00659f70 f i mainmenus.obj
 0002:00045fc0       ??1SkipPrologueWindowButton@@UAE@XZ 00659fc0 f i mainmenus.obj
 0002:00046010       ??0ResetLocationWindow@@QAE@XZ 0065a010 f   mainmenus.obj
 0002:000460f0       ??_GResetLocationWindow@@UAEPAXI@Z 0065a0f0 f i mainmenus.obj
 0002:000460f0       ??_EResetLocationWindow@@UAEPAXI@Z 0065a0f0 f i mainmenus.obj
 0002:00046160       ??1ResetLocationWindow@@UAE@XZ 0065a160 f i mainmenus.obj
 0002:000461b0       ?Create@ResetLocationWindow@@UAEXXZ 0065a1b0 f   mainmenus.obj
 0002:000465b0       ??0InvertedBox@@QAE@XZ     0065a5b0 f i mainmenus.obj
 0002:00046610       ??0ResetLocationButton@@QAE@XZ 0065a610 f i mainmenus.obj
 0002:00046670       ?MouseUp@ResetLocationButton@@EAEXXZ 0065a670 f i mainmenus.obj
 0002:00046720       ??_EInvertedBox@@UAEPAXI@Z 0065a720 f i mainmenus.obj
 0002:00046720       ??_GInvertedBox@@UAEPAXI@Z 0065a720 f i mainmenus.obj
 0002:00046790       ??_GResetLocationButton@@UAEPAXI@Z 0065a790 f i mainmenus.obj
 0002:00046790       ??_EResetLocationButton@@UAEPAXI@Z 0065a790 f i mainmenus.obj
 0002:00046800       ??1InvertedBox@@UAE@XZ     0065a800 f i mainmenus.obj
 0002:00046850       ??1ResetLocationButton@@UAE@XZ 0065a850 f i mainmenus.obj
 0002:000468a0       ?Render@ResetLocationWindow@@UAEX_N@Z 0065a8a0 f   mainmenus.obj
 0002:00046bc0       ?Create@MainMenuWindow@@UAEXXZ 0065abc0 f   mainmenus.obj
 0002:00047540       ??0MainMenuUserProfileButton@@QAE@XZ 0065b540 f i mainmenus.obj
 0002:000475a0       ?MouseUp@MainMenuUserProfileButton@@EAEXXZ 0065b5a0 f i mainmenus.obj
 0002:000476d0       ??0ModsButton@@QAE@XZ      0065b6d0 f i mainmenus.obj
 0002:00047730       ?MouseUp@ModsButton@@EAEXXZ 0065b730 f i mainmenus.obj
 0002:00047860       ??0PlayPrologueWindowButton@@QAE@XZ 0065b860 f i mainmenus.obj
 0002:000478c0       ?MouseUp@PlayPrologueWindowButton@@EAEXXZ 0065b8c0 f i mainmenus.obj
 0002:000479f0       ??_EMainMenuUserProfileButton@@UAEPAXI@Z 0065b9f0 f i mainmenus.obj
 0002:000479f0       ??_GMainMenuUserProfileButton@@UAEPAXI@Z 0065b9f0 f i mainmenus.obj
 0002:00047a60       ??_GModsButton@@UAEPAXI@Z  0065ba60 f i mainmenus.obj
 0002:00047a60       ??_EModsButton@@UAEPAXI@Z  0065ba60 f i mainmenus.obj
 0002:00047ad0       ??_EPlayPrologueWindowButton@@UAEPAXI@Z 0065bad0 f i mainmenus.obj
 0002:00047ad0       ??_GPlayPrologueWindowButton@@UAEPAXI@Z 0065bad0 f i mainmenus.obj
 0002:00047b40       ??1MainMenuUserProfileButton@@UAE@XZ 0065bb40 f i mainmenus.obj
 0002:00047b90       ??1ModsButton@@UAE@XZ      0065bb90 f i mainmenus.obj
 0002:00047be0       ??1PlayPrologueWindowButton@@UAE@XZ 0065bbe0 f i mainmenus.obj
 0002:00047c30       ??0AboutDarwiniaWindow@@QAE@XZ 0065bc30 f   mainmenus.obj
 0002:00047d10       ??_GAboutDarwiniaWindow@@UAEPAXI@Z 0065bd10 f i mainmenus.obj
 0002:00047d10       ??_EAboutDarwiniaWindow@@UAEPAXI@Z 0065bd10 f i mainmenus.obj
 0002:00047d80       ??1AboutDarwiniaWindow@@UAE@XZ 0065bd80 f i mainmenus.obj
 0002:00047dd0       ?Create@AboutDarwiniaWindow@@UAEXXZ 0065bdd0 f   mainmenus.obj
 0002:00047fc0       ?Render@AboutDarwiniaWindow@@UAEX_N@Z 0065bfc0 f   mainmenus.obj
 0002:00048540       ??0SkipPrologueWindow@@QAE@XZ 0065c540 f   mainmenus.obj
 0002:00048620       ??_ESkipPrologueWindow@@UAEPAXI@Z 0065c620 f i mainmenus.obj
 0002:00048620       ??_GSkipPrologueWindow@@UAEPAXI@Z 0065c620 f i mainmenus.obj
 0002:00048690       ??1SkipPrologueWindow@@UAE@XZ 0065c690 f i mainmenus.obj
 0002:000486e0       ?Create@SkipPrologueWindow@@UAEXXZ 0065c6e0 f   mainmenus.obj
 0002:00048a00       ??0SkipPrologueButton@@QAE@XZ 0065ca00 f i mainmenus.obj
 0002:00048a60       ?MouseUp@SkipPrologueButton@@EAEXXZ 0065ca60 f i mainmenus.obj
 0002:00048b10       ??_ESkipPrologueButton@@UAEPAXI@Z 0065cb10 f i mainmenus.obj
 0002:00048b10       ??_GSkipPrologueButton@@UAEPAXI@Z 0065cb10 f i mainmenus.obj
 0002:00048b80       ??1SkipPrologueButton@@UAE@XZ 0065cb80 f i mainmenus.obj
 0002:00048bd0       ?Render@SkipPrologueWindow@@UAEX_N@Z 0065cbd0 f   mainmenus.obj
 0002:000490e0       ??0PlayPrologueWindow@@QAE@XZ 0065d0e0 f   mainmenus.obj
 0002:000491c0       ??_GPlayPrologueWindow@@UAEPAXI@Z 0065d1c0 f i mainmenus.obj
 0002:000491c0       ??_EPlayPrologueWindow@@UAEPAXI@Z 0065d1c0 f i mainmenus.obj
 0002:00049230       ??1PlayPrologueWindow@@UAE@XZ 0065d230 f i mainmenus.obj
 0002:00049280       ?Create@PlayPrologueWindow@@UAEXXZ 0065d280 f   mainmenus.obj
 0002:000495a0       ??0PlayPrologueButton@@QAE@XZ 0065d5a0 f i mainmenus.obj
 0002:00049600       ?MouseUp@PlayPrologueButton@@EAEXXZ 0065d600 f i mainmenus.obj
 0002:000496b0       ??_EPlayPrologueButton@@UAEPAXI@Z 0065d6b0 f i mainmenus.obj
 0002:000496b0       ??_GPlayPrologueButton@@UAEPAXI@Z 0065d6b0 f i mainmenus.obj
 0002:00049720       ??1PlayPrologueButton@@UAE@XZ 0065d720 f i mainmenus.obj
 0002:00049770       ?Render@PlayPrologueWindow@@UAEX_N@Z 0065d770 f   mainmenus.obj
 0002:00049c80       ?Size@?$LList@PAVEclWindow@@@@QBEHXZ 0065dc80 f i mainmenus.obj
 0002:00049cc0       ??0MessageDialog@@QAE@PBD0@Z 0065dcc0 f   message_dialog.obj
 0002:00049ff0       ??_EMessageDialog@@UAEPAXI@Z 0065dff0 f i message_dialog.obj
 0002:00049ff0       ??_GMessageDialog@@UAEPAXI@Z 0065dff0 f i message_dialog.obj
 0002:0004a060       ??1MessageDialog@@UAE@XZ   0065e060 f   message_dialog.obj
 0002:0004a120       ?Create@MessageDialog@@UAEXXZ 0065e120 f   message_dialog.obj
 0002:0004a300       ??0OKButton@@QAE@PAVMessageDialog@@@Z 0065e300 f i message_dialog.obj
 0002:0004a370       ?MouseUp@OKButton@@UAEXXZ  0065e370 f i message_dialog.obj
 0002:0004a3d0       ??_GOKButton@@UAEPAXI@Z    0065e3d0 f i message_dialog.obj
 0002:0004a3d0       ??_EOKButton@@UAEPAXI@Z    0065e3d0 f i message_dialog.obj
 0002:0004a440       ??1OKButton@@UAE@XZ        0065e440 f i message_dialog.obj
 0002:0004a490       ?Render@MessageDialog@@UAEX_N@Z 0065e490 f   message_dialog.obj
 0002:0004a5d0       ??0ModsWindow@@QAE@XZ      0065e5d0 f   mods_window.obj
 0002:0004a650       ??_EModsWindow@@UAEPAXI@Z  0065e650 f i mods_window.obj
 0002:0004a650       ??_GModsWindow@@UAEPAXI@Z  0065e650 f i mods_window.obj
 0002:0004a6c0       ??1ModsWindow@@UAE@XZ      0065e6c0 f i mods_window.obj
 0002:0004a710       ?Render@ModsWindow@@UAEX_N@Z 0065e710 f   mods_window.obj
 0002:0004a8e0       ?Create@ModsWindow@@UAEXXZ 0065e8e0 f   mods_window.obj
 0002:0004b3c0       ??0LoadModButton@@QAE@XZ   0065f3c0 f i mods_window.obj
 0002:0004b420       ?MouseUp@LoadModButton@@UAEXXZ 0065f420 f i mods_window.obj
 0002:0004b4f0       ??0NewModWindowButton@@QAE@XZ 0065f4f0 f i mods_window.obj
 0002:0004b550       ?MouseUp@NewModWindowButton@@EAEXXZ 0065f550 f i mods_window.obj
 0002:0004b650       ??0ToolsButton@@QAE@XZ     0065f650 f i mods_window.obj
 0002:0004b6b0       ?MouseUp@ToolsButton@@EAEXXZ 0065f6b0 f i mods_window.obj
 0002:0004b700       ??_GLoadModButton@@UAEPAXI@Z 0065f700 f i mods_window.obj
 0002:0004b700       ??_ELoadModButton@@UAEPAXI@Z 0065f700 f i mods_window.obj
 0002:0004b770       ??_ENewModWindowButton@@UAEPAXI@Z 0065f770 f i mods_window.obj
 0002:0004b770       ??_GNewModWindowButton@@UAEPAXI@Z 0065f770 f i mods_window.obj
 0002:0004b7e0       ??_GToolsButton@@UAEPAXI@Z 0065f7e0 f i mods_window.obj
 0002:0004b7e0       ??_EToolsButton@@UAEPAXI@Z 0065f7e0 f i mods_window.obj
 0002:0004b850       ??1LoadModButton@@UAE@XZ   0065f850 f i mods_window.obj
 0002:0004b8a0       ??1NewModWindowButton@@UAE@XZ 0065f8a0 f i mods_window.obj
 0002:0004b8f0       ??1ToolsButton@@UAE@XZ     0065f8f0 f i mods_window.obj
 0002:0004b940       ??0NewModWindow@@QAE@XZ    0065f940 f   mods_window.obj
 0002:0004b9c0       ??_GNewModWindow@@UAEPAXI@Z 0065f9c0 f i mods_window.obj
 0002:0004b9c0       ??_ENewModWindow@@UAEPAXI@Z 0065f9c0 f i mods_window.obj
 0002:0004ba30       ??1NewModWindow@@UAE@XZ    0065fa30 f i mods_window.obj
 0002:0004ba80       ?Create@NewModWindow@@UAEXXZ 0065fa80 f   mods_window.obj
 0002:0004bef0       ??0NewModButton@@QAE@XZ    0065fef0 f i mods_window.obj
 0002:0004bf50       ?MouseUp@NewModButton@@EAEXXZ 0065ff50 f i mods_window.obj
 0002:0004c1c0       ??_GGlobalWorld@@QAEPAXI@Z 006601c0 f i mods_window.obj
 0002:0004c230       ??_GNewModButton@@UAEPAXI@Z 00660230 f i mods_window.obj
 0002:0004c230       ??_ENewModButton@@UAEPAXI@Z 00660230 f i mods_window.obj
 0002:0004c2a0       ??1NewModButton@@UAE@XZ    006602a0 f i mods_window.obj
 0002:0004c2f0       ??0NetworkWindow@@QAE@PAD@Z 006602f0 f   network_window.obj
 0002:0004c360       ??_ENetworkWindow@@UAEPAXI@Z 00660360 f i network_window.obj
 0002:0004c360       ??_GNetworkWindow@@UAEPAXI@Z 00660360 f i network_window.obj
 0002:0004c3d0       ??1NetworkWindow@@UAE@XZ   006603d0 f i network_window.obj
 0002:0004c420       ?Render@NetworkWindow@@UAEX_N@Z 00660420 f   network_window.obj
 0002:0004c700       ?Size@?$LList@PAVServerToClientLetter@@@@QBEHXZ 00660700 f i network_window.obj
 0002:0004c740       ??0PrefsGraphicsWindow@@QAE@XZ 00660740 f   prefs_graphics_window.obj
 0002:0004c940       ??_EPrefsGraphicsWindow@@UAEPAXI@Z 00660940 f i prefs_graphics_window.obj
 0002:0004c940       ??_GPrefsGraphicsWindow@@UAEPAXI@Z 00660940 f i prefs_graphics_window.obj
 0002:0004c9b0       ??1PrefsGraphicsWindow@@UAE@XZ 006609b0 f   prefs_graphics_window.obj
 0002:0004ca10       ?Create@PrefsGraphicsWindow@@UAEXXZ 00660a10 f   prefs_graphics_window.obj
 0002:0004d920       ??0ApplyGraphicsButton@@QAE@XZ 00661920 f i prefs_graphics_window.obj
 0002:0004d980       ?MouseUp@ApplyGraphicsButton@@UAEXXZ 00661980 f i prefs_graphics_window.obj
 0002:0004dca0       ??_GWater@@QAEPAXI@Z       00661ca0 f i prefs_graphics_window.obj
 0002:0004dd10       ??_EApplyGraphicsButton@@UAEPAXI@Z 00661d10 f i prefs_graphics_window.obj
 0002:0004dd10       ??_GApplyGraphicsButton@@UAEPAXI@Z 00661d10 f i prefs_graphics_window.obj
 0002:0004dd80       ??1ApplyGraphicsButton@@UAE@XZ 00661d80 f i prefs_graphics_window.obj
 0002:0004ddd0       ?RenderCPUUsage@@YAXPAV?$LList@PAD@@HH@Z 00661dd0 f   prefs_graphics_window.obj
 0002:0004dfa0       ?Render@PrefsGraphicsWindow@@UAEX_N@Z 00661fa0 f   prefs_graphics_window.obj
 0002:0004e3b0       ?GetData@?$HashTable@PAVProfiledElement@@@@QBEPAVProfiledElement@@PBDABQAV2@@Z 006623b0 f i prefs_graphics_window.obj
 0002:0004e430       ?Size@?$DArray@PAVBuilding@@@@QBEHXZ 00662430 f i prefs_graphics_window.obj
 0002:0004e470       ?ValidIndex@?$DArray@PAVBuilding@@@@QBE_NH@Z 00662470 f i prefs_graphics_window.obj
 0002:0004e4e0       ??A?$DArray@PAVBuilding@@@@QAEAAPAVBuilding@@H@Z 006624e0 f i prefs_graphics_window.obj
 0002:0004e600       ??0?$LList@PAD@@QAE@XZ     00662600 f i prefs_graphics_window.obj
 0002:0004e680       ?GetIndex@?$HashTable@PAVProfiledElement@@@@QBEHPBD@Z 00662680 f i prefs_graphics_window.obj
 0002:0004e750       ?HashFunc@?$HashTable@PAVProfiledElement@@@@IBEIPBD@Z 00662750 f i prefs_graphics_window.obj
 0002:0004e830       ??0PrefsKeybindingsWindow@@QAE@XZ 00662830 f   prefs_keybindings_window.obj
 0002:0004eb20       ??_EPrefsKeybindingsWindow@@UAEPAXI@Z 00662b20 f i prefs_keybindings_window.obj
 0002:0004eb20       ??_GPrefsKeybindingsWindow@@UAEPAXI@Z 00662b20 f i prefs_keybindings_window.obj
 0002:0004eb90       ??1PrefsKeybindingsWindow@@UAE@XZ 00662b90 f i prefs_keybindings_window.obj
 0002:0004ec40       ?Create@PrefsKeybindingsWindow@@UAEXXZ 00662c40 f   prefs_keybindings_window.obj
 0002:0004f640       ??0ChangeKeybindingButton@@QAE@H_N@Z 00663640 f i prefs_keybindings_window.obj
 0002:0004f6d0       ?MouseUp@ChangeKeybindingButton@@UAEXXZ 006636d0 f i prefs_keybindings_window.obj
 0002:0004f730       ?Render@ChangeKeybindingButton@@UAEXHH_N0@Z 00663730 f i prefs_keybindings_window.obj
 0002:0004fa40       ??_EChangeKeybindingButton@@UAEPAXI@Z 00663a40 f i prefs_keybindings_window.obj
 0002:0004fa40       ??_GChangeKeybindingButton@@UAEPAXI@Z 00663a40 f i prefs_keybindings_window.obj
 0002:0004fab0       ??1ChangeKeybindingButton@@UAE@XZ 00663ab0 f i prefs_keybindings_window.obj
 0002:0004fb00       ??0ControlMethodDropDownMenu@@QAE@XZ 00663b00 f i prefs_keybindings_window.obj
 0002:0004fb60       ?SelectOption@ControlMethodDropDownMenu@@EAEXH@Z 00663b60 f i prefs_keybindings_window.obj
 0002:0004fc90       ??0RestoreDefaultsButton@@QAE@XZ 00663c90 f i prefs_keybindings_window.obj
 0002:0004fcf0       ?MouseUp@RestoreDefaultsButton@@UAEXXZ 00663cf0 f i prefs_keybindings_window.obj
 0002:0004fe60       ??0ApplyKeybindingsButton@@QAE@XZ 00663e60 f i prefs_keybindings_window.obj
 0002:0004fec0       ?MouseUp@ApplyKeybindingsButton@@EAEXXZ 00663ec0 f i prefs_keybindings_window.obj
 0002:000503c0       ??_GControlMethodDropDownMenu@@UAEPAXI@Z 006643c0 f i prefs_keybindings_window.obj
 0002:000503c0       ??_EControlMethodDropDownMenu@@UAEPAXI@Z 006643c0 f i prefs_keybindings_window.obj
 0002:00050430       ??_ERestoreDefaultsButton@@UAEPAXI@Z 00664430 f i prefs_keybindings_window.obj
 0002:00050430       ??_GRestoreDefaultsButton@@UAEPAXI@Z 00664430 f i prefs_keybindings_window.obj
 0002:000504a0       ??_EApplyKeybindingsButton@@UAEPAXI@Z 006644a0 f i prefs_keybindings_window.obj
 0002:000504a0       ??_GApplyKeybindingsButton@@UAEPAXI@Z 006644a0 f i prefs_keybindings_window.obj
 0002:00050510       ??1ControlMethodDropDownMenu@@UAE@XZ 00664510 f i prefs_keybindings_window.obj
 0002:00050560       ??1RestoreDefaultsButton@@UAE@XZ 00664560 f i prefs_keybindings_window.obj
 0002:000505b0       ??1ApplyKeybindingsButton@@UAE@XZ 006645b0 f i prefs_keybindings_window.obj
 0002:00050600       ?Remove@PrefsKeybindingsWindow@@UAEXXZ 00664600 f   prefs_keybindings_window.obj
 0002:00050710       ?Render@PrefsKeybindingsWindow@@UAEX_N@Z 00664710 f   prefs_keybindings_window.obj
 0002:000508d0       ??0?$basic_string@DU?$char_traits@D@std@@V?$allocator@D@2@@std@@QAE@XZ 006648d0 f i prefs_keybindings_window.obj
 0002:00050990       ??0?$basic_string@DU?$char_traits@D@std@@V?$allocator@D@2@@std@@QAE@PBD@Z 00664990 f i prefs_keybindings_window.obj
 0002:00050a60       ??1?$basic_string@DU?$char_traits@D@std@@V?$allocator@D@2@@std@@QAE@XZ 00664a60 f i prefs_keybindings_window.obj
 0002:00050b10       ??4?$basic_string@DU?$char_traits@D@std@@V?$allocator@D@2@@std@@QAEAAV01@ABV01@@Z 00664b10 f i prefs_keybindings_window.obj
 0002:00050b70       ?replace@?$basic_string@DU?$char_traits@D@std@@V?$allocator@D@2@@std@@QAEAAV12@IIABV12@II@Z 00664b70 f i prefs_keybindings_window.obj
 0002:00050fb0       ?c_str@?$basic_string@DU?$char_traits@D@std@@V?$allocator@D@2@@std@@QBEPBDXZ 00664fb0 f i prefs_keybindings_window.obj
 0002:00051000       ?size@?$basic_string@DU?$char_traits@D@std@@V?$allocator@D@2@@std@@QBEIXZ 00665000 f i prefs_keybindings_window.obj
 0002:00051040       ?find@?$basic_string@DU?$char_traits@D@std@@V?$allocator@D@2@@std@@QBEIPBDI@Z 00665040 f i prefs_keybindings_window.obj
 0002:000510b0       ?length@?$char_traits@D@std@@SAIPBD@Z 006650b0 f i prefs_keybindings_window.obj
 0002:00051100       ??A?$auto_vector@VInputDescription@@@@QAE?AVauto_lvalue@0@I@Z 00665100 f i prefs_keybindings_window.obj
 0002:00051170       ??Cauto_lvalue@?$auto_vector@VInputDescription@@@@QBEPAVInputDescription@@XZ 00665170 f i prefs_keybindings_window.obj
 0002:000511b0       ??4auto_lvalue@?$auto_vector@VInputDescription@@@@QAEAAV01@V?$auto_ptr@VInputDescription@@@std@@@Z 006651b0 f i prefs_keybindings_window.obj
 0002:000512c0       ??0?$auto_ptr@VInputDescription@@@std@@QAE@PAVInputDescription@@@Z 006652c0 f i prefs_keybindings_window.obj
 0002:00051310       ??0?$auto_ptr@VInputDescription@@@std@@QAE@AAV01@@Z 00665310 f i prefs_keybindings_window.obj
 0002:00051370       ??1?$auto_ptr@VInputDescription@@@std@@QAE@XZ 00665370 f i prefs_keybindings_window.obj
 0002:00051410       ??D?$auto_ptr@VInputDescription@@@std@@QBEAAVInputDescription@@XZ 00665410 f i prefs_keybindings_window.obj
 0002:00051490       ??1?$_String_val@DV?$allocator@D@std@@@std@@QAE@XZ 00665490 f i prefs_keybindings_window.obj
 0002:000514e0       ??_GInputDescription@@QAEPAXI@Z 006654e0 f i prefs_keybindings_window.obj
 0002:00051550       ??1_String_base@std@@QAE@XZ 00665550 f i prefs_keybindings_window.obj
 0002:000515a0       ??1_Container_base@std@@QAE@XZ 006655a0 f i prefs_keybindings_window.obj
 0002:000515f0       ?_Orphan_all@_Container_base@std@@QBEXXZ 006655f0 f i prefs_keybindings_window.obj
 0002:000516e0       ??1InputDescription@@QAE@XZ 006656e0 f i prefs_keybindings_window.obj
 0002:000517a0       ?assign@?$basic_string@DU?$char_traits@D@std@@V?$allocator@D@2@@std@@QAEAAV12@ABV12@@Z 006657a0 f i prefs_keybindings_window.obj
 0002:00051800       ?assign@?$basic_string@DU?$char_traits@D@std@@V?$allocator@D@2@@std@@QAEAAV12@ABV12@II@Z 00665800 f i prefs_keybindings_window.obj
 0002:00051920       ?assign@?$basic_string@DU?$char_traits@D@std@@V?$allocator@D@2@@std@@QAEAAV12@PBD@Z 00665920 f i prefs_keybindings_window.obj
 0002:00051990       ?find@?$basic_string@DU?$char_traits@D@std@@V?$allocator@D@2@@std@@QBEIPBDII@Z 00665990 f i prefs_keybindings_window.obj
 0002:00051b00       ?compare@?$char_traits@D@std@@SAHPBD0I@Z 00665b00 f i prefs_keybindings_window.obj
 0002:00051b60       ?find@?$char_traits@D@std@@SAPBDPBDIABD@Z 00665b60 f i prefs_keybindings_window.obj
 0002:00051bc0       ?_Eos@?$basic_string@DU?$char_traits@D@std@@V?$allocator@D@2@@std@@IAEXI@Z 00665bc0 f i prefs_keybindings_window.obj
 0002:00051c40       ?assign@?$char_traits@D@std@@SAXAADABD@Z 00665c40 f i prefs_keybindings_window.obj
 0002:00051c80       ?_Grow@?$basic_string@DU?$char_traits@D@std@@V?$allocator@D@2@@std@@IAE_NI_N@Z 00665c80 f i prefs_keybindings_window.obj
 0002:00051d80       ?_Tidy@?$basic_string@DU?$char_traits@D@std@@V?$allocator@D@2@@std@@IAEX_NI@Z 00665d80 f i prefs_keybindings_window.obj
 0002:00051e50       ?_Myptr@?$basic_string@DU?$char_traits@D@std@@V?$allocator@D@2@@std@@IAEPADXZ 00665e50 f i prefs_keybindings_window.obj
 0002:00051ec0       ?_Myptr@?$basic_string@DU?$char_traits@D@std@@V?$allocator@D@2@@std@@IBEPBDXZ 00665ec0 f i prefs_keybindings_window.obj
 0002:00051f30       ??0?$_String_val@DV?$allocator@D@std@@@std@@IAE@V?$allocator@D@1@@Z 00665f30 f i prefs_keybindings_window.obj
 0002:00051fa0       ??A?$vector@PAVInputDescription@@V?$allocator@PAVInputDescription@@@std@@@std@@QAEAAPAVInputDescription@@I@Z 00665fa0 f i prefs_keybindings_window.obj
 0002:000520e0       ??0auto_lvalue@?$auto_vector@VInputDescription@@@@QAE@AAPAVInputDescription@@@Z 006660e0 f i prefs_keybindings_window.obj
 0002:00052130       ?release@?$auto_ptr@VInputDescription@@@std@@QAEPAVInputDescription@@XZ 00666130 f i prefs_keybindings_window.obj
 0002:00052180       ??0_String_base@std@@QAE@XZ 00666180 f i prefs_keybindings_window.obj
 0002:000521e0       ??0_Container_base@std@@QAE@XZ 006661e0 f i prefs_keybindings_window.obj
 0002:00052230       ?assign@?$basic_string@DU?$char_traits@D@std@@V?$allocator@D@2@@std@@QAEAAV12@PBDI@Z 00666230 f i prefs_keybindings_window.obj
 0002:00052310       ?erase@?$basic_string@DU?$char_traits@D@std@@V?$allocator@D@2@@std@@QAEAAV12@II@Z 00666310 f i prefs_keybindings_window.obj
 0002:00052400       ?max_size@?$basic_string@DU?$char_traits@D@std@@V?$allocator@D@2@@std@@QBEIXZ 00666400 f i prefs_keybindings_window.obj
 0002:00052490       ?_Copy@?$basic_string@DU?$char_traits@D@std@@V?$allocator@D@2@@std@@IAEXII@Z 00666490 f i prefs_keybindings_window.obj
 0002:000526c0       ?deallocate@?$allocator@D@std@@QAEXPADI@Z 006666c0 f i prefs_keybindings_window.obj
 0002:00052720       ?size@?$vector@PAVInputDescription@@V?$allocator@PAVInputDescription@@@std@@@std@@QBEIXZ 00666720 f i prefs_keybindings_window.obj
 0002:00052790       ?_Inside@?$basic_string@DU?$char_traits@D@std@@V?$allocator@D@2@@std@@IAE_NPBD@Z 00666790 f i prefs_keybindings_window.obj
 0002:00052830       ?allocate@?$allocator@D@std@@QAEPADI@Z 00666830 f i prefs_keybindings_window.obj
 0002:00052890       ?max_size@?$allocator@D@std@@QBEIXZ 00666890 f i prefs_keybindings_window.obj
 0002:00052900       ??$_Debug_pointer@D@std@@YAXPBDPB_WI@Z 00666900 f i prefs_keybindings_window.obj
 0002:00052960       ?RemoveData@?$LList@PAVEclButton@@@@QAEXH@Z 00666960 f i prefs_keybindings_window.obj
 0002:00052af0       ??0?$auto_vector@VInputDescription@@@@QAE@I@Z 00666af0 f i prefs_keybindings_window.obj
 0002:00052ba0       ??1?$auto_vector@VInputDescription@@@@QAE@XZ 00666ba0 f i prefs_keybindings_window.obj
 0002:00052c40       ?push_back@?$auto_vector@VInputDescription@@@@QAEXV?$auto_ptr@VInputDescription@@@std@@@Z 00666c40 f i prefs_keybindings_window.obj
 0002:00052d10       ??$move_s@U?$char_traits@D@std@@@_Traits_helper@std@@YAPADPADIPBDI@Z 00666d10 f i prefs_keybindings_window.obj
 0002:00052d90       ??$copy_s@U?$char_traits@D@std@@@_Traits_helper@std@@YAPADPADIPBDI@Z 00666d90 f i prefs_keybindings_window.obj
 0002:00052e10       ??$_Allocate@D@std@@YAPADIPAD@Z 00666e10 f i prefs_keybindings_window.obj
 0002:00052eb0       ??0?$vector@PAVInputDescription@@V?$allocator@PAVInputDescription@@@std@@@std@@QAE@XZ 00666eb0 f i prefs_keybindings_window.obj
 0002:00052f70       ??1?$vector@PAVInputDescription@@V?$allocator@PAVInputDescription@@@std@@@std@@QAE@XZ 00666f70 f i prefs_keybindings_window.obj
 0002:00053010       ?reserve@?$vector@PAVInputDescription@@V?$allocator@PAVInputDescription@@@std@@@std@@QAEXI@Z 00667010 f i prefs_keybindings_window.obj
 0002:00053230       ?push_back@?$vector@PAVInputDescription@@V?$allocator@PAVInputDescription@@@std@@@std@@QAEXABQAVInputDescription@@@Z 00667230 f i prefs_keybindings_window.obj
 0002:00053320       ?get@?$auto_ptr@VInputDescription@@@std@@QBEPAVInputDescription@@XZ 00667320 f i prefs_keybindings_window.obj
 0002:00053360       ??1?$_Vector_val@PAVInputDescription@@V?$allocator@PAVInputDescription@@@std@@@std@@QAE@XZ 00667360 f i prefs_keybindings_window.obj
 0002:000533b0       ??1?$_Vector_iterator@PAVInputDescription@@V?$allocator@PAVInputDescription@@@std@@@std@@QAE@XZ 006673b0 f i prefs_keybindings_window.obj
 0002:00053400       ??1?$_Vector_const_iterator@PAVInputDescription@@V?$allocator@PAVInputDescription@@@std@@@std@@QAE@XZ 00667400 f i prefs_keybindings_window.obj
 0002:00053450       ??1?$_Ranit@PAVInputDescription@@HPBQAV1@ABQAV1@@std@@QAE@XZ 00667450 f i prefs_keybindings_window.obj
 0002:000534a0       ??1_Iterator_base@std@@QAE@XZ 006674a0 f i prefs_keybindings_window.obj
 0002:00053590       ?_Orphan_me@_Iterator_base@std@@QAEXXZ 00667590 f i prefs_keybindings_window.obj
 0002:00053660       ?capacity@?$vector@PAVInputDescription@@V?$allocator@PAVInputDescription@@@std@@@std@@QBEIXZ 00667660 f i prefs_keybindings_window.obj
 0002:000536d0       ?begin@?$vector@PAVInputDescription@@V?$allocator@PAVInputDescription@@@std@@@std@@QAE?AV?$_Vector_iterator@PAVInputDescription@@V?$allocator@PAVInputDescription@@@std@@@2@XZ 006676d0 f i prefs_keybindings_window.obj
 0002:00053760       ?end@?$vector@PAVInputDescription@@V?$allocator@PAVInputDescription@@@std@@@std@@QAE?AV?$_Vector_iterator@PAVInputDescription@@V?$allocator@PAVInputDescription@@@std@@@2@XZ 00667760 f i prefs_keybindings_window.obj
 0002:000537f0       ?max_size@?$vector@PAVInputDescription@@V?$allocator@PAVInputDescription@@@std@@@std@@QBEIXZ 006677f0 f i prefs_keybindings_window.obj
 0002:00053850       ?insert@?$vector@PAVInputDescription@@V?$allocator@PAVInputDescription@@@std@@@std@@QAE?AV?$_Vector_iterator@PAVInputDescription@@V?$allocator@PAVInputDescription@@@std@@@2@V32@ABQAVInputDescription@@@Z 00667850 f i prefs_keybindings_window.obj
 0002:00053a50       ?_Buy@?$vector@PAVInputDescription@@V?$allocator@PAVInputDescription@@@std@@@std@@IAE_NI@Z 00667a50 f i prefs_keybindings_window.obj
 0002:00053b30       ?_Destroy@?$vector@PAVInputDescription@@V?$allocator@PAVInputDescription@@@std@@@std@@IAEXPAPAVInputDescription@@0@Z 00667b30 f i prefs_keybindings_window.obj
 0002:00053ba0       ?_Tidy@?$vector@PAVInputDescription@@V?$allocator@PAVInputDescription@@@std@@@std@@IAEXXZ 00667ba0 f i prefs_keybindings_window.obj
 0002:00053c70       ?_Ufill@?$vector@PAVInputDescription@@V?$allocator@PAVInputDescription@@@std@@@std@@IAEPAPAVInputDescription@@PAPAV3@IABQAV3@@Z 00667c70 f i prefs_keybindings_window.obj
 0002:00053cf0       ?_Xlen@?$vector@PAVInputDescription@@V?$allocator@PAVInputDescription@@@std@@@std@@KAXXZ 00667cf0 f i prefs_keybindings_window.obj
 0002:00053dd0       ??0length_error@std@@QAE@ABV?$basic_string@DU?$char_traits@D@std@@V?$allocator@D@2@@1@@Z 00667dd0 f i prefs_keybindings_window.obj
 0002:00053e40       ??0logic_error@std@@QAE@ABV?$basic_string@DU?$char_traits@D@std@@V?$allocator@D@2@@1@@Z 00667e40 f i prefs_keybindings_window.obj
 0002:00053f00       ?what@logic_error@std@@UBEPBDXZ 00667f00 f i prefs_keybindings_window.obj
 0002:00053f60       ??_Glogic_error@std@@UAEPAXI@Z 00667f60 f i prefs_keybindings_window.obj
 0002:00053f60       ??_Elogic_error@std@@UAEPAXI@Z 00667f60 f i prefs_keybindings_window.obj
 0002:00053fd0       ??1logic_error@std@@UAE@XZ 00667fd0 f i prefs_keybindings_window.obj
 0002:00054040       ??1length_error@std@@UAE@XZ 00668040 f i prefs_keybindings_window.obj
 0002:000540a0       ??_Elength_error@std@@UAEPAXI@Z 006680a0 f i prefs_keybindings_window.obj
 0002:000540a0       ??_Glength_error@std@@UAEPAXI@Z 006680a0 f i prefs_keybindings_window.obj
 0002:00054110       ??0logic_error@std@@QAE@ABV01@@Z 00668110 f i prefs_keybindings_window.obj
 0002:000541e0       ??0?$basic_string@DU?$char_traits@D@std@@V?$allocator@D@2@@std@@QAE@ABV01@@Z 006681e0 f i prefs_keybindings_window.obj
 0002:000542b0       ??0?$_String_val@DV?$allocator@D@std@@@std@@QAE@ABV01@@Z 006682b0 f i prefs_keybindings_window.obj
 0002:00054330       ?_Orphan_range@?$vector@PAVInputDescription@@V?$allocator@PAVInputDescription@@@std@@@std@@IBEXPAPAVInputDescription@@0@Z 00668330 f i prefs_keybindings_window.obj
 0002:00054430       ??0?$_Vector_val@PAVInputDescription@@V?$allocator@PAVInputDescription@@@std@@@std@@IAE@V?$allocator@PAVInputDescription@@@1@@Z 00668430 f i prefs_keybindings_window.obj
 0002:000544a0       ??0?$allocator@PAVInputDescription@@@std@@QAE@XZ 006684a0 f i prefs_keybindings_window.obj
 0002:000544e0       ?deallocate@?$allocator@PAVInputDescription@@@std@@QAEXPAPAVInputDescription@@I@Z 006684e0 f i prefs_keybindings_window.obj
 0002:00054540       ?allocate@?$allocator@PAVInputDescription@@@std@@QAEPAPAVInputDescription@@I@Z 00668540 f i prefs_keybindings_window.obj
 0002:000545a0       ??0?$_Vector_iterator@PAVInputDescription@@V?$allocator@PAVInputDescription@@@std@@@std@@QAE@ABV01@@Z 006685a0 f i prefs_keybindings_window.obj
 0002:00054600       ??0length_error@std@@QAE@ABV01@@Z 00668600 f i prefs_keybindings_window.obj
 0002:00054670       ??0?$_Vector_const_iterator@PAVInputDescription@@V?$allocator@PAVInputDescription@@@std@@@std@@QAE@ABV01@@Z 00668670 f i prefs_keybindings_window.obj
 0002:000546e0       ??0?$_Ranit@PAVInputDescription@@HPBQAV1@ABQAV1@@std@@QAE@ABU01@@Z 006686e0 f i prefs_keybindings_window.obj
 0002:00054740       ??0_Iterator_base@std@@QAE@ABV01@@Z 00668740 f i prefs_keybindings_window.obj
 0002:000547c0       ??4_Iterator_base@std@@QAEAAV01@ABV01@@Z 006687c0 f i prefs_keybindings_window.obj
 0002:000548d0       ?_Adopt@_Iterator_base@std@@QAEXPBV_Container_base@2@@Z 006688d0 f i prefs_keybindings_window.obj
 0002:00054a00       ?_Insert_n@?$vector@PAVInputDescription@@V?$allocator@PAVInputDescription@@@std@@@std@@IAEXV?$_Vector_iterator@PAVInputDescription@@V?$allocator@PAVInputDescription@@@std@@@2@IABQAVInputDescription@@@Z 00668a00 f i prefs_keybindings_window.obj
 0002:00054f30       ??0?$allocator@PAVInputDescription@@@std@@QAE@ABV01@@Z 00668f30 f i prefs_keybindings_window.obj
 0002:00054f70       ?max_size@?$allocator@PAVInputDescription@@@std@@QBEIXZ 00668f70 f i prefs_keybindings_window.obj
 0002:00054fe0       ??0?$_Vector_iterator@PAVInputDescription@@V?$allocator@PAVInputDescription@@@std@@@std@@QAE@PAPAVInputDescription@@PBV_Container_base@1@@Z 00668fe0 f i prefs_keybindings_window.obj
 0002:00055040       ??H?$_Vector_iterator@PAVInputDescription@@V?$allocator@PAVInputDescription@@@std@@@std@@QBE?AV01@H@Z 00669040 f i prefs_keybindings_window.obj
 0002:00055160       ??G?$_Vector_iterator@PAVInputDescription@@V?$allocator@PAVInputDescription@@@std@@@std@@QBEHABV?$_Vector_const_iterator@PAVInputDescription@@V?$allocator@PAVInputDescription@@@std@@@1@@Z 00669160 f i prefs_keybindings_window.obj
 0002:000551c0       ??Y?$_Vector_iterator@PAVInputDescription@@V?$allocator@PAVInputDescription@@@std@@@std@@QAEAAV01@H@Z 006691c0 f i prefs_keybindings_window.obj
 0002:00055220       ??0?$_Vector_const_iterator@PAVInputDescription@@V?$allocator@PAVInputDescription@@@std@@@std@@QAE@PAPAVInputDescription@@PBV_Container_base@1@@Z 00669220 f i prefs_keybindings_window.obj
 0002:00055350       ??G?$_Vector_const_iterator@PAVInputDescription@@V?$allocator@PAVInputDescription@@@std@@@std@@QBEHABV01@@Z 00669350 f i prefs_keybindings_window.obj
 0002:000553c0       ??0?$_Ranit@PAVInputDescription@@HPBQAV1@ABQAV1@@std@@QAE@XZ 006693c0 f i prefs_keybindings_window.obj
 0002:00055420       ??0_Iterator_base@std@@QAE@XZ 00669420 f i prefs_keybindings_window.obj
 0002:00055470       ??Y?$_Vector_const_iterator@PAVInputDescription@@V?$allocator@PAVInputDescription@@@std@@@std@@QAEAAV01@H@Z 00669470 f i prefs_keybindings_window.obj
 0002:000555c0       ?_Compat@?$_Vector_const_iterator@PAVInputDescription@@V?$allocator@PAVInputDescription@@@std@@@std@@QBEXABV12@@Z 006695c0 f i prefs_keybindings_window.obj
 0002:00055690       ?clear@?$auto_vector@VInputDescription@@@@QAEXXZ 00669690 f i prefs_keybindings_window.obj
 0002:000557b0       ??$_Char_traits_cat@U?$char_traits@D@std@@@std@@YA?AU_Secure_char_traits_tag@0@XZ 006697b0 f i prefs_keybindings_window.obj
 0002:00055820       ??$move_s@U?$char_traits@D@std@@@_Traits_helper@std@@YAPADPADIPBDIU_Secure_char_traits_tag@1@@Z 00669820 f i prefs_keybindings_window.obj
 0002:00055880       ?_Move_s@?$char_traits@D@std@@SAPADPADIPBDI@Z 00669880 f i prefs_keybindings_window.obj
 0002:000558e0       ??$copy_s@U?$char_traits@D@std@@@_Traits_helper@std@@YAPADPADIPBDIU_Secure_char_traits_tag@1@@Z 006698e0 f i prefs_keybindings_window.obj
 0002:00055940       ?_Copy_s@?$char_traits@D@std@@SAPADPADIPBDI@Z 00669940 f i prefs_keybindings_window.obj
 0002:000559a0       ??$_Umove@V?$_Vector_iterator@PAVInputDescription@@V?$allocator@PAVInputDescription@@@std@@@std@@@?$vector@PAVInputDescription@@V?$allocator@PAVInputDescription@@@std@@@std@@IAEPAPAVInputDescription@@V?$_Vector_iterator@PAVInputDescription@@V?$allocator@PAVInputDescription@@@std@@@1@0PAPAV2@@Z 006699a0 f i prefs_keybindings_window.obj
 0002:00055ae0       ??$_Destroy_range@PAVInputDescription@@V?$allocator@PAVInputDescription@@@std@@@std@@YAXPAPAVInputDescription@@0AAV?$allocator@PAVInputDescription@@@0@@Z 00669ae0 f i prefs_keybindings_window.obj
 0002:00055b60       ??$unchecked_uninitialized_fill_n@PAPAVInputDescription@@IPAV1@V?$allocator@PAVInputDescription@@@std@@@stdext@@YAXPAPAVInputDescription@@IABQAV1@AAV?$allocator@PAVInputDescription@@@std@@@Z 00669b60 f i prefs_keybindings_window.obj
 0002:00055c00       ??$_Allocate@PAVInputDescription@@@std@@YAPAPAVInputDescription@@IPAPAV1@@Z 00669c00 f i prefs_keybindings_window.obj
 0002:00055ca0       ??$_Umove@PAPAVInputDescription@@@?$vector@PAVInputDescription@@V?$allocator@PAVInputDescription@@@std@@@std@@IAEPAPAVInputDescription@@PAPAV2@00@Z 00669ca0 f i prefs_keybindings_window.obj
 0002:00055d10       ??$fill@PAPAVInputDescription@@PAV1@@std@@YAXPAPAVInputDescription@@0ABQAV1@@Z 00669d10 f i prefs_keybindings_window.obj
 0002:00055d80       ??$_Unchecked_move_backward@PAPAVInputDescription@@PAPAV1@@stdext@@YAPAPAVInputDescription@@PAPAV1@00@Z 00669d80 f i prefs_keybindings_window.obj
 0002:00055e40       ?begin@?$auto_vector@VInputDescription@@@@QAE?AV?$_Vector_iterator@PAVInputDescription@@V?$allocator@PAVInputDescription@@@std@@@std@@XZ 00669e40 f i prefs_keybindings_window.obj
 0002:00055ec0       ?end@?$auto_vector@VInputDescription@@@@QAE?AV?$_Vector_iterator@PAVInputDescription@@V?$allocator@PAVInputDescription@@@std@@@std@@XZ 00669ec0 f i prefs_keybindings_window.obj
 0002:00055f40       ?clear@?$vector@PAVInputDescription@@V?$allocator@PAVInputDescription@@@std@@@std@@QAEXXZ 00669f40 f i prefs_keybindings_window.obj
 0002:00056050       ?erase@?$vector@PAVInputDescription@@V?$allocator@PAVInputDescription@@@std@@@std@@QAE?AV?$_Vector_iterator@PAVInputDescription@@V?$allocator@PAVInputDescription@@@std@@@2@V32@0@Z 0066a050 f i prefs_keybindings_window.obj
 0002:00056200       ??9?$_Vector_const_iterator@PAVInputDescription@@V?$allocator@PAVInputDescription@@@std@@@std@@QBE_NABV01@@Z 0066a200 f i prefs_keybindings_window.obj
 0002:00056270       ??M?$_Vector_const_iterator@PAVInputDescription@@V?$allocator@PAVInputDescription@@@std@@@std@@QBE_NABV01@@Z 0066a270 f i prefs_keybindings_window.obj
 0002:000562e0       ??8?$_Vector_const_iterator@PAVInputDescription@@V?$allocator@PAVInputDescription@@@std@@@std@@QBE_NABV01@@Z 0066a2e0 f i prefs_keybindings_window.obj
 0002:00056350       ??$for_each@V?$_Vector_iterator@PAVInputDescription@@V?$allocator@PAVInputDescription@@@std@@@std@@V?$DeletePtr@VInputDescription@@@@@std@@YA?AV?$DeletePtr@VInputDescription@@@@V?$_Vector_iterator@PAVInputDescription@@V?$allocator@PAVInputDescription@@@std@@@0@0V1@@Z 0066a350 f i prefs_keybindings_window.obj
 0002:00056570       ??$_Unchecked_uninitialized_move@V?$_Vector_iterator@PAVInputDescription@@V?$allocator@PAVInputDescription@@@std@@@std@@PAPAVInputDescription@@V?$allocator@PAVInputDescription@@@2@@stdext@@YAPAPAVInputDescription@@V?$_Vector_iterator@PAVInputDescription@@V?$allocator@PAVInputDescription@@@std@@@std@@0PAPAV1@AAV?$allocator@PAVInputDescription@@@3@@Z 0066a570 f i prefs_keybindings_window.obj
 0002:000566e0       ??$_Ptr_cat@PAPAVInputDescription@@PAPAV1@@std@@YA?AU_Scalar_ptr_iterator_tag@0@AAPAPAVInputDescription@@0@Z 0066a6e0 f i prefs_keybindings_window.obj
 0002:00056750       ??$_Destroy_range@PAVInputDescription@@V?$allocator@PAVInputDescription@@@std@@@std@@YAXPAPAVInputDescription@@0AAV?$allocator@PAVInputDescription@@@0@U_Scalar_ptr_iterator_tag@0@@Z 0066a750 f i prefs_keybindings_window.obj
 0002:00056780       ??$_Uninit_fill_n@PAPAVInputDescription@@IPAV1@V?$allocator@PAVInputDescription@@@std@@@std@@YAXPAPAVInputDescription@@IABQAV1@AAV?$allocator@PAVInputDescription@@@0@U_Scalar_ptr_iterator_tag@0@U_Range_checked_iterator_tag@0@@Z 0066a780 f i prefs_keybindings_window.obj
 0002:000567e0       ??$_Unchecked_uninitialized_move@PAPAVInputDescription@@PAPAV1@V?$allocator@PAVInputDescription@@@std@@@stdext@@YAPAPAVInputDescription@@PAPAV1@00AAV?$allocator@PAVInputDescription@@@std@@@Z 0066a7e0 f i prefs_keybindings_window.obj
 0002:00056890       ??$_Checked_base@PAPAVInputDescription@@@std@@YAPAPAVInputDescription@@AAPAPAV1@@Z 0066a890 f i prefs_keybindings_window.obj
 0002:00056920       ??$_Fill@PAPAVInputDescription@@PAV1@@std@@YAXPAPAVInputDescription@@0ABQAV1@@Z 0066a920 f i prefs_keybindings_window.obj
 0002:000569b0       ??$_Iter_random@PAPAVInputDescription@@PAPAV1@@std@@YA?AUrandom_access_iterator_tag@0@ABQAPAVInputDescription@@0@Z 0066a9b0 f i prefs_keybindings_window.obj
 0002:00056a20       ??$_Move_cat@PAPAVInputDescription@@@std@@YA?AU_Undefined_move_tag@0@ABQAPAVInputDescription@@@Z 0066aa20 f i prefs_keybindings_window.obj
 0002:00056a90       ??$_Move_backward_opt@PAPAVInputDescription@@PAPAV1@Urandom_access_iterator_tag@std@@U_Undefined_move_tag@3@@std@@YAPAPAVInputDescription@@PAPAV1@00Urandom_access_iterator_tag@0@U_Undefined_move_tag@0@U_Range_checked_iterator_tag@0@@Z 0066aa90 f i prefs_keybindings_window.obj
 0002:00056b30       ??$unchecked_copy@PAPAVInputDescription@@PAPAV1@@stdext@@YAPAPAVInputDescription@@PAPAV1@00@Z 0066ab30 f i prefs_keybindings_window.obj
 0002:00056c00       ??D?$_Vector_iterator@PAVInputDescription@@V?$allocator@PAVInputDescription@@@std@@@std@@QBEAAPAVInputDescription@@XZ 0066ac00 f i prefs_keybindings_window.obj
 0002:00056c50       ??E?$_Vector_iterator@PAVInputDescription@@V?$allocator@PAVInputDescription@@@std@@@std@@QAEAAV01@XZ 0066ac50 f i prefs_keybindings_window.obj
 0002:00056cb0       ??R?$DeletePtr@VInputDescription@@@@QAEXPAVInputDescription@@@Z 0066acb0 f i prefs_keybindings_window.obj
 0002:00056d50       ??D?$_Vector_const_iterator@PAVInputDescription@@V?$allocator@PAVInputDescription@@@std@@@std@@QBEABQAVInputDescription@@XZ 0066ad50 f i prefs_keybindings_window.obj
 0002:00056e40       ??E?$_Vector_const_iterator@PAVInputDescription@@V?$allocator@PAVInputDescription@@@std@@@std@@QAEAAV01@XZ 0066ae40 f i prefs_keybindings_window.obj
 0002:00056f60       ??$_Debug_range@V?$_Vector_iterator@PAVInputDescription@@V?$allocator@PAVInputDescription@@@std@@@std@@@std@@YAXV?$_Vector_iterator@PAVInputDescription@@V?$allocator@PAVInputDescription@@@std@@@0@0PB_WI@Z 0066af60 f i prefs_keybindings_window.obj
 0002:00057090       ??$_Debug_pointer@V?$DeletePtr@VInputDescription@@@@@std@@YAXAAV?$DeletePtr@VInputDescription@@@@PB_WI@Z 0066b090 f i prefs_keybindings_window.obj
 0002:000570c0       ??$_Checked_base@V?$_Vector_iterator@PAVInputDescription@@V?$allocator@PAVInputDescription@@@std@@@std@@@std@@YA?AV?$_Vector_iterator@PAVInputDescription@@V?$allocator@PAVInputDescription@@@std@@@0@AAV10@@Z 0066b0c0 f i prefs_keybindings_window.obj
 0002:00057180       ??$_Uninit_move@V?$_Vector_iterator@PAVInputDescription@@V?$allocator@PAVInputDescription@@@std@@@std@@PAPAVInputDescription@@V?$allocator@PAVInputDescription@@@2@U_Undefined_move_tag@2@@std@@YAPAPAVInputDescription@@V?$_Vector_iterator@PAVInputDescription@@V?$allocator@PAVInputDescription@@@std@@@0@0PAPAV1@AAV?$allocator@PAVInputDescription@@@0@U_Undefined_move_tag@0@U_Range_checked_iterator_tag@0@@Z 0066b180 f i prefs_keybindings_window.obj
 0002:000572b0       ??$unchecked_fill_n@PAPAVInputDescription@@IPAV1@@stdext@@YAXPAPAVInputDescription@@IABQAV1@@Z 0066b2b0 f i prefs_keybindings_window.obj
 0002:00057340       ??$_Uninit_move@PAPAVInputDescription@@PAPAV1@V?$allocator@PAVInputDescription@@@std@@U_Undefined_move_tag@3@@std@@YAPAPAVInputDescription@@PAPAV1@00AAV?$allocator@PAVInputDescription@@@0@U_Undefined_move_tag@0@U_Range_checked_iterator_tag@0@@Z 0066b340 f i prefs_keybindings_window.obj
 0002:000573a0       ??$_Checked_base@PAPAVInputDescription@@@std@@YAPAPAVInputDescription@@AAPAPAV1@U_Unchanged_checked_iterator_base_type_tag@0@@Z 0066b3a0 f i prefs_keybindings_window.obj
 0002:000573e0       ??$_Debug_range@PAPAVInputDescription@@@std@@YAXPAPAVInputDescription@@0PB_WI@Z 0066b3e0 f i prefs_keybindings_window.obj
 0002:00057460       ??$_Copy_backward_opt@PAPAVInputDescription@@PAPAV1@Urandom_access_iterator_tag@std@@@std@@YAPAPAVInputDescription@@PAPAV1@00Urandom_access_iterator_tag@0@U_Scalar_ptr_iterator_tag@0@U_Range_checked_iterator_tag@0@@Z 0066b460 f i prefs_keybindings_window.obj
 0002:00057540       ??$_Copy_opt@PAPAVInputDescription@@PAPAV1@Urandom_access_iterator_tag@std@@@std@@YAPAPAVInputDescription@@PAPAV1@00Urandom_access_iterator_tag@0@U_Scalar_ptr_iterator_tag@0@U_Range_checked_iterator_tag@0@@Z 0066b540 f i prefs_keybindings_window.obj
 0002:00057620       ??$_Iter_cat@V?$_Vector_iterator@PAVInputDescription@@V?$allocator@PAVInputDescription@@@std@@@std@@@std@@YA?AUrandom_access_iterator_tag@0@ABV?$_Vector_iterator@PAVInputDescription@@V?$allocator@PAVInputDescription@@@std@@@0@@Z 0066b620 f i prefs_keybindings_window.obj
 0002:00057690       ??$_Debug_range2@V?$_Vector_iterator@PAVInputDescription@@V?$allocator@PAVInputDescription@@@std@@@std@@@std@@YAXV?$_Vector_iterator@PAVInputDescription@@V?$allocator@PAVInputDescription@@@std@@@0@0PB_WIUrandom_access_iterator_tag@0@@Z 0066b690 f i prefs_keybindings_window.obj
 0002:000577b0       ??$_Checked_base@V?$_Vector_iterator@PAVInputDescription@@V?$allocator@PAVInputDescription@@@std@@@std@@@std@@YA?AV?$_Vector_iterator@PAVInputDescription@@V?$allocator@PAVInputDescription@@@std@@@0@AAV10@U_Unchanged_checked_iterator_base_type_tag@0@@Z 0066b7b0 f i prefs_keybindings_window.obj
 0002:00057820       ??$unchecked_uninitialized_copy@V?$_Vector_iterator@PAVInputDescription@@V?$allocator@PAVInputDescription@@@std@@@std@@PAPAVInputDescription@@V?$allocator@PAVInputDescription@@@2@@stdext@@YAPAPAVInputDescription@@V?$_Vector_iterator@PAVInputDescription@@V?$allocator@PAVInputDescription@@@std@@@std@@0PAPAV1@AAV?$allocator@PAVInputDescription@@@3@@Z 0066b820 f i prefs_keybindings_window.obj
 0002:00057990       ??$_Iter_cat@PAPAVInputDescription@@@std@@YA?AUrandom_access_iterator_tag@0@ABQAPAVInputDescription@@@Z 0066b990 f i prefs_keybindings_window.obj
 0002:00057a00       ??$_Fill_n@PAPAVInputDescription@@IPAV1@@std@@YAXPAPAVInputDescription@@IABQAV1@Urandom_access_iterator_tag@0@U_Range_checked_iterator_tag@0@@Z 0066ba00 f i prefs_keybindings_window.obj
 0002:00057a90       ??$unchecked_uninitialized_copy@PAPAVInputDescription@@PAPAV1@V?$allocator@PAVInputDescription@@@std@@@stdext@@YAPAPAVInputDescription@@PAPAV1@00AAV?$allocator@PAVInputDescription@@@std@@@Z 0066ba90 f i prefs_keybindings_window.obj
 0002:00057b40       ??$_Debug_range2@PAPAVInputDescription@@@std@@YAXPAPAVInputDescription@@0PB_WIUrandom_access_iterator_tag@0@@Z 0066bb40 f i prefs_keybindings_window.obj
 0002:00057be0       ??$_Debug_pointer@PAVInputDescription@@@std@@YAXPAPAVInputDescription@@PB_WI@Z 0066bbe0 f i prefs_keybindings_window.obj
 0002:00057c40       ??$_Debug_pointer@V?$_Vector_iterator@PAVInputDescription@@V?$allocator@PAVInputDescription@@@std@@@std@@@std@@YAXAAV?$_Vector_iterator@PAVInputDescription@@V?$allocator@PAVInputDescription@@@std@@@0@PB_WI@Z 0066bc40 f i prefs_keybindings_window.obj
 0002:00057c70       ??$_Ptr_cat@V?$_Vector_iterator@PAVInputDescription@@V?$allocator@PAVInputDescription@@@std@@@std@@PAPAVInputDescription@@@std@@YA?AU_Scalar_ptr_iterator_tag@0@AAV?$_Vector_iterator@PAVInputDescription@@V?$allocator@PAVInputDescription@@@std@@@0@AAPAPAVInputDescription@@@Z 0066bc70 f i prefs_keybindings_window.obj
 0002:00057ce0       ??$_Uninit_copy@V?$_Vector_iterator@PAVInputDescription@@V?$allocator@PAVInputDescription@@@std@@@std@@PAPAVInputDescription@@V?$allocator@PAVInputDescription@@@2@@std@@YAPAPAVInputDescription@@V?$_Vector_iterator@PAVInputDescription@@V?$allocator@PAVInputDescription@@@std@@@0@0PAPAV1@AAV?$allocator@PAVInputDescription@@@0@U_Scalar_ptr_iterator_tag@0@U_Range_checked_iterator_tag@0@@Z 0066bce0 f i prefs_keybindings_window.obj
 0002:00057e80       ??$_Fill_n@PAPAVInputDescription@@IPAV1@@std@@YAXPAPAVInputDescription@@IABQAV1@U_Range_checked_iterator_tag@0@@Z 0066be80 f i prefs_keybindings_window.obj
 0002:00057ef0       ??$_Uninit_copy@PAPAVInputDescription@@PAPAV1@V?$allocator@PAVInputDescription@@@std@@@std@@YAPAPAVInputDescription@@PAPAV1@00AAV?$allocator@PAVInputDescription@@@0@U_Scalar_ptr_iterator_tag@0@U_Range_checked_iterator_tag@0@@Z 0066bef0 f i prefs_keybindings_window.obj
 0002:00057fc0       ??0PrefsOtherWindow@@QAE@XZ 0066bfc0 f   prefs_other_window.obj
 0002:00058350       ??_GPrefsOtherWindow@@UAEPAXI@Z 0066c350 f i prefs_other_window.obj
 0002:00058350       ??_EPrefsOtherWindow@@UAEPAXI@Z 0066c350 f i prefs_other_window.obj
 0002:000583c0       ??1PrefsOtherWindow@@UAE@XZ 0066c3c0 f i prefs_other_window.obj
 0002:00058470       ?ListAvailableLanguages@PrefsOtherWindow@@QAEXXZ 0066c470 f   prefs_other_window.obj
 0002:00058590       ?strrchr@@YAPADPADH@Z      0066c590 f i prefs_other_window.obj
 0002:000585f0       ?Create@PrefsOtherWindow@@UAEXXZ 0066c5f0 f   prefs_other_window.obj
 0002:000599a0       ??0ApplyOtherButton@@QAE@XZ 0066d9a0 f i prefs_other_window.obj
 0002:00059a00       ?MouseUp@ApplyOtherButton@@EAEXXZ 0066da00 f i prefs_other_window.obj
 0002:00059e60       ??_EApplyOtherButton@@UAEPAXI@Z 0066de60 f i prefs_other_window.obj
 0002:00059e60       ??_GApplyOtherButton@@UAEPAXI@Z 0066de60 f i prefs_other_window.obj
 0002:00059ed0       ??1ApplyOtherButton@@UAE@XZ 0066ded0 f i prefs_other_window.obj
 0002:00059f20       ?Render@PrefsOtherWindow@@UAEX_N@Z 0066df20 f   prefs_other_window.obj
 0002:0005a360       ?PutData@?$LList@PAD@@QAEXABQAD@Z 0066e360 f i prefs_other_window.obj
 0002:0005a3c0       ??A?$LList@PAD@@QAEPADH@Z  0066e3c0 f i prefs_other_window.obj
 0002:0005a420       ?PutDataAtEnd@?$LList@PAD@@QAEXABQAD@Z 0066e420 f i prefs_other_window.obj
 0002:0005a5b0       ??0?$LListItem@PAD@@QAE@XZ 0066e5b0 f i prefs_other_window.obj
 0002:0005a610       ?RestartWindowManagerAndRenderer@@YAXXZ 0066e610 f   prefs_screen_window.obj
 0002:0005ab10       ?SetWindowed@@YAX_N0AA_N@Z 0066eb10 f   prefs_screen_window.obj
 0002:0005ac00       ??0PrefsScreenWindow@@QAE@XZ 0066ec00 f   prefs_screen_window.obj
 0002:0005ae20       ??_EPrefsScreenWindow@@UAEPAXI@Z 0066ee20 f i prefs_screen_window.obj
 0002:0005ae20       ??_GPrefsScreenWindow@@UAEPAXI@Z 0066ee20 f i prefs_screen_window.obj
 0002:0005ae90       ??1PrefsScreenWindow@@UAE@XZ 0066ee90 f i prefs_screen_window.obj
 0002:0005aee0       ?Create@PrefsScreenWindow@@UAEXXZ 0066eee0 f   prefs_screen_window.obj
 0002:0005bbc0       ??0ScreenResDropDownMenu@@QAE@XZ 0066fbc0 f i prefs_screen_window.obj
 0002:0005bc20       ?SelectOption@ScreenResDropDownMenu@@EAEXH@Z 0066fc20 f i prefs_screen_window.obj
 0002:0005be00       ??0FullscreenRequiredMenu@@QAE@XZ 0066fe00 f i prefs_screen_window.obj
 0002:0005be60       ?Render@FullscreenRequiredMenu@@EAEXHH_N0@Z 0066fe60 f i prefs_screen_window.obj
 0002:0005bff0       ?MouseUp@FullscreenRequiredMenu@@EAEXXZ 0066fff0 f i prefs_screen_window.obj
 0002:0005c0b0       ??0SetScreenButton@@QAE@XZ 006700b0 f i prefs_screen_window.obj
 0002:0005c110       ?MouseUp@SetScreenButton@@EAEXXZ 00670110 f i prefs_screen_window.obj
 0002:0005c360       ??_EScreenResDropDownMenu@@UAEPAXI@Z 00670360 f i prefs_screen_window.obj
 0002:0005c360       ??_GScreenResDropDownMenu@@UAEPAXI@Z 00670360 f i prefs_screen_window.obj
 0002:0005c3d0       ??_EFullscreenRequiredMenu@@UAEPAXI@Z 006703d0 f i prefs_screen_window.obj
 0002:0005c3d0       ??_GFullscreenRequiredMenu@@UAEPAXI@Z 006703d0 f i prefs_screen_window.obj
 0002:0005c440       ??_GSetScreenButton@@UAEPAXI@Z 00670440 f i prefs_screen_window.obj
 0002:0005c440       ??_ESetScreenButton@@UAEPAXI@Z 00670440 f i prefs_screen_window.obj
 0002:0005c4b0       ??1ScreenResDropDownMenu@@UAE@XZ 006704b0 f i prefs_screen_window.obj
 0002:0005c500       ??1FullscreenRequiredMenu@@UAE@XZ 00670500 f i prefs_screen_window.obj
 0002:0005c550       ??1SetScreenButton@@UAE@XZ 00670550 f i prefs_screen_window.obj
 0002:0005c5a0       ?Render@PrefsScreenWindow@@UAEX_N@Z 006705a0 f   prefs_screen_window.obj
 0002:0005c7f0       ?Size@?$LList@PAVResolution@@@@QBEHXZ 006707f0 f i prefs_screen_window.obj
 0002:0005c830       ??A?$LList@PAVResolution@@@@QAEPAVResolution@@H@Z 00670830 f i prefs_screen_window.obj
 0002:0005c890       ?GetData@?$LList@PAVResolution@@@@QBEPAVResolution@@H@Z 00670890 f i prefs_screen_window.obj
 0002:0005ca30       ?ValidIndex@?$LList@PAVResolution@@@@QBE_NH@Z 00670a30 f i prefs_screen_window.obj
 0002:0005caa0       ??0PrefsSoundWindow@@QAE@XZ 00670aa0 f   prefs_sound_window.obj
 0002:0005cd00       ??_EPrefsSoundWindow@@UAEPAXI@Z 00670d00 f i prefs_sound_window.obj
 0002:0005cd00       ??_GPrefsSoundWindow@@UAEPAXI@Z 00670d00 f i prefs_sound_window.obj
 0002:0005cd70       ??1PrefsSoundWindow@@UAE@XZ 00670d70 f i prefs_sound_window.obj
 0002:0005cdc0       ?Create@PrefsSoundWindow@@UAEXXZ 00670dc0 f   prefs_sound_window.obj
 0002:0005dd80       ??0HW3DDropDownMenu@@QAE@XZ 00671d80 f i prefs_sound_window.obj
 0002:0005dde0       ?Render@HW3DDropDownMenu@@UAEXHH_N0@Z 00671de0 f i prefs_sound_window.obj
 0002:0005df10       ?MouseUp@HW3DDropDownMenu@@UAEXXZ 00671f10 f i prefs_sound_window.obj
 0002:0005df90       ??0RestartSoundButton@@QAE@XZ 00671f90 f i prefs_sound_window.obj
 0002:0005dff0       ?MouseUp@RestartSoundButton@@UAEXXZ 00671ff0 f i prefs_sound_window.obj
 0002:0005e3d0       ??_GCachedSampleHandle@@QAEPAXI@Z 006723d0 f i prefs_sound_window.obj
 0002:0005e440       ??_GHW3DDropDownMenu@@UAEPAXI@Z 00672440 f i prefs_sound_window.obj
 0002:0005e440       ??_EHW3DDropDownMenu@@UAEPAXI@Z 00672440 f i prefs_sound_window.obj
 0002:0005e4b0       ??_GRestartSoundButton@@UAEPAXI@Z 006724b0 f i prefs_sound_window.obj
 0002:0005e4b0       ??_ERestartSoundButton@@UAEPAXI@Z 006724b0 f i prefs_sound_window.obj
 0002:0005e520       ??1HW3DDropDownMenu@@UAE@XZ 00672520 f i prefs_sound_window.obj
 0002:0005e570       ??1RestartSoundButton@@UAE@XZ 00672570 f i prefs_sound_window.obj
 0002:0005e5c0       ?Render@PrefsSoundWindow@@UAEX_N@Z 006725c0 f   prefs_sound_window.obj
 0002:0005ecd0       ?Size@?$DArray@PAVSoundInstance@@@@QBEHXZ 00672cd0 f i prefs_sound_window.obj
 0002:0005ed10       ?ValidIndex@?$DArray@PAVSoundInstance@@@@QBE_NH@Z 00672d10 f i prefs_sound_window.obj
 0002:0005ed80       ??A?$DArray@PAVSoundInstance@@@@QAEAAPAVSoundInstance@@H@Z 00672d80 f i prefs_sound_window.obj
 0002:0005eea0       ??0ProfileWindow@@QAE@PAD@Z 00672ea0 f   profilewindow.obj
 0002:0005ef20       ??_EProfileWindow@@UAEPAXI@Z 00672f20 f i profilewindow.obj
 0002:0005ef20       ??_GProfileWindow@@UAEPAXI@Z 00672f20 f i profilewindow.obj
 0002:0005ef90       ??1ProfileWindow@@UAE@XZ   00672f90 f   profilewindow.obj
 0002:0005f000       ?RenderElementProfile@ProfileWindow@@IAEXPAVProfiledElement@@I@Z 00673000 f   profilewindow.obj
 0002:0005f880       ?Render@ProfileWindow@@UAEX_N@Z 00673880 f   profilewindow.obj
 0002:0005fa90       ?Create@ProfileWindow@@UAEXXZ 00673a90 f   profilewindow.obj
 0002:0005fd50       ??0ProfilerButton@@QAE@XZ  00673d50 f i profilewindow.obj
 0002:0005fdb0       ?MouseUp@ProfilerButton@@UAEXXZ 00673db0 f i profilewindow.obj
 0002:0005ff40       ??_EProfilerButton@@UAEPAXI@Z 00673f40 f i profilewindow.obj
 0002:0005ff40       ??_GProfilerButton@@UAEPAXI@Z 00673f40 f i profilewindow.obj
 0002:0005ffb0       ??1ProfilerButton@@UAE@XZ  00673fb0 f i profilewindow.obj
 0002:00060000       ?Remove@ProfileWindow@@UAEXXZ 00674000 f   profilewindow.obj
 0002:00060080       ?Size@?$HashTable@PAVProfiledElement@@@@QBEIXZ 00674080 f i profilewindow.obj
 0002:000600c0       ?NumUsed@?$HashTable@PAVProfiledElement@@@@QBEIXZ 006740c0 f i profilewindow.obj
 0002:00060110       ??A?$HashTable@PAVProfiledElement@@@@QBEPAVProfiledElement@@I@Z 00674110 f i profilewindow.obj
 0002:00060160       ?StartOrderedWalk@?$SortingHashTable@PAVProfiledElement@@@@QAEFXZ 00674160 f i profilewindow.obj
 0002:000601c0       ?GetNextOrderedIndex@?$SortingHashTable@PAVProfiledElement@@@@QAEFXZ 006741c0 f i profilewindow.obj
 0002:00060230       ??0ReallyQuitWindow@@QAE@XZ 00674230 f   reallyquit_window.obj
 0002:00060360       ??_EReallyQuitWindow@@UAEPAXI@Z 00674360 f i reallyquit_window.obj
 0002:00060360       ??_GReallyQuitWindow@@UAEPAXI@Z 00674360 f i reallyquit_window.obj
 0002:000603d0       ??1ReallyQuitWindow@@UAE@XZ 006743d0 f i reallyquit_window.obj
 0002:00060420       ?Create@ReallyQuitWindow@@UAEXXZ 00674420 f   reallyquit_window.obj
 0002:00060690       ??0SaveOnQuitWindow@@QAE@PAD@Z 00674690 f   save_on_quit_window.obj
 0002:000607c0       ??_GSaveOnQuitWindow@@UAEPAXI@Z 006747c0 f i save_on_quit_window.obj
 0002:000607c0       ??_ESaveOnQuitWindow@@UAEPAXI@Z 006747c0 f i save_on_quit_window.obj
 0002:00060830       ??1SaveOnQuitWindow@@UAE@XZ 00674830 f i save_on_quit_window.obj
 0002:00060880       ?Create@SaveOnQuitWindow@@UAEXXZ 00674880 f   save_on_quit_window.obj
 0002:00060b90       ??0YesButton@@QAE@XZ       00674b90 f i save_on_quit_window.obj
 0002:00060bf0       ?MouseUp@YesButton@@EAEXXZ 00674bf0 f i save_on_quit_window.obj
 0002:00060c60       ??0NoButton@@QAE@XZ        00674c60 f i save_on_quit_window.obj
 0002:00060cc0       ?MouseUp@NoButton@@EAEXXZ  00674cc0 f i save_on_quit_window.obj
 0002:00060d20       ??0CancelButton@@QAE@XZ    00674d20 f i save_on_quit_window.obj
 0002:00060d80       ?MouseUp@CancelButton@@EAEXXZ 00674d80 f i save_on_quit_window.obj
 0002:00060df0       ??_GYesButton@@UAEPAXI@Z   00674df0 f i save_on_quit_window.obj
 0002:00060df0       ??_EYesButton@@UAEPAXI@Z   00674df0 f i save_on_quit_window.obj
 0002:00060e60       ??_GNoButton@@UAEPAXI@Z    00674e60 f i save_on_quit_window.obj
 0002:00060e60       ??_ENoButton@@UAEPAXI@Z    00674e60 f i save_on_quit_window.obj
 0002:00060ed0       ??_GCancelButton@@UAEPAXI@Z 00674ed0 f i save_on_quit_window.obj
 0002:00060ed0       ??_ECancelButton@@UAEPAXI@Z 00674ed0 f i save_on_quit_window.obj
 0002:00060f40       ??1YesButton@@UAE@XZ       00674f40 f i save_on_quit_window.obj
 0002:00060f90       ??1NoButton@@UAE@XZ        00674f90 f i save_on_quit_window.obj
 0002:00060fe0       ??1CancelButton@@UAE@XZ    00674fe0 f i save_on_quit_window.obj
 0002:00061030       ?Render@SaveOnQuitWindow@@UAEX_N@Z 00675030 f   save_on_quit_window.obj
 0002:000611b0       ??0ScrollBar@@QAE@PAVEclWindow@@@Z 006751b0 f   scrollbar.obj
 0002:000612f0       ??1ScrollBar@@QAE@XZ       006752f0 f   scrollbar.obj
 0002:00061330       ?Create@ScrollBar@@QAEXPADHHHHHHH@Z 00675330 f   scrollbar.obj
 0002:00061810       ?Remove@ScrollBar@@QAEXXZ  00675810 f   scrollbar.obj
 0002:000619a0       ?SetNumRows@ScrollBar@@QAEXH@Z 006759a0 f   scrollbar.obj
 0002:00061a20       ?SetCurrentValue@ScrollBar@@QAEXH@Z 00675a20 f   scrollbar.obj
 0002:00061b20       ?SetWinSize@ScrollBar@@QAEXH@Z 00675b20 f   scrollbar.obj
 0002:00061ba0       ?ChangeCurrentValue@ScrollBar@@QAEXH@Z 00675ba0 f   scrollbar.obj
 0002:00061c10       ??0ScrollBarButton@@QAE@PAVScrollBar@@@Z 00675c10 f   scrollbar.obj
 0002:00061c90       ??_EScrollBarButton@@UAEPAXI@Z 00675c90 f i scrollbar.obj
 0002:00061c90       ??_GScrollBarButton@@UAEPAXI@Z 00675c90 f i scrollbar.obj
 0002:00061d00       ??1ScrollBarButton@@UAE@XZ 00675d00 f i scrollbar.obj
 0002:00061d50       ?Render@ScrollBarButton@@UAEXHH_N0@Z 00675d50 f   scrollbar.obj
 0002:000620f0       ?MouseUp@ScrollBarButton@@UAEXXZ 006760f0 f   scrollbar.obj
 0002:000623a0       ?MouseDown@ScrollBarButton@@UAEXXZ 006763a0 f   scrollbar.obj
 0002:00062720       ??0ScrollChangeButton@@QAE@PAVScrollBar@@H@Z 00676720 f   scrollbar.obj
 0002:000627a0       ??_EScrollChangeButton@@UAEPAXI@Z 006767a0 f i scrollbar.obj
 0002:000627a0       ??_GScrollChangeButton@@UAEPAXI@Z 006767a0 f i scrollbar.obj
 0002:00062810       ??1ScrollChangeButton@@UAE@XZ 00676810 f i scrollbar.obj
 0002:00062860       ?MouseDown@ScrollChangeButton@@UAEXXZ 00676860 f   scrollbar.obj
 0002:00062930       ??0TreeWindow@@QAE@PAD@Z   00676930 f   tree_window.obj
 0002:000629b0       ??_ETreeWindow@@UAEPAXI@Z  006769b0 f i tree_window.obj
 0002:000629b0       ??_GTreeWindow@@UAEPAXI@Z  006769b0 f i tree_window.obj
 0002:00062a20       ??1TreeWindow@@UAE@XZ      00676a20 f i tree_window.obj
 0002:00062a70       ?Create@TreeWindow@@UAEXXZ 00676a70 f   tree_window.obj
 0002:000631f0       ??0TreeButton@@QAE@XZ      006771f0 f i tree_window.obj
 0002:00063250       ?MouseUp@TreeButton@@UAEXXZ 00677250 f i tree_window.obj
 0002:00063650       ?frand@@YAMM@Z             00677650 f i tree_window.obj
 0002:000636c0       ?sfrand@@YAMM@Z            006776c0 f i tree_window.obj
 0002:00063740       ??_GTreeButton@@UAEPAXI@Z  00677740 f i tree_window.obj
 0002:00063740       ??_ETreeButton@@UAEPAXI@Z  00677740 f i tree_window.obj
 0002:000637b0       ??1TreeButton@@UAE@XZ      006777b0 f i tree_window.obj
 0002:00063800       ?Update@TreeWindow@@UAEXXZ 00677800 f   tree_window.obj
 0002:000638e0       ??0UserProfileWindow@@QAE@XZ 006778e0 f   userprofile_window.obj
 0002:00063960       ??_EUserProfileWindow@@UAEPAXI@Z 00677960 f i userprofile_window.obj
 0002:00063960       ??_GUserProfileWindow@@UAEPAXI@Z 00677960 f i userprofile_window.obj
 0002:000639d0       ??1UserProfileWindow@@UAE@XZ 006779d0 f i userprofile_window.obj
 0002:00063a20       ?Render@UserProfileWindow@@UAEX_N@Z 00677a20 f   userprofile_window.obj
 0002:00063be0       ?Create@UserProfileWindow@@UAEXXZ 00677be0 f   userprofile_window.obj
 0002:00064420       ??0LoadUserProfileButton@@QAE@XZ 00678420 f i userprofile_window.obj
 0002:00064480       ?MouseUp@LoadUserProfileButton@@UAEXXZ 00678480 f i userprofile_window.obj
 0002:00064530       ??0NewProfileWindowButton@@QAE@XZ 00678530 f i userprofile_window.obj
 0002:00064590       ?MouseUp@NewProfileWindowButton@@UAEXXZ 00678590 f i userprofile_window.obj
 0002:00064690       ??_GLoadUserProfileButton@@UAEPAXI@Z 00678690 f i userprofile_window.obj
 0002:00064690       ??_ELoadUserProfileButton@@UAEPAXI@Z 00678690 f i userprofile_window.obj
 0002:00064700       ??_GNewProfileWindowButton@@UAEPAXI@Z 00678700 f i userprofile_window.obj
 0002:00064700       ??_ENewProfileWindowButton@@UAEPAXI@Z 00678700 f i userprofile_window.obj
 0002:00064770       ??1LoadUserProfileButton@@UAE@XZ 00678770 f i userprofile_window.obj
 0002:000647c0       ??1NewProfileWindowButton@@UAE@XZ 006787c0 f i userprofile_window.obj
 0002:00064810       ??0NewUserProfileWindow@@QAE@XZ 00678810 f   userprofile_window.obj
 0002:00064890       ??_ENewUserProfileWindow@@UAEPAXI@Z 00678890 f i userprofile_window.obj
 0002:00064890       ??_GNewUserProfileWindow@@UAEPAXI@Z 00678890 f i userprofile_window.obj
 0002:00064900       ??1NewUserProfileWindow@@UAE@XZ 00678900 f i userprofile_window.obj
 0002:00064950       ?Create@NewUserProfileWindow@@UAEXXZ 00678950 f   userprofile_window.obj
 0002:00064dd0       ??0NewProfileButton@@QAE@XZ 00678dd0 f i userprofile_window.obj
 0002:00064e30       ?MouseUp@NewProfileButton@@EAEXXZ 00678e30 f i userprofile_window.obj
 0002:00064f20       ??_GNewProfileButton@@UAEPAXI@Z 00678f20 f i userprofile_window.obj
 0002:00064f20       ??_ENewProfileButton@@UAEPAXI@Z 00678f20 f i userprofile_window.obj
 0002:00064f90       ??1NewProfileButton@@UAE@XZ 00678f90 f i userprofile_window.obj
 0002:00064fe0       ??0AviPlayer@@QAE@XZ       00678fe0 f   avi_player.obj
 0002:00065060       ??1AviPlayer@@QAE@XZ       00679060 f   avi_player.obj
 0002:000650b0       ?OpenAvi@AviPlayer@@QAEHPAD@Z 006790b0 f   avi_player.obj
 0002:00065440       ?GetAudioData@AviPlayer@@QAEHHPAF@Z 00679440 f   avi_player.obj
 0002:00065550       ?CloseAvi@AviPlayer@@QAEHXZ 00679550 f   avi_player.obj
 0002:00065660       ?GetWidth@AviPlayer@@QAEHXZ 00679660 f   avi_player.obj
 0002:000656a0       ?GetHeight@AviPlayer@@QAEHXZ 006796a0 f   avi_player.obj
 0002:000656e0       ?GetFrameData@AviPlayer@@QAEPAEXZ 006796e0 f   avi_player.obj
 0002:00065720       ?DecodeVideoFrame@AviPlayer@@QAEHM@Z 00679720 f   avi_player.obj
 0002:000657a0       ?DecodeVideoFrame@AviPlayer@@QAEHH@Z 006797a0 f   avi_player.obj
 0002:00065a20       ?RenderSquare2d@@YAXMMMABVRGBAColour@@@Z 00679a20 f   debug_render.obj
 0002:00065d10       ?RenderCube@@YAXABVVector3@@MMMABVRGBAColour@@@Z 00679d10 f   debug_render.obj
 0002:000664e0       ?RenderSphereRings@@YAXABVVector3@@MABVRGBAColour@@@Z 0067a4e0 f   debug_render.obj
 0002:00066820       ?GetData@Vector3@@QAEPAMXZ 0067a820 f i debug_render.obj
 0002:00066860       _cosf                      0067a860 f i debug_render.obj
 0002:000668d0       _sinf                      0067a8d0 f i debug_render.obj
 0002:00066940       ?RenderSphere@@YAXABVVector3@@MABVRGBAColour@@@Z 0067a940 f   debug_render.obj
 0002:00066a20       ?RenderVerticalCylinder@@YAXABVVector3@@0MMABVRGBAColour@@@Z 0067aa20 f   debug_render.obj
 0002:00067050       ??TVector3@@QBE?AV0@ABV0@@Z 0067b050 f i debug_render.obj
 0002:00067140       ??0Vector3@@QAE@MMM@Z      0067b140 f i debug_render.obj
 0002:000671a0       ??HVector3@@QBE?AV0@ABV0@@Z 0067b1a0 f i debug_render.obj
 0002:00067260       ??DVector3@@QBE?AV0@M@Z    0067b260 f i debug_render.obj
 0002:00067320       ??YVector3@@QAEABV0@ABV0@@Z 0067b320 f i debug_render.obj
 0002:000673a0       ?Normalise@Vector3@@QAEABV1@XZ 0067b3a0 f i debug_render.obj
 0002:000674a0       ?RenderArrow@@YAXABVVector3@@0MABVRGBAColour@@@Z 0067b4a0 f   debug_render.obj
 0002:000678a0       ??GVector3@@QBE?AV0@ABV0@@Z 0067b8a0 f i debug_render.obj
 0002:00067960       ?SetLength@Vector3@@QAEABV1@M@Z 0067b960 f i debug_render.obj
 0002:00067a50       ??XVector3@@QAEABV0@M@Z    0067ba50 f i debug_render.obj
 0002:00067ac0       ?Mag@Vector3@@QBEMXZ       0067bac0 f i debug_render.obj
 0002:00067b60       ?GetDataConst@Vector3@@QBEPBMXZ 0067bb60 f i debug_render.obj
 0002:00067ba0       _fabsf                     0067bba0 f i debug_render.obj
 0002:00067c10       ?RenderPointMarker@@YAXABVVector3@@PBDZZ 0067bc10 f   debug_render.obj
 0002:00067da0       ?PrintMatrix@@YAXPBDI@Z    0067bda0 f   debug_render.obj
 0002:00067f20       ?PrintMatrices@@YAXPBD@Z   0067bf20 f   debug_render.obj
 0002:00067fc0       ?glVertex3fv@@YAXPBM@Z     0067bfc0 f i debug_render.obj
 0002:00068030       ?glVertex3f@@YAXMMM@Z      0067c030 f i debug_render.obj
 0002:000680a0       ?DebugOut@@YAXPADZZ        0067c0a0 f   debug_utils.obj
 0002:00068180       ?DarwiniaReleaseAssert@@YAX_NPBDZZ 0067c180 f   debug_utils.obj
 0002:00068390       ?SetNewReportingThreshold@@YAXH@Z 0067c390 f   debug_utils.obj
 0002:000683d0       ?PrintMemoryLeaks@@YAXXZ   0067c3d0 f   debug_utils.obj
 0002:00068400       ?getRetAddress@@YAPAIPAI@Z 0067c400 f   debug_utils.obj
 0002:00068450       ?GenerateBlackBox@@YAXPAD@Z 0067c450 f   debug_utils.obj
 0002:000687b0       ?RecordExceptionInfo@@YAHPAU_EXCEPTION_POINTERS@@PBD11@Z 0067c7b0 f   exception_handler.obj
 0002:0006ac40       ?GetWinVer@@YAHPADPAH0@Z   0067ec40 f   GetWinVer.obj
 0002:0006b1a0       ?InitialiseHighResTime@@YAXXZ 0067f1a0 f   hi_res_time.obj
 0002:0006b240       ?GetHighResTime@@YANXZ     0067f240 f   hi_res_time.obj
 0002:0006b2d0       ?GetLowLevelTime@@YANXZ    0067f2d0 f i hi_res_time.obj
 0002:0006b3d0       ?SetFakeTimeMode@@YAXXZ    0067f3d0 f   hi_res_time.obj
 0002:0006b430       ?SetRealTimeMode@@YAXXZ    0067f430 f   hi_res_time.obj
 0002:0006b4a0       ?IncrementFakeTime@@YAXN@Z 0067f4a0 f   hi_res_time.obj
 0002:0006b4f0       ??0LangPhrase@@QAE@XZ      0067f4f0 f   language_table.obj
 0002:0006b540       ??1LangPhrase@@QAE@XZ      0067f540 f   language_table.obj
 0002:0006b5b0       ??0LangTable@@QAE@PAD@Z    0067f5b0 f   language_table.obj
 0002:0006b6c0       ??1LangTable@@QAE@XZ       0067f6c0 f   language_table.obj
 0002:0006b8a0       ??_G?$DArray@PAVLangPhrase@@@@QAEPAXI@Z 0067f8a0 f i language_table.obj
 0002:0006b910       ??_G?$HashTable@H@@QAEPAXI@Z 0067f910 f i language_table.obj
 0002:0006b980       ?ParseLanguageFile@LangTable@@QAEXPBD@Z 0067f980 f   language_table.obj
 0002:0006bda0       ?is_suffix@@YA_NPBD0@Z     0067fda0 f   language_table.obj
 0002:0006be40       ?wrong_suffix@@YA_NPBDW4InputMode@@@Z 0067fe40 f   language_table.obj
 0002:0006bee0       ?chomp_mode_suffix@@YA_NPAD@Z 0067fee0 f   language_table.obj
 0002:0006bf80       ?specific_key_exists@LangTable@@AAE_NPBDW4InputMode@@@Z 0067ff80 f   language_table.obj
 0002:0006c100       ?printTable@@YA_NPBV?$HashTable@H@@PBDAAV?$basic_ostream@DU?$char_traits@D@std@@@std@@@Z 00680100 f   language_table.obj
 0002:0006c230       ?good@ios_base@std@@QBE_NXZ 00680230 f i language_table.obj
 0002:0006c290       ?rdstate@ios_base@std@@QBEHXZ 00680290 f i language_table.obj
 0002:0006c2d0       ?endl@std@@YAAAV?$basic_ostream@DU?$char_traits@D@std@@@1@AAV21@@Z 006802d0 f i language_table.obj
 0002:0006c330       ?RebuildTables@LangTable@@QAEXXZ 00680330 f   language_table.obj
 0002:0006c7c0       ??0ostrstream@std@@QAE@XZ  006807c0 f i language_table.obj
 0002:0006c8e0       ??0strstreambuf@std@@QAE@H@Z 006808e0 f i language_table.obj
 0002:0006c9a0       ?overflow@strstreambuf@std@@MAEHH@Z 006809a0 f i language_table.obj
 0002:0006cd90       ?pbackfail@strstreambuf@std@@MAEHH@Z 00680d90 f i language_table.obj
 0002:0006ce80       ?underflow@strstreambuf@std@@MAEHXZ 00680e80 f i language_table.obj
 0002:0006cfc0       ?seekoff@strstreambuf@std@@MAE?AV?$fpos@H@2@JHH@Z 00680fc0 f i language_table.obj
 0002:0006d290       ?seekpos@strstreambuf@std@@MAE?AV?$fpos@H@2@V32@H@Z 00681290 f i language_table.obj
 0002:0006d480       ?_Init@strstreambuf@std@@IAEXHPAD0H@Z 00681480 f i language_table.obj
 0002:0006d650       ??_Estrstreambuf@std@@UAEPAXI@Z 00681650 f i language_table.obj
 0002:0006d650       ??_Gstrstreambuf@std@@UAEPAXI@Z 00681650 f i language_table.obj
 0002:0006d6c0       ??1strstreambuf@std@@UAE@XZ 006816c0 f i language_table.obj
 0002:0006d770       ?_Tidy@strstreambuf@std@@IAEXXZ 00681770 f i language_table.obj
 0002:0006d830       ?str@ostrstream@std@@QAEPADXZ 00681830 f i language_table.obj
 0002:0006d890       ?str@strstreambuf@std@@QAEPADXZ 00681890 f i language_table.obj
 0002:0006d8f0       ?freeze@strstreambuf@std@@QAEX_N@Z 006818f0 f i language_table.obj
 0002:0006da00       ??_Gostrstream@std@@UAEPAXI@Z 00681a00 f i language_table.obj
 0002:0006da00       ??_Eostrstream@std@@UAEPAXI@Z 00681a00 f i language_table.obj
 0002:0006da80       ??_Dostrstream@std@@QAEXXZ 00681a80 f i language_table.obj
 0002:0006dae0       ??1ostrstream@std@@UAE@XZ  00681ae0 f i language_table.obj
 0002:0006dba0       ??_D?$basic_ofstream@DU?$char_traits@D@std@@@std@@QAEXXZ 00681ba0 f i language_table.obj
 0002:0006dc00       ?RebuildTable@LangTable@@AAEXPAV?$HashTable@H@@AAVostrstream@std@@W4InputMode@@@Z 00681c00 f   language_table.obj
 0002:0006df90       ?GetCurrentTable@LangTable@@AAEPAV?$HashTable@H@@XZ 00681f90 f   language_table.obj
 0002:0006e000       ?GetCurrentTable@LangTable@@AAEPAV?$HashTable@H@@W4InputMode@@@Z 00682000 f   language_table.obj
 0002:0006e0b0       ?DoesPhraseExist@LangTable@@QAE_NPBD@Z 006820b0 f   language_table.obj
 0002:0006e150       ?RawDoesPhraseExist@LangTable@@QAE_NPBDW4InputMode@@@Z 00682150 f   language_table.obj
 0002:0006e2b0       ?RawDoesPhraseExist@LangTable@@AAE_NPBD@Z 006822b0 f   language_table.obj
 0002:0006e330       ?LookupPhrase@LangTable@@QAEPADPBD@Z 00682330 f   language_table.obj
 0002:0006e430       ?RawLookupPhrase@LangTable@@QAEPADPBD@Z 00682430 f   language_table.obj
 0002:0006e4d0       ?RawLookupPhrase@LangTable@@QAEPADPBDW4InputMode@@@Z 006824d0 f   language_table.obj
 0002:0006e680       ?TestAgainstEnglish@LangTable@@QAEXXZ 00682680 f   language_table.obj
 0002:0006ea30       ??_GLangTable@@QAEPAXI@Z   00682a30 f i language_table.obj
 0002:0006eaa0       ?GetPhraseList@LangTable@@QAEPAV?$DArray@PAVLangPhrase@@@@XZ 00682aa0 f   language_table.obj
 0002:0006eb00       ?WordWrapText@@YAPAV?$LList@PAD@@PBDMM_N@Z 00682b00 f   language_table.obj
 0002:0006edd0       ?strchr@@YAPADPADH@Z       00682dd0 f i language_table.obj
 0002:0006ee30       ??0?$basic_ostream@DU?$char_traits@D@std@@@std@@QAE@PAV?$basic_streambuf@DU?$char_traits@D@std@@@1@_N@Z 00682e30 f i language_table.obj
 0002:0006ef40       ??1?$basic_ostream@DU?$char_traits@D@std@@@std@@UAE@XZ 00682f40 f i language_table.obj
 0002:0006ef90       ??6?$basic_ostream@DU?$char_traits@D@std@@@std@@QAEAAV01@P6AAAV01@AAV01@@Z@Z 00682f90 f i language_table.obj
 0002:0006f010       ?put@?$basic_ostream@DU?$char_traits@D@std@@@std@@QAEAAV12@D@Z 00683010 f i language_table.obj
 0002:0006f230       ?eq_int_type@?$char_traits@D@std@@SA_NABH0@Z 00683230 f i language_table.obj
 0002:0006f280       ?eof@?$char_traits@D@std@@SAHXZ 00683280 f i language_table.obj
 0002:0006f2c0       ?flush@?$basic_ostream@DU?$char_traits@D@std@@@std@@QAEAAV12@XZ 006832c0 f i language_table.obj
 0002:0006f380       ?fail@ios_base@std@@QBE_NXZ 00683380 f i language_table.obj
 0002:0006f3e0       ?tellp@?$basic_ostream@DU?$char_traits@D@std@@@std@@QAE?AV?$fpos@H@2@XZ 006833e0 f i language_table.obj
 0002:0006f490       ??1?$basic_ios@DU?$char_traits@D@std@@@std@@UAE@XZ 00683490 f i language_table.obj
 0002:0006f4f0       ??1ios_base@std@@UAE@XZ    006834f0 f i language_table.obj
 0002:0006f550       ??_Eios_base@std@@UAEPAXI@Z 00683550 f i language_table.obj
 0002:0006f550       ??_Gios_base@std@@UAEPAXI@Z 00683550 f i language_table.obj
 0002:0006f5c0       ?setstate@?$basic_ios@DU?$char_traits@D@std@@@std@@QAEXH_N@Z 006835c0 f i language_table.obj
 0002:0006f630       ?rdbuf@?$basic_ios@DU?$char_traits@D@std@@@std@@QBEPAV?$basic_streambuf@DU?$char_traits@D@std@@@2@XZ 00683630 f i language_table.obj
 0002:0006f670       ??0?$basic_ios@DU?$char_traits@D@std@@@std@@IAE@XZ 00683670 f i language_table.obj
 0002:0006f6d0       ??0ios_base@std@@IAE@XZ    006836d0 f i language_table.obj
 0002:0006f720       ??0?$basic_streambuf@DU?$char_traits@D@std@@@std@@IAE@XZ 00683720 f i language_table.obj
 0002:0006f840       ??0locale@std@@QAE@XZ      00683840 f i language_table.obj
 0002:0006f8b0       ?_Incref@facet@locale@std@@QAEXXZ 006838b0 f i language_table.obj
 0002:0006f970       ??1?$basic_streambuf@DU?$char_traits@D@std@@@std@@UAE@XZ 00683970 f i language_table.obj
 0002:0006fa30       ?eback@?$basic_streambuf@DU?$char_traits@D@std@@@std@@IBEPADXZ 00683a30 f i language_table.obj
 0002:0006fa70       ?gptr@?$basic_streambuf@DU?$char_traits@D@std@@@std@@IBEPADXZ 00683a70 f i language_table.obj
 0002:0006fab0       ?pbase@?$basic_streambuf@DU?$char_traits@D@std@@@std@@IBEPADXZ 00683ab0 f i language_table.obj
 0002:0006faf0       ?pptr@?$basic_streambuf@DU?$char_traits@D@std@@@std@@IBEPADXZ 00683af0 f i language_table.obj
 0002:0006fb30       ?egptr@?$basic_streambuf@DU?$char_traits@D@std@@@std@@IBEPADXZ 00683b30 f i language_table.obj
 0002:0006fb80       ?gbump@?$basic_streambuf@DU?$char_traits@D@std@@@std@@IAEXH@Z 00683b80 f i language_table.obj
 0002:0006fbf0       ?setg@?$basic_streambuf@DU?$char_traits@D@std@@@std@@IAEXPAD00@Z 00683bf0 f i language_table.obj
 0002:0006fc60       ?epptr@?$basic_streambuf@DU?$char_traits@D@std@@@std@@IBEPADXZ 00683c60 f i language_table.obj
 0002:0006fcb0       ?pbump@?$basic_streambuf@DU?$char_traits@D@std@@@std@@IAEXH@Z 00683cb0 f i language_table.obj
 0002:0006fd20       ?setp@?$basic_streambuf@DU?$char_traits@D@std@@@std@@IAEXPAD0@Z 00683d20 f i language_table.obj
 0002:0006fd90       ?setp@?$basic_streambuf@DU?$char_traits@D@std@@@std@@IAEXPAD00@Z 00683d90 f i language_table.obj
 0002:0006fe00       ?_Pninc@?$basic_streambuf@DU?$char_traits@D@std@@@std@@IAEPADXZ 00683e00 f i language_table.obj
 0002:0006fe80       ?_Init@?$basic_streambuf@DU?$char_traits@D@std@@@std@@IAEXXZ 00683e80 f i language_table.obj
 0002:0006ff40       ?overflow@?$basic_streambuf@DU?$char_traits@D@std@@@std@@MAEHH@Z 00683f40 f i language_table.obj
 0002:0006ff90       ?pbackfail@?$basic_streambuf@DU?$char_traits@D@std@@@std@@MAEHH@Z 00683f90 f i language_table.obj
 0002:0006ffe0       ?showmanyc@?$basic_streambuf@DU?$char_traits@D@std@@@std@@MAEHXZ 00683fe0 f i language_table.obj
 0002:00070020       ?underflow@?$basic_streambuf@DU?$char_traits@D@std@@@std@@MAEHXZ 00684020 f i language_table.obj
 0002:00070070       ?uflow@?$basic_streambuf@DU?$char_traits@D@std@@@std@@MAEHXZ 00684070 f i language_table.obj
 0002:00070140       ?to_int_type@?$char_traits@D@std@@SAHABD@Z 00684140 f i language_table.obj
 0002:00070180       ?xsgetn@?$basic_streambuf@DU?$char_traits@D@std@@@std@@MAEHPADH@Z 00684180 f i language_table.obj
 0002:000701f0       ?_Xsgetn_s@?$basic_streambuf@DU?$char_traits@D@std@@@std@@MAEHPADIH@Z 006841f0 f i language_table.obj
 0002:000703b0       ?to_char_type@?$char_traits@D@std@@SADABH@Z 006843b0 f i language_table.obj
 0002:000703f0       ?xsputn@?$basic_streambuf@DU?$char_traits@D@std@@@std@@MAEHPBDH@Z 006843f0 f i language_table.obj
 0002:00070580       ?seekoff@?$basic_streambuf@DU?$char_traits@D@std@@@std@@MAE?AV?$fpos@H@2@JHH@Z 00684580 f i language_table.obj
 0002:000705e0       ?seekpos@?$basic_streambuf@DU?$char_traits@D@std@@@std@@MAE?AV?$fpos@H@2@V32@H@Z 006845e0 f i language_table.obj
 0002:00070640       ?setbuf@?$basic_streambuf@DU?$char_traits@D@std@@@std@@MAEPAV12@PADH@Z 00684640 f i language_table.obj
 0002:00070680       ?sync@?$basic_streambuf@DU?$char_traits@D@std@@@std@@MAEHXZ 00684680 f i language_table.obj
 0002:000706c0       ?imbue@?$basic_streambuf@DU?$char_traits@D@std@@@std@@MAEXABVlocale@2@@Z 006846c0 f i language_table.obj
 0002:00070700       ??0?$fpos@H@std@@QAE@J@Z   00684700 f i language_table.obj
 0002:00070770       ??B?$fpos@H@std@@QBEJXZ    00684770 f i language_table.obj
 0002:000707c0       ??0?$basic_ofstream@DU?$char_traits@D@std@@@std@@QAE@PBDHH@Z 006847c0 f i language_table.obj
 0002:00070920       ??1?$basic_ofstream@DU?$char_traits@D@std@@@std@@UAE@XZ 00684920 f i language_table.obj
 0002:000709e0       ??1?$basic_filebuf@DU?$char_traits@D@std@@@std@@UAE@XZ 006849e0 f i language_table.obj
 0002:00070aa0       ?overflow@?$basic_filebuf@DU?$char_traits@D@std@@@std@@MAEHH@Z 00684aa0 f i language_table.obj
 0002:000710f0       ?not_eof@?$char_traits@D@std@@SAHABH@Z 006850f0 f i language_table.obj
 0002:00071170       ??$_Fputc@D@std@@YA_NDPAU_iobuf@@@Z 00685170 f i language_table.obj
 0002:000711d0       ?pbackfail@?$basic_filebuf@DU?$char_traits@D@std@@@std@@MAEHH@Z 006851d0 f i language_table.obj
 0002:000713d0       ??$_Ungetc@D@std@@YA_NABDPAU_iobuf@@@Z 006853d0 f i language_table.obj
 0002:00071440       ?underflow@?$basic_filebuf@DU?$char_traits@D@std@@@std@@MAEHXZ 00685440 f i language_table.obj
 0002:00071580       ?uflow@?$basic_filebuf@DU?$char_traits@D@std@@@std@@MAEHXZ 00685580 f i language_table.obj
 0002:00071b60       ??$_Fgetc@D@std@@YA_NAADPAU_iobuf@@@Z 00685b60 f i language_table.obj
 0002:00071bd0       ?seekoff@?$basic_filebuf@DU?$char_traits@D@std@@@std@@MAE?AV?$fpos@H@2@JHH@Z 00685bd0 f i language_table.obj
 0002:00071d70       ?seekpos@?$basic_filebuf@DU?$char_traits@D@std@@@std@@MAE?AV?$fpos@H@2@V32@H@Z 00685d70 f i language_table.obj
 0002:00071f20       ?setbuf@?$basic_filebuf@DU?$char_traits@D@std@@@std@@MAEPAV?$basic_streambuf@DU?$char_traits@D@std@@@2@PADH@Z 00685f20 f i language_table.obj
 0002:00071ff0       ?sync@?$basic_filebuf@DU?$char_traits@D@std@@@std@@MAEHXZ 00685ff0 f i language_table.obj
 0002:000720e0       ?imbue@?$basic_filebuf@DU?$char_traits@D@std@@@std@@MAEXABVlocale@2@@Z 006860e0 f i language_table.obj
 0002:00072150       ??_G?$basic_ostream@DU?$char_traits@D@std@@@std@@UAEPAXI@Z 00686150 f i language_table.obj
 0002:00072150       ??_E?$basic_ostream@DU?$char_traits@D@std@@@std@@UAEPAXI@Z 00686150 f i language_table.obj
 0002:000721d0       ??_G?$basic_ios@DU?$char_traits@D@std@@@std@@UAEPAXI@Z 006861d0 f i language_table.obj
 0002:000721d0       ??_E?$basic_ios@DU?$char_traits@D@std@@@std@@UAEPAXI@Z 006861d0 f i language_table.obj
 0002:00072240       ??_E?$basic_streambuf@DU?$char_traits@D@std@@@std@@UAEPAXI@Z 00686240 f i language_table.obj
 0002:00072240       ??_G?$basic_streambuf@DU?$char_traits@D@std@@@std@@UAEPAXI@Z 00686240 f i language_table.obj
 0002:000722b0       ??_G?$basic_ofstream@DU?$char_traits@D@std@@@std@@UAEPAXI@Z 006862b0 f i language_table.obj
 0002:000722b0       ??_E?$basic_ofstream@DU?$char_traits@D@std@@@std@@UAEPAXI@Z 006862b0 f i language_table.obj
 0002:00072330       ??_G?$basic_filebuf@DU?$char_traits@D@std@@@std@@UAEPAXI@Z 00686330 f i language_table.obj
 0002:00072330       ??_E?$basic_filebuf@DU?$char_traits@D@std@@@std@@UAEPAXI@Z 00686330 f i language_table.obj
 0002:000723a0       ??1?$_String_iterator@DU?$char_traits@D@std@@V?$allocator@D@2@@std@@QAE@XZ 006863a0 f i language_table.obj
 0002:000723f0       ??_D?$basic_ostream@DU?$char_traits@D@std@@@std@@QAEXXZ 006863f0 f i language_table.obj
 0002:00072450       ??1?$_String_const_iterator@DU?$char_traits@D@std@@V?$allocator@D@2@@std@@QAE@XZ 00686450 f i language_table.obj
 0002:000724a0       ??1?$_Ranit_base@DHPBDABDV_Iterator_base@std@@@std@@QAE@XZ 006864a0 f i language_table.obj
 0002:000724f0       ??0?$basic_string@DU?$char_traits@D@std@@V?$allocator@D@2@@std@@QAE@ID@Z 006864f0 f i language_table.obj
 0002:000725c0       ?append@?$basic_string@DU?$char_traits@D@std@@V?$allocator@D@2@@std@@QAEAAV12@ID@Z 006865c0 f i language_table.obj
 0002:00072690       ?begin@?$basic_string@DU?$char_traits@D@std@@V?$allocator@D@2@@std@@QAE?AV?$_String_iterator@DU?$char_traits@D@std@@V?$allocator@D@2@@2@XZ 00686690 f i language_table.obj
 0002:00072720       ?clear@?$basic_ios@DU?$char_traits@D@std@@@std@@QAEXH_N@Z 00686720 f i language_table.obj
 0002:000727b0       ?clear@ios_base@std@@QAEXH_N@Z 006867b0 f i language_table.obj
 0002:000729c0       ??0runtime_error@std@@QAE@ABV01@@Z 006869c0 f i language_table.obj
 0002:00072a90       ?what@runtime_error@std@@UBEPBDXZ 00686a90 f i language_table.obj
 0002:00072af0       ??_Gruntime_error@std@@UAEPAXI@Z 00686af0 f i language_table.obj
 0002:00072af0       ??_Eruntime_error@std@@UAEPAXI@Z 00686af0 f i language_table.obj
 0002:00072b60       ??1runtime_error@std@@UAE@XZ 00686b60 f i language_table.obj
 0002:00072bd0       ??0failure@ios_base@std@@QAE@ABV?$basic_string@DU?$char_traits@D@std@@V?$allocator@D@2@@2@@Z 00686bd0 f i language_table.obj
 0002:00072c40       ??0runtime_error@std@@QAE@ABV?$basic_string@DU?$char_traits@D@std@@V?$allocator@D@2@@1@@Z 00686c40 f i language_table.obj
 0002:00072d00       ??1failure@ios_base@std@@UAE@XZ 00686d00 f i language_table.obj
 0002:00072d60       ??_Gfailure@ios_base@std@@UAEPAXI@Z 00686d60 f i language_table.obj
 0002:00072d60       ??_Efailure@ios_base@std@@UAEPAXI@Z 00686d60 f i language_table.obj
 0002:00072dd0       ??0failure@ios_base@std@@QAE@ABV012@@Z 00686dd0 f i language_table.obj
 0002:00072e40       ?init@?$basic_ios@DU?$char_traits@D@std@@@std@@IAEXPAV?$basic_streambuf@DU?$char_traits@D@std@@@2@_N@Z 00686e40 f i language_table.obj
 0002:00072f00       ?_Init@ios_base@std@@IAEXXZ 00686f00 f i language_table.obj
 0002:00073010       ?clear@ios_base@std@@QAEXH@Z 00687010 f i language_table.obj
 0002:00073070       ?pubseekoff@?$basic_streambuf@DU?$char_traits@D@std@@@std@@QAE?AV?$fpos@H@2@JHH@Z 00687070 f i language_table.obj
 0002:000730f0       ?pubsync@?$basic_streambuf@DU?$char_traits@D@std@@@std@@QAEHXZ 006870f0 f i language_table.obj
 0002:00073150       ?sputc@?$basic_streambuf@DU?$char_traits@D@std@@@std@@QAEHD@Z 00687150 f i language_table.obj
 0002:00073220       ?_Gndec@?$basic_streambuf@DU?$char_traits@D@std@@@std@@IAEPADXZ 00687220 f i language_table.obj
 0002:00073290       ?_Gninc@?$basic_streambuf@DU?$char_traits@D@std@@@std@@IAEPADXZ 00687290 f i language_table.obj
 0002:00073310       ?_Gnavail@?$basic_streambuf@DU?$char_traits@D@std@@@std@@IBEHXZ 00687310 f i language_table.obj
 0002:00073380       ?_Pnavail@?$basic_streambuf@DU?$char_traits@D@std@@@std@@IBEHXZ 00687380 f i language_table.obj
 0002:000733f0       ??0?$fpos@H@std@@QAE@H_J@Z 006873f0 f i language_table.obj
 0002:00073460       ?state@?$fpos@H@std@@QBEHXZ 00687460 f i language_table.obj
 0002:000734a0       ?seekpos@?$fpos@H@std@@QBE_JXZ 006874a0 f i language_table.obj
 0002:000734e0       ??0?$basic_filebuf@DU?$char_traits@D@std@@@std@@QAE@PAU_iobuf@@@Z 006874e0 f i language_table.obj
 0002:000735a0       ?open@?$basic_filebuf@DU?$char_traits@D@std@@@std@@QAEPAV12@PBDHH@Z 006875a0 f i language_table.obj
 0002:000736d0       ??1locale@std@@QAE@XZ      006876d0 f i language_table.obj
 0002:00073740       ?_Decref@facet@locale@std@@QAEPAV123@XZ 00687740 f i language_table.obj
 0002:00073820       ?close@?$basic_filebuf@DU?$char_traits@D@std@@@std@@QAEPAV12@XZ 00687820 f i language_table.obj
 0002:000738e0       ?_Init@?$basic_filebuf@DU?$char_traits@D@std@@@std@@IAEXPAU_iobuf@@W4_Initfl@12@@Z 006878e0 f i language_table.obj
 0002:000739e0       ?_Endwrite@?$basic_filebuf@DU?$char_traits@D@std@@@std@@IAE_NXZ 006879e0 f i language_table.obj
 0002:00073eb0       ?_Initcvt@?$basic_filebuf@DU?$char_traits@D@std@@@std@@IAEXPAV?$codecvt@DDH@2@@Z 00687eb0 f i language_table.obj
 0002:00073f30       ?always_noconv@codecvt_base@std@@QBE_NXZ 00687f30 f i language_table.obj
 0002:00073f90       ??0sentry@?$basic_ostream@DU?$char_traits@D@std@@@std@@QAE@AAV12@@Z 00687f90 f i language_table.obj
 0002:000740b0       ??1sentry@?$basic_ostream@DU?$char_traits@D@std@@@std@@QAE@XZ 006880b0 f i language_table.obj
 0002:00074160       ??Bsentry@?$basic_ostream@DU?$char_traits@D@std@@@std@@QBE_NXZ 00688160 f i language_table.obj
 0002:000741a0       ?in@?$codecvt@DDH@std@@QBEHAAHPBD1AAPBDPAD3AAPAD@Z 006881a0 f i language_table.obj
 0002:00074230       ?out@?$codecvt@DDH@std@@QBEHAAHPBD1AAPBDPAD3AAPAD@Z 00688230 f i language_table.obj
 0002:000742c0       ??D?$_String_iterator@DU?$char_traits@D@std@@V?$allocator@D@2@@std@@QBEAADXZ 006882c0 f i language_table.obj
 0002:00074310       ?assign@?$basic_string@DU?$char_traits@D@std@@V?$allocator@D@2@@std@@QAEAAV12@ID@Z 00688310 f i language_table.obj
 0002:000743b0       ?_Chassign@?$basic_string@DU?$char_traits@D@std@@V?$allocator@D@2@@std@@IAEXIID@Z 006883b0 f i language_table.obj
 0002:00074450       ?assign@?$char_traits@D@std@@SAPADPADID@Z 00688450 f i language_table.obj
 0002:000744b0       ?_Osfx@?$basic_ostream@DU?$char_traits@D@std@@@std@@QAEXXZ 006884b0 f i language_table.obj
 0002:00074590       ?flags@ios_base@std@@QBEHXZ 00688590 f i language_table.obj
 0002:000745d0       ?tie@?$basic_ios@DU?$char_traits@D@std@@@std@@QBEPAV?$basic_ostream@DU?$char_traits@D@std@@@2@XZ 006885d0 f i language_table.obj
 0002:00074610       ?widen@?$basic_ios@DU?$char_traits@D@std@@@std@@QBEDD@Z 00688610 f i language_table.obj
 0002:00074700       ?widen@?$ctype@D@std@@QBEDD@Z 00688700 f i language_table.obj
 0002:00074770       ?getloc@ios_base@std@@QBE?AVlocale@2@XZ 00688770 f i language_table.obj
 0002:000747f0       ??0locale@std@@QAE@ABV01@@Z 006887f0 f i language_table.obj
 0002:00074860       ?getloc@?$basic_streambuf@DU?$char_traits@D@std@@@std@@QBE?AVlocale@2@XZ 00688860 f i language_table.obj
 0002:000748e0       ?_Init@?$basic_streambuf@DU?$char_traits@D@std@@@std@@IAEXPAPAD0PAH001@Z 006888e0 f i language_table.obj
 0002:00074960       ??0_Sentry_base@?$basic_ostream@DU?$char_traits@D@std@@@std@@QAE@AAV12@@Z 00688960 f i language_table.obj
 0002:00074a00       ?_Lock@?$basic_streambuf@DU?$char_traits@D@std@@@std@@QAEXXZ 00688a00 f i language_table.obj
 0002:00074a60       ??1_Sentry_base@?$basic_ostream@DU?$char_traits@D@std@@@std@@QAE@XZ 00688a60 f i language_table.obj
 0002:00074af0       ?_Unlock@?$basic_streambuf@DU?$char_traits@D@std@@@std@@QAEXXZ 00688af0 f i language_table.obj
 0002:00074b50       ??D?$_String_const_iterator@DU?$char_traits@D@std@@V?$allocator@D@2@@std@@QBEABDXZ 00688b50 f i language_table.obj
 0002:00074c50       ?unshift@?$codecvt@DDH@std@@QBEHAAHPAD1AAPAD@Z 00688c50 f i language_table.obj
 0002:00074cd0       ??0?$_String_iterator@DU?$char_traits@D@std@@V?$allocator@D@2@@std@@QAE@PADPBV_Container_base@1@@Z 00688cd0 f i language_table.obj
 0002:00074d30       ??0?$_String_const_iterator@DU?$char_traits@D@std@@V?$allocator@D@2@@std@@QAE@PBDPBV_Container_base@1@@Z 00688d30 f i language_table.obj
 0002:00074e70       ??0?$_Ranit_base@DHPBDABDV_Iterator_base@std@@@std@@QAE@XZ 00688e70 f i language_table.obj
 0002:00074ed0       ??$_DebugHeapDelete@Vfacet@locale@std@@@std@@YAXPAVfacet@locale@0@@Z 00688ed0 f i language_table.obj
 0002:00074f50       ??$use_facet@V?$ctype@D@std@@@std@@YAABV?$ctype@D@0@ABVlocale@0@@Z 00688f50 f i language_table.obj
 0002:00075110       ??Bid@locale@std@@QAEIXZ   00689110 f i language_table.obj
 0002:000751e0       ?_Register@facet@locale@std@@QAEXXZ 006891e0 f i language_table.obj
 0002:00075240       ?_Getfacet@locale@std@@QBEPBVfacet@12@I@Z 00689240 f i language_table.obj
 0002:00075330       ?_Getcat@?$ctype@D@std@@SAIPAPBVfacet@locale@2@@Z 00689330 f i language_table.obj
 0002:00075460       ??2facet@locale@std@@SAPAXIABU_DebugHeapTag_t@2@PADH@Z 00689460 f i language_table.obj
 0002:000754c0       ??3facet@locale@std@@SAXPAXABU_DebugHeapTag_t@2@PADH@Z 006894c0 f i language_table.obj
 0002:00075510       ??3facet@locale@std@@SAXPAX@Z 00689510 f i language_table.obj
 0002:00075560       ??0?$ctype@D@std@@QAE@PBF_NI@Z 00689560 f i language_table.obj
 0002:000756c0       ??0_Locinfo@std@@QAE@PBD@Z 006896c0 f i language_table.obj
 0002:00075820       ??1_Locinfo@std@@QAE@XZ    00689820 f i language_table.obj
 0002:00075910       ??0ctype_base@std@@QAE@I@Z 00689910 f i language_table.obj
 0002:00075980       ??0facet@locale@std@@IAE@I@Z 00689980 f i language_table.obj
 0002:000759e0       ??_Gfacet@locale@std@@UAEPAXI@Z 006899e0 f i language_table.obj
 0002:000759e0       ??_Efacet@locale@std@@UAEPAXI@Z 006899e0 f i language_table.obj
 0002:00075a50       ??1facet@locale@std@@UAE@XZ 00689a50 f i language_table.obj
 0002:00075a90       ??1ctype_base@std@@UAE@XZ  00689a90 f i language_table.obj
 0002:00075af0       ??_Ectype_base@std@@UAEPAXI@Z 00689af0 f i language_table.obj
 0002:00075af0       ??_Gctype_base@std@@UAEPAXI@Z 00689af0 f i language_table.obj
 0002:00075b60       ?_Init@?$ctype@D@std@@IAEXABV_Locinfo@2@@Z 00689b60 f i language_table.obj
 0002:00075be0       ?_Getctype@_Locinfo@std@@QBE?AU_Ctypevec@@XZ 00689be0 f i language_table.obj
 0002:00075ca0       ?_Tidy@?$ctype@D@std@@IAEXXZ 00689ca0 f i language_table.obj
 0002:00075d40       ?do_tolower@?$ctype@D@std@@MBEDD@Z 00689d40 f i language_table.obj
 0002:00075da0       ?do_tolower@?$ctype@D@std@@MBEPBDPADPBD@Z 00689da0 f i language_table.obj
 0002:00075e50       ?do_toupper@?$ctype@D@std@@MBEDD@Z 00689e50 f i language_table.obj
 0002:00075eb0       ?do_toupper@?$ctype@D@std@@MBEPBDPADPBD@Z 00689eb0 f i language_table.obj
 0002:00075f60       ?do_widen@?$ctype@D@std@@MBEDD@Z 00689f60 f i language_table.obj
 0002:00075fa0       ?do_widen@?$ctype@D@std@@MBEPBDPBD0PAD@Z 00689fa0 f i language_table.obj
 0002:00076020       ?_Do_widen_s@?$ctype@D@std@@MBEPBDPBD0PADI@Z 0068a020 f i language_table.obj
 0002:00076130       ?do_narrow@?$ctype@D@std@@MBEDDD@Z 0068a130 f i language_table.obj
 0002:00076170       ?do_narrow@?$ctype@D@std@@MBEPBDPBD0DPAD@Z 0068a170 f i language_table.obj
 0002:000761f0       ?_Do_narrow_s@?$ctype@D@std@@MBEPBDPBD0DPADI@Z 0068a1f0 f i language_table.obj
 0002:00076300       ??_G?$ctype@D@std@@MAEPAXI@Z 0068a300 f i language_table.obj
 0002:00076300       ??_E?$ctype@D@std@@MAEPAXI@Z 0068a300 f i language_table.obj
 0002:00076370       ??1?$ctype@D@std@@MAE@XZ   0068a370 f i language_table.obj
 0002:00076420       ??$_Debug_range@PBD@std@@YAXPBD0PB_WI@Z 0068a420 f i language_table.obj
 0002:000764a0       ??$_Debug_pointer@D@std@@YAXPADPB_WI@Z 0068a4a0 f i language_table.obj
 0002:00076500       ??0?$BTree@PAVLangPhrase@@@@QAE@XZ 0068a500 f i language_table.obj
 0002:00076570       ??1?$BTree@PAVLangPhrase@@@@QAE@XZ 0068a570 f i language_table.obj
 0002:000765c0       ?PutData@?$BTree@PAVLangPhrase@@@@QAEXPBDABQAVLangPhrase@@@Z 0068a5c0 f i language_table.obj
 0002:00076840       ?RemoveData@?$BTree@PAVLangPhrase@@@@QAEXPBD@Z 0068a840 f i language_table.obj
 0002:00076bd0       ?GetData@?$BTree@PAVLangPhrase@@@@QAEPAVLangPhrase@@PBD@Z 0068abd0 f i language_table.obj
 0002:00076c40       ?LookupTree@?$BTree@PAVLangPhrase@@@@QAEPAV1@PBD@Z 0068ac40 f i language_table.obj
 0002:00076d40       ?ConvertToDArray@?$BTree@PAVLangPhrase@@@@QAEPAV?$DArray@PAVLangPhrase@@@@XZ 0068ad40 f i language_table.obj
 0002:00076e40       ??0?$HashTable@H@@QAE@XZ   0068ae40 f i language_table.obj
 0002:00076f90       ??1?$HashTable@H@@QAE@XZ   0068af90 f i language_table.obj
 0002:00077030       ?PutData@?$HashTable@H@@QAEHPBDABH@Z 0068b030 f i language_table.obj
 0002:00077150       ?GetData@?$HashTable@H@@QBEHI@Z 0068b150 f i language_table.obj
 0002:000771a0       ?GetData@?$HashTable@H@@QBEHPBDABH@Z 0068b1a0 f i language_table.obj
 0002:00077220       ?ValidIndex@?$HashTable@H@@QBE_NI@Z 0068b220 f i language_table.obj
 0002:00077270       ?Size@?$HashTable@H@@QBEIXZ 0068b270 f i language_table.obj
 0002:000772b0       ?GetName@?$HashTable@H@@QBEPBDI@Z 0068b2b0 f i language_table.obj
 0002:00077300       ??1?$DArray@PAVLangPhrase@@@@QAE@XZ 0068b300 f i language_table.obj
 0002:00077350       ?GetData@?$DArray@PAVLangPhrase@@@@QBEPAVLangPhrase@@H@Z 0068b350 f i language_table.obj
 0002:00077470       ?Size@?$DArray@PAVLangPhrase@@@@QBEHXZ 0068b470 f i language_table.obj
 0002:000774b0       ?ValidIndex@?$DArray@PAVLangPhrase@@@@QBE_NH@Z 0068b4b0 f i language_table.obj
 0002:00077520       ?EmptyAndDelete@?$DArray@PAVLangPhrase@@@@QAEXXZ 0068b520 f i language_table.obj
 0002:00077610       ??$?6U?$char_traits@D@std@@@std@@YAAAV?$basic_ostream@DU?$char_traits@D@std@@@0@AAV10@PBD@Z 0068b610 f i language_table.obj
 0002:00077ab0       ?width@ios_base@std@@QBEHXZ 0068bab0 f i language_table.obj
 0002:00077af0       ?width@ios_base@std@@QAEHH@Z 0068baf0 f i language_table.obj
 0002:00077b50       ??$?6U?$char_traits@D@std@@@std@@YAAAV?$basic_ostream@DU?$char_traits@D@std@@@0@AAV10@D@Z 0068bb50 f i language_table.obj
 0002:00078000       ??$_Debug_pointer@$$A6AAAV?$basic_ostream@DU?$char_traits@D@std@@@std@@AAV12@@Z@std@@YAXP6AAAV?$basic_ostream@DU?$char_traits@D@std@@@0@AAV10@@ZPB_WI@Z 0068c000 f i language_table.obj
 0002:00078060       ??$_DebugHeapDelete@Vlocale@std@@@std@@YAXPAVlocale@0@@Z 0068c060 f i language_table.obj
 0002:000780d0       ??$use_facet@V?$codecvt@DDH@std@@@std@@YAABV?$codecvt@DDH@0@ABVlocale@0@@Z 0068c0d0 f i language_table.obj
 0002:00078290       ??_GLangPhrase@@QAEPAXI@Z  0068c290 f i language_table.obj
 0002:00078300       ??_Glocale@std@@QAEPAXI@Z  0068c300 f i language_table.obj
 0002:00078370       ?fill@?$basic_ios@DU?$char_traits@D@std@@@std@@QBEDXZ 0068c370 f i language_table.obj
 0002:000783b0       ?sputn@?$basic_streambuf@DU?$char_traits@D@std@@@std@@QAEHPBDH@Z 0068c3b0 f i language_table.obj
 0002:00078420       ?_Getcat@?$codecvt@DDH@std@@SAIPAPBVfacet@locale@2@@Z 0068c420 f i language_table.obj
 0002:00078550       ??0?$codecvt@DDH@std@@QAE@I@Z 0068c550 f i language_table.obj
 0002:00078690       ??0codecvt_base@std@@QAE@I@Z 0068c690 f i language_table.obj
 0002:00078700       ??1codecvt_base@std@@UAE@XZ 0068c700 f i language_table.obj
 0002:00078760       ?do_always_noconv@codecvt_base@std@@MBE_NXZ 0068c760 f i language_table.obj
 0002:000787a0       ?do_max_length@codecvt_base@std@@MBEHXZ 0068c7a0 f i language_table.obj
 0002:000787e0       ?do_encoding@codecvt_base@std@@MBEHXZ 0068c7e0 f i language_table.obj
 0002:00078820       ??_Ecodecvt_base@std@@UAEPAXI@Z 0068c820 f i language_table.obj
 0002:00078820       ??_Gcodecvt_base@std@@UAEPAXI@Z 0068c820 f i language_table.obj
 0002:00078890       ?do_in@?$codecvt@DDH@std@@MBEHAAHPBD1AAPBDPAD3AAPAD@Z 0068c890 f i language_table.obj
 0002:000788f0       ?do_out@?$codecvt@DDH@std@@MBEHAAHPBD1AAPBDPAD3AAPAD@Z 0068c8f0 f i language_table.obj
 0002:00078950       ?do_unshift@?$codecvt@DDH@std@@MBEHAAHPAD1AAPAD@Z 0068c950 f i language_table.obj
 0002:000789a0       ?do_length@?$codecvt@DDH@std@@MBEHABHPBD1I@Z 0068c9a0 f i language_table.obj
 0002:00078a10       ??_G?$codecvt@DDH@std@@MAEPAXI@Z 0068ca10 f i language_table.obj
 0002:00078a10       ??_E?$codecvt@DDH@std@@MAEPAXI@Z 0068ca10 f i language_table.obj
 0002:00078a80       ??1?$codecvt@DDH@std@@MAE@XZ 0068ca80 f i language_table.obj
 0002:00078ae0       ?_Init@?$codecvt@DDH@std@@IAEXABV_Locinfo@2@@Z 0068cae0 f i language_table.obj
 0002:00078b20       ??$_Iter_cat@PBD@std@@YA?AUrandom_access_iterator_tag@0@ABQBD@Z 0068cb20 f i language_table.obj
 0002:00078b90       ??$_Debug_range2@PBD@std@@YAXPBD0PB_WIUrandom_access_iterator_tag@0@@Z 0068cb90 f i language_table.obj
 0002:00078c30       ?RecursiveConvertToDArray@?$BTree@PAVLangPhrase@@@@IAEXPAV?$DArray@PAVLangPhrase@@@@PAV1@@Z 0068cc30 f i language_table.obj
 0002:00078d20       ?AppendRight@?$BTree@PAVLangPhrase@@@@IAEXPAV1@@Z 0068cd20 f i language_table.obj
 0002:00078da0       ??0?$BTree@PAVLangPhrase@@@@QAE@PBDABQAVLangPhrase@@@Z 0068cda0 f i language_table.obj
 0002:00078e60       ?Empty@?$BTree@PAVLangPhrase@@@@QAEXXZ 0068ce60 f i language_table.obj
 0002:00078f90       ?Left@?$BTree@PAVLangPhrase@@@@QBEPAV1@XZ 0068cf90 f i language_table.obj
 0002:00078fd0       ?Right@?$BTree@PAVLangPhrase@@@@QBEPAV1@XZ 0068cfd0 f i language_table.obj
 0002:00079010       ??0?$DArray@PAVLangPhrase@@@@QAE@XZ 0068d010 f i language_table.obj
 0002:00079080       ?Empty@?$DArray@PAVLangPhrase@@@@QAEXXZ 0068d080 f i language_table.obj
 0002:00079130       ?Grow@?$HashTable@H@@IAEXXZ 0068d130 f i language_table.obj
 0002:00079380       ?GetInsertPos@?$HashTable@H@@IBEIPBD@Z 0068d380 f i language_table.obj
 0002:000794b0       ?GetIndex@?$HashTable@H@@QBEHPBD@Z 0068d4b0 f i language_table.obj
 0002:00079580       ?Empty@?$HashTable@H@@QAEXXZ 0068d580 f i language_table.obj
 0002:00079650       ??_G?$BTree@PAVLangPhrase@@@@QAEPAXI@Z 0068d650 f i language_table.obj
 0002:000796c0       ?PutData@?$DArray@PAVLangPhrase@@@@QAEHABQAVLangPhrase@@@Z 0068d6c0 f i language_table.obj
 0002:000797b0       ?HashFunc@?$HashTable@H@@IBEIPBD@Z 0068d7b0 f i language_table.obj
 0002:00079890       ?Grow@?$DArray@PAVLangPhrase@@@@IAEXXZ 0068d890 f i language_table.obj
 0002:00079930       ?SetSize@?$DArray@PAVLangPhrase@@@@QAEXH@Z 0068d930 f i language_table.obj
 0002:00079c30       ??0id@locale@std@@QAE@I@Z  0068dc30 f i language_table.obj
 0002:00079c80       ??0CMiniVersion@@QAE@PBD@Z 0068dc80 f   MiniVersion.obj
 0002:00079e20       ?Init@CMiniVersion@@QAEHXZ 0068de20 f   MiniVersion.obj
 0002:0007a090       ?Release@CMiniVersion@@QAEXXZ 0068e090 f   MiniVersion.obj
 0002:0007a110       ?GetFileVersion@CMiniVersion@@QAEHPAG@Z 0068e110 f   MiniVersion.obj
 0002:0007a1a0       ?GetProductVersion@CMiniVersion@@QAEHPAG@Z 0068e1a0 f   MiniVersion.obj
 0002:0007a230       ?GetFileFlags@CMiniVersion@@QAEHAAK@Z 0068e230 f   MiniVersion.obj
 0002:0007a280       ?GetFileOS@CMiniVersion@@QAEHAAK@Z 0068e280 f   MiniVersion.obj
 0002:0007a2d0       ?GetFileType@CMiniVersion@@QAEHAAK@Z 0068e2d0 f   MiniVersion.obj
 0002:0007a320       ?GetFileSubtype@CMiniVersion@@QAEHAAK@Z 0068e320 f   MiniVersion.obj
 0002:0007a370       ?GetCompanyName@CMiniVersion@@QAEHPADH@Z 0068e370 f   MiniVersion.obj
 0002:0007a410       ?GetFileDescription@CMiniVersion@@QAEHPADH@Z 0068e410 f   MiniVersion.obj
 0002:0007a4b0       ?GetProductName@CMiniVersion@@QAEHPADH@Z 0068e4b0 f   MiniVersion.obj
 0002:0007a550       ?GetFixedInfo@CMiniVersion@@IAEHAAUtagVS_FIXEDFILEINFO@@@Z 0068e550 f   MiniVersion.obj
 0002:0007a660       ?GetStringInfo@CMiniVersion@@IAEHPBDPAD@Z 0068e660 f   MiniVersion.obj
 0002:0007a860       ??0PosterMaker@@QAE@HH@Z   0068e860 f   poster_maker.obj
 0002:0007aa00       ??1PosterMaker@@QAE@XZ     0068ea00 f   poster_maker.obj
 0002:0007aad0       ??_GBitmapRGBA@@QAEPAXI@Z  0068ead0 f i poster_maker.obj
 0002:0007ab40       ?AddFrame@PosterMaker@@QAEXXZ 0068eb40 f   poster_maker.obj
 0002:0007ad90       ?SavePoster@PosterMaker@@QAEXXZ 0068ed90 f   poster_maker.obj
 0002:0007aed0       ?GetBitmap@PosterMaker@@QAEPAVBitmapRGBA@@XZ 0068eed0 f   poster_maker.obj
 0002:0007af10       ??0PrefsItem@@QAE@XZ       0068ef10 f   preferences.obj
 0002:0007af70       ??0PrefsItem@@QAE@PAD@Z    0068ef70 f   preferences.obj
 0002:0007b1c0       ??0PrefsItem@@QAE@PBD0@Z   0068f1c0 f   preferences.obj
 0002:0007b250       ??0PrefsItem@@QAE@PBDM@Z   0068f250 f   preferences.obj
 0002:0007b2d0       ??0PrefsItem@@QAE@PBDH@Z   0068f2d0 f   preferences.obj
 0002:0007b350       ??1PrefsItem@@QAE@XZ       0068f350 f   preferences.obj
 0002:0007b3d0       ??0PrefsManager@@QAE@PBD@Z 0068f3d0 f   preferences.obj
 0002:0007b4d0       ??0PrefsManager@@QAE@ABV?$basic_string@DU?$char_traits@D@std@@V?$allocator@D@2@@std@@@Z 0068f4d0 f   preferences.obj
 0002:0007b5e0       ??1PrefsManager@@QAE@XZ    0068f5e0 f   preferences.obj
 0002:0007b6c0       ?IsLineEmpty@PrefsManager@@AAE_NPBD@Z 0068f6c0 f   preferences.obj
 0002:0007b760       ?GetDefaultHelpEnabled@@YAHXZ 0068f760 f   preferences.obj
 0002:0007b7a0       ?GetDefaultSoundLibrary@@YAPBDXZ 0068f7a0 f   preferences.obj
 0002:0007b7e0       ?GetDefaultSoundDSP@@YAHXZ 0068f7e0 f   preferences.obj
 0002:0007b820       ?GetDefaultSoundChannels@@YAHXZ 0068f820 f   preferences.obj
 0002:0007b860       ?GetDefaultPixelShader@@YAHXZ 0068f860 f   preferences.obj
 0002:0007b8a0       ?GetDefaultGraphicsDetail@@YAHXZ 0068f8a0 f   preferences.obj
 0002:0007b8e0       ?CreateDefaultValues@PrefsManager@@AAEXXZ 0068f8e0 f   preferences.obj
 0002:0007be10       ?Load@PrefsManager@@QAEXPBD@Z 0068fe10 f   preferences.obj
 0002:0007bf40       ?SaveItem@PrefsManager@@AAEXPAU_iobuf@@PAVPrefsItem@@@Z 0068ff40 f   preferences.obj
 0002:0007c040       ?Save@PrefsManager@@QAEXXZ 00690040 f   preferences.obj
 0002:0007c3d0       ?Clear@PrefsManager@@QAEXXZ 006903d0 f   preferences.obj
 0002:0007c430       ?GetFloat@PrefsManager@@QBEMPBDM@Z 00690430 f   preferences.obj
 0002:0007c4d0       ?GetInt@PrefsManager@@QBEHPBDH@Z 006904d0 f   preferences.obj
 0002:0007c570       ?GetString@PrefsManager@@QBEPADPBDPAD@Z 00690570 f   preferences.obj
 0002:0007c610       ?SetString@PrefsManager@@QAEXPBD0@Z 00690610 f   preferences.obj
 0002:0007c810       ?SetFloat@PrefsManager@@QAEXPBDM@Z 00690810 f   preferences.obj
 0002:0007c9f0       ?SetInt@PrefsManager@@QAEXPBDH@Z 006909f0 f   preferences.obj
 0002:0007cbd0       ?AddLine@PrefsManager@@QAEXPBD_N@Z 00690bd0 f   preferences.obj
 0002:0007ce70       ??_GPrefsItem@@QAEPAXI@Z   00690e70 f i preferences.obj
 0002:0007cee0       ?DoesKeyExist@PrefsManager@@QAE_NPBD@Z 00690ee0 f   preferences.obj
 0002:0007cf50       ??0?$HashTable@PAVPrefsItem@@@@QAE@XZ 00690f50 f i preferences.obj
 0002:0007d0a0       ??1?$HashTable@PAVPrefsItem@@@@QAE@XZ 006910a0 f i preferences.obj
 0002:0007d140       ?GetIndex@?$HashTable@PAVPrefsItem@@@@QBEHPBD@Z 00691140 f i preferences.obj
 0002:0007d210       ?PutData@?$HashTable@PAVPrefsItem@@@@QAEHPBDABQAVPrefsItem@@@Z 00691210 f i preferences.obj
 0002:0007d330       ?GetData@?$HashTable@PAVPrefsItem@@@@QBEPAVPrefsItem@@I@Z 00691330 f i preferences.obj
 0002:0007d380       ?RemoveData@?$HashTable@PAVPrefsItem@@@@QAEXPBD@Z 00691380 f i preferences.obj
 0002:0007d3f0       ?EmptyAndDelete@?$HashTable@PAVPrefsItem@@@@QAEXXZ 006913f0 f i preferences.obj
 0002:0007d4e0       ?ValidIndex@?$HashTable@PAVPrefsItem@@@@QBE_NI@Z 006914e0 f i preferences.obj
 0002:0007d530       ?Size@?$HashTable@PAVPrefsItem@@@@QBEIXZ 00691530 f i preferences.obj
 0002:0007d570       ??A?$HashTable@PAVPrefsItem@@@@QBEPAVPrefsItem@@I@Z 00691570 f i preferences.obj
 0002:0007d5c0       ?Size@?$DArray@PAD@@QBEHXZ 006915c0 f i preferences.obj
 0002:0007d600       ??A?$DArray@PAD@@QAEAAPADH@Z 00691600 f i preferences.obj
 0002:0007d720       ??0?$FastDArray@PAD@@QAE@XZ 00691720 f i preferences.obj
 0002:0007d7a0       ??1?$FastDArray@PAD@@QAE@XZ 006917a0 f i preferences.obj
 0002:0007d840       ?PutData@?$FastDArray@PAD@@QAEHABQAD@Z 00691840 f i preferences.obj
 0002:0007d9a0       ?EmptyAndDelete@?$FastDArray@PAD@@QAEXXZ 006919a0 f i preferences.obj
 0002:0007da40       ?HashFunc@?$HashTable@PAVPrefsItem@@@@IBEIPBD@Z 00691a40 f i preferences.obj
 0002:0007db20       ?Grow@?$HashTable@PAVPrefsItem@@@@IAEXXZ 00691b20 f i preferences.obj
 0002:0007dd70       ?GetInsertPos@?$HashTable@PAVPrefsItem@@@@IBEIPBD@Z 00691d70 f i preferences.obj
 0002:0007dea0       ?RemoveData@?$HashTable@PAVPrefsItem@@@@QAEXI@Z 00691ea0 f i preferences.obj
 0002:0007df40       ?Empty@?$HashTable@PAVPrefsItem@@@@QAEXXZ 00691f40 f i preferences.obj
 0002:0007e010       ??0?$DArray@PAD@@QAE@XZ    00692010 f i preferences.obj
 0002:0007e080       ??1?$DArray@PAD@@QAE@XZ    00692080 f i preferences.obj
 0002:0007e0d0       ?EmptyAndDelete@?$DArray@PAD@@QAEXXZ 006920d0 f i preferences.obj
 0002:0007e190       ?Grow@?$FastDArray@PAD@@IAEXXZ 00692190 f i preferences.obj
 0002:0007e230       ?Empty@?$FastDArray@PAD@@QAEXXZ 00692230 f i preferences.obj
 0002:0007e2d0       ?ValidIndex@?$DArray@PAD@@QBE_NH@Z 006922d0 f i preferences.obj
 0002:0007e340       ?Empty@?$DArray@PAD@@QAEXXZ 00692340 f i preferences.obj
 0002:0007e3f0       ?SetSize@?$FastDArray@PAD@@QAEXH@Z 006923f0 f i preferences.obj
 0002:0007e880       ?RebuildFreeList@?$FastDArray@PAD@@IAEXXZ 00692880 f i preferences.obj
 0002:0007e9f0       ?RebuildNumUsed@?$FastDArray@PAD@@IAEXXZ 006929f0 f i preferences.obj
 0002:0007ea90       ??0ProfiledElement@@QAE@PBDPAV0@@Z 00692a90 f   profiler.obj
 0002:0007eb90       ??1ProfiledElement@@QAE@XZ 00692b90 f   profiler.obj
 0002:0007ec50       ?Start@ProfiledElement@@QAEXXZ 00692c50 f   profiler.obj
 0002:0007ecb0       ?End@ProfiledElement@@QAEXXZ 00692cb0 f   profiler.obj
 0002:0007ed70       ?Advance@ProfiledElement@@QAEXXZ 00692d70 f   profiler.obj
 0002:0007eea0       ?ResetHistory@ProfiledElement@@QAEXXZ 00692ea0 f   profiler.obj
 0002:0007ef90       ?GetMaxChildTime@ProfiledElement@@QAENXZ 00692f90 f   profiler.obj
 0002:0007f090       ??0Profiler@@QAE@XZ        00693090 f   profiler.obj
 0002:0007f1e0       ??1Profiler@@QAE@XZ        006931e0 f   profiler.obj
 0002:0007f280       ??_GProfiledElement@@QAEPAXI@Z 00693280 f i profiler.obj
 0002:0007f2f0       ?Advance@Profiler@@QAEXXZ  006932f0 f   profiler.obj
 0002:0007f390       ?RenderStarted@Profiler@@QAEXXZ 00693390 f   profiler.obj
 0002:0007f3d0       ?RenderEnded@Profiler@@QAEXXZ 006933d0 f   profiler.obj
 0002:0007f410       ?ResetHistory@Profiler@@QAEXXZ 00693410 f   profiler.obj
 0002:0007f470       ?StartProfile@Profiler@@QAEXPBD@Z 00693470 f   profiler.obj
 0002:0007f680       ?EndProfile@Profiler@@QAEXPBD@Z 00693680 f   profiler.obj
 0002:0007f930       ?EmptyAndDelete@?$HashTable@PAVProfiledElement@@@@QAEXXZ 00693930 f i profiler.obj
 0002:0007fa20       ?ValidIndex@?$HashTable@PAVProfiledElement@@@@QBE_NI@Z 00693a20 f i profiler.obj
 0002:0007fa70       ??0?$SortingHashTable@PAVProfiledElement@@@@QAE@XZ 00693a70 f i profiler.obj
 0002:0007fb80       ??1?$SortingHashTable@PAVProfiledElement@@@@QAE@XZ 00693b80 f i profiler.obj
 0002:0007fc40       ?PutData@?$SortingHashTable@PAVProfiledElement@@@@QAEHPBDABQAVProfiledElement@@@Z 00693c40 f i profiler.obj
 0002:0007fde0       ?GetInsertPos@?$HashTable@PAVProfiledElement@@@@IBEIPBD@Z 00693de0 f i profiler.obj
 0002:0007ff10       ??0?$HashTable@PAVProfiledElement@@@@QAE@XZ 00693f10 f i profiler.obj
 0002:00080060       ??1?$HashTable@PAVProfiledElement@@@@QAE@XZ 00694060 f i profiler.obj
 0002:00080100       ?Empty@?$HashTable@PAVProfiledElement@@@@QAEXXZ 00694100 f i profiler.obj
 0002:000801d0       ?Grow@?$SortingHashTable@PAVProfiledElement@@@@IAEXXZ 006941d0 f i profiler.obj
 0002:00080500       ?FindPrevKey@?$SortingHashTable@PAVProfiledElement@@@@IBEFPBD@Z 00694500 f i profiler.obj
 0002:000805d0       ?darwiniaSeedRandom@@YAXI@Z 006945d0 f   random.obj
 0002:00080610       ?darwiniaRandom@@YAHXZ     00694610 f   random.obj
 0002:00080670       ??0Resource@@QAE@XZ        00694670 f   resource.obj
 0002:00080780       ??1Resource@@QAE@XZ        00694780 f   resource.obj
 0002:000808b0       ?ParseArchive@Resource@@QAEXPBD0@Z 006948b0 f   resource.obj
 0002:00080bb0       ??_GMemMappedFile@@QAEPAXI@Z 00694bb0 f i resource.obj
 0002:00080c20       ??_GUncompressedArchive@@QAEPAXI@Z 00694c20 f i resource.obj
 0002:00080c90       ?AddBitmap@Resource@@QAEXPBDABVBitmapRGBA@@_N@Z 00694c90 f   resource.obj
 0002:00080df0       ?DeleteBitmap@Resource@@QAEXPBD@Z 00694df0 f   resource.obj
 0002:00080ed0       ?GetBitmap@Resource@@QAEPBVBitmapRGBA@@PBD@Z 00694ed0 f   resource.obj
 0002:00080f40       ?GetUncompressedFile@Resource@@QAEPAVMemMappedFile@@PBD@Z 00694f40 f   resource.obj
 0002:00080fa0       ?GetTextReader@Resource@@QAEPAVTextReader@@ABV?$basic_string@DU?$char_traits@D@std@@V?$allocator@D@2@@std@@@Z 00694fa0 f   resource.obj
 0002:00081000       ?GetTextReader@Resource@@QAEPAVTextReader@@PBD@Z 00695000 f   resource.obj
 0002:00081360       ?GetBinaryReader@Resource@@QAEPAVBinaryReader@@PBD@Z 00695360 f   resource.obj
 0002:000816c0       ?GetTexture@Resource@@QAEHPBD_N1@Z 006956c0 f   resource.obj
 0002:00081a30       ?DoesTextureExist@Resource@@QAE_NPBD@Z 00695a30 f   resource.obj
 0002:00081ba0       ?DeleteTexture@Resource@@QAEXPBD@Z 00695ba0 f   resource.obj
 0002:00081c80       ?GetShape@Resource@@QAEPAVShape@@PBD@Z 00695c80 f   resource.obj
 0002:00081d70       ?GetShapeCopy@Resource@@QAEPAVShape@@PBD_N@Z 00695d70 f   resource.obj
 0002:00082180       ??1TextDataReader@@UAE@XZ  00696180 f i resource.obj
 0002:000821d0       ?GetGestureDemo@Resource@@QAEPAVGestureDemo@@PBD@Z 006961d0 f   resource.obj
 0002:00082480       ?GetSoundStreamDecoder@Resource@@QAEPAVSoundStreamDecoder@@PBD@Z 00696480 f   resource.obj
 0002:00082650       ?WildCmp@Resource@@IAEHPBD0@Z 00696650 f   resource.obj
 0002:00082860       ?CreateDisplayList@Resource@@QAEHPBD@Z 00696860 f   resource.obj
 0002:00082960       ?GetDisplayList@Resource@@QAEHPBD@Z 00696960 f   resource.obj
 0002:00082a50       ?DeleteDisplayList@Resource@@QAEXPBD@Z 00696a50 f   resource.obj
 0002:00082b70       ?FlushOpenGlState@Resource@@QAEXXZ 00696b70 f   resource.obj
 0002:00082d00       ?RegenerateOpenGlState@Resource@@QAEXXZ 00696d00 f   resource.obj
 0002:00082e00       ?GenerateName@Resource@@QAEPADXZ 00696e00 f   resource.obj
 0002:00082ee0       _log10f                    00696ee0 f i resource.obj
 0002:00082f50       ?LoadMod@Resource@@QAEXPBD@Z 00696f50 f   resource.obj
 0002:000830b0       ?GetBaseDirectory@Resource@@QAEPADXZ 006970b0 f   resource.obj
 0002:00083150       ?GetModName@Resource@@QAEPBDXZ 00697150 f   resource.obj
 0002:00083190       ?IsModLoaded@Resource@@QAE_NXZ 00697190 f   resource.obj
 0002:000831e0       ?GetFileWriter@Resource@@QAEPAVFileWriter@@PBD_N@Z 006971e0 f   resource.obj
 0002:000834b0       ?OrderedInsert@@YAXPAV?$LList@PAD@@PAD@Z 006974b0 f   resource.obj
 0002:000835e0       ?ListResources@Resource@@QAEPAV?$LList@PAD@@PBD0_N@Z 006975e0 f   resource.obj
 0002:000839e0       ??_G?$DArray@PAD@@QAEPAXI@Z 006979e0 f i resource.obj
 0002:00083a50       ??0?$BTree@PAVMemMappedFile@@@@QAE@XZ 00697a50 f i resource.obj
 0002:00083ac0       ??1?$BTree@PAVMemMappedFile@@@@QAE@XZ 00697ac0 f i resource.obj
 0002:00083b10       ?PutData@?$BTree@PAVMemMappedFile@@@@QAEXPBDABQAVMemMappedFile@@@Z 00697b10 f i resource.obj
 0002:00083d90       ?RemoveData@?$BTree@PAVMemMappedFile@@@@QAEXPBD@Z 00697d90 f i resource.obj
 0002:00084120       ?GetData@?$BTree@PAVMemMappedFile@@@@QAEPAVMemMappedFile@@PBD@Z 00698120 f i resource.obj
 0002:00084190       ?Size@?$BTree@PAVMemMappedFile@@@@QBEHXZ 00698190 f i resource.obj
 0002:00084230       ?ConvertIndexToDArray@?$BTree@PAVMemMappedFile@@@@QAEPAV?$DArray@PAD@@XZ 00698230 f i resource.obj
 0002:00084330       ??0?$HashTable@PAVBitmapRGBA@@@@QAE@XZ 00698330 f i resource.obj
 0002:00084480       ??1?$HashTable@PAVBitmapRGBA@@@@QAE@XZ 00698480 f i resource.obj
 0002:00084520       ?GetIndex@?$HashTable@PAVBitmapRGBA@@@@QBEHPBD@Z 00698520 f i resource.obj
 0002:000845f0       ?PutData@?$HashTable@PAVBitmapRGBA@@@@QAEHPBDABQAVBitmapRGBA@@@Z 006985f0 f i resource.obj
 0002:00084710       ?GetData@?$HashTable@PAVBitmapRGBA@@@@QBEPAVBitmapRGBA@@I@Z 00698710 f i resource.obj
 0002:00084760       ?GetData@?$HashTable@PAVBitmapRGBA@@@@QBEPAVBitmapRGBA@@PBDABQAV2@@Z 00698760 f i resource.obj
 0002:000847e0       ?RemoveData@?$HashTable@PAVBitmapRGBA@@@@QAEXI@Z 006987e0 f i resource.obj
 0002:00084880       ?EmptyAndDelete@?$HashTable@PAVBitmapRGBA@@@@QAEXXZ 00698880 f i resource.obj
 0002:00084970       ?RemoveData@?$HashTable@H@@QAEXPBD@Z 00698970 f i resource.obj
 0002:000849e0       ??A?$HashTable@H@@QBEHI@Z  006989e0 f i resource.obj
 0002:00084a30       ??0?$HashTable@PAVShape@@@@QAE@XZ 00698a30 f i resource.obj
 0002:00084b80       ??1?$HashTable@PAVShape@@@@QAE@XZ 00698b80 f i resource.obj
 0002:00084c20       ?PutData@?$HashTable@PAVShape@@@@QAEHPBDABQAVShape@@@Z 00698c20 f i resource.obj
 0002:00084d40       ?GetData@?$HashTable@PAVShape@@@@QBEPAVShape@@PBDABQAV2@@Z 00698d40 f i resource.obj
 0002:00084dc0       ?EmptyAndDelete@?$HashTable@PAVShape@@@@QAEXXZ 00698dc0 f i resource.obj
 0002:00084eb0       ?ValidIndex@?$HashTable@PAVShape@@@@QBE_NI@Z 00698eb0 f i resource.obj
 0002:00084f00       ?Size@?$HashTable@PAVShape@@@@QBEIXZ 00698f00 f i resource.obj
 0002:00084f40       ??A?$HashTable@PAVShape@@@@QBEPAVShape@@I@Z 00698f40 f i resource.obj
 0002:00084f90       ??0?$HashTable@PAVGestureDemo@@@@QAE@XZ 00698f90 f i resource.obj
 0002:000850e0       ??1?$HashTable@PAVGestureDemo@@@@QAE@XZ 006990e0 f i resource.obj
 0002:00085180       ?PutData@?$HashTable@PAVGestureDemo@@@@QAEHPBDABQAVGestureDemo@@@Z 00699180 f i resource.obj
 0002:000852a0       ?GetData@?$HashTable@PAVGestureDemo@@@@QBEPAVGestureDemo@@PBDABQAV2@@Z 006992a0 f i resource.obj
 0002:00085320       ?EmptyAndDelete@?$HashTable@PAVGestureDemo@@@@QAEXXZ 00699320 f i resource.obj
 0002:00085410       ?GetData@?$DArray@PAD@@QBEPADH@Z 00699410 f i resource.obj
 0002:00085530       ?PutDataAtIndex@?$LList@PAD@@QAEXABQADH@Z 00699530 f i resource.obj
 0002:00085730       ??_GShape@@QAEPAXI@Z       00699730 f i resource.obj
 0002:000857a0       ??_GGestureDemo@@QAEPAXI@Z 006997a0 f i resource.obj
 0002:00085810       ??1GestureDemo@@QAE@XZ     00699810 f i resource.obj
 0002:00085860       ?RecursiveConvertIndexToDArray@?$BTree@PAVMemMappedFile@@@@IAEXPAV?$DArray@PAD@@PAV1@@Z 00699860 f i resource.obj
 0002:00085950       ?AppendRight@?$BTree@PAVMemMappedFile@@@@IAEXPAV1@@Z 00699950 f i resource.obj
 0002:000859d0       ??0?$BTree@PAVMemMappedFile@@@@QAE@PBDABQAVMemMappedFile@@@Z 006999d0 f i resource.obj
 0002:00085a90       ?LookupTree@?$BTree@PAVMemMappedFile@@@@QAEPAV1@PBD@Z 00699a90 f i resource.obj
 0002:00085b90       ?Empty@?$BTree@PAVMemMappedFile@@@@QAEXXZ 00699b90 f i resource.obj
 0002:00085cc0       ?Left@?$BTree@PAVMemMappedFile@@@@QBEPAV1@XZ 00699cc0 f i resource.obj
 0002:00085d00       ?Right@?$BTree@PAVMemMappedFile@@@@QBEPAV1@XZ 00699d00 f i resource.obj
 0002:00085d40       ?HashFunc@?$HashTable@PAVBitmapRGBA@@@@IBEIPBD@Z 00699d40 f i resource.obj
 0002:00085e20       ?Grow@?$HashTable@PAVBitmapRGBA@@@@IAEXXZ 00699e20 f i resource.obj
 0002:00086070       ?GetInsertPos@?$HashTable@PAVBitmapRGBA@@@@IBEIPBD@Z 0069a070 f i resource.obj
 0002:000861a0       ?Empty@?$HashTable@PAVBitmapRGBA@@@@QAEXXZ 0069a1a0 f i resource.obj
 0002:00086270       ?RemoveData@?$HashTable@H@@QAEXI@Z 0069a270 f i resource.obj
 0002:00086310       ?Grow@?$HashTable@PAVShape@@@@IAEXXZ 0069a310 f i resource.obj
 0002:00086560       ?GetInsertPos@?$HashTable@PAVShape@@@@IBEIPBD@Z 0069a560 f i resource.obj
 0002:00086690       ?GetIndex@?$HashTable@PAVShape@@@@QBEHPBD@Z 0069a690 f i resource.obj
 0002:00086760       ?Empty@?$HashTable@PAVShape@@@@QAEXXZ 0069a760 f i resource.obj
 0002:00086830       ?Grow@?$HashTable@PAVGestureDemo@@@@IAEXXZ 0069a830 f i resource.obj
 0002:00086a80       ?GetInsertPos@?$HashTable@PAVGestureDemo@@@@IBEIPBD@Z 0069aa80 f i resource.obj
 0002:00086bb0       ?GetIndex@?$HashTable@PAVGestureDemo@@@@QBEHPBD@Z 0069abb0 f i resource.obj
 0002:00086c80       ?Empty@?$HashTable@PAVGestureDemo@@@@QAEXXZ 0069ac80 f i resource.obj
 0002:00086d50       ?PutDataAtStart@?$LList@PAD@@QAEXABQAD@Z 0069ad50 f i resource.obj
 0002:00086ee0       ??1?$FastDArray@VGestureMouseCoords@@@@QAE@XZ 0069aee0 f i resource.obj
 0002:00086f80       ??_G?$BTree@PAVMemMappedFile@@@@QAEPAXI@Z 0069af80 f i resource.obj
 0002:00086ff0       ?PutData@?$DArray@PAD@@QAEHABQAD@Z 0069aff0 f i resource.obj
 0002:000870e0       ?HashFunc@?$HashTable@PAVShape@@@@IBEIPBD@Z 0069b0e0 f i resource.obj
 0002:000871c0       ?HashFunc@?$HashTable@PAVGestureDemo@@@@IBEIPBD@Z 0069b1c0 f i resource.obj
 0002:000872a0       ?Empty@?$FastDArray@VGestureMouseCoords@@@@QAEXXZ 0069b2a0 f i resource.obj
 0002:00087340       ??1?$DArray@VGestureMouseCoords@@@@QAE@XZ 0069b340 f i resource.obj
 0002:00087390       ?Grow@?$DArray@PAD@@IAEXXZ 0069b390 f i resource.obj
 0002:00087430       ?Empty@?$DArray@VGestureMouseCoords@@@@QAEXXZ 0069b430 f i resource.obj
 0002:000874e0       ?SetSize@?$DArray@PAD@@QAEXH@Z 0069b4e0 f i resource.obj
 0002:000877e0       ?StrToLower@@YAXPAD@Z      0069b7e0 f   string_utils.obj
 0002:00087860       ??0SystemInfo@@QAE@XZ      0069b860 f   system_info.obj
 0002:00087930       ??0LocaleInfo@@QAE@XZ      0069b930 f i system_info.obj
 0002:00087980       ??1LocaleInfo@@QAE@XZ      0069b980 f i system_info.obj
 0002:00087a10       ??0AudioInfo@@QAE@XZ       0069ba10 f i system_info.obj
 0002:00087a60       ??1AudioInfo@@QAE@XZ       0069ba60 f i system_info.obj
 0002:00087b10       ??1SystemInfo@@QAE@XZ      0069bb10 f   system_info.obj
 0002:00087bc0       ?GetLocaleDetails@SystemInfo@@AAEXXZ 0069bbc0 f   system_info.obj
 0002:00087d40       ?GetAudioDetails@SystemInfo@@AAEXXZ 0069bd40 f   system_info.obj
 0002:00088080       ?GetDirectXVersion@SystemInfo@@AAEXXZ 0069c080 f   system_info.obj
 0002:00088260       ?GetUserInfoData@@YA_NPBDPAPBD1@Z 0069c260 f   user_info.obj
 0002:000884c0       ?inv@@YANVMatrix@@AAV1@@Z  0069c4c0 f   invert_matrix.obj
 0002:00088db0       ??0Matrix@@QAE@HH@Z        0069cdb0 f i invert_matrix.obj
 0002:00088f10       ??1Matrix@@QAE@XZ          0069cf10 f i invert_matrix.obj
 0002:00088f80       ??4Matrix@@QAEAAV0@ABV0@@Z 0069cf80 f i invert_matrix.obj
 0002:00089010       ?nRow@Matrix@@QBEHXZ       0069d010 f i invert_matrix.obj
 0002:00089050       ?nCol@Matrix@@QBEHXZ       0069d050 f i invert_matrix.obj
 0002:00089090       ??RMatrix@@QAEAANHH@Z      0069d090 f i invert_matrix.obj
 0002:000891c0       ?set@Matrix@@QAEXN@Z       0069d1c0 f i invert_matrix.obj
 0002:00089250       ?copy@Matrix@@AAEXABV1@@Z  0069d250 f i invert_matrix.obj
 0002:00089350       ?InvertMatrix@@YAXPAN0HH@Z 0069d350 f   invert_matrix.obj
 0002:000895b0       ??0Matrix@@QAE@ABV0@@Z     0069d5b0 f i invert_matrix.obj
 0002:00089610       ?Log2@@YAMM@Z              0069d610 f   math_utils.obj
 0002:000896c0       _logf                      0069d6c0 f i math_utils.obj
 0002:00089730       ?RampUpAndDown@@YANNNN@Z   0069d730 f   math_utils.obj
 0002:00089800       ?syncrand@@YAKXZ           0069d800 f   math_utils.obj
 0002:00089b10       ?GetPlaneMatrix@@YAXABVVector3@@00PAVMatrix34@@@Z 0069db10 f   math_utils.obj
 0002:00089c20       ?ProjectPointOntoPlane@@YAMABVVector3@@ABVMatrix34@@PAV1@@Z 0069dc20 f   math_utils.obj
 0002:00089d10       ??DVector3@@QBEMABV0@@Z    0069dd10 f i math_utils.obj
 0002:00089d90       ?ConvertWorldSpaceIntoPlaneSpace@@YAXABVVector3@@ABVMatrix34@@PAVVector2@@@Z 0069dd90 f   math_utils.obj
 0002:00089e60       ?ConvertPlaneSpaceIntoWorldSpace@@YAXABVVector2@@ABVMatrix34@@PAVVector3@@@Z 0069de60 f   math_utils.obj
 0002:00089f20       ?CalcTriArea@@YAMABVVector2@@00@Z 0069df20 f   math_utils.obj
 0002:0008a000       ?IsPointInTriangle@@YA_NABVVector2@@000@Z 0069e000 f   math_utils.obj
 0002:0008a110       ?PointSegDist2D@@YAMABVVector2@@00PAV1@@Z 0069e110 f   math_utils.obj
 0002:0008a360       ??D@YA?AVVector2@@MABV0@@Z 0069e360 f i math_utils.obj
 0002:0008a3c0       ?SegRayIntersection2D@@YA_NABVVector2@@000PAV1@@Z 0069e3c0 f   math_utils.obj
 0002:0008a560       ?RayRayDist@@YAMABVVector3@@000PAV1@1@Z 0069e560 f   math_utils.obj
 0002:0008a770       ?RaySegDist@@YAMABVVector3@@000PAV1@1@Z 0069e770 f   math_utils.obj
 0002:0008a950       ?RayTriIntersection@@YA_NABVVector3@@0000MPAV1@@Z 0069e950 f   math_utils.obj
 0002:0008acb0       ?MagSquared@Vector3@@QBEMXZ 0069ecb0 f i math_utils.obj
 0002:0008ad30       ?RaySphereIntersection@@YA_NABVVector3@@00MMPAV1@1@Z 0069ed30 f   math_utils.obj
 0002:0008af10       ?RayPlaneIntersection@@YAHABVVector3@@0ABVPlane@@PAV1@@Z 0069ef10 f   math_utils.obj
 0002:0008b110       ?fabs@@YAMM@Z              0069f110 f i math_utils.obj
 0002:0008b170       ?SphereSphereIntersection@@YA_NABVVector3@@M0M@Z 0069f170 f   math_utils.obj
 0002:0008b220       ?SphereTriangleIntersection@@YA_NABVVector3@@M000@Z 0069f220 f   math_utils.obj
 0002:0008b640       ??0Matrix34@@QAE@XZ        0069f640 f i math_utils.obj
 0002:0008b6c0       ??0Matrix33@@QAE@XZ        0069f6c0 f   matrix33.obj
 0002:0008b730       ??0Matrix33@@QAE@H@Z       0069f730 f   matrix33.obj
 0002:0008b7b0       ??0Matrix33@@QAE@ABV0@@Z   0069f7b0 f   matrix33.obj
 0002:0008b840       ??0Matrix33@@QAE@ABVVector3@@00@Z 0069f840 f   matrix33.obj
 0002:0008b8e0       ??0Matrix33@@QAE@MMM@Z     0069f8e0 f   matrix33.obj
 0002:0008b9a0       ?OrientRU@Matrix33@@QAEXABVVector3@@0@Z 0069f9a0 f   matrix33.obj
 0002:0008bab0       ?OrientRF@Matrix33@@QAEXABVVector3@@0@Z 0069fab0 f   matrix33.obj
 0002:0008bbc0       ?OrientUF@Matrix33@@QAEXABVVector3@@0@Z 0069fbc0 f   matrix33.obj
 0002:0008bcd0       ?OrientUR@Matrix33@@QAEXABVVector3@@0@Z 0069fcd0 f   matrix33.obj
 0002:0008bdf0       ?OrientFR@Matrix33@@QAEXABVVector3@@0@Z 0069fdf0 f   matrix33.obj
 0002:0008bf10       ?OrientFU@Matrix33@@QAEXABVVector3@@0@Z 0069ff10 f   matrix33.obj
 0002:0008c020       ?RotateAroundR@Matrix33@@QAEABV1@M@Z 006a0020 f   matrix33.obj
 0002:0008c180       ?cos@@YAMM@Z               006a0180 f i matrix33.obj
 0002:0008c1e0       ?sin@@YAMM@Z               006a01e0 f i matrix33.obj
 0002:0008c240       ?RotateAroundU@Matrix33@@QAEABV1@M@Z 006a0240 f   matrix33.obj
 0002:0008c3a0       ?RotateAroundF@Matrix33@@QAEABV1@M@Z 006a03a0 f   matrix33.obj
 0002:0008c500       ?RotateAroundX@Matrix33@@QAEABV1@M@Z 006a0500 f   matrix33.obj
 0002:0008c660       ?RotateAroundY@Matrix33@@QAEABV1@M@Z 006a0660 f   matrix33.obj
 0002:0008c7c0       ?RotateAroundZ@Matrix33@@QAEABV1@M@Z 006a07c0 f   matrix33.obj
 0002:0008c920       ?RotateAround@Matrix33@@QAEABV1@ABVVector3@@@Z 006a0920 f   matrix33.obj
 0002:0008c9e0       ??KVector3@@QBE?AV0@M@Z    006a09e0 f i matrix33.obj
 0002:0008caa0       ?FastRotateAround@Matrix33@@QAEABV1@ABVVector3@@M@Z 006a0aa0 f   matrix33.obj
 0002:0008ce40       ??D@YA?AVVector3@@MABV0@@Z 006a0e40 f i matrix33.obj
 0002:0008cea0       ?RotateAround@Matrix33@@QAEABV1@ABVVector3@@M@Z 006a0ea0 f   matrix33.obj
 0002:0008d270       ?Transpose@Matrix33@@QAEABV1@XZ 006a1270 f   matrix33.obj
 0002:0008d320       ?Invert@Matrix33@@QAEABV1@XZ 006a1320 f   matrix33.obj
 0002:0008d590       ?DecomposeToYDR@Matrix33@@QBE?AVVector3@@XZ 006a1590 f   matrix33.obj
 0002:0008d670       ?DecomposeToYDR@Matrix33@@QBEXPAM00@Z 006a1670 f   matrix33.obj
 0002:0008d7a0       ?atan2@@YAMMM@Z            006a17a0 f i matrix33.obj
 0002:0008d800       _atan2f                    006a1800 f i matrix33.obj
 0002:0008d870       ?SetToIdentity@Matrix33@@QAEXXZ 006a1870 f   matrix33.obj
 0002:0008d8f0       ?Normalise@Matrix33@@QAEXXZ 006a18f0 f   matrix33.obj
 0002:0008d9b0       ?InverseMultiplyVector@Matrix33@@QBE?AVVector3@@ABV2@@Z 006a19b0 f   matrix33.obj
 0002:0008dae0       ?OutputToDebugStream@Matrix33@@QAEXXZ 006a1ae0 f   matrix33.obj
 0002:0008dbe0       ?ConvertToOpenGLFormat@Matrix33@@QAEPAMPBVVector3@@@Z 006a1be0 f   matrix33.obj
 0002:0008dd20       ??4Matrix33@@QAEABV0@ABV0@@Z 006a1d20 f   matrix33.obj
 0002:0008dd90       ??XMatrix33@@QAEABV0@ABV0@@Z 006a1d90 f   matrix33.obj
 0002:0008e0a0       ??0Matrix33@@QAE@MMMMMMMMM@Z 006a20a0 f i matrix33.obj
 0002:0008e160       ??DMatrix33@@QBE?AV0@ABV0@@Z 006a2160 f   matrix33.obj
 0002:0008e430       ?OrientRU@Matrix34@@QAEXABVVector3@@0@Z 006a2430 f   matrix34.obj
 0002:0008e540       ?OrientRF@Matrix34@@QAEXABVVector3@@0@Z 006a2540 f   matrix34.obj
 0002:0008e650       ?OrientUF@Matrix34@@QAEXABVVector3@@0@Z 006a2650 f   matrix34.obj
 0002:0008e760       ?OrientUR@Matrix34@@QAEXABVVector3@@0@Z 006a2760 f   matrix34.obj
 0002:0008e880       ?OrientFR@Matrix34@@QAEXABVVector3@@0@Z 006a2880 f   matrix34.obj
 0002:0008e9a0       ?OrientFU@Matrix34@@QAEXABVVector3@@0@Z 006a29a0 f   matrix34.obj
 0002:0008eab0       ?RotateAroundR@Matrix34@@QAEABV1@M@Z 006a2ab0 f   matrix34.obj
 0002:0008ec10       ?RotateAroundU@Matrix34@@QAEABV1@M@Z 006a2c10 f   matrix34.obj
 0002:0008ed70       ?RotateAroundF@Matrix34@@QAEABV1@M@Z 006a2d70 f   matrix34.obj
 0002:0008eed0       ?RotateAroundX@Matrix34@@QAEABV1@M@Z 006a2ed0 f   matrix34.obj
 0002:0008f030       ?RotateAroundY@Matrix34@@QAEABV1@M@Z 006a3030 f   matrix34.obj
 0002:0008f190       ?RotateAroundZ@Matrix34@@QAEABV1@M@Z 006a3190 f   matrix34.obj
 0002:0008f2f0       ?RotateAround@Matrix34@@QAEABV1@ABVVector3@@@Z 006a32f0 f   matrix34.obj
 0002:0008f3b0       ?FastRotateAround@Matrix34@@QAEABV1@ABVVector3@@M@Z 006a33b0 f   matrix34.obj
 0002:0008f750       ?RotateAround@Matrix34@@QAEABV1@ABVVector3@@M@Z 006a3750 f   matrix34.obj
 0002:0008fb20       ?Transpose@Matrix34@@QAEABV1@XZ 006a3b20 f   matrix34.obj
 0002:0008fc20       ??GVector3@@QBE?AV0@XZ     006a3c20 f i matrix34.obj
 0002:0008fca0       ??D@YA?AVVector3@@ABVMatrix34@@ABV0@@Z 006a3ca0 f i matrix34.obj
 0002:0008fdd0       ?DecomposeToYDR@Matrix34@@QBE?AVVector3@@XZ 006a3dd0 f   matrix34.obj
 0002:0008feb0       ?DecomposeToYDR@Matrix34@@QBEXPAM00@Z 006a3eb0 f   matrix34.obj
 0002:0008ffe0       ??0Matrix34@@QAE@ABV0@@Z   006a3fe0 f i matrix34.obj
 0002:00090080       ?SetToIdentity@Matrix34@@QAEXXZ 006a4080 f   matrix34.obj
 0002:00090100       ?IsNormalised@Matrix34@@QAE_NXZ 006a4100 f   matrix34.obj
 0002:000902c0       ?Normalise@Matrix34@@QAEXXZ 006a42c0 f   matrix34.obj
 0002:00090380       ?InverseMultiplyVector@Matrix34@@QBE?AVVector3@@ABV2@@Z 006a4380 f   matrix34.obj
 0002:000904d0       ?WriteToDebugStream@Matrix34@@QAEXXZ 006a44d0 f   matrix34.obj
 0002:00090610       ?Test@Matrix34@@QAEXXZ     006a4610 f   matrix34.obj
 0002:00090940       ??0Matrix34@@QAE@ABVVector3@@00@Z 006a4940 f i matrix34.obj
 0002:00090a50       ??DMatrix34@@QBE?AV0@ABV0@@Z 006a4a50 f i matrix34.obj
 0002:00090ad0       ??8Matrix34@@QBE_NABV0@@Z  006a4ad0 f   matrix34.obj
 0002:00090ba0       ??XMatrix34@@QAEABV0@ABV0@@Z 006a4ba0 f   matrix34.obj
 0002:00090ed0       ??4Matrix34@@QAEAAV0@ABV0@@Z 006a4ed0 f i matrix34.obj
 0002:00090f70       ??0Matrix34@@QAE@H@Z       006a4f70 f i matrix34.obj
 0002:00091000       ??0Plane@@QAE@ABVVector3@@00@Z 006a5000 f   plane.obj
 0002:00091140       ??0Plane@@QAE@ABVVector3@@0@Z 006a5140 f   plane.obj
 0002:000911c0       ??0Plane@@QAE@ABVVector3@@M@Z 006a51c0 f   plane.obj
 0002:00091230       ?GetCartesianDefinition@Plane@@QBEXPAM000@Z 006a5230 f   plane.obj
 0002:000912a0       ?Compare@Vector2@@ABE_NABV1@@Z 006a52a0 f   vector2.obj
 0002:00091390       ??0Vector2@@QAE@XZ         006a5390 f   vector2.obj
 0002:000913e0       ??0Vector2@@QAE@ABVVector3@@@Z 006a53e0 f   vector2.obj
 0002:00091440       ??0Vector2@@QAE@MM@Z       006a5440 f   vector2.obj
 0002:00091490       ?Zero@Vector2@@QAEXXZ      006a5490 f   vector2.obj
 0002:000914e0       ?Set@Vector2@@QAEXMM@Z     006a54e0 f   vector2.obj
 0002:00091530       ??TVector2@@QBEMABV0@@Z    006a5530 f   vector2.obj
 0002:000915a0       ??DVector2@@QBEMABV0@@Z    006a55a0 f   vector2.obj
 0002:00091610       ??GVector2@@QBE?AV0@XZ     006a5610 f   vector2.obj
 0002:00091690       ??HVector2@@QBE?AV0@ABV0@@Z 006a5690 f   vector2.obj
 0002:00091730       ??GVector2@@QBE?AV0@ABV0@@Z 006a5730 f   vector2.obj
 0002:000917d0       ??DVector2@@QBE?AV0@M@Z    006a57d0 f   vector2.obj
 0002:00091870       ??KVector2@@QBE?AV0@M@Z    006a5870 f   vector2.obj
 0002:00091910       ??4Vector2@@QAEXABV0@@Z    006a5910 f   vector2.obj
 0002:00091970       ??4Vector2@@QAEXABVVector3@@@Z 006a5970 f   vector2.obj
 0002:000919d0       ??XVector2@@QAEXM@Z        006a59d0 f   vector2.obj
 0002:00091a30       ??_0Vector2@@QAEXM@Z       006a5a30 f   vector2.obj
 0002:00091aa0       ??YVector2@@QAEXABV0@@Z    006a5aa0 f   vector2.obj
 0002:00091b00       ??ZVector2@@QAEXABV0@@Z    006a5b00 f   vector2.obj
 0002:00091b60       ?Normalise@Vector2@@QAEABV1@XZ 006a5b60 f   vector2.obj
 0002:00091c40       ?SetLength@Vector2@@QAEXM@Z 006a5c40 f   vector2.obj
 0002:00091cc0       ?Mag@Vector2@@QBEMXZ       006a5cc0 f   vector2.obj
 0002:00091d40       ?MagSquared@Vector2@@QBEMXZ 006a5d40 f   vector2.obj
 0002:00091db0       ??8Vector2@@QBE_NABV0@@Z   006a5db0 f   vector2.obj
 0002:00091e10       ??9Vector2@@QBE_NABV0@@Z   006a5e10 f   vector2.obj
 0002:00091e80       ?GetData@Vector2@@QAEPAMXZ 006a5e80 f   vector2.obj
 0002:00091ec0       ?RotateAroundX@Vector3@@QAEXM@Z 006a5ec0 f   vector3.obj
 0002:00091f40       ?RotateAroundY@Vector3@@QAEXM@Z 006a5f40 f   vector3.obj
 0002:00091fa0       ?RotateAroundZ@Vector3@@QAEXM@Z 006a5fa0 f   vector3.obj
 0002:00092020       ?FastRotateAround@Vector3@@QAEXABV1@M@Z 006a6020 f   vector3.obj
 0002:000921b0       ?RotateAround@Vector3@@QAEXABV1@@Z 006a61b0 f   vector3.obj
 0002:000922a0       ??8Vector3@@QBE_NABV0@@Z   006a62a0 f   vector3.obj
 0002:00092300       ?Compare@Vector3@@ABE_NABV1@@Z 006a6300 f i vector3.obj
 0002:000924a0       ??9Vector3@@QBE_NABV0@@Z   006a64a0 f   vector3.obj
 0002:00092510       ?Render3DSprite@@YAXABVVector3@@MMH@Z 006a6510 f   3d_sprite.obj
 0002:00092840       ?ReadBMPFileHeader@BitmapRGBA@@AAEXPAVBinaryReader@@PAVBitmapFileHeader@@@Z 006a6840 f   bitmap.obj
 0002:000929a0       ?ReadWinBMPInfoHeader@BitmapRGBA@@AAEXPAVBinaryReader@@PAVBitmapInfoHeader@@@Z 006a69a0 f   bitmap.obj
 0002:00092ba0       ?ReadOS2BMPInfoHeader@BitmapRGBA@@AAEXPAVBinaryReader@@PAVBitmapInfoHeader@@@Z 006a6ba0 f   bitmap.obj
 0002:00092ce0       ?ReadBMPPalette@BitmapRGBA@@AAEXHQAVRGBAColour@@PAVBinaryReader@@H@Z 006a6ce0 f   bitmap.obj
 0002:00092e10       ?Read4BitLine@BitmapRGBA@@AAEXHPAVBinaryReader@@PAVRGBAColour@@H@Z 006a6e10 f   bitmap.obj
 0002:00092f10       ?Read8BitLine@BitmapRGBA@@AAEXHPAVBinaryReader@@PAVRGBAColour@@H@Z 006a6f10 f   bitmap.obj
 0002:00092fd0       ?Read24BitLine@BitmapRGBA@@AAEXHPAVBinaryReader@@H@Z 006a6fd0 f   bitmap.obj
 0002:00093160       ?LoadBmp@BitmapRGBA@@AAEXPAVBinaryReader@@@Z 006a7160 f   bitmap.obj
 0002:00093580       ?WriteBMPFileHeader@BitmapRGBA@@AAEXPAU_iobuf@@@Z 006a7580 f   bitmap.obj
 0002:00093810       ?WriteWinBMPInfoHeader@BitmapRGBA@@AAEXPAU_iobuf@@@Z 006a7810 f   bitmap.obj
 0002:000939d0       ?Write24BitLine@BitmapRGBA@@AAEXPAU_iobuf@@H@Z 006a79d0 f   bitmap.obj
 0002:00093b00       ?SaveBmp@BitmapRGBA@@QAEXPBD@Z 006a7b00 f   bitmap.obj
 0002:00093ba0       ?SavePng@BitmapRGBA@@QAEXPBD_N@Z 006a7ba0 f   bitmap.obj
 0002:00093c40       ?WritePng@BitmapRGBA@@QAEXPAU_iobuf@@_N@Z 006a7c40 f   bitmap.obj
 0002:000940a0       ?WriteBmp@BitmapRGBA@@QAEXPAU_iobuf@@@Z 006a80a0 f   bitmap.obj
 0002:00094180       ??0BitmapRGBA@@QAE@XZ      006a8180 f   bitmap.obj
 0002:000941f0       ??0BitmapRGBA@@QAE@ABV0@@Z 006a81f0 f   bitmap.obj
 0002:00094290       ??0BitmapRGBA@@QAE@HH@Z    006a8290 f   bitmap.obj
 0002:00094320       ??0BitmapRGBA@@QAE@PBD@Z   006a8320 f   bitmap.obj
 0002:000943b0       ??0BitmapRGBA@@QAE@PAVBinaryReader@@PBD@Z 006a83b0 f   bitmap.obj
 0002:00094440       ??1BitmapRGBA@@QAE@XZ      006a8440 f   bitmap.obj
 0002:00094500       ?Initialise@BitmapRGBA@@QAEXHH@Z 006a8500 f   bitmap.obj
 0002:00094740       ?Initialise@BitmapRGBA@@QAEXPBD@Z 006a8740 f   bitmap.obj
 0002:000948e0       ?Initialise@BitmapRGBA@@QAEXPAVBinaryReader@@PBD@Z 006a88e0 f   bitmap.obj
 0002:000949b0       ?PutPixel@BitmapRGBA@@QAEXHHABVRGBAColour@@@Z 006a89b0 f   bitmap.obj
 0002:00094a20       ??4RGBAColour@@QAEABV0@ABV0@@Z 006a8a20 f i bitmap.obj
 0002:00094aa0       ?GetPixel@BitmapRGBA@@QBEABVRGBAColour@@HH@Z 006a8aa0 f   bitmap.obj
 0002:00094af0       ?PutPixelClipped@BitmapRGBA@@QAEXHHABVRGBAColour@@@Z 006a8af0 f   bitmap.obj
 0002:00094b90       ?GetPixelClipped@BitmapRGBA@@QBEABVRGBAColour@@HH@Z 006a8b90 f   bitmap.obj
 0002:00094c10       ?DrawLine@BitmapRGBA@@QAEXHHHHABVRGBAColour@@@Z 006a8c10 f   bitmap.obj
 0002:00094d60       ?GetInterpolatedPixel@BitmapRGBA@@QBE?AVRGBAColour@@MM@Z 006a8d60 f   bitmap.obj
 0002:00095280       ?ConvertToGreyScale@BitmapRGBA@@QAEXXZ 006a9280 f   bitmap.obj
 0002:00095350       ?Blit@BitmapRGBA@@QAEXHHHHPBV1@HHHH_N@Z 006a9350 f   bitmap.obj
 0002:000956c0       ?ApplyDilateFilter@BitmapRGBA@@QAEXXZ 006a96c0 f   bitmap.obj
 0002:00095b00       ?ApplyBlurFilter@BitmapRGBA@@QAEXM@Z 006a9b00 f   bitmap.obj
 0002:00096480       ?ConvertColourToAlpha@BitmapRGBA@@QAEXXZ 006aa480 f   bitmap.obj
 0002:000965e0       ?ConvertPinkToTransparent@BitmapRGBA@@QAEXXZ 006aa5e0 f   bitmap.obj
 0002:00096770       ?Clear@BitmapRGBA@@QAEXABVRGBAColour@@@Z 006aa770 f   bitmap.obj
 0002:00096870       ?ConvertToTexture@BitmapRGBA@@QBEH_N@Z 006aa870 f   bitmap.obj
 0002:00096c00       ?log@@YAMM@Z               006aac00 f i bitmap.obj
 0002:00096c60       ??0PersistingDebugRenderer@@QAE@XZ 006aac60 f   persisting_debug_render.obj
 0002:00096d10       ?FindItem@PersistingDebugRenderer@@IAEPAVPersistRenderItem@@PBD@Z 006aad10 f   persisting_debug_render.obj
 0002:00096de0       ?Square2d@PersistingDebugRenderer@@QAAXMMMIPADZZ 006aade0 f   persisting_debug_render.obj
 0002:00096f50       ?PointMarker@PersistingDebugRenderer@@QAAXABVVector3@@IPADZZ 006aaf50 f   persisting_debug_render.obj
 0002:000970a0       ?Sphere@PersistingDebugRenderer@@QAAXABVVector3@@MHPADZZ 006ab0a0 f   persisting_debug_render.obj
 0002:000971e0       ?Vector@PersistingDebugRenderer@@QAAXABVVector3@@0HPADZZ 006ab1e0 f   persisting_debug_render.obj
 0002:00097320       ?Render@PersistingDebugRenderer@@QAEXXZ 006ab320 f   persisting_debug_render.obj
 0002:00097560       ?Size@?$DArray@VPersistRenderItem@@@@QBEHXZ 006ab560 f i persisting_debug_render.obj
 0002:000975a0       ?ValidIndex@?$DArray@VPersistRenderItem@@@@QBE_NH@Z 006ab5a0 f i persisting_debug_render.obj
 0002:00097610       ??A?$DArray@VPersistRenderItem@@@@QAEAAVPersistRenderItem@@H@Z 006ab610 f i persisting_debug_render.obj
 0002:00097730       ??0?$FastDArray@VPersistRenderItem@@@@QAE@XZ 006ab730 f i persisting_debug_render.obj
 0002:000977b0       ??1?$FastDArray@VPersistRenderItem@@@@QAE@XZ 006ab7b0 f i persisting_debug_render.obj
 0002:00097850       ?SetSize@?$FastDArray@VPersistRenderItem@@@@QAEXH@Z 006ab850 f i persisting_debug_render.obj
 0002:00097e40       ?MarkNotUsed@?$FastDArray@VPersistRenderItem@@@@QAEXH@Z 006abe40 f i persisting_debug_render.obj
 0002:00097fa0       ?GetPointer@?$FastDArray@VPersistRenderItem@@@@QAEPAVPersistRenderItem@@XZ 006abfa0 f i persisting_debug_render.obj
 0002:00098000       ??0PersistRenderItem@@QAE@XZ 006ac000 f i persisting_debug_render.obj
 0002:00098060       ??4PersistRenderItem@@QAEAAV0@ABV0@@Z 006ac060 f i persisting_debug_render.obj
 0002:00098160       ??0?$DArray@VPersistRenderItem@@@@QAE@XZ 006ac160 f i persisting_debug_render.obj
 0002:000981d0       ??1?$DArray@VPersistRenderItem@@@@QAE@XZ 006ac1d0 f i persisting_debug_render.obj
 0002:00098220       ?RebuildFreeList@?$FastDArray@VPersistRenderItem@@@@IAEXXZ 006ac220 f i persisting_debug_render.obj
 0002:00098390       ?RebuildNumUsed@?$FastDArray@VPersistRenderItem@@@@IAEXXZ 006ac390 f i persisting_debug_render.obj
 0002:00098430       ?GetPointer@?$FastDArray@VPersistRenderItem@@@@QAEPAVPersistRenderItem@@H@Z 006ac430 f i persisting_debug_render.obj
 0002:00098490       ?GetNextFree@?$FastDArray@VPersistRenderItem@@@@QAEHXZ 006ac490 f i persisting_debug_render.obj
 0002:00098570       ?Empty@?$FastDArray@VPersistRenderItem@@@@QAEXXZ 006ac570 f i persisting_debug_render.obj
 0002:00098610       ?GetPointer@?$DArray@VPersistRenderItem@@@@QBEPAVPersistRenderItem@@H@Z 006ac610 f i persisting_debug_render.obj
 0002:00098730       ?Empty@?$DArray@VPersistRenderItem@@@@QAEXXZ 006ac730 f i persisting_debug_render.obj
 0002:000987e0       ?Grow@?$FastDArray@VPersistRenderItem@@@@IAEXXZ 006ac7e0 f i persisting_debug_render.obj
 0002:00098880       ??1PersistingDebugRenderer@@QAE@XZ 006ac880 f i persisting_debug_render.obj
 0002:000988d0       ?RenderSplitUpQuadTextured@@YAXMMMMMMMMMH@Z 006ac8d0 f   render_utils.obj
 0002:00098c00       ?RenderSplitUpQuadMultiTextured@@YAXMMMMMMMMMMMMMH@Z 006acc00 f   render_utils.obj
 0002:00099120       ??0RGBAColour@@QAE@XZ      006ad120 f   rgb_colour.obj
 0002:00099160       ??0RGBAColour@@QAE@EEEE@Z  006ad160 f   rgb_colour.obj
 0002:000991d0       ??0RGBAColour@@QAE@H@Z     006ad1d0 f   rgb_colour.obj
 0002:00099230       ?Set@RGBAColour@@QAEXEEEE@Z 006ad230 f   rgb_colour.obj
 0002:000992a0       ?Set@RGBAColour@@QAEXH@Z   006ad2a0 f   rgb_colour.obj
 0002:00099330       ??HRGBAColour@@QBE?AV0@ABV0@@Z 006ad330 f   rgb_colour.obj
 0002:000993e0       ??GRGBAColour@@QBE?AV0@ABV0@@Z 006ad3e0 f   rgb_colour.obj
 0002:00099490       ??DRGBAColour@@QBE?AV0@M@Z 006ad490 f   rgb_colour.obj
 0002:00099650       ??KRGBAColour@@QBE?AV0@M@Z 006ad650 f   rgb_colour.obj
 0002:00099820       ??XRGBAColour@@QAEABV0@M@Z 006ad820 f   rgb_colour.obj
 0002:000999e0       ??_0RGBAColour@@QAEABV0@M@Z 006ad9e0 f   rgb_colour.obj
 0002:00099ba0       ??YRGBAColour@@QAEABV0@ABV0@@Z 006adba0 f   rgb_colour.obj
 0002:00099c50       ??ZRGBAColour@@QAEABV0@ABV0@@Z 006adc50 f   rgb_colour.obj
 0002:00099d00       ??8RGBAColour@@QBE_NABV0@@Z 006add00 f   rgb_colour.obj
 0002:00099dc0       ??9RGBAColour@@QBE_NABV0@@Z 006addc0 f   rgb_colour.obj
 0002:00099e80       ?GetData@RGBAColour@@QBEPBEXZ 006ade80 f   rgb_colour.obj
 0002:00099ec0       ?AddWithClamp@RGBAColour@@QAEXABV1@@Z 006adec0 f   rgb_colour.obj
 0002:0009a100       ?MultiplyWithClamp@RGBAColour@@QAEXM@Z 006ae100 f   rgb_colour.obj
 0002:0009a390       ??0ShapeMarker@@QAE@PBDPADHABVMatrix34@@@Z 006ae390 f   shape.obj
 0002:0009a4f0       ??0ShapeMarker@@QAE@PAVTextReader@@PBD@Z 006ae4f0 f   shape.obj
 0002:0009a860       ??1ShapeMarker@@QAE@XZ     006ae860 f   shape.obj
 0002:0009a920       ?GetWorldMatrix@ShapeMarker@@QAE?AVMatrix34@@ABV2@@Z 006ae920 f   shape.obj
 0002:0009aa50       ?WriteToFile@ShapeMarker@@QBEXPAU_iobuf@@@Z 006aea50 f   shape.obj
 0002:0009abd0       ??0ShapeFragment@@QAE@PAVTextReader@@PBD@Z 006aebd0 f   shape.obj
 0002:0009b370       ?Zero@Vector3@@QAEXXZ      006af370 f i shape.obj
 0002:0009b3d0       ??0ShapeFragment@@QAE@PBD0@Z 006af3d0 f   shape.obj
 0002:0009b720       ??1ShapeFragment@@QAE@XZ   006af720 f   shape.obj
 0002:0009b990       ?BuildDisplayList@ShapeFragment@@QAEXXZ 006af990 f   shape.obj
 0002:0009ba90       ?WriteToFile@ShapeFragment@@QBEXPAU_iobuf@@@Z 006afa90 f   shape.obj
 0002:0009bfe0       ?ParsePositionBlock@ShapeFragment@@IAEXPAVTextReader@@I@Z 006affe0 f   shape.obj
 0002:0009c390       ?ParseNormalBlock@ShapeFragment@@IAEXPAVTextReader@@I@Z 006b0390 f   shape.obj
 0002:0009c790       ?ParseColourBlock@ShapeFragment@@IAEXPAVTextReader@@I@Z 006b0790 f   shape.obj
 0002:0009cbb0       ?ParseVertexBlock@ShapeFragment@@IAEXPAVTextReader@@I@Z 006b0bb0 f   shape.obj
 0002:0009cdf0       ?ParseStripBlock@ShapeFragment@@IAEXPAVTextReader@@@Z 006b0df0 f   shape.obj
 0002:0009d410       ?ParseAllStripBlocks@ShapeFragment@@IAEXPAVTextReader@@I@Z 006b1410 f   shape.obj
 0002:0009d600       ?ParseTriangleBlock@ShapeFragment@@IAEXPAVTextReader@@I@Z 006b1600 f   shape.obj
 0002:0009d820       ?GenerateNormals@ShapeFragment@@IAEXXZ 006b1820 f   shape.obj
 0002:0009db10       ?RegisterPositions@ShapeFragment@@QAEXPAVVector3@@I@Z 006b1b10 f   shape.obj
 0002:0009e0c0       ?RegisterNormals@ShapeFragment@@QAEXPAVVector3@@I@Z 006b20c0 f   shape.obj
 0002:0009e140       ?RegisterColours@ShapeFragment@@QAEXPAVRGBAColour@@I@Z 006b2140 f   shape.obj
 0002:0009e1c0       ?RegisterVertices@ShapeFragment@@QAEXPAVVertexPosCol@@I@Z 006b21c0 f   shape.obj
 0002:0009e240       ?RegisterTriangles@ShapeFragment@@QAEXPAVShapeTriangle@@I@Z 006b2240 f   shape.obj
 0002:0009e2c0       ?Render@ShapeFragment@@QAEXM@Z 006b22c0 f   shape.obj
 0002:0009e4c0       ?ConvertToOpenGLFormat@Matrix34@@QBEPAMXZ 006b24c0 f i shape.obj
 0002:0009e5e0       ?RenderSlow@ShapeFragment@@QAEXXZ 006b25e0 f   shape.obj
 0002:0009e8d0       ?glNormal3fv@@YAXPBM@Z     006b28d0 f i shape.obj
 0002:0009e940       ?LookupFragment@ShapeFragment@@QAEPAV1@PBD@Z 006b2940 f   shape.obj
 0002:0009ea30       ?LookupMarker@ShapeFragment@@QAEPAVShapeMarker@@PBD@Z 006b2a30 f   shape.obj
 0002:0009eb70       ?RenderHitCheck@ShapeFragment@@QAEXABVMatrix34@@@Z 006b2b70 f   shape.obj
 0002:0009eea0       ?RenderMarkers@ShapeFragment@@QAEXABVMatrix34@@@Z 006b2ea0 f   shape.obj
 0002:0009f110       ?RayHit@ShapeFragment@@QAE_NPAVRayPackage@@ABVMatrix34@@_N@Z 006b3110 f   shape.obj
 0002:0009f4b0       ??D@YA?AVVector3@@ABV0@ABVMatrix34@@@Z 006b34b0 f i shape.obj
 0002:0009f5e0       ?SphereHit@ShapeFragment@@QAE_NPAVSpherePackage@@ABVMatrix34@@_N@Z 006b35e0 f   shape.obj
 0002:0009f960       ?ShapeHit@ShapeFragment@@QAE_NPAVShape@@ABVMatrix34@@1_N@Z 006b3960 f   shape.obj
 0002:0009fb50       ??0SpherePackage@@QAE@ABVVector3@@M@Z 006b3b50 f i shape.obj
 0002:0009fbc0       ?CalculateCentre@ShapeFragment@@QAEXABVMatrix34@@AAVVector3@@AAH@Z 006b3bc0 f   shape.obj
 0002:0009fd30       ?CalculateRadius@ShapeFragment@@QAEXABVMatrix34@@ABVVector3@@AAM@Z 006b3d30 f   shape.obj
 0002:0009fee0       ??0Shape@@QAE@XZ           006b3ee0 f   shape.obj
 0002:0009ff20       ??0Shape@@QAE@PBD_N@Z      006b3f20 f   shape.obj
 0002:000a0070       ??0Shape@@QAE@PAVTextReader@@_N@Z 006b4070 f   shape.obj
 0002:000a0100       ??1Shape@@QAE@XZ           006b4100 f   shape.obj
 0002:000a01f0       ??_GShapeFragment@@QAEPAXI@Z 006b41f0 f i shape.obj
 0002:000a0260       ?BuildDisplayList@Shape@@QAEXXZ 006b4260 f   shape.obj
 0002:000a0320       ?Load@Shape@@IAEXPAVTextReader@@@Z 006b4320 f   shape.obj
 0002:000a0c50       ?WriteToFile@Shape@@QBEXPAU_iobuf@@@Z 006b4c50 f   shape.obj
 0002:000a0cb0       ?Render@Shape@@QAEXMABVMatrix34@@@Z 006b4cb0 f   shape.obj
 0002:000a0dc0       ?RenderHitCheck@Shape@@QAEXABVMatrix34@@@Z 006b4dc0 f   shape.obj
 0002:000a0e20       ?RenderMarkers@Shape@@QAEXABVMatrix34@@@Z 006b4e20 f   shape.obj
 0002:000a0e80       ?RayHit@Shape@@QAE_NPAVRayPackage@@ABVMatrix34@@_N@Z 006b4e80 f   shape.obj
 0002:000a0ef0       ?SphereHit@Shape@@QAE_NPAVSpherePackage@@ABVMatrix34@@_N@Z 006b4ef0 f   shape.obj
 0002:000a0f60       ?ShapeHit@Shape@@QAE_NPAV1@ABVMatrix34@@1_N@Z 006b4f60 f   shape.obj
 0002:000a0fd0       ?CalculateCentre@Shape@@QAE?AVVector3@@ABVMatrix34@@@Z 006b4fd0 f   shape.obj
 0002:000a10d0       ??_0Vector3@@QAEABV0@M@Z   006b50d0 f i shape.obj
 0002:000a1150       ?CalculateRadius@Shape@@QAEMABVMatrix34@@ABVVector3@@@Z 006b5150 f   shape.obj
 0002:000a1200       ??0?$LList@PAVShapeFragment@@@@QAE@XZ 006b5200 f i shape.obj
 0002:000a1280       ??1?$LList@PAVShapeFragment@@@@QAE@XZ 006b5280 f i shape.obj
 0002:000a12d0       ?PutData@?$LList@PAVShapeFragment@@@@QAEXABQAVShapeFragment@@@Z 006b52d0 f i shape.obj
 0002:000a1330       ?GetData@?$LList@PAVShapeFragment@@@@QBEPAVShapeFragment@@H@Z 006b5330 f i shape.obj
 0002:000a14d0       ?Size@?$LList@PAVShapeFragment@@@@QBEHXZ 006b54d0 f i shape.obj
 0002:000a1510       ?EmptyAndDelete@?$LList@PAVShapeFragment@@@@QAEXXZ 006b5510 f i shape.obj
 0002:000a15d0       ??0?$LList@PAVShapeMarker@@@@QAE@XZ 006b55d0 f i shape.obj
 0002:000a1650       ??1?$LList@PAVShapeMarker@@@@QAE@XZ 006b5650 f i shape.obj
 0002:000a16a0       ?PutData@?$LList@PAVShapeMarker@@@@QAEXABQAVShapeMarker@@@Z 006b56a0 f i shape.obj
 0002:000a1700       ?GetData@?$LList@PAVShapeMarker@@@@QBEPAVShapeMarker@@H@Z 006b5700 f i shape.obj
 0002:000a18a0       ?Size@?$LList@PAVShapeMarker@@@@QBEHXZ 006b58a0 f i shape.obj
 0002:000a18e0       ?EmptyAndDelete@?$LList@PAVShapeMarker@@@@QAEXXZ 006b58e0 f i shape.obj
 0002:000a19a0       ??_GShapeMarker@@QAEPAXI@Z 006b59a0 f i shape.obj
 0002:000a1a10       ?PutDataAtEnd@?$LList@PAVShapeFragment@@@@QAEXABQAVShapeFragment@@@Z 006b5a10 f i shape.obj
 0002:000a1ba0       ?RemoveData@?$LList@PAVShapeFragment@@@@QAEXH@Z 006b5ba0 f i shape.obj
 0002:000a1d30       ?ValidIndex@?$LList@PAVShapeFragment@@@@QBE_NH@Z 006b5d30 f i shape.obj
 0002:000a1da0       ?Empty@?$LList@PAVShapeFragment@@@@QAEXXZ 006b5da0 f i shape.obj
 0002:000a1ea0       ?PutDataAtEnd@?$LList@PAVShapeMarker@@@@QAEXABQAVShapeMarker@@@Z 006b5ea0 f i shape.obj
 0002:000a2030       ?RemoveData@?$LList@PAVShapeMarker@@@@QAEXH@Z 006b6030 f i shape.obj
 0002:000a21c0       ?ValidIndex@?$LList@PAVShapeMarker@@@@QBE_NH@Z 006b61c0 f i shape.obj
 0002:000a2230       ?Empty@?$LList@PAVShapeMarker@@@@QAEXXZ 006b6230 f i shape.obj
 0002:000a2330       ??_G?$LListItem@PAVShapeFragment@@@@QAEPAXI@Z 006b6330 f i shape.obj
 0002:000a23a0       ??_G?$LListItem@PAVShapeMarker@@@@QAEPAXI@Z 006b63a0 f i shape.obj
 0002:000a2410       ??0?$LListItem@PAVShapeFragment@@@@QAE@XZ 006b6410 f i shape.obj
 0002:000a2470       ??1?$LListItem@PAVShapeFragment@@@@QAE@XZ 006b6470 f i shape.obj
 0002:000a24b0       ??0?$LListItem@PAVShapeMarker@@@@QAE@XZ 006b64b0 f i shape.obj
 0002:000a2510       ??1?$LListItem@PAVShapeMarker@@@@QAE@XZ 006b6510 f i shape.obj
 0002:000a2550       ??0Triangle@@QAE@ABVVector3@@00@Z 006b6550 f   sphere_renderer.obj
 0002:000a25f0       ??0Sphere@@QAE@XZ          006b65f0 f   sphere_renderer.obj
 0002:000a2d90       ??0Triangle@@QAE@XZ        006b6d90 f i sphere_renderer.obj
 0002:000a2df0       ??4Triangle@@QAEAAV0@ABV0@@Z 006b6df0 f i sphere_renderer.obj
 0002:000a2e80       ?ConsiderTriangle@Sphere@@AAEXHABVVector3@@00@Z 006b6e80 f   sphere_renderer.obj
 0002:000a3100       ?RenderLong@Sphere@@QAEXXZ 006b7100 f   sphere_renderer.obj
 0002:000a31b0       ?Render@Sphere@@QAEXABVVector3@@M@Z 006b71b0 f   sphere_renderer.obj
 0002:000a32c0       ?Initialise@TextRenderer@@QAEXPBD@Z 006b72c0 f   text_renderer.obj
 0002:000a3350       ?BuildOpenGlState@TextRenderer@@QAEXXZ 006b7350 f   text_renderer.obj
 0002:000a3590       ?BeginText2D@TextRenderer@@QAEXXZ 006b7590 f   text_renderer.obj
 0002:000a37b0       ?EndText2D@TextRenderer@@QAEXXZ 006b77b0 f   text_renderer.obj
 0002:000a3880       ?GetTexCoordX@TextRenderer@@IAEME@Z 006b7880 f   text_renderer.obj
 0002:000a3910       ?GetTexCoordY@TextRenderer@@IAEME@Z 006b7910 f   text_renderer.obj
 0002:000a39a0       ?DrawText2DUp@TextRenderer@@QAAXMMMPBDZZ 006b79a0 f   text_renderer.obj
 0002:000a3d00       ?DrawText2DDown@TextRenderer@@QAAXMMMPBDZZ 006b7d00 f   text_renderer.obj
 0002:000a42f0       ?SetRenderShadow@TextRenderer@@QAEX_N@Z 006b82f0 f   text_renderer.obj
 0002:000a4340       ?SetRenderOutline@TextRenderer@@QAEX_N@Z 006b8340 f   text_renderer.obj
 0002:000a4390       ?DrawText2DSimple@TextRenderer@@QAEXMMMPBD@Z 006b8390 f   text_renderer.obj
 0002:000a49b0       ?DrawText2DJustified@TextRenderer@@QAAXMMMHPBDZZ 006b89b0 f   text_renderer.obj
 0002:000a4b70       ?DrawText2D@TextRenderer@@QAAXMMMPBDZZ 006b8b70 f   text_renderer.obj
 0002:000a4c60       ?DrawText2DRight@TextRenderer@@QAAXMMMPBDZZ 006b8c60 f   text_renderer.obj
 0002:000a4d90       ?DrawText2DCentre@TextRenderer@@QAAXMMMPBDZZ 006b8d90 f   text_renderer.obj
 0002:000a4ed0       ?DrawText3DSimple@TextRenderer@@QAEXABVVector3@@MPBD@Z 006b8ed0 f   text_renderer.obj
 0002:000a5470       ?GetRight@Camera@@QAE?AVVector3@@XZ 006b9470 f i text_renderer.obj
 0002:000a54e0       ??0SaveGLFontDrawAttributes@?A0x96a9d5da@@QAE@XZ 006b94e0 f i text_renderer.obj
 0002:000a5640       ??0SaveGLEnabled@?A0x96a9d5da@@QAE@I@Z 006b9640 f i text_renderer.obj
 0002:000a56c0       ??1SaveGLEnabled@?A0x96a9d5da@@QAE@XZ 006b96c0 f i text_renderer.obj
 0002:000a5740       ??0SaveGLTex2DParamI@?A0x96a9d5da@@QAE@I@Z 006b9740 f i text_renderer.obj
 0002:000a57c0       ??1SaveGLTex2DParamI@?A0x96a9d5da@@QAE@XZ 006b97c0 f i text_renderer.obj
 0002:000a5830       ??0SaveGLBlendFunc@?A0x96a9d5da@@QAE@XZ 006b9830 f i text_renderer.obj
 0002:000a58b0       ??1SaveGLBlendFunc@?A0x96a9d5da@@QAE@XZ 006b98b0 f i text_renderer.obj
 0002:000a5910       ??0SaveGLColour@?A0x96a9d5da@@QAE@XZ 006b9910 f i text_renderer.obj
 0002:000a5970       ??1SaveGLColour@?A0x96a9d5da@@QAE@XZ 006b9970 f i text_renderer.obj
 0002:000a59d0       ?glColor4fv@@YAXPBM@Z      006b99d0 f i text_renderer.obj
 0002:000a5a50       ??1SaveGLFontDrawAttributes@?A0x96a9d5da@@QAE@XZ 006b9a50 f i text_renderer.obj
 0002:000a5b80       ?DrawText3D@TextRenderer@@QAAXABVVector3@@MPBDZZ 006b9b80 f   text_renderer.obj
 0002:000a5c60       ?DrawText3DCentre@TextRenderer@@QAAXABVVector3@@MPBDZZ 006b9c60 f   text_renderer.obj
 0002:000a5e10       ?DrawText3DRight@TextRenderer@@QAAXABVVector3@@MPBDZZ 006b9e10 f   text_renderer.obj
 0002:000a5fb0       ?DrawText3D@TextRenderer@@QAAXABVVector3@@00MPBDZZ 006b9fb0 f   text_renderer.obj
 0002:000a65e0       ??ZVector3@@QAEABV0@ABV0@@Z 006ba5e0 f i text_renderer.obj
 0002:000a6660       ?GetTextWidth@TextRenderer@@QAEMIM@Z 006ba660 f   text_renderer.obj
 0002:000a66d0       ??0TextureUV@@QAE@XZ       006ba6d0 f   texture_uv.obj
 0002:000a6710       ??0TextureUV@@QAE@MM@Z     006ba710 f   texture_uv.obj
 0002:000a6760       ?Set@TextureUV@@QAEXMM@Z   006ba760 f   texture_uv.obj
 0002:000a67b0       ??HTextureUV@@QBE?AV0@ABV0@@Z 006ba7b0 f   texture_uv.obj
 0002:000a6850       ??GTextureUV@@QBE?AV0@ABV0@@Z 006ba850 f   texture_uv.obj
 0002:000a68f0       ??DTextureUV@@QBE?AV0@M@Z  006ba8f0 f   texture_uv.obj
 0002:000a6990       ??KTextureUV@@QBE?AV0@M@Z  006ba990 f   texture_uv.obj
 0002:000a6a30       ??4TextureUV@@QAEABV0@ABV0@@Z 006baa30 f   texture_uv.obj
 0002:000a6a90       ??XTextureUV@@QAEABV0@M@Z  006baa90 f   texture_uv.obj
 0002:000a6af0       ??_0TextureUV@@QAEABV0@M@Z 006baaf0 f   texture_uv.obj
 0002:000a6b60       ??YTextureUV@@QAEABV0@ABV0@@Z 006bab60 f   texture_uv.obj
 0002:000a6bd0       ??ZTextureUV@@QAEABV0@ABV0@@Z 006babd0 f   texture_uv.obj
 0002:000a6c40       ?GetData@TextureUV@@QAEPAMXZ 006bac40 f   texture_uv.obj
 0002:000a6c80       ?glGenBuffersD3D@@YGXHPAI@Z 006bac80 f   ogl_extensions_directx.obj
 0002:000a6d00       ?glDeleteBuffersD3D@@YGXHPBI@Z 006bad00 f   ogl_extensions_directx.obj
 0002:000a6e00       ?glBindBufferD3D@@YGXII@Z  006bae00 f   ogl_extensions_directx.obj
 0002:000a6ed0       ?glBufferDataD3D@@YGXIHPBXI@Z 006baed0 f   ogl_extensions_directx.obj
 0002:000a72a0       ?InitialiseOGLExtensions@@YAXXZ 006bb2a0 f   ogl_extensions_directx.obj
 0002:000a7380       ?IsOGLExtensionSupported@@YAHPBD@Z 006bb380 f   ogl_extensions_directx.obj
 0002:000a73b0       ??A?$map@IPAUIDirect3DVertexBuffer9@@U?$less@I@std@@V?$allocator@U?$pair@$$CBIPAUIDirect3DVertexBuffer9@@@std@@@3@@std@@QAEAAPAUIDirect3DVertexBuffer9@@ABI@Z 006bb3b0 f i ogl_extensions_directx.obj
 0002:000a7650       ?erase@?$_Tree@V?$_Tmap_traits@IPAUIDirect3DVertexBuffer9@@U?$less@I@std@@V?$allocator@U?$pair@$$CBIPAUIDirect3DVertexBuffer9@@@std@@@3@$0A@@std@@@std@@QAEIABI@Z 006bb650 f i ogl_extensions_directx.obj
 0002:000a7850       ??1iterator@?$_Tree@V?$_Tmap_traits@IPAUIDirect3DVertexBuffer9@@U?$less@I@std@@V?$allocator@U?$pair@$$CBIPAUIDirect3DVertexBuffer9@@@std@@@3@$0A@@std@@@std@@QAE@XZ 006bb850 f i ogl_extensions_directx.obj
 0002:000a78a0       ??0iterator@?$_Tree@V?$_Tmap_traits@IPAUIDirect3DVertexBuffer9@@U?$less@I@std@@V?$allocator@U?$pair@$$CBIPAUIDirect3DVertexBuffer9@@@std@@@3@$0A@@std@@@std@@QAE@ABV012@@Z 006bb8a0 f i ogl_extensions_directx.obj
 0002:000a7900       ??4iterator@?$_Tree@V?$_Tmap_traits@IPAUIDirect3DVertexBuffer9@@U?$less@I@std@@V?$allocator@U?$pair@$$CBIPAUIDirect3DVertexBuffer9@@@std@@@3@$0A@@std@@@std@@QAEAAV012@ABV012@@Z 006bb900 f i ogl_extensions_directx.obj
 0002:000a7960       ??1?$pair@Viterator@?$_Tree@V?$_Tmap_traits@IPAUIDirect3DVertexBuffer9@@U?$less@I@std@@V?$allocator@U?$pair@$$CBIPAUIDirect3DVertexBuffer9@@@std@@@3@$0A@@std@@@std@@V123@@std@@QAE@XZ 006bb960 f i ogl_extensions_directx.obj
 0002:000a7a10       ??1const_iterator@?$_Tree@V?$_Tmap_traits@IPAUIDirect3DVertexBuffer9@@U?$less@I@std@@V?$allocator@U?$pair@$$CBIPAUIDirect3DVertexBuffer9@@@std@@@3@$0A@@std@@@std@@QAE@XZ 006bba10 f i ogl_extensions_directx.obj
 0002:000a7a60       ??0const_iterator@?$_Tree@V?$_Tmap_traits@IPAUIDirect3DVertexBuffer9@@U?$less@I@std@@V?$allocator@U?$pair@$$CBIPAUIDirect3DVertexBuffer9@@@std@@@3@$0A@@std@@@std@@QAE@ABV012@@Z 006bba60 f i ogl_extensions_directx.obj
 0002:000a7ad0       ??4const_iterator@?$_Tree@V?$_Tmap_traits@IPAUIDirect3DVertexBuffer9@@U?$less@I@std@@V?$allocator@U?$pair@$$CBIPAUIDirect3DVertexBuffer9@@@std@@@3@$0A@@std@@@std@@QAEAAV012@ABV012@@Z 006bbad0 f i ogl_extensions_directx.obj
 0002:000a7b40       ??1?$_Bidit@U?$pair@$$CBIPAUIDirect3DVertexBuffer9@@@std@@HPBU12@ABU12@@std@@QAE@XZ 006bbb40 f i ogl_extensions_directx.obj
 0002:000a7b90       ??0?$_Bidit@U?$pair@$$CBIPAUIDirect3DVertexBuffer9@@@std@@HPBU12@ABU12@@std@@QAE@ABU01@@Z 006bbb90 f i ogl_extensions_directx.obj
 0002:000a7bf0       ??4?$_Bidit@U?$pair@$$CBIPAUIDirect3DVertexBuffer9@@@std@@HPBU12@ABU12@@std@@QAEAAU01@ABU01@@Z 006bbbf0 f i ogl_extensions_directx.obj
 0002:000a7c50       ?_Key@?$_Tree@V?$_Tmap_traits@IPAUIDirect3DVertexBuffer9@@U?$less@I@std@@V?$allocator@U?$pair@$$CBIPAUIDirect3DVertexBuffer9@@@std@@@3@$0A@@std@@@std@@KAABIPAU_Node@?$_Tree_nod@V?$_Tmap_traits@IPAUIDirect3DVertexBuffer9@@U?$less@I@std@@V?$allocator@U?$pair@$$CBIPAUIDirect3DVertexBuffer9@@@std@@@3@$0A@@std@@@2@@Z 006bbc50 f i ogl_extensions_directx.obj
 0002:000a7cb0       ?end@?$_Tree@V?$_Tmap_traits@IPAUIDirect3DVertexBuffer9@@U?$less@I@std@@V?$allocator@U?$pair@$$CBIPAUIDirect3DVertexBuffer9@@@std@@@3@$0A@@std@@@std@@QAE?AViterator@12@XZ 006bbcb0 f i ogl_extensions_directx.obj
 0002:000a7d40       ?insert@?$_Tree@V?$_Tmap_traits@IPAUIDirect3DVertexBuffer9@@U?$less@I@std@@V?$allocator@U?$pair@$$CBIPAUIDirect3DVertexBuffer9@@@std@@@3@$0A@@std@@@std@@QAE?AViterator@12@V312@ABU?$pair@$$CBIPAUIDirect3DVertexBuffer9@@@2@@Z 006bbd40 f i ogl_extensions_directx.obj
 0002:000a8c00       ?erase@?$_Tree@V?$_Tmap_traits@IPAUIDirect3DVertexBuffer9@@U?$less@I@std@@V?$allocator@U?$pair@$$CBIPAUIDirect3DVertexBuffer9@@@std@@@3@$0A@@std@@@std@@QAE?AViterator@12@V312@0@Z 006bcc00 f i ogl_extensions_directx.obj
 0002:000a8f10       ?lower_bound@?$_Tree@V?$_Tmap_traits@IPAUIDirect3DVertexBuffer9@@U?$less@I@std@@V?$allocator@U?$pair@$$CBIPAUIDirect3DVertexBuffer9@@@std@@@3@$0A@@std@@@std@@QAE?AViterator@12@ABI@Z 006bcf10 f i ogl_extensions_directx.obj
 0002:000a8fa0       ?equal_range@?$_Tree@V?$_Tmap_traits@IPAUIDirect3DVertexBuffer9@@U?$less@I@std@@V?$allocator@U?$pair@$$CBIPAUIDirect3DVertexBuffer9@@@std@@@3@$0A@@std@@@std@@QAE?AU?$pair@Viterator@?$_Tree@V?$_Tmap_traits@IPAUIDirect3DVertexBuffer9@@U?$less@I@std@@V?$allocator@U?$pair@$$CBIPAUIDirect3DVertexBuffer9@@@std@@@3@$0A@@std@@@std@@V123@@2@ABI@Z 006bcfa0 f i ogl_extensions_directx.obj
 0002:000a90f0       ??R?$less@I@std@@QBE_NABI0@Z 006bd0f0 f i ogl_extensions_directx.obj
 0002:000a9140       ??Diterator@?$_Tree@V?$_Tmap_traits@IPAUIDirect3DVertexBuffer9@@U?$less@I@std@@V?$allocator@U?$pair@$$CBIPAUIDirect3DVertexBuffer9@@@std@@@3@$0A@@std@@@std@@QBEAAU?$pair@$$CBIPAUIDirect3DVertexBuffer9@@@2@XZ 006bd140 f i ogl_extensions_directx.obj
 0002:000a9190       ??8const_iterator@?$_Tree@V?$_Tmap_traits@IPAUIDirect3DVertexBuffer9@@U?$less@I@std@@V?$allocator@U?$pair@$$CBIPAUIDirect3DVertexBuffer9@@@std@@@3@$0A@@std@@@std@@QBE_NABV012@@Z 006bd190 f i ogl_extensions_directx.obj
 0002:000a9280       ?_Mynode@const_iterator@?$_Tree@V?$_Tmap_traits@IPAUIDirect3DVertexBuffer9@@U?$less@I@std@@V?$allocator@U?$pair@$$CBIPAUIDirect3DVertexBuffer9@@@std@@@3@$0A@@std@@@std@@QBEPAU_Node@?$_Tree_nod@V?$_Tmap_traits@IPAUIDirect3DVertexBuffer9@@U?$less@I@std@@V?$allocator@U?$pair@$$CBIPAUIDirect3DVertexBuffer9@@@std@@@3@$0A@@std@@@3@XZ 006bd280 f i ogl_extensions_directx.obj
 0002:000a92c0       ??0?$pair@$$CBIPAUIDirect3DVertexBuffer9@@@std@@QAE@ABIABQAUIDirect3DVertexBuffer9@@@Z 006bd2c0 f i ogl_extensions_directx.obj
 0002:000a9320       ??1?$pair@Viterator@?$_Tree@V?$_Tmap_traits@IPAUIDirect3DVertexBuffer9@@U?$less@I@std@@V?$allocator@U?$pair@$$CBIPAUIDirect3DVertexBuffer9@@@std@@@3@$0A@@std@@@std@@_N@std@@QAE@XZ 006bd320 f i ogl_extensions_directx.obj
 0002:000a9370       ?_Isnil@?$_Tree@V?$_Tmap_traits@IPAUIDirect3DVertexBuffer9@@U?$less@I@std@@V?$allocator@U?$pair@$$CBIPAUIDirect3DVertexBuffer9@@@std@@@3@$0A@@std@@@std@@KAAADPAU_Node@?$_Tree_nod@V?$_Tmap_traits@IPAUIDirect3DVertexBuffer9@@U?$less@I@std@@V?$allocator@U?$pair@$$CBIPAUIDirect3DVertexBuffer9@@@std@@@3@$0A@@std@@@2@@Z 006bd370 f i ogl_extensions_directx.obj
 0002:000a93b0       ?_Right@?$_Tree@V?$_Tmap_traits@IPAUIDirect3DVertexBuffer9@@U?$less@I@std@@V?$allocator@U?$pair@$$CBIPAUIDirect3DVertexBuffer9@@@std@@@3@$0A@@std@@@std@@KAAAPAU_Node@?$_Tree_nod@V?$_Tmap_traits@IPAUIDirect3DVertexBuffer9@@U?$less@I@std@@V?$allocator@U?$pair@$$CBIPAUIDirect3DVertexBuffer9@@@std@@@3@$0A@@std@@@2@PAU342@@Z 006bd3b0 f i ogl_extensions_directx.obj
 0002:000a93f0       ?_Myval@?$_Tree@V?$_Tmap_traits@IPAUIDirect3DVertexBuffer9@@U?$less@I@std@@V?$allocator@U?$pair@$$CBIPAUIDirect3DVertexBuffer9@@@std@@@3@$0A@@std@@@std@@KAAAU?$pair@$$CBIPAUIDirect3DVertexBuffer9@@@2@PAU_Node@?$_Tree_nod@V?$_Tmap_traits@IPAUIDirect3DVertexBuffer9@@U?$less@I@std@@V?$allocator@U?$pair@$$CBIPAUIDirect3DVertexBuffer9@@@std@@@3@$0A@@std@@@2@@Z 006bd3f0 f i ogl_extensions_directx.obj
 0002:000a9430       ?begin@?$_Tree@V?$_Tmap_traits@IPAUIDirect3DVertexBuffer9@@U?$less@I@std@@V?$allocator@U?$pair@$$CBIPAUIDirect3DVertexBuffer9@@@std@@@3@$0A@@std@@@std@@QAE?AViterator@12@XZ 006bd430 f i ogl_extensions_directx.obj
 0002:000a94c0       ?size@?$_Tree@V?$_Tmap_traits@IPAUIDirect3DVertexBuffer9@@U?$less@I@std@@V?$allocator@U?$pair@$$CBIPAUIDirect3DVertexBuffer9@@@std@@@3@$0A@@std@@@std@@QBEIXZ 006bd4c0 f i ogl_extensions_directx.obj
 0002:000a9500       ?insert@?$_Tree@V?$_Tmap_traits@IPAUIDirect3DVertexBuffer9@@U?$less@I@std@@V?$allocator@U?$pair@$$CBIPAUIDirect3DVertexBuffer9@@@std@@@3@$0A@@std@@@std@@QAE?AU?$pair@Viterator@?$_Tree@V?$_Tmap_traits@IPAUIDirect3DVertexBuffer9@@U?$less@I@std@@V?$allocator@U?$pair@$$CBIPAUIDirect3DVertexBuffer9@@@std@@@3@$0A@@std@@@std@@_N@2@ABU?$pair@$$CBIPAUIDirect3DVertexBuffer9@@@2@@Z 006bd500 f i ogl_extensions_directx.obj
 0002:000a99c0       ?_Left@?$_Tree@V?$_Tmap_traits@IPAUIDirect3DVertexBuffer9@@U?$less@I@std@@V?$allocator@U?$pair@$$CBIPAUIDirect3DVertexBuffer9@@@std@@@3@$0A@@std@@@std@@KAAAPAU_Node@?$_Tree_nod@V?$_Tmap_traits@IPAUIDirect3DVertexBuffer9@@U?$less@I@std@@V?$allocator@U?$pair@$$CBIPAUIDirect3DVertexBuffer9@@@std@@@3@$0A@@std@@@2@PAU342@@Z 006bd9c0 f i ogl_extensions_directx.obj
 0002:000a9a00       ?erase@?$_Tree@V?$_Tmap_traits@IPAUIDirect3DVertexBuffer9@@U?$less@I@std@@V?$allocator@U?$pair@$$CBIPAUIDirect3DVertexBuffer9@@@std@@@3@$0A@@std@@@std@@QAE?AViterator@12@V312@@Z 006bda00 f i ogl_extensions_directx.obj
 0002:000aa440       ?_Parent@?$_Tree@V?$_Tmap_traits@IPAUIDirect3DVertexBuffer9@@U?$less@I@std@@V?$allocator@U?$pair@$$CBIPAUIDirect3DVertexBuffer9@@@std@@@3@$0A@@std@@@std@@KAAAPAU_Node@?$_Tree_nod@V?$_Tmap_traits@IPAUIDirect3DVertexBuffer9@@U?$less@I@std@@V?$allocator@U?$pair@$$CBIPAUIDirect3DVertexBuffer9@@@std@@@3@$0A@@std@@@2@PAU342@@Z 006be440 f i ogl_extensions_directx.obj
 0002:000aa480       ?clear@?$_Tree@V?$_Tmap_traits@IPAUIDirect3DVertexBuffer9@@U?$less@I@std@@V?$allocator@U?$pair@$$CBIPAUIDirect3DVertexBuffer9@@@std@@@3@$0A@@std@@@std@@QAEXXZ 006be480 f i ogl_extensions_directx.obj
 0002:000aa540       ?upper_bound@?$_Tree@V?$_Tmap_traits@IPAUIDirect3DVertexBuffer9@@U?$less@I@std@@V?$allocator@U?$pair@$$CBIPAUIDirect3DVertexBuffer9@@@std@@@3@$0A@@std@@@std@@QAE?AViterator@12@ABI@Z 006be540 f i ogl_extensions_directx.obj
 0002:000aa5d0       ?_Insert@?$_Tree@V?$_Tmap_traits@IPAUIDirect3DVertexBuffer9@@U?$less@I@std@@V?$allocator@U?$pair@$$CBIPAUIDirect3DVertexBuffer9@@@std@@@3@$0A@@std@@@std@@IAE?AViterator@12@_NPAU_Node@?$_Tree_nod@V?$_Tmap_traits@IPAUIDirect3DVertexBuffer9@@U?$less@I@std@@V?$allocator@U?$pair@$$CBIPAUIDirect3DVertexBuffer9@@@std@@@3@$0A@@std@@@2@ABU?$pair@$$CBIPAUIDirect3DVertexBuffer9@@@2@@Z 006be5d0 f i ogl_extensions_directx.obj
 0002:000aabd0       ?_Lbound@?$_Tree@V?$_Tmap_traits@IPAUIDirect3DVertexBuffer9@@U?$less@I@std@@V?$allocator@U?$pair@$$CBIPAUIDirect3DVertexBuffer9@@@std@@@3@$0A@@std@@@std@@IBEPAU_Node@?$_Tree_nod@V?$_Tmap_traits@IPAUIDirect3DVertexBuffer9@@U?$less@I@std@@V?$allocator@U?$pair@$$CBIPAUIDirect3DVertexBuffer9@@@std@@@3@$0A@@std@@@2@ABI@Z 006bebd0 f i ogl_extensions_directx.obj
 0002:000aacd0       ?_Rmost@?$_Tree@V?$_Tmap_traits@IPAUIDirect3DVertexBuffer9@@U?$less@I@std@@V?$allocator@U?$pair@$$CBIPAUIDirect3DVertexBuffer9@@@std@@@3@$0A@@std@@@std@@IBEAAPAU_Node@?$_Tree_nod@V?$_Tmap_traits@IPAUIDirect3DVertexBuffer9@@U?$less@I@std@@V?$allocator@U?$pair@$$CBIPAUIDirect3DVertexBuffer9@@@std@@@3@$0A@@std@@@2@XZ 006becd0 f i ogl_extensions_directx.obj
 0002:000aad30       ?_Kfn@?$_Tmap_traits@IPAUIDirect3DVertexBuffer9@@U?$less@I@std@@V?$allocator@U?$pair@$$CBIPAUIDirect3DVertexBuffer9@@@std@@@3@$0A@@std@@SAABIABU?$pair@$$CBIPAUIDirect3DVertexBuffer9@@@2@@Z 006bed30 f i ogl_extensions_directx.obj
 0002:000aad70       ?deallocate@?$allocator@U_Node@?$_Tree_nod@V?$_Tmap_traits@IPAUIDirect3DVertexBuffer9@@U?$less@I@std@@V?$allocator@U?$pair@$$CBIPAUIDirect3DVertexBuffer9@@@std@@@3@$0A@@std@@@std@@@std@@QAEXPAU_Node@?$_Tree_nod@V?$_Tmap_traits@IPAUIDirect3DVertexBuffer9@@U?$less@I@std@@V?$allocator@U?$pair@$$CBIPAUIDirect3DVertexBuffer9@@@std@@@3@$0A@@std@@@2@I@Z 006bed70 f i ogl_extensions_directx.obj
 0002:000aadd0       ??0iterator@?$_Tree@V?$_Tmap_traits@IPAUIDirect3DVertexBuffer9@@U?$less@I@std@@V?$allocator@U?$pair@$$CBIPAUIDirect3DVertexBuffer9@@@std@@@3@$0A@@std@@@std@@QAE@XZ 006bedd0 f i ogl_extensions_directx.obj
 0002:000aae30       ??0iterator@?$_Tree@V?$_Tmap_traits@IPAUIDirect3DVertexBuffer9@@U?$less@I@std@@V?$allocator@U?$pair@$$CBIPAUIDirect3DVertexBuffer9@@@std@@@3@$0A@@std@@@std@@QAE@PAU_Node@?$_Tree_nod@V?$_Tmap_traits@IPAUIDirect3DVertexBuffer9@@U?$less@I@std@@V?$allocator@U?$pair@$$CBIPAUIDirect3DVertexBuffer9@@@std@@@3@$0A@@std@@@2@PBV12@@Z 006bee30 f i ogl_extensions_directx.obj
 0002:000aae90       ??Eiterator@?$_Tree@V?$_Tmap_traits@IPAUIDirect3DVertexBuffer9@@U?$less@I@std@@V?$allocator@U?$pair@$$CBIPAUIDirect3DVertexBuffer9@@@std@@@3@$0A@@std@@@std@@QAEAAV012@XZ 006bee90 f i ogl_extensions_directx.obj
 0002:000aaef0       ??Eiterator@?$_Tree@V?$_Tmap_traits@IPAUIDirect3DVertexBuffer9@@U?$less@I@std@@V?$allocator@U?$pair@$$CBIPAUIDirect3DVertexBuffer9@@@std@@@3@$0A@@std@@@std@@QAE?AV012@H@Z 006beef0 f i ogl_extensions_directx.obj
 0002:000ab010       ??Fiterator@?$_Tree@V?$_Tmap_traits@IPAUIDirect3DVertexBuffer9@@U?$less@I@std@@V?$allocator@U?$pair@$$CBIPAUIDirect3DVertexBuffer9@@@std@@@3@$0A@@std@@@std@@QAEAAV012@XZ 006bf010 f i ogl_extensions_directx.obj
 0002:000ab070       ??Dconst_iterator@?$_Tree@V?$_Tmap_traits@IPAUIDirect3DVertexBuffer9@@U?$less@I@std@@V?$allocator@U?$pair@$$CBIPAUIDirect3DVertexBuffer9@@@std@@@3@$0A@@std@@@std@@QBEABU?$pair@$$CBIPAUIDirect3DVertexBuffer9@@@2@XZ 006bf070 f i ogl_extensions_directx.obj
 0002:000ab160       ??9const_iterator@?$_Tree@V?$_Tmap_traits@IPAUIDirect3DVertexBuffer9@@U?$less@I@std@@V?$allocator@U?$pair@$$CBIPAUIDirect3DVertexBuffer9@@@std@@@3@$0A@@std@@@std@@QBE_NABV012@@Z 006bf160 f i ogl_extensions_directx.obj
 0002:000ab1d0       ??0?$pair@Viterator@?$_Tree@V?$_Tmap_traits@IPAUIDirect3DVertexBuffer9@@U?$less@I@std@@V?$allocator@U?$pair@$$CBIPAUIDirect3DVertexBuffer9@@@std@@@3@$0A@@std@@@std@@V123@@std@@QAE@ABViterator@?$_Tree@V?$_Tmap_traits@IPAUIDirect3DVertexBuffer9@@U?$less@I@std@@V?$allocator@U?$pair@$$CBIPAUIDirect3DVertexBuffer9@@@std@@@3@$0A@@std@@@1@0@Z 006bf1d0 f i ogl_extensions_directx.obj
 0002:000ab290       ?_Color@?$_Tree@V?$_Tmap_traits@IPAUIDirect3DVertexBuffer9@@U?$less@I@std@@V?$allocator@U?$pair@$$CBIPAUIDirect3DVertexBuffer9@@@std@@@3@$0A@@std@@@std@@KAAADPAU_Node@?$_Tree_nod@V?$_Tmap_traits@IPAUIDirect3DVertexBuffer9@@U?$less@I@std@@V?$allocator@U?$pair@$$CBIPAUIDirect3DVertexBuffer9@@@std@@@3@$0A@@std@@@2@@Z 006bf290 f i ogl_extensions_directx.obj
 0002:000ab2d0       ?max_size@?$_Tree@V?$_Tmap_traits@IPAUIDirect3DVertexBuffer9@@U?$less@I@std@@V?$allocator@U?$pair@$$CBIPAUIDirect3DVertexBuffer9@@@std@@@3@$0A@@std@@@std@@QBEIXZ 006bf2d0 f i ogl_extensions_directx.obj
 0002:000ab330       ?_Erase@?$_Tree@V?$_Tmap_traits@IPAUIDirect3DVertexBuffer9@@U?$less@I@std@@V?$allocator@U?$pair@$$CBIPAUIDirect3DVertexBuffer9@@@std@@@3@$0A@@std@@@std@@IAEXPAU_Node@?$_Tree_nod@V?$_Tmap_traits@IPAUIDirect3DVertexBuffer9@@U?$less@I@std@@V?$allocator@U?$pair@$$CBIPAUIDirect3DVertexBuffer9@@@std@@@3@$0A@@std@@@2@@Z 006bf330 f i ogl_extensions_directx.obj
 0002:000ab410       ?_Lmost@?$_Tree@V?$_Tmap_traits@IPAUIDirect3DVertexBuffer9@@U?$less@I@std@@V?$allocator@U?$pair@$$CBIPAUIDirect3DVertexBuffer9@@@std@@@3@$0A@@std@@@std@@IBEAAPAU_Node@?$_Tree_nod@V?$_Tmap_traits@IPAUIDirect3DVertexBuffer9@@U?$less@I@std@@V?$allocator@U?$pair@$$CBIPAUIDirect3DVertexBuffer9@@@std@@@3@$0A@@std@@@2@XZ 006bf410 f i ogl_extensions_directx.obj
 0002:000ab470       ?_Lrotate@?$_Tree@V?$_Tmap_traits@IPAUIDirect3DVertexBuffer9@@U?$less@I@std@@V?$allocator@U?$pair@$$CBIPAUIDirect3DVertexBuffer9@@@std@@@3@$0A@@std@@@std@@IAEXPAU_Node@?$_Tree_nod@V?$_Tmap_traits@IPAUIDirect3DVertexBuffer9@@U?$less@I@std@@V?$allocator@U?$pair@$$CBIPAUIDirect3DVertexBuffer9@@@std@@@3@$0A@@std@@@2@@Z 006bf470 f i ogl_extensions_directx.obj
 0002:000ab620       ?_Max@?$_Tree@V?$_Tmap_traits@IPAUIDirect3DVertexBuffer9@@U?$less@I@std@@V?$allocator@U?$pair@$$CBIPAUIDirect3DVertexBuffer9@@@std@@@3@$0A@@std@@@std@@KAPAU_Node@?$_Tree_nod@V?$_Tmap_traits@IPAUIDirect3DVertexBuffer9@@U?$less@I@std@@V?$allocator@U?$pair@$$CBIPAUIDirect3DVertexBuffer9@@@std@@@3@$0A@@std@@@2@PAU342@@Z 006bf620 f i ogl_extensions_directx.obj
 0002:000ab6a0       ?_Min@?$_Tree@V?$_Tmap_traits@IPAUIDirect3DVertexBuffer9@@U?$less@I@std@@V?$allocator@U?$pair@$$CBIPAUIDirect3DVertexBuffer9@@@std@@@3@$0A@@std@@@std@@KAPAU_Node@?$_Tree_nod@V?$_Tmap_traits@IPAUIDirect3DVertexBuffer9@@U?$less@I@std@@V?$allocator@U?$pair@$$CBIPAUIDirect3DVertexBuffer9@@@std@@@3@$0A@@std@@@2@PAU342@@Z 006bf6a0 f i ogl_extensions_directx.obj
 0002:000ab720       ?_Root@?$_Tree@V?$_Tmap_traits@IPAUIDirect3DVertexBuffer9@@U?$less@I@std@@V?$allocator@U?$pair@$$CBIPAUIDirect3DVertexBuffer9@@@std@@@3@$0A@@std@@@std@@IBEAAPAU_Node@?$_Tree_nod@V?$_Tmap_traits@IPAUIDirect3DVertexBuffer9@@U?$less@I@std@@V?$allocator@U?$pair@$$CBIPAUIDirect3DVertexBuffer9@@@std@@@3@$0A@@std@@@2@XZ 006bf720 f i ogl_extensions_directx.obj
 0002:000ab780       ?_Rrotate@?$_Tree@V?$_Tmap_traits@IPAUIDirect3DVertexBuffer9@@U?$less@I@std@@V?$allocator@U?$pair@$$CBIPAUIDirect3DVertexBuffer9@@@std@@@3@$0A@@std@@@std@@IAEXPAU_Node@?$_Tree_nod@V?$_Tmap_traits@IPAUIDirect3DVertexBuffer9@@U?$less@I@std@@V?$allocator@U?$pair@$$CBIPAUIDirect3DVertexBuffer9@@@std@@@3@$0A@@std@@@2@@Z 006bf780 f i ogl_extensions_directx.obj
 0002:000ab930       ?_Ubound@?$_Tree@V?$_Tmap_traits@IPAUIDirect3DVertexBuffer9@@U?$less@I@std@@V?$allocator@U?$pair@$$CBIPAUIDirect3DVertexBuffer9@@@std@@@3@$0A@@std@@@std@@IBEPAU_Node@?$_Tree_nod@V?$_Tmap_traits@IPAUIDirect3DVertexBuffer9@@U?$less@I@std@@V?$allocator@U?$pair@$$CBIPAUIDirect3DVertexBuffer9@@@std@@@3@$0A@@std@@@2@ABI@Z 006bf930 f i ogl_extensions_directx.obj
 0002:000aba30       ?_Orphan_ptr@?$_Tree@V?$_Tmap_traits@IPAUIDirect3DVertexBuffer9@@U?$less@I@std@@V?$allocator@U?$pair@$$CBIPAUIDirect3DVertexBuffer9@@@std@@@3@$0A@@std@@@std@@IBEXAAV12@PAU_Node@?$_Tree_nod@V?$_Tmap_traits@IPAUIDirect3DVertexBuffer9@@U?$less@I@std@@V?$allocator@U?$pair@$$CBIPAUIDirect3DVertexBuffer9@@@std@@@3@$0A@@std@@@2@@Z 006bfa30 f i ogl_extensions_directx.obj
 0002:000abb40       ?_Buynode@?$_Tree@V?$_Tmap_traits@IPAUIDirect3DVertexBuffer9@@U?$less@I@std@@V?$allocator@U?$pair@$$CBIPAUIDirect3DVertexBuffer9@@@std@@@3@$0A@@std@@@std@@IAEPAU_Node@?$_Tree_nod@V?$_Tmap_traits@IPAUIDirect3DVertexBuffer9@@U?$less@I@std@@V?$allocator@U?$pair@$$CBIPAUIDirect3DVertexBuffer9@@@std@@@3@$0A@@std@@@2@PAU342@00ABU?$pair@$$CBIPAUIDirect3DVertexBuffer9@@@2@D@Z 006bfb40 f i ogl_extensions_directx.obj
 0002:000abcb0       ??2@YAPAXIPAX@Z            006bfcb0 f i ogl_extensions_directx.obj
 0002:000abcf0       ??3@YAXPAX0@Z              006bfcf0 f i ogl_extensions_directx.obj
 0002:000abd20       ?destroy@?$allocator@U_Node@?$_Tree_nod@V?$_Tmap_traits@IPAUIDirect3DVertexBuffer9@@U?$less@I@std@@V?$allocator@U?$pair@$$CBIPAUIDirect3DVertexBuffer9@@@std@@@3@$0A@@std@@@std@@@std@@QAEXPAU_Node@?$_Tree_nod@V?$_Tmap_traits@IPAUIDirect3DVertexBuffer9@@U?$less@I@std@@V?$allocator@U?$pair@$$CBIPAUIDirect3DVertexBuffer9@@@std@@@3@$0A@@std@@@2@@Z 006bfd20 f i ogl_extensions_directx.obj
 0002:000abd80       ??0const_iterator@?$_Tree@V?$_Tmap_traits@IPAUIDirect3DVertexBuffer9@@U?$less@I@std@@V?$allocator@U?$pair@$$CBIPAUIDirect3DVertexBuffer9@@@std@@@3@$0A@@std@@@std@@QAE@XZ 006bfd80 f i ogl_extensions_directx.obj
 0002:000abde0       ??0const_iterator@?$_Tree@V?$_Tmap_traits@IPAUIDirect3DVertexBuffer9@@U?$less@I@std@@V?$allocator@U?$pair@$$CBIPAUIDirect3DVertexBuffer9@@@std@@@3@$0A@@std@@@std@@QAE@PAU_Node@?$_Tree_nod@V?$_Tmap_traits@IPAUIDirect3DVertexBuffer9@@U?$less@I@std@@V?$allocator@U?$pair@$$CBIPAUIDirect3DVertexBuffer9@@@std@@@3@$0A@@std@@@2@PBV12@@Z 006bfde0 f i ogl_extensions_directx.obj
 0002:000abea0       ??Econst_iterator@?$_Tree@V?$_Tmap_traits@IPAUIDirect3DVertexBuffer9@@U?$less@I@std@@V?$allocator@U?$pair@$$CBIPAUIDirect3DVertexBuffer9@@@std@@@3@$0A@@std@@@std@@QAEAAV012@XZ 006bfea0 f i ogl_extensions_directx.obj
 0002:000abf00       ??Fconst_iterator@?$_Tree@V?$_Tmap_traits@IPAUIDirect3DVertexBuffer9@@U?$less@I@std@@V?$allocator@U?$pair@$$CBIPAUIDirect3DVertexBuffer9@@@std@@@3@$0A@@std@@@std@@QAEAAV012@XZ 006bff00 f i ogl_extensions_directx.obj
 0002:000abf60       ??0?$pair@Viterator@?$_Tree@V?$_Tmap_traits@IPAUIDirect3DVertexBuffer9@@U?$less@I@std@@V?$allocator@U?$pair@$$CBIPAUIDirect3DVertexBuffer9@@@std@@@3@$0A@@std@@@std@@_N@std@@QAE@ABViterator@?$_Tree@V?$_Tmap_traits@IPAUIDirect3DVertexBuffer9@@U?$less@I@std@@V?$allocator@U?$pair@$$CBIPAUIDirect3DVertexBuffer9@@@std@@@3@$0A@@std@@@1@AB_N@Z 006bff60 f i ogl_extensions_directx.obj
 0002:000abfd0       ??0?$_Bidit@U?$pair@$$CBIPAUIDirect3DVertexBuffer9@@@std@@HPBU12@ABU12@@std@@QAE@XZ 006bffd0 f i ogl_extensions_directx.obj
 0002:000ac030       ?max_size@?$allocator@U?$pair@$$CBIPAUIDirect3DVertexBuffer9@@@std@@@std@@QBEIXZ 006c0030 f i ogl_extensions_directx.obj
 0002:000ac0a0       ?allocate@?$allocator@U_Node@?$_Tree_nod@V?$_Tmap_traits@IPAUIDirect3DVertexBuffer9@@U?$less@I@std@@V?$allocator@U?$pair@$$CBIPAUIDirect3DVertexBuffer9@@@std@@@3@$0A@@std@@@std@@@std@@QAEPAU_Node@?$_Tree_nod@V?$_Tmap_traits@IPAUIDirect3DVertexBuffer9@@U?$less@I@std@@V?$allocator@U?$pair@$$CBIPAUIDirect3DVertexBuffer9@@@std@@@3@$0A@@std@@@2@I@Z 006c00a0 f i ogl_extensions_directx.obj
 0002:000ac100       ?_Dec@const_iterator@?$_Tree@V?$_Tmap_traits@IPAUIDirect3DVertexBuffer9@@U?$less@I@std@@V?$allocator@U?$pair@$$CBIPAUIDirect3DVertexBuffer9@@@std@@@3@$0A@@std@@@std@@QAEXXZ 006c0100 f i ogl_extensions_directx.obj
 0002:000ac3e0       ?_Inc@const_iterator@?$_Tree@V?$_Tmap_traits@IPAUIDirect3DVertexBuffer9@@U?$less@I@std@@V?$allocator@U?$pair@$$CBIPAUIDirect3DVertexBuffer9@@@std@@@3@$0A@@std@@@std@@QAEXXZ 006c03e0 f i ogl_extensions_directx.obj
 0002:000ac580       ??0_Node@?$_Tree_nod@V?$_Tmap_traits@IPAUIDirect3DVertexBuffer9@@U?$less@I@std@@V?$allocator@U?$pair@$$CBIPAUIDirect3DVertexBuffer9@@@std@@@3@$0A@@std@@@std@@QAE@PAU012@00ABU?$pair@$$CBIPAUIDirect3DVertexBuffer9@@@2@D@Z 006c0580 f i ogl_extensions_directx.obj
 0002:000ac610       ??$_Distance@Viterator@?$_Tree@V?$_Tmap_traits@IPAUIDirect3DVertexBuffer9@@U?$less@I@std@@V?$allocator@U?$pair@$$CBIPAUIDirect3DVertexBuffer9@@@std@@@3@$0A@@std@@@std@@I@std@@YAXViterator@?$_Tree@V?$_Tmap_traits@IPAUIDirect3DVertexBuffer9@@U?$less@I@std@@V?$allocator@U?$pair@$$CBIPAUIDirect3DVertexBuffer9@@@std@@@3@$0A@@std@@@0@0AAI@Z 006c0610 f i ogl_extensions_directx.obj
 0002:000ac740       ??$_Debug_lt_pred@U?$less@I@std@@II@std@@YA_NU?$less@I@0@ABI1PB_WI@Z 006c0740 f i ogl_extensions_directx.obj
 0002:000ac7e0       ??$swap@D@std@@YAXAAD0@Z   006c07e0 f i ogl_extensions_directx.obj
 0002:000ac830       ??$_Destroy@U_Node@?$_Tree_nod@V?$_Tmap_traits@IPAUIDirect3DVertexBuffer9@@U?$less@I@std@@V?$allocator@U?$pair@$$CBIPAUIDirect3DVertexBuffer9@@@std@@@3@$0A@@std@@@std@@@std@@YAXPAU_Node@?$_Tree_nod@V?$_Tmap_traits@IPAUIDirect3DVertexBuffer9@@U?$less@I@std@@V?$allocator@U?$pair@$$CBIPAUIDirect3DVertexBuffer9@@@std@@@3@$0A@@std@@@0@@Z 006c0830 f i ogl_extensions_directx.obj
 0002:000ac860       ??$_Allocate@U_Node@?$_Tree_nod@V?$_Tmap_traits@IPAUIDirect3DVertexBuffer9@@U?$less@I@std@@V?$allocator@U?$pair@$$CBIPAUIDirect3DVertexBuffer9@@@std@@@3@$0A@@std@@@std@@@std@@YAPAU_Node@?$_Tree_nod@V?$_Tmap_traits@IPAUIDirect3DVertexBuffer9@@U?$less@I@std@@V?$allocator@U?$pair@$$CBIPAUIDirect3DVertexBuffer9@@@std@@@3@$0A@@std@@@0@IPAU120@@Z 006c0860 f i ogl_extensions_directx.obj
 0002:000ac900       ??$_Iter_cat@Viterator@?$_Tree@V?$_Tmap_traits@IPAUIDirect3DVertexBuffer9@@U?$less@I@std@@V?$allocator@U?$pair@$$CBIPAUIDirect3DVertexBuffer9@@@std@@@3@$0A@@std@@@std@@@std@@YA?AUbidirectional_iterator_tag@0@ABViterator@?$_Tree@V?$_Tmap_traits@IPAUIDirect3DVertexBuffer9@@U?$less@I@std@@V?$allocator@U?$pair@$$CBIPAUIDirect3DVertexBuffer9@@@std@@@3@$0A@@std@@@0@@Z 006c0900 f i ogl_extensions_directx.obj
 0002:000ac970       ??$_Distance2@Viterator@?$_Tree@V?$_Tmap_traits@IPAUIDirect3DVertexBuffer9@@U?$less@I@std@@V?$allocator@U?$pair@$$CBIPAUIDirect3DVertexBuffer9@@@std@@@3@$0A@@std@@@std@@I@std@@YAXViterator@?$_Tree@V?$_Tmap_traits@IPAUIDirect3DVertexBuffer9@@U?$less@I@std@@V?$allocator@U?$pair@$$CBIPAUIDirect3DVertexBuffer9@@@std@@@3@$0A@@std@@@0@0AAIUbidirectional_iterator_tag@0@@Z 006c0970 f i ogl_extensions_directx.obj
 0002:000aca50       ??0?$map@IPAUIDirect3DVertexBuffer9@@U?$less@I@std@@V?$allocator@U?$pair@$$CBIPAUIDirect3DVertexBuffer9@@@std@@@3@@std@@QAE@XZ 006c0a50 f i ogl_extensions_directx.obj
 0002:000acac0       ??0?$_Tree@V?$_Tmap_traits@IPAUIDirect3DVertexBuffer9@@U?$less@I@std@@V?$allocator@U?$pair@$$CBIPAUIDirect3DVertexBuffer9@@@std@@@3@$0A@@std@@@std@@QAE@ABU?$less@I@1@ABV?$allocator@U?$pair@$$CBIPAUIDirect3DVertexBuffer9@@@std@@@1@@Z 006c0ac0 f i ogl_extensions_directx.obj
 0002:000acb80       ??1?$_Tree_val@V?$_Tmap_traits@IPAUIDirect3DVertexBuffer9@@U?$less@I@std@@V?$allocator@U?$pair@$$CBIPAUIDirect3DVertexBuffer9@@@std@@@3@$0A@@std@@@std@@QAE@XZ 006c0b80 f i ogl_extensions_directx.obj
 0002:000acbd0       ??1?$_Tree_ptr@V?$_Tmap_traits@IPAUIDirect3DVertexBuffer9@@U?$less@I@std@@V?$allocator@U?$pair@$$CBIPAUIDirect3DVertexBuffer9@@@std@@@3@$0A@@std@@@std@@QAE@XZ 006c0bd0 f i ogl_extensions_directx.obj
 0002:000acc20       ??1?$_Tree_nod@V?$_Tmap_traits@IPAUIDirect3DVertexBuffer9@@U?$less@I@std@@V?$allocator@U?$pair@$$CBIPAUIDirect3DVertexBuffer9@@@std@@@3@$0A@@std@@@std@@QAE@XZ 006c0c20 f i ogl_extensions_directx.obj
 0002:000acc70       ??1?$_Tmap_traits@IPAUIDirect3DVertexBuffer9@@U?$less@I@std@@V?$allocator@U?$pair@$$CBIPAUIDirect3DVertexBuffer9@@@std@@@3@$0A@@std@@QAE@XZ 006c0c70 f i ogl_extensions_directx.obj
 0002:000accc0       ??0?$allocator@U?$pair@$$CBIPAUIDirect3DVertexBuffer9@@@std@@@std@@QAE@XZ 006c0cc0 f i ogl_extensions_directx.obj
 0002:000acd00       ?_Init@?$_Tree@V?$_Tmap_traits@IPAUIDirect3DVertexBuffer9@@U?$less@I@std@@V?$allocator@U?$pair@$$CBIPAUIDirect3DVertexBuffer9@@@std@@@3@$0A@@std@@@std@@IAEXXZ 006c0d00 f i ogl_extensions_directx.obj
 0002:000acdc0       ??0?$_Tree_val@V?$_Tmap_traits@IPAUIDirect3DVertexBuffer9@@U?$less@I@std@@V?$allocator@U?$pair@$$CBIPAUIDirect3DVertexBuffer9@@@std@@@3@$0A@@std@@@std@@IAE@ABU?$less@I@1@V?$allocator@U?$pair@$$CBIPAUIDirect3DVertexBuffer9@@@std@@@1@@Z 006c0dc0 f i ogl_extensions_directx.obj
 0002:000ace50       ??0?$allocator@U?$pair@$$CBIPAUIDirect3DVertexBuffer9@@@std@@@std@@QAE@ABV01@@Z 006c0e50 f i ogl_extensions_directx.obj
 0002:000ace90       ?_Buynode@?$_Tree@V?$_Tmap_traits@IPAUIDirect3DVertexBuffer9@@U?$less@I@std@@V?$allocator@U?$pair@$$CBIPAUIDirect3DVertexBuffer9@@@std@@@3@$0A@@std@@@std@@IAEPAU_Node@?$_Tree_nod@V?$_Tmap_traits@IPAUIDirect3DVertexBuffer9@@U?$less@I@std@@V?$allocator@U?$pair@$$CBIPAUIDirect3DVertexBuffer9@@@std@@@3@$0A@@std@@@2@XZ 006c0e90 f i ogl_extensions_directx.obj
 0002:000ad0d0       ?destroy@?$allocator@PAU_Node@?$_Tree_nod@V?$_Tmap_traits@IPAUIDirect3DVertexBuffer9@@U?$less@I@std@@V?$allocator@U?$pair@$$CBIPAUIDirect3DVertexBuffer9@@@std@@@3@$0A@@std@@@std@@@std@@QAEXPAPAU_Node@?$_Tree_nod@V?$_Tmap_traits@IPAUIDirect3DVertexBuffer9@@U?$less@I@std@@V?$allocator@U?$pair@$$CBIPAUIDirect3DVertexBuffer9@@@std@@@3@$0A@@std@@@2@@Z 006c10d0 f i ogl_extensions_directx.obj
 0002:000ad130       ??0?$_Tree_ptr@V?$_Tmap_traits@IPAUIDirect3DVertexBuffer9@@U?$less@I@std@@V?$allocator@U?$pair@$$CBIPAUIDirect3DVertexBuffer9@@@std@@@3@$0A@@std@@@std@@QAE@ABU?$less@I@1@V?$allocator@U?$pair@$$CBIPAUIDirect3DVertexBuffer9@@@std@@@1@@Z 006c1130 f i ogl_extensions_directx.obj
 0002:000ad1c0       ??0?$_Tree_nod@V?$_Tmap_traits@IPAUIDirect3DVertexBuffer9@@U?$less@I@std@@V?$allocator@U?$pair@$$CBIPAUIDirect3DVertexBuffer9@@@std@@@3@$0A@@std@@@std@@IAE@ABU?$less@I@1@V?$allocator@U?$pair@$$CBIPAUIDirect3DVertexBuffer9@@@std@@@1@@Z 006c11c0 f i ogl_extensions_directx.obj
 0002:000ad230       ?construct@?$allocator@PAU_Node@?$_Tree_nod@V?$_Tmap_traits@IPAUIDirect3DVertexBuffer9@@U?$less@I@std@@V?$allocator@U?$pair@$$CBIPAUIDirect3DVertexBuffer9@@@std@@@3@$0A@@std@@@std@@@std@@QAEXPAPAU_Node@?$_Tree_nod@V?$_Tmap_traits@IPAUIDirect3DVertexBuffer9@@U?$less@I@std@@V?$allocator@U?$pair@$$CBIPAUIDirect3DVertexBuffer9@@@std@@@3@$0A@@std@@@2@ABQAU342@@Z 006c1230 f i ogl_extensions_directx.obj
 0002:000ad290       ??0?$_Tmap_traits@IPAUIDirect3DVertexBuffer9@@U?$less@I@std@@V?$allocator@U?$pair@$$CBIPAUIDirect3DVertexBuffer9@@@std@@@3@$0A@@std@@QAE@U?$less@I@1@@Z 006c1290 f i ogl_extensions_directx.obj
 0002:000ad2f0       ??$_Destroy@PAU_Node@?$_Tree_nod@V?$_Tmap_traits@IPAUIDirect3DVertexBuffer9@@U?$less@I@std@@V?$allocator@U?$pair@$$CBIPAUIDirect3DVertexBuffer9@@@std@@@3@$0A@@std@@@std@@@std@@YAXPAPAU_Node@?$_Tree_nod@V?$_Tmap_traits@IPAUIDirect3DVertexBuffer9@@U?$less@I@std@@V?$allocator@U?$pair@$$CBIPAUIDirect3DVertexBuffer9@@@std@@@3@$0A@@std@@@0@@Z 006c12f0 f i ogl_extensions_directx.obj
 0002:000ad320       ??$?0U?$pair@$$CBIPAUIDirect3DVertexBuffer9@@@std@@@?$allocator@PAU_Node@?$_Tree_nod@V?$_Tmap_traits@IPAUIDirect3DVertexBuffer9@@U?$less@I@std@@V?$allocator@U?$pair@$$CBIPAUIDirect3DVertexBuffer9@@@std@@@3@$0A@@std@@@std@@@std@@QAE@ABV?$allocator@U?$pair@$$CBIPAUIDirect3DVertexBuffer9@@@std@@@1@@Z 006c1320 f i ogl_extensions_directx.obj
 0002:000ad360       ??$?0U?$pair@$$CBIPAUIDirect3DVertexBuffer9@@@std@@@?$allocator@U_Node@?$_Tree_nod@V?$_Tmap_traits@IPAUIDirect3DVertexBuffer9@@U?$less@I@std@@V?$allocator@U?$pair@$$CBIPAUIDirect3DVertexBuffer9@@@std@@@3@$0A@@std@@@std@@@std@@QAE@ABV?$allocator@U?$pair@$$CBIPAUIDirect3DVertexBuffer9@@@std@@@1@@Z 006c1360 f i ogl_extensions_directx.obj
 0002:000ad3a0       ??$_Construct@PAU_Node@?$_Tree_nod@V?$_Tmap_traits@IPAUIDirect3DVertexBuffer9@@U?$less@I@std@@V?$allocator@U?$pair@$$CBIPAUIDirect3DVertexBuffer9@@@std@@@3@$0A@@std@@@std@@PAU123@@std@@YAXPAPAU_Node@?$_Tree_nod@V?$_Tmap_traits@IPAUIDirect3DVertexBuffer9@@U?$less@I@std@@V?$allocator@U?$pair@$$CBIPAUIDirect3DVertexBuffer9@@@std@@@3@$0A@@std@@@0@ABQAU120@@Z 006c13a0 f i ogl_extensions_directx.obj
 0002:000ad440       ??1?$map@IPAUIDirect3DVertexBuffer9@@U?$less@I@std@@V?$allocator@U?$pair@$$CBIPAUIDirect3DVertexBuffer9@@@std@@@3@@std@@QAE@XZ 006c1440 f i ogl_extensions_directx.obj
 0002:000ad490       ??1?$_Tree@V?$_Tmap_traits@IPAUIDirect3DVertexBuffer9@@U?$less@I@std@@V?$allocator@U?$pair@$$CBIPAUIDirect3DVertexBuffer9@@@std@@@3@$0A@@std@@@std@@QAE@XZ 006c1490 f i ogl_extensions_directx.obj
 0002:000ad530       ?_Tidy@?$_Tree@V?$_Tmap_traits@IPAUIDirect3DVertexBuffer9@@U?$less@I@std@@V?$allocator@U?$pair@$$CBIPAUIDirect3DVertexBuffer9@@@std@@@3@$0A@@std@@@std@@IAEXXZ 006c1530 f i ogl_extensions_directx.obj
 0002:000ad6d0       ??0Attributes@@QAE@ABVCurrentAttributes@@PAUIDirect3DStateBlock9@@@Z 006c16d0 f   opengl_directx.obj
 0002:000ad730       ??0CurrentAttributes@@QAE@XZ 006c1730 f   opengl_directx.obj
 0002:000ad7b0       ?CreateD3dPoolDefaultResources@@YAXXZ 006c17b0 f   opengl_directx.obj
 0002:000ad880       ?ReleaseD3DPoolDefaultResources@@YAXXZ 006c1880 f   opengl_directx.obj
 0002:000adaa0       ??_GDeformEffect@@QAEPAXI@Z 006c1aa0 f i opengl_directx.obj
 0002:000adb10       ??_GWaterReflectionEffect@@QAEPAXI@Z 006c1b10 f i opengl_directx.obj
 0002:000adb80       ?CreateD3DResources@@YAXXZ 006c1b80 f   opengl_directx.obj
 0002:000adbd0       ?ReleaseD3DResources@@YAXXZ 006c1bd0 f   opengl_directx.obj
 0002:000adca0       ?Direct3DInit@@YA_NPAUHWND__@@_NHHHH1@Z 006c1ca0 f   opengl_directx.obj
 0002:000ae6b0       ??0D3DXMATRIX@@QAE@XZ      006c26b0 f i opengl_directx.obj
 0002:000ae6f0       ??0TextureState@OpenGLD3D@@QAE@XZ 006c26f0 f i opengl_directx.obj
 0002:000ae790       ?Direct3DShutdown@@YAXXZ   006c2790 f   opengl_directx.obj
 0002:000ae850       ?WaitAndResetDevice@@YAXXZ 006c2850 f   opengl_directx.obj
 0002:000ae9a0       ?Direct3DSwapBuffers@@YAXXZ 006c29a0 f   opengl_directx.obj
 0002:000aeb00       ?glClearColor@@YAXMMMM@Z   006c2b00 f   opengl_directx.obj
 0002:000aec90       ?glClear@@YAXI@Z           006c2c90 f   opengl_directx.obj
 0002:000aedb0       ?glMatrixMode@@YAXI@Z      006c2db0 f   opengl_directx.obj
 0002:000aeef0       ?FastSetTransform@MatrixStack@OpenGLD3D@@QAEXXZ 006c2ef0 f i opengl_directx.obj
 0002:000aef60       ?glLoadIdentity@@YAXXZ     006c2f60 f   opengl_directx.obj
 0002:000af020       ?D3DXMatrixIdentity@@YAPAUD3DXMATRIX@@PAU1@@Z 006c3020 f i opengl_directx.obj
 0002:000af0f0       ?gluOrtho2D@@YAXNNNN@Z     006c30f0 f   opengl_directx.obj
 0002:000af210       ?gluLookAt@@YAXNNNNNNNNN@Z 006c3210 f   opengl_directx.obj
 0002:000af400       ??0D3DXVECTOR3@@QAE@MMM@Z  006c3400 f i opengl_directx.obj
 0002:000af460       ?gluPerspective@@YAXNNNN@Z 006c3460 f   opengl_directx.obj
 0002:000af590       ?glActiveTextureD3D@OpenGLD3D@@YGXH@Z 006c3590 f   opengl_directx.obj
 0002:000af660       ?glMultiTexCoord2fD3D@OpenGLD3D@@YGXHMM@Z 006c3660 f   opengl_directx.obj
 0002:000af740       ?glDisable@@YAXI@Z         006c3740 f   opengl_directx.obj
 0002:000aff90       ?glEnable@@YAXI@Z          006c3f90 f   opengl_directx.obj
 0002:000b0d20       ?glColor4ub@@YAXEEEE@Z     006c4d20 f   opengl_directx.obj
 0002:000b0d80       ?glNormal3f_impl@@YAXMMM@Z 006c4d80 f   opengl_directx.obj
 0002:000b0de0       ?glBegin@@YAXI@Z           006c4de0 f   opengl_directx.obj
 0002:000b0e40       ?glEnd@@YAXXZ              006c4e40 f   opengl_directx.obj
 0002:000b15b0       ?glVertex3f_impl@@YAXMMM@Z 006c55b0 f   opengl_directx.obj
 0002:000b1730       ?glGenTextures@@YAXHPAI@Z  006c5730 f   opengl_directx.obj
 0002:000b17e0       ?glBindTexture@@YAXII@Z    006c57e0 f   opengl_directx.obj
 0002:000b18c0       ?glCopyTexImage2D@@YAXIHIHHHHH@Z 006c58c0 f   opengl_directx.obj
 0002:000b1c50       ?glReadPixels@@YAXHHHHIIPAX@Z 006c5c50 f   opengl_directx.obj
 0002:000b2090       ??0TextureParams@@QAE@IIW4_D3DFORMAT@@I@Z 006c6090 f i opengl_directx.obj
 0002:000b2100       ??_GTexture@@QAEPAXI@Z     006c6100 f i opengl_directx.obj
 0002:000b2170       ?gluBuild2DMipmaps@@YAHIHHHIIPBX@Z 006c6170 f   opengl_directx.obj
 0002:000b27f0       ?glTexImage2D@@YAXIHHHHHIIPBX@Z 006c67f0 f   opengl_directx.obj
 0002:000b29b0       ?glTexCoord2f_impl@@YAXMM@Z 006c69b0 f   opengl_directx.obj
 0002:000b2a00       ?glTexParameteri@@YAXIIH@Z 006c6a00 f   opengl_directx.obj
 0002:000b2db0       ?glTexParameterf@@YAXIIM@Z 006c6db0 f   opengl_directx.obj
 0002:000b2e10       ?glBlendFunc@@YAXII@Z      006c6e10 f   opengl_directx.obj
 0002:000b3010       ?glDepthMask@@YAXE@Z       006c7010 f   opengl_directx.obj
 0002:000b3080       ?glFogf_impl@@YAXIM@Z      006c7080 f   opengl_directx.obj
 0002:000b3220       ?glFogi@@YAXIH@Z           006c7220 f i opengl_directx.obj
 0002:000b3280       ?glFogi_impl@@YAXIH@Z      006c7280 f   opengl_directx.obj
 0002:000b3470       ?glFogfv@@YAXIPBM@Z        006c7470 f   opengl_directx.obj
 0002:000b36b0       ?glViewport@@YAXHHHH@Z     006c76b0 f   opengl_directx.obj
 0002:000b37b0       ?glGetIntegerv@@YAXIPAH@Z  006c77b0 f   opengl_directx.obj
 0002:000b4260       ?glGetFloatv@@YAXIPAM@Z    006c8260 f   opengl_directx.obj
 0002:000b4770       ?glGetDoublev@@YAXIPAN@Z   006c8770 f   opengl_directx.obj
 0002:000b4900       ?gluProject@@YAHNNNQBN0QBHPAN22@Z 006c8900 f   opengl_directx.obj
 0002:000b4bb0       ??0D3DXVECTOR4@@QAE@XZ     006c8bb0 f i opengl_directx.obj
 0002:000b4bf0       ??0D3DXVECTOR4@@QAE@MMMM@Z 006c8bf0 f i opengl_directx.obj
 0002:000b4c60       ??_0D3DXVECTOR4@@QAEAAU0@M@Z 006c8c60 f i opengl_directx.obj
 0002:000b4cf0       ?gluUnProject@@YAHNNNQBN0QBHPAN22@Z 006c8cf0 f   opengl_directx.obj
 0002:000b4fc0       ??DD3DXMATRIX@@QBE?AU0@ABU0@@Z 006c8fc0 f i opengl_directx.obj
 0002:000b5070       ?glLoadMatrixd@@YAXPBN@Z   006c9070 f   opengl_directx.obj
 0002:000b5140       ??0D3DXMATRIX@@QAE@ABU_D3DMATRIX@@@Z 006c9140 f i opengl_directx.obj
 0002:000b51b0       ?glLightfv@@YAXIIPBM@Z     006c91b0 f   opengl_directx.obj
 0002:000b5590       ?glGetLightfv@@YAXIIPAM@Z  006c9590 f   opengl_directx.obj
 0002:000b57f0       ?glLightModelfv@@YAXIPBM@Z 006c97f0 f   opengl_directx.obj
 0002:000b5a30       ?glFrontFace@@YAXI@Z       006c9a30 f   opengl_directx.obj
 0002:000b5af0       ?glPolygonMode@@YAXII@Z    006c9af0 f   opengl_directx.obj
 0002:000b5c50       ?glShadeModel@@YAXI@Z      006c9c50 f   opengl_directx.obj
 0002:000b5dc0       ?glPushMatrix@@YAXXZ       006c9dc0 f   opengl_directx.obj
 0002:000b5e20       ?glPopMatrix@@YAXXZ        006c9e20 f   opengl_directx.obj
 0002:000b5e80       ?glMultMatrixf@@YAXPBM@Z   006c9e80 f   opengl_directx.obj
 0002:000b5f40       ?SwapToViewMatrix@@YAXXZ   006c9f40 f   opengl_directx.obj
 0002:000b6010       ?SwapToModelMatrix@@YAXXZ  006ca010 f   opengl_directx.obj
 0002:000b60e0       ?glTranslatef@@YAXMMM@Z    006ca0e0 f   opengl_directx.obj
 0002:000b61b0       ?glScalef@@YAXMMM@Z        006ca1b0 f   opengl_directx.obj
 0002:000b6280       ?glRotatef@@YAXMMMM@Z      006ca280 f   opengl_directx.obj
 0002:000b6390       ?glAlphaFunc@@YAXIM@Z      006ca390 f   opengl_directx.obj
 0002:000b65d0       ?glDepthFunc@@YAXI@Z       006ca5d0 f   opengl_directx.obj
 0002:000b6650       ?glGenLists@@YAIH@Z        006ca650 f   opengl_directx.obj
 0002:000b6710       ?glDeleteLists@@YAXIH@Z    006ca710 f   opengl_directx.obj
 0002:000b6820       ??_GDisplayList@OpenGLD3D@@QAEPAXI@Z 006ca820 f i opengl_directx.obj
 0002:000b6890       ?glNewList@@YAXII@Z        006ca890 f   opengl_directx.obj
 0002:000b6ae0       ??0DisplayListDevice@OpenGLD3D@@QAE@I@Z 006caae0 f i opengl_directx.obj
 0002:000b6bb0       ?QueryInterface@DisplayListDevice@OpenGLD3D@@EAGJABU_GUID@@PAPAX@Z 006cabb0 f i opengl_directx.obj
 0002:000b6c40       ?AddRef@DisplayListDevice@OpenGLD3D@@EAGKXZ 006cac40 f i opengl_directx.obj
 0002:000b6cd0       ?Release@DisplayListDevice@OpenGLD3D@@EAGKXZ 006cacd0 f i opengl_directx.obj
 0002:000b6d60       ?TestCooperativeLevel@DisplayListDevice@OpenGLD3D@@EAGJXZ 006cad60 f i opengl_directx.obj
 0002:000b6df0       ?GetAvailableTextureMem@DisplayListDevice@OpenGLD3D@@EAGIXZ 006cadf0 f i opengl_directx.obj
 0002:000b6e80       ?EvictManagedResources@DisplayListDevice@OpenGLD3D@@EAGJXZ 006cae80 f i opengl_directx.obj
 0002:000b6f10       ?GetDirect3D@DisplayListDevice@OpenGLD3D@@EAGJPAPAUIDirect3D9@@@Z 006caf10 f i opengl_directx.obj
 0002:000b6fa0       ?GetDeviceCaps@DisplayListDevice@OpenGLD3D@@EAGJPAU_D3DCAPS9@@@Z 006cafa0 f i opengl_directx.obj
 0002:000b7030       ?GetDisplayMode@DisplayListDevice@OpenGLD3D@@EAGJIPAU_D3DDISPLAYMODE@@@Z 006cb030 f i opengl_directx.obj
 0002:000b70c0       ?GetCreationParameters@DisplayListDevice@OpenGLD3D@@EAGJPAU_D3DDEVICE_CREATION_PARAMETERS@@@Z 006cb0c0 f i opengl_directx.obj
 0002:000b7150       ?SetCursorProperties@DisplayListDevice@OpenGLD3D@@EAGJIIPAUIDirect3DSurface9@@@Z 006cb150 f i opengl_directx.obj
 0002:000b71e0       ?SetCursorPosition@DisplayListDevice@OpenGLD3D@@EAGXHHK@Z 006cb1e0 f i opengl_directx.obj
 0002:000b7270       ?ShowCursor@DisplayListDevice@OpenGLD3D@@EAGHH@Z 006cb270 f i opengl_directx.obj
 0002:000b7300       ?CreateAdditionalSwapChain@DisplayListDevice@OpenGLD3D@@EAGJPAU_D3DPRESENT_PARAMETERS_@@PAPAUIDirect3DSwapChain9@@@Z 006cb300 f i opengl_directx.obj
 0002:000b7390       ?GetSwapChain@DisplayListDevice@OpenGLD3D@@EAGJIPAPAUIDirect3DSwapChain9@@@Z 006cb390 f i opengl_directx.obj
 0002:000b7420       ?GetNumberOfSwapChains@DisplayListDevice@OpenGLD3D@@EAGIXZ 006cb420 f i opengl_directx.obj
 0002:000b74b0       ?Reset@DisplayListDevice@OpenGLD3D@@EAGJPAU_D3DPRESENT_PARAMETERS_@@@Z 006cb4b0 f i opengl_directx.obj
 0002:000b7540       ?Present@DisplayListDevice@OpenGLD3D@@EAGJPBUtagRECT@@0PAUHWND__@@PBU_RGNDATA@@@Z 006cb540 f i opengl_directx.obj
 0002:000b75d0       ?GetBackBuffer@DisplayListDevice@OpenGLD3D@@EAGJIIW4_D3DBACKBUFFER_TYPE@@PAPAUIDirect3DSurface9@@@Z 006cb5d0 f i opengl_directx.obj
 0002:000b7660       ?GetRasterStatus@DisplayListDevice@OpenGLD3D@@EAGJIPAU_D3DRASTER_STATUS@@@Z 006cb660 f i opengl_directx.obj
 0002:000b76f0       ?SetDialogBoxMode@DisplayListDevice@OpenGLD3D@@EAGJH@Z 006cb6f0 f i opengl_directx.obj
 0002:000b7780       ?SetGammaRamp@DisplayListDevice@OpenGLD3D@@EAGXIKPBU_D3DGAMMARAMP@@@Z 006cb780 f i opengl_directx.obj
 0002:000b7810       ?GetGammaRamp@DisplayListDevice@OpenGLD3D@@EAGXIPAU_D3DGAMMARAMP@@@Z 006cb810 f i opengl_directx.obj
 0002:000b78a0       ?CreateTexture@DisplayListDevice@OpenGLD3D@@EAGJIIIKW4_D3DFORMAT@@W4_D3DPOOL@@PAPAUIDirect3DTexture9@@PAPAX@Z 006cb8a0 f i opengl_directx.obj
 0002:000b7930       ?CreateVolumeTexture@DisplayListDevice@OpenGLD3D@@EAGJIIIIKW4_D3DFORMAT@@W4_D3DPOOL@@PAPAUIDirect3DVolumeTexture9@@PAPAX@Z 006cb930 f i opengl_directx.obj
 0002:000b79c0       ?CreateCubeTexture@DisplayListDevice@OpenGLD3D@@EAGJIIKW4_D3DFORMAT@@W4_D3DPOOL@@PAPAUIDirect3DCubeTexture9@@PAPAX@Z 006cb9c0 f i opengl_directx.obj
 0002:000b7a50       ?CreateVertexBuffer@DisplayListDevice@OpenGLD3D@@EAGJIKKW4_D3DPOOL@@PAPAUIDirect3DVertexBuffer9@@PAPAX@Z 006cba50 f i opengl_directx.obj
 0002:000b7ae0       ?CreateIndexBuffer@DisplayListDevice@OpenGLD3D@@EAGJIKW4_D3DFORMAT@@W4_D3DPOOL@@PAPAUIDirect3DIndexBuffer9@@PAPAX@Z 006cbae0 f i opengl_directx.obj
 0002:000b7b70       ?CreateRenderTarget@DisplayListDevice@OpenGLD3D@@EAGJIIW4_D3DFORMAT@@W4_D3DMULTISAMPLE_TYPE@@KHPAPAUIDirect3DSurface9@@PAPAX@Z 006cbb70 f i opengl_directx.obj
 0002:000b7c00       ?CreateDepthStencilSurface@DisplayListDevice@OpenGLD3D@@EAGJIIW4_D3DFORMAT@@W4_D3DMULTISAMPLE_TYPE@@KHPAPAUIDirect3DSurface9@@PAPAX@Z 006cbc00 f i opengl_directx.obj
 0002:000b7c90       ?UpdateSurface@DisplayListDevice@OpenGLD3D@@EAGJPAUIDirect3DSurface9@@PBUtagRECT@@0PBUtagPOINT@@@Z 006cbc90 f i opengl_directx.obj
 0002:000b7d20       ?UpdateTexture@DisplayListDevice@OpenGLD3D@@EAGJPAUIDirect3DBaseTexture9@@0@Z 006cbd20 f i opengl_directx.obj
 0002:000b7db0       ?GetRenderTargetData@DisplayListDevice@OpenGLD3D@@EAGJPAUIDirect3DSurface9@@0@Z 006cbdb0 f i opengl_directx.obj
 0002:000b7e40       ?GetFrontBufferData@DisplayListDevice@OpenGLD3D@@EAGJIPAUIDirect3DSurface9@@@Z 006cbe40 f i opengl_directx.obj
 0002:000b7ed0       ?StretchRect@DisplayListDevice@OpenGLD3D@@EAGJPAUIDirect3DSurface9@@PBUtagRECT@@01W4_D3DTEXTUREFILTERTYPE@@@Z 006cbed0 f i opengl_directx.obj
 0002:000b7f60       ?ColorFill@DisplayListDevice@OpenGLD3D@@EAGJPAUIDirect3DSurface9@@PBUtagRECT@@K@Z 006cbf60 f i opengl_directx.obj
 0002:000b7ff0       ?CreateOffscreenPlainSurface@DisplayListDevice@OpenGLD3D@@EAGJIIW4_D3DFORMAT@@W4_D3DPOOL@@PAPAUIDirect3DSurface9@@PAPAX@Z 006cbff0 f i opengl_directx.obj
 0002:000b8080       ?SetRenderTarget@DisplayListDevice@OpenGLD3D@@EAGJKPAUIDirect3DSurface9@@@Z 006cc080 f i opengl_directx.obj
 0002:000b8110       ?GetRenderTarget@DisplayListDevice@OpenGLD3D@@EAGJKPAPAUIDirect3DSurface9@@@Z 006cc110 f i opengl_directx.obj
 0002:000b81a0       ?SetDepthStencilSurface@DisplayListDevice@OpenGLD3D@@EAGJPAUIDirect3DSurface9@@@Z 006cc1a0 f i opengl_directx.obj
 0002:000b8230       ?GetDepthStencilSurface@DisplayListDevice@OpenGLD3D@@EAGJPAPAUIDirect3DSurface9@@@Z 006cc230 f i opengl_directx.obj
 0002:000b82c0       ?BeginScene@DisplayListDevice@OpenGLD3D@@EAGJXZ 006cc2c0 f i opengl_directx.obj
 0002:000b8350       ?EndScene@DisplayListDevice@OpenGLD3D@@EAGJXZ 006cc350 f i opengl_directx.obj
 0002:000b83e0       ?Clear@DisplayListDevice@OpenGLD3D@@EAGJKPBU_D3DRECT@@KKMK@Z 006cc3e0 f i opengl_directx.obj
 0002:000b8470       ?GetTransform@DisplayListDevice@OpenGLD3D@@EAGJW4_D3DTRANSFORMSTATETYPE@@PAU_D3DMATRIX@@@Z 006cc470 f i opengl_directx.obj
 0002:000b8500       ?SetViewport@DisplayListDevice@OpenGLD3D@@EAGJPBU_D3DVIEWPORT9@@@Z 006cc500 f i opengl_directx.obj
 0002:000b8590       ?GetViewport@DisplayListDevice@OpenGLD3D@@EAGJPAU_D3DVIEWPORT9@@@Z 006cc590 f i opengl_directx.obj
 0002:000b8620       ?SetMaterial@DisplayListDevice@OpenGLD3D@@EAGJPBU_D3DMATERIAL9@@@Z 006cc620 f i opengl_directx.obj
 0002:000b86b0       ?GetMaterial@DisplayListDevice@OpenGLD3D@@EAGJPAU_D3DMATERIAL9@@@Z 006cc6b0 f i opengl_directx.obj
 0002:000b8740       ?SetLight@DisplayListDevice@OpenGLD3D@@EAGJKPBU_D3DLIGHT9@@@Z 006cc740 f i opengl_directx.obj
 0002:000b87d0       ?GetLight@DisplayListDevice@OpenGLD3D@@EAGJKPAU_D3DLIGHT9@@@Z 006cc7d0 f i opengl_directx.obj
 0002:000b8860       ?LightEnable@DisplayListDevice@OpenGLD3D@@EAGJKH@Z 006cc860 f i opengl_directx.obj
 0002:000b88f0       ?GetLightEnable@DisplayListDevice@OpenGLD3D@@EAGJKPAH@Z 006cc8f0 f i opengl_directx.obj
 0002:000b8980       ?SetClipPlane@DisplayListDevice@OpenGLD3D@@EAGJKPBM@Z 006cc980 f i opengl_directx.obj
 0002:000b8a10       ?GetClipPlane@DisplayListDevice@OpenGLD3D@@EAGJKPAM@Z 006cca10 f i opengl_directx.obj
 0002:000b8aa0       ?SetRenderState@DisplayListDevice@OpenGLD3D@@EAGJW4_D3DRENDERSTATETYPE@@K@Z 006ccaa0 f i opengl_directx.obj
 0002:000b8b30       ?GetRenderState@DisplayListDevice@OpenGLD3D@@EAGJW4_D3DRENDERSTATETYPE@@PAK@Z 006ccb30 f i opengl_directx.obj
 0002:000b8bc0       ?CreateStateBlock@DisplayListDevice@OpenGLD3D@@EAGJW4_D3DSTATEBLOCKTYPE@@PAPAUIDirect3DStateBlock9@@@Z 006ccbc0 f i opengl_directx.obj
 0002:000b8c50       ?BeginStateBlock@DisplayListDevice@OpenGLD3D@@EAGJXZ 006ccc50 f i opengl_directx.obj
 0002:000b8ce0       ?EndStateBlock@DisplayListDevice@OpenGLD3D@@EAGJPAPAUIDirect3DStateBlock9@@@Z 006ccce0 f i opengl_directx.obj
 0002:000b8d70       ?SetClipStatus@DisplayListDevice@OpenGLD3D@@EAGJPBU_D3DCLIPSTATUS9@@@Z 006ccd70 f i opengl_directx.obj
 0002:000b8e00       ?GetClipStatus@DisplayListDevice@OpenGLD3D@@EAGJPAU_D3DCLIPSTATUS9@@@Z 006cce00 f i opengl_directx.obj
 0002:000b8e90       ?GetTexture@DisplayListDevice@OpenGLD3D@@EAGJKPAPAUIDirect3DBaseTexture9@@@Z 006cce90 f i opengl_directx.obj
 0002:000b8f20       ?SetTexture@DisplayListDevice@OpenGLD3D@@EAGJKPAUIDirect3DBaseTexture9@@@Z 006ccf20 f i opengl_directx.obj
 0002:000b8fb0       ?GetTextureStageState@DisplayListDevice@OpenGLD3D@@EAGJKW4_D3DTEXTURESTAGESTATETYPE@@PAK@Z 006ccfb0 f i opengl_directx.obj
 0002:000b9040       ?SetTextureStageState@DisplayListDevice@OpenGLD3D@@EAGJKW4_D3DTEXTURESTAGESTATETYPE@@K@Z 006cd040 f i opengl_directx.obj
 0002:000b90d0       ?GetSamplerState@DisplayListDevice@OpenGLD3D@@EAGJKW4_D3DSAMPLERSTATETYPE@@PAK@Z 006cd0d0 f i opengl_directx.obj
 0002:000b9160       ?SetSamplerState@DisplayListDevice@OpenGLD3D@@EAGJKW4_D3DSAMPLERSTATETYPE@@K@Z 006cd160 f i opengl_directx.obj
 0002:000b91f0       ?ValidateDevice@DisplayListDevice@OpenGLD3D@@EAGJPAK@Z 006cd1f0 f i opengl_directx.obj
 0002:000b9280       ?SetPaletteEntries@DisplayListDevice@OpenGLD3D@@EAGJIPBUtagPALETTEENTRY@@@Z 006cd280 f i opengl_directx.obj
 0002:000b9310       ?GetPaletteEntries@DisplayListDevice@OpenGLD3D@@EAGJIPAUtagPALETTEENTRY@@@Z 006cd310 f i opengl_directx.obj
 0002:000b93a0       ?SetCurrentTexturePalette@DisplayListDevice@OpenGLD3D@@EAGJI@Z 006cd3a0 f i opengl_directx.obj
 0002:000b9430       ?GetCurrentTexturePalette@DisplayListDevice@OpenGLD3D@@EAGJPAI@Z 006cd430 f i opengl_directx.obj
 0002:000b94c0       ?SetScissorRect@DisplayListDevice@OpenGLD3D@@EAGJPBUtagRECT@@@Z 006cd4c0 f i opengl_directx.obj
 0002:000b9550       ?GetScissorRect@DisplayListDevice@OpenGLD3D@@EAGJPAUtagRECT@@@Z 006cd550 f i opengl_directx.obj
 0002:000b95e0       ?SetSoftwareVertexProcessing@DisplayListDevice@OpenGLD3D@@EAGJH@Z 006cd5e0 f i opengl_directx.obj
 0002:000b9670       ?GetSoftwareVertexProcessing@DisplayListDevice@OpenGLD3D@@EAGHXZ 006cd670 f i opengl_directx.obj
 0002:000b9700       ?SetNPatchMode@DisplayListDevice@OpenGLD3D@@EAGJM@Z 006cd700 f i opengl_directx.obj
 0002:000b9790       ?GetNPatchMode@DisplayListDevice@OpenGLD3D@@EAGMXZ 006cd790 f i opengl_directx.obj
 0002:000b9820       ?DrawPrimitive@DisplayListDevice@OpenGLD3D@@EAGJW4_D3DPRIMITIVETYPE@@II@Z 006cd820 f i opengl_directx.obj
 0002:000b98b0       ?DrawIndexedPrimitive@DisplayListDevice@OpenGLD3D@@EAGJW4_D3DPRIMITIVETYPE@@HIIII@Z 006cd8b0 f i opengl_directx.obj
 0002:000b9940       ?DrawIndexedPrimitiveUP@DisplayListDevice@OpenGLD3D@@EAGJW4_D3DPRIMITIVETYPE@@IIIPBXW4_D3DFORMAT@@1I@Z 006cd940 f i opengl_directx.obj
 0002:000b99d0       ?ProcessVertices@DisplayListDevice@OpenGLD3D@@EAGJIIIPAUIDirect3DVertexBuffer9@@PAUIDirect3DVertexDeclaration9@@K@Z 006cd9d0 f i opengl_directx.obj
 0002:000b9a60       ?CreateVertexDeclaration@DisplayListDevice@OpenGLD3D@@EAGJPBU_D3DVERTEXELEMENT9@@PAPAUIDirect3DVertexDeclaration9@@@Z 006cda60 f i opengl_directx.obj
 0002:000b9af0       ?SetVertexDeclaration@DisplayListDevice@OpenGLD3D@@EAGJPAUIDirect3DVertexDeclaration9@@@Z 006cdaf0 f i opengl_directx.obj
 0002:000b9b80       ?GetVertexDeclaration@DisplayListDevice@OpenGLD3D@@EAGJPAPAUIDirect3DVertexDeclaration9@@@Z 006cdb80 f i opengl_directx.obj
 0002:000b9c10       ?SetFVF@DisplayListDevice@OpenGLD3D@@EAGJK@Z 006cdc10 f i opengl_directx.obj
 0002:000b9ca0       ?GetFVF@DisplayListDevice@OpenGLD3D@@EAGJPAK@Z 006cdca0 f i opengl_directx.obj
 0002:000b9d30       ?CreateVertexShader@DisplayListDevice@OpenGLD3D@@EAGJPBKPAPAUIDirect3DVertexShader9@@@Z 006cdd30 f i opengl_directx.obj
 0002:000b9dc0       ?SetVertexShader@DisplayListDevice@OpenGLD3D@@EAGJPAUIDirect3DVertexShader9@@@Z 006cddc0 f i opengl_directx.obj
 0002:000b9e50       ?GetVertexShader@DisplayListDevice@OpenGLD3D@@EAGJPAPAUIDirect3DVertexShader9@@@Z 006cde50 f i opengl_directx.obj
 0002:000b9ee0       ?SetVertexShaderConstantF@DisplayListDevice@OpenGLD3D@@EAGJIPBMI@Z 006cdee0 f i opengl_directx.obj
 0002:000b9f70       ?GetVertexShaderConstantF@DisplayListDevice@OpenGLD3D@@EAGJIPAMI@Z 006cdf70 f i opengl_directx.obj
 0002:000ba000       ?SetVertexShaderConstantI@DisplayListDevice@OpenGLD3D@@EAGJIPBHI@Z 006ce000 f i opengl_directx.obj
 0002:000ba090       ?GetVertexShaderConstantI@DisplayListDevice@OpenGLD3D@@EAGJIPAHI@Z 006ce090 f i opengl_directx.obj
 0002:000ba120       ?SetVertexShaderConstantB@DisplayListDevice@OpenGLD3D@@EAGJIPBHI@Z 006ce120 f i opengl_directx.obj
 0002:000ba1b0       ?GetVertexShaderConstantB@DisplayListDevice@OpenGLD3D@@EAGJIPAHI@Z 006ce1b0 f i opengl_directx.obj
 0002:000ba240       ?SetStreamSource@DisplayListDevice@OpenGLD3D@@EAGJIPAUIDirect3DVertexBuffer9@@II@Z 006ce240 f i opengl_directx.obj
 0002:000ba2d0       ?GetStreamSource@DisplayListDevice@OpenGLD3D@@EAGJIPAPAUIDirect3DVertexBuffer9@@PAI1@Z 006ce2d0 f i opengl_directx.obj
 0002:000ba360       ?SetStreamSourceFreq@DisplayListDevice@OpenGLD3D@@EAGJII@Z 006ce360 f i opengl_directx.obj
 0002:000ba3f0       ?GetStreamSourceFreq@DisplayListDevice@OpenGLD3D@@EAGJIPAI@Z 006ce3f0 f i opengl_directx.obj
 0002:000ba480       ?SetIndices@DisplayListDevice@OpenGLD3D@@EAGJPAUIDirect3DIndexBuffer9@@@Z 006ce480 f i opengl_directx.obj
 0002:000ba510       ?GetIndices@DisplayListDevice@OpenGLD3D@@EAGJPAPAUIDirect3DIndexBuffer9@@@Z 006ce510 f i opengl_directx.obj
 0002:000ba5a0       ?CreatePixelShader@DisplayListDevice@OpenGLD3D@@EAGJPBKPAPAUIDirect3DPixelShader9@@@Z 006ce5a0 f i opengl_directx.obj
 0002:000ba630       ?SetPixelShader@DisplayListDevice@OpenGLD3D@@EAGJPAUIDirect3DPixelShader9@@@Z 006ce630 f i opengl_directx.obj
 0002:000ba6c0       ?GetPixelShader@DisplayListDevice@OpenGLD3D@@EAGJPAPAUIDirect3DPixelShader9@@@Z 006ce6c0 f i opengl_directx.obj
 0002:000ba750       ?SetPixelShaderConstantF@DisplayListDevice@OpenGLD3D@@EAGJIPBMI@Z 006ce750 f i opengl_directx.obj
 0002:000ba7e0       ?GetPixelShaderConstantF@DisplayListDevice@OpenGLD3D@@EAGJIPAMI@Z 006ce7e0 f i opengl_directx.obj
 0002:000ba870       ?SetPixelShaderConstantI@DisplayListDevice@OpenGLD3D@@EAGJIPBHI@Z 006ce870 f i opengl_directx.obj
 0002:000ba900       ?GetPixelShaderConstantI@DisplayListDevice@OpenGLD3D@@EAGJIPAHI@Z 006ce900 f i opengl_directx.obj
 0002:000ba990       ?SetPixelShaderConstantB@DisplayListDevice@OpenGLD3D@@EAGJIPBHI@Z 006ce990 f i opengl_directx.obj
 0002:000baa20       ?GetPixelShaderConstantB@DisplayListDevice@OpenGLD3D@@EAGJIPAHI@Z 006cea20 f i opengl_directx.obj
 0002:000baab0       ?DrawRectPatch@DisplayListDevice@OpenGLD3D@@EAGJIPBMPBU_D3DRECTPATCH_INFO@@@Z 006ceab0 f i opengl_directx.obj
 0002:000bab40       ?DrawTriPatch@DisplayListDevice@OpenGLD3D@@EAGJIPBMPBU_D3DTRIPATCH_INFO@@@Z 006ceb40 f i opengl_directx.obj
 0002:000babd0       ?DeletePatch@DisplayListDevice@OpenGLD3D@@EAGJI@Z 006cebd0 f i opengl_directx.obj
 0002:000bac60       ?CreateQuery@DisplayListDevice@OpenGLD3D@@EAGJW4_D3DQUERYTYPE@@PAPAUIDirect3DQuery9@@@Z 006cec60 f i opengl_directx.obj
 0002:000bacf0       ?SetTransform@DisplayListDevice@OpenGLD3D@@EAGJW4_D3DTRANSFORMSTATETYPE@@PBU_D3DMATRIX@@@Z 006cecf0 f i opengl_directx.obj
 0002:000bad80       ?MultiplyTransform@DisplayListDevice@OpenGLD3D@@EAGJW4_D3DTRANSFORMSTATETYPE@@PBU_D3DMATRIX@@@Z 006ced80 f i opengl_directx.obj
 0002:000bae10       ??0IDirect3DDevice9@@QAE@XZ 006cee10 f i opengl_directx.obj
 0002:000bae70       ??0IUnknown@@QAE@XZ        006cee70 f i opengl_directx.obj
 0002:000baeb0       ?glEndList@@YAXXZ          006ceeb0 f   opengl_directx.obj
 0002:000bb120       ?GetId@DisplayListDevice@OpenGLD3D@@QBEIXZ 006cf120 f i opengl_directx.obj
 0002:000bb160       ??_GDisplayListDevice@OpenGLD3D@@QAEPAXI@Z 006cf160 f i opengl_directx.obj
 0002:000bb1d0       ??1DisplayListDevice@OpenGLD3D@@QAE@XZ 006cf1d0 f i opengl_directx.obj
 0002:000bb280       ?glCallList@@YAXI@Z        006cf280 f   opengl_directx.obj
 0002:000bb300       ?glMaterialfv@@YAXIIPBM@Z  006cf300 f   opengl_directx.obj
 0002:000bb5a0       ?glColorMaterial@@YAXII@Z  006cf5a0 f   opengl_directx.obj
 0002:000bb600       ?glIsEnabled@@YAEI@Z       006cf600 f   opengl_directx.obj
 0002:000bbb80       ?glPointSize@@YAXM@Z       006cfb80 f   opengl_directx.obj
 0002:000bbbf0       ?glGetTexParameteriv@@YAXIIPAH@Z 006cfbf0 f   opengl_directx.obj
 0002:000bbfb0       ?glTexEnvf@@YAXIIM@Z       006cffb0 f   opengl_directx.obj
 0002:000bc1b0       ?glTexEnvi@@YAXIIH@Z       006d01b0 f   opengl_directx.obj
 0002:000bc2f0       ?glTexEnviv@@YAXIIPBH@Z    006d02f0 f   opengl_directx.obj
 0002:000bc470       ?glGetTexEnviv@@YAXIIPAH@Z 006d0470 f   opengl_directx.obj
 0002:000bc5d0       ?glHint@@YAXII@Z           006d05d0 f   opengl_directx.obj
 0002:000bc640       ?glGetError@@YAIXZ         006d0640 f   opengl_directx.obj
 0002:000bc670       ?gluErrorString@@YAPBEI@Z  006d0670 f   opengl_directx.obj
 0002:000bc6b0       ?glLineWidth@@YAXM@Z       006d06b0 f   opengl_directx.obj
 0002:000bc6e0       ?glClipPlane@@YAXIPBN@Z    006d06e0 f   opengl_directx.obj
 0002:000bc7e0       ?glFinish@@YAXXZ           006d07e0 f   opengl_directx.obj
 0002:000bcac0       ?SetSampler@Shader@@QAEHPADH@Z 006d0ac0 f   opengl_directx.obj
 0002:000bcb30       ??0?$vector@PAVCommand@OpenGLD3D@@V?$allocator@PAVCommand@OpenGLD3D@@@std@@@std@@QAE@XZ 006d0b30 f i opengl_directx.obj
 0002:000bcbf0       ??1?$vector@PAVCommand@OpenGLD3D@@V?$allocator@PAVCommand@OpenGLD3D@@@std@@@std@@QAE@XZ 006d0bf0 f i opengl_directx.obj
 0002:000bcc90       ??0?$vector@UCustomVertex@OpenGLD3D@@V?$allocator@UCustomVertex@OpenGLD3D@@@std@@@std@@QAE@XZ 006d0c90 f i opengl_directx.obj
 0002:000bcd50       ??1?$vector@UCustomVertex@OpenGLD3D@@V?$allocator@UCustomVertex@OpenGLD3D@@@std@@@std@@QAE@XZ 006d0d50 f i opengl_directx.obj
 0002:000bcdf0       ?size@?$vector@PAUIDirect3DTexture9@@V?$allocator@PAUIDirect3DTexture9@@@std@@@std@@QBEIXZ 006d0df0 f i opengl_directx.obj
 0002:000bce60       ??A?$vector@PAUIDirect3DTexture9@@V?$allocator@PAUIDirect3DTexture9@@@std@@@std@@QAEAAPAUIDirect3DTexture9@@I@Z 006d0e60 f i opengl_directx.obj
 0002:000bcfa0       ?push_back@?$vector@PAUIDirect3DTexture9@@V?$allocator@PAUIDirect3DTexture9@@@std@@@std@@QAEXABQAUIDirect3DTexture9@@@Z 006d0fa0 f i opengl_directx.obj
 0002:000bd090       ?clear@?$vector@PAUIDirect3DTexture9@@V?$allocator@PAUIDirect3DTexture9@@@std@@@std@@QAEXXZ 006d1090 f i opengl_directx.obj
 0002:000bd1a0       ??A?$map@IPAVDisplayList@OpenGLD3D@@U?$less@I@std@@V?$allocator@U?$pair@$$CBIPAVDisplayList@OpenGLD3D@@@std@@@4@@std@@QAEAAPAVDisplayList@OpenGLD3D@@ABI@Z 006d11a0 f i opengl_directx.obj
 0002:000bd440       ?erase@?$_Tree@V?$_Tmap_traits@IPAVDisplayList@OpenGLD3D@@U?$less@I@std@@V?$allocator@U?$pair@$$CBIPAVDisplayList@OpenGLD3D@@@std@@@4@$0A@@std@@@std@@QAEIABI@Z 006d1440 f i opengl_directx.obj
 0002:000bd640       ??1?$_Vector_val@PAVCommand@OpenGLD3D@@V?$allocator@PAVCommand@OpenGLD3D@@@std@@@std@@QAE@XZ 006d1640 f i opengl_directx.obj
 0002:000bd690       ??1?$_Vector_val@UCustomVertex@OpenGLD3D@@V?$allocator@UCustomVertex@OpenGLD3D@@@std@@@std@@QAE@XZ 006d1690 f i opengl_directx.obj
 0002:000bd6e0       ??1?$_Vector_iterator@PAUIDirect3DTexture9@@V?$allocator@PAUIDirect3DTexture9@@@std@@@std@@QAE@XZ 006d16e0 f i opengl_directx.obj
 0002:000bd730       ??1iterator@?$_Tree@V?$_Tmap_traits@IPAVDisplayList@OpenGLD3D@@U?$less@I@std@@V?$allocator@U?$pair@$$CBIPAVDisplayList@OpenGLD3D@@@std@@@4@$0A@@std@@@std@@QAE@XZ 006d1730 f i opengl_directx.obj
 0002:000bd780       ??0iterator@?$_Tree@V?$_Tmap_traits@IPAVDisplayList@OpenGLD3D@@U?$less@I@std@@V?$allocator@U?$pair@$$CBIPAVDisplayList@OpenGLD3D@@@std@@@4@$0A@@std@@@std@@QAE@ABV012@@Z 006d1780 f i opengl_directx.obj
 0002:000bd7e0       ??4iterator@?$_Tree@V?$_Tmap_traits@IPAVDisplayList@OpenGLD3D@@U?$less@I@std@@V?$allocator@U?$pair@$$CBIPAVDisplayList@OpenGLD3D@@@std@@@4@$0A@@std@@@std@@QAEAAV012@ABV012@@Z 006d17e0 f i opengl_directx.obj
 0002:000bd840       ??1?$pair@Viterator@?$_Tree@V?$_Tmap_traits@IPAVDisplayList@OpenGLD3D@@U?$less@I@std@@V?$allocator@U?$pair@$$CBIPAVDisplayList@OpenGLD3D@@@std@@@4@$0A@@std@@@std@@V123@@std@@QAE@XZ 006d1840 f i opengl_directx.obj
 0002:000bd8f0       ??1?$_Vector_const_iterator@PAUIDirect3DTexture9@@V?$allocator@PAUIDirect3DTexture9@@@std@@@std@@QAE@XZ 006d18f0 f i opengl_directx.obj
 0002:000bd940       ??1const_iterator@?$_Tree@V?$_Tmap_traits@IPAVDisplayList@OpenGLD3D@@U?$less@I@std@@V?$allocator@U?$pair@$$CBIPAVDisplayList@OpenGLD3D@@@std@@@4@$0A@@std@@@std@@QAE@XZ 006d1940 f i opengl_directx.obj
 0002:000bd990       ??0const_iterator@?$_Tree@V?$_Tmap_traits@IPAVDisplayList@OpenGLD3D@@U?$less@I@std@@V?$allocator@U?$pair@$$CBIPAVDisplayList@OpenGLD3D@@@std@@@4@$0A@@std@@@std@@QAE@ABV012@@Z 006d1990 f i opengl_directx.obj
 0002:000bda00       ??4const_iterator@?$_Tree@V?$_Tmap_traits@IPAVDisplayList@OpenGLD3D@@U?$less@I@std@@V?$allocator@U?$pair@$$CBIPAVDisplayList@OpenGLD3D@@@std@@@4@$0A@@std@@@std@@QAEAAV012@ABV012@@Z 006d1a00 f i opengl_directx.obj
 0002:000bda70       ??1?$_Ranit@PAUIDirect3DTexture9@@HPBQAU1@ABQAU1@@std@@QAE@XZ 006d1a70 f i opengl_directx.obj
 0002:000bdac0       ??1?$_Bidit@U?$pair@$$CBIPAVDisplayList@OpenGLD3D@@@std@@HPBU12@ABU12@@std@@QAE@XZ 006d1ac0 f i opengl_directx.obj
 0002:000bdb10       ??0?$_Bidit@U?$pair@$$CBIPAVDisplayList@OpenGLD3D@@@std@@HPBU12@ABU12@@std@@QAE@ABU01@@Z 006d1b10 f i opengl_directx.obj
 0002:000bdb70       ??4?$_Bidit@U?$pair@$$CBIPAVDisplayList@OpenGLD3D@@@std@@HPBU12@ABU12@@std@@QAEAAU01@ABU01@@Z 006d1b70 f i opengl_directx.obj
 0002:000bdbd0       ?_Buy@?$vector@PAVCommand@OpenGLD3D@@V?$allocator@PAVCommand@OpenGLD3D@@@std@@@std@@IAE_NI@Z 006d1bd0 f i opengl_directx.obj
 0002:000bdcb0       ?_Tidy@?$vector@PAVCommand@OpenGLD3D@@V?$allocator@PAVCommand@OpenGLD3D@@@std@@@std@@IAEXXZ 006d1cb0 f i opengl_directx.obj
 0002:000bdd80       ??0?$_Vector_val@PAVCommand@OpenGLD3D@@V?$allocator@PAVCommand@OpenGLD3D@@@std@@@std@@IAE@V?$allocator@PAVCommand@OpenGLD3D@@@1@@Z 006d1d80 f i opengl_directx.obj
 0002:000bddf0       ??0?$allocator@PAVCommand@OpenGLD3D@@@std@@QAE@XZ 006d1df0 f i opengl_directx.obj
 0002:000bde30       ?_Buy@?$vector@UCustomVertex@OpenGLD3D@@V?$allocator@UCustomVertex@OpenGLD3D@@@std@@@std@@IAE_NI@Z 006d1e30 f i opengl_directx.obj
 0002:000bdf10       ?_Tidy@?$vector@UCustomVertex@OpenGLD3D@@V?$allocator@UCustomVertex@OpenGLD3D@@@std@@@std@@IAEXXZ 006d1f10 f i opengl_directx.obj
 0002:000bdfe0       ??0?$_Vector_val@UCustomVertex@OpenGLD3D@@V?$allocator@UCustomVertex@OpenGLD3D@@@std@@@std@@IAE@V?$allocator@UCustomVertex@OpenGLD3D@@@1@@Z 006d1fe0 f i opengl_directx.obj
 0002:000be050       ??0?$allocator@UCustomVertex@OpenGLD3D@@@std@@QAE@XZ 006d2050 f i opengl_directx.obj
 0002:000be090       ?capacity@?$vector@PAUIDirect3DTexture9@@V?$allocator@PAUIDirect3DTexture9@@@std@@@std@@QBEIXZ 006d2090 f i opengl_directx.obj
 0002:000be100       ?begin@?$vector@PAUIDirect3DTexture9@@V?$allocator@PAUIDirect3DTexture9@@@std@@@std@@QAE?AV?$_Vector_iterator@PAUIDirect3DTexture9@@V?$allocator@PAUIDirect3DTexture9@@@std@@@2@XZ 006d2100 f i opengl_directx.obj
 0002:000be190       ?end@?$vector@PAUIDirect3DTexture9@@V?$allocator@PAUIDirect3DTexture9@@@std@@@std@@QAE?AV?$_Vector_iterator@PAUIDirect3DTexture9@@V?$allocator@PAUIDirect3DTexture9@@@std@@@2@XZ 006d2190 f i opengl_directx.obj
 0002:000be220       ?insert@?$vector@PAUIDirect3DTexture9@@V?$allocator@PAUIDirect3DTexture9@@@std@@@std@@QAE?AV?$_Vector_iterator@PAUIDirect3DTexture9@@V?$allocator@PAUIDirect3DTexture9@@@std@@@2@V32@ABQAUIDirect3DTexture9@@@Z 006d2220 f i opengl_directx.obj
 0002:000be420       ?erase@?$vector@PAUIDirect3DTexture9@@V?$allocator@PAUIDirect3DTexture9@@@std@@@std@@QAE?AV?$_Vector_iterator@PAUIDirect3DTexture9@@V?$allocator@PAUIDirect3DTexture9@@@std@@@2@V32@0@Z 006d2420 f i opengl_directx.obj
 0002:000be5d0       ?_Ufill@?$vector@PAUIDirect3DTexture9@@V?$allocator@PAUIDirect3DTexture9@@@std@@@std@@IAEPAPAUIDirect3DTexture9@@PAPAU3@IABQAU3@@Z 006d25d0 f i opengl_directx.obj
 0002:000be650       ?_Orphan_range@?$vector@PAUIDirect3DTexture9@@V?$allocator@PAUIDirect3DTexture9@@@std@@@std@@IBEXPAPAUIDirect3DTexture9@@0@Z 006d2650 f i opengl_directx.obj
 0002:000be750       ?_Key@?$_Tree@V?$_Tmap_traits@IPAVDisplayList@OpenGLD3D@@U?$less@I@std@@V?$allocator@U?$pair@$$CBIPAVDisplayList@OpenGLD3D@@@std@@@4@$0A@@std@@@std@@KAABIPAU_Node@?$_Tree_nod@V?$_Tmap_traits@IPAVDisplayList@OpenGLD3D@@U?$less@I@std@@V?$allocator@U?$pair@$$CBIPAVDisplayList@OpenGLD3D@@@std@@@4@$0A@@std@@@2@@Z 006d2750 f i opengl_directx.obj
 0002:000be7b0       ?end@?$_Tree@V?$_Tmap_traits@IPAVDisplayList@OpenGLD3D@@U?$less@I@std@@V?$allocator@U?$pair@$$CBIPAVDisplayList@OpenGLD3D@@@std@@@4@$0A@@std@@@std@@QAE?AViterator@12@XZ 006d27b0 f i opengl_directx.obj
 0002:000be840       ?insert@?$_Tree@V?$_Tmap_traits@IPAVDisplayList@OpenGLD3D@@U?$less@I@std@@V?$allocator@U?$pair@$$CBIPAVDisplayList@OpenGLD3D@@@std@@@4@$0A@@std@@@std@@QAE?AViterator@12@V312@ABU?$pair@$$CBIPAVDisplayList@OpenGLD3D@@@2@@Z 006d2840 f i opengl_directx.obj
 0002:000bf700       ?erase@?$_Tree@V?$_Tmap_traits@IPAVDisplayList@OpenGLD3D@@U?$less@I@std@@V?$allocator@U?$pair@$$CBIPAVDisplayList@OpenGLD3D@@@std@@@4@$0A@@std@@@std@@QAE?AViterator@12@V312@0@Z 006d3700 f i opengl_directx.obj
 0002:000bfa10       ?lower_bound@?$_Tree@V?$_Tmap_traits@IPAVDisplayList@OpenGLD3D@@U?$less@I@std@@V?$allocator@U?$pair@$$CBIPAVDisplayList@OpenGLD3D@@@std@@@4@$0A@@std@@@std@@QAE?AViterator@12@ABI@Z 006d3a10 f i opengl_directx.obj
 0002:000bfaa0       ?equal_range@?$_Tree@V?$_Tmap_traits@IPAVDisplayList@OpenGLD3D@@U?$less@I@std@@V?$allocator@U?$pair@$$CBIPAVDisplayList@OpenGLD3D@@@std@@@4@$0A@@std@@@std@@QAE?AU?$pair@Viterator@?$_Tree@V?$_Tmap_traits@IPAVDisplayList@OpenGLD3D@@U?$less@I@std@@V?$allocator@U?$pair@$$CBIPAVDisplayList@OpenGLD3D@@@std@@@4@$0A@@std@@@std@@V123@@2@ABI@Z 006d3aa0 f i opengl_directx.obj
 0002:000bfbf0       ??Diterator@?$_Tree@V?$_Tmap_traits@IPAVDisplayList@OpenGLD3D@@U?$less@I@std@@V?$allocator@U?$pair@$$CBIPAVDisplayList@OpenGLD3D@@@std@@@4@$0A@@std@@@std@@QBEAAU?$pair@$$CBIPAVDisplayList@OpenGLD3D@@@2@XZ 006d3bf0 f i opengl_directx.obj
 0002:000bfc40       ??8const_iterator@?$_Tree@V?$_Tmap_traits@IPAVDisplayList@OpenGLD3D@@U?$less@I@std@@V?$allocator@U?$pair@$$CBIPAVDisplayList@OpenGLD3D@@@std@@@4@$0A@@std@@@std@@QBE_NABV012@@Z 006d3c40 f i opengl_directx.obj
 0002:000bfd30       ?_Mynode@const_iterator@?$_Tree@V?$_Tmap_traits@IPAVDisplayList@OpenGLD3D@@U?$less@I@std@@V?$allocator@U?$pair@$$CBIPAVDisplayList@OpenGLD3D@@@std@@@4@$0A@@std@@@std@@QBEPAU_Node@?$_Tree_nod@V?$_Tmap_traits@IPAVDisplayList@OpenGLD3D@@U?$less@I@std@@V?$allocator@U?$pair@$$CBIPAVDisplayList@OpenGLD3D@@@std@@@4@$0A@@std@@@3@XZ 006d3d30 f i opengl_directx.obj
 0002:000bfd70       ??0?$pair@$$CBIPAVDisplayList@OpenGLD3D@@@std@@QAE@ABIABQAVDisplayList@OpenGLD3D@@@Z 006d3d70 f i opengl_directx.obj
 0002:000bfdd0       ??0?$_Vector_iterator@PAUIDirect3DTexture9@@V?$allocator@PAUIDirect3DTexture9@@@std@@@std@@QAE@ABV01@@Z 006d3dd0 f i opengl_directx.obj
 0002:000bfe30       ??1?$pair@Viterator@?$_Tree@V?$_Tmap_traits@IPAVDisplayList@OpenGLD3D@@U?$less@I@std@@V?$allocator@U?$pair@$$CBIPAVDisplayList@OpenGLD3D@@@std@@@4@$0A@@std@@@std@@_N@std@@QAE@XZ 006d3e30 f i opengl_directx.obj
 0002:000bfe80       ??0?$_Vector_const_iterator@PAUIDirect3DTexture9@@V?$allocator@PAUIDirect3DTexture9@@@std@@@std@@QAE@ABV01@@Z 006d3e80 f i opengl_directx.obj
 0002:000bfef0       ??0?$_Ranit@PAUIDirect3DTexture9@@HPBQAU1@ABQAU1@@std@@QAE@ABU01@@Z 006d3ef0 f i opengl_directx.obj
 0002:000bff50       ?max_size@?$vector@PAVCommand@OpenGLD3D@@V?$allocator@PAVCommand@OpenGLD3D@@@std@@@std@@QBEIXZ 006d3f50 f i opengl_directx.obj
 0002:000bffb0       ?_Destroy@?$vector@PAVCommand@OpenGLD3D@@V?$allocator@PAVCommand@OpenGLD3D@@@std@@@std@@IAEXPAPAVCommand@OpenGLD3D@@0@Z 006d3fb0 f i opengl_directx.obj
 0002:000c0020       ?_Xlen@?$vector@PAVCommand@OpenGLD3D@@V?$allocator@PAVCommand@OpenGLD3D@@@std@@@std@@KAXXZ 006d4020 f i opengl_directx.obj
 0002:000c0100       ??0?$allocator@PAVCommand@OpenGLD3D@@@std@@QAE@ABV01@@Z 006d4100 f i opengl_directx.obj
 0002:000c0140       ?deallocate@?$allocator@PAVCommand@OpenGLD3D@@@std@@QAEXPAPAVCommand@OpenGLD3D@@I@Z 006d4140 f i opengl_directx.obj
 0002:000c01a0       ?allocate@?$allocator@PAVCommand@OpenGLD3D@@@std@@QAEPAPAVCommand@OpenGLD3D@@I@Z 006d41a0 f i opengl_directx.obj
 0002:000c0200       ?max_size@?$vector@UCustomVertex@OpenGLD3D@@V?$allocator@UCustomVertex@OpenGLD3D@@@std@@@std@@QBEIXZ 006d4200 f i opengl_directx.obj
 0002:000c0260       ?_Destroy@?$vector@UCustomVertex@OpenGLD3D@@V?$allocator@UCustomVertex@OpenGLD3D@@@std@@@std@@IAEXPAUCustomVertex@OpenGLD3D@@0@Z 006d4260 f i opengl_directx.obj
 0002:000c02d0       ?_Xlen@?$vector@UCustomVertex@OpenGLD3D@@V?$allocator@UCustomVertex@OpenGLD3D@@@std@@@std@@KAXXZ 006d42d0 f i opengl_directx.obj
 0002:000c03b0       ??0?$allocator@UCustomVertex@OpenGLD3D@@@std@@QAE@ABV01@@Z 006d43b0 f i opengl_directx.obj
 0002:000c03f0       ?deallocate@?$allocator@UCustomVertex@OpenGLD3D@@@std@@QAEXPAUCustomVertex@OpenGLD3D@@I@Z 006d43f0 f i opengl_directx.obj
 0002:000c0450       ?allocate@?$allocator@UCustomVertex@OpenGLD3D@@@std@@QAEPAUCustomVertex@OpenGLD3D@@I@Z 006d4450 f i opengl_directx.obj
 0002:000c04b0       ?_Destroy@?$vector@PAUIDirect3DTexture9@@V?$allocator@PAUIDirect3DTexture9@@@std@@@std@@IAEXPAPAUIDirect3DTexture9@@0@Z 006d44b0 f i opengl_directx.obj
 0002:000c0520       ?_Insert_n@?$vector@PAUIDirect3DTexture9@@V?$allocator@PAUIDirect3DTexture9@@@std@@@std@@IAEXV?$_Vector_iterator@PAUIDirect3DTexture9@@V?$allocator@PAUIDirect3DTexture9@@@std@@@2@IABQAUIDirect3DTexture9@@@Z 006d4520 f i opengl_directx.obj
 0002:000c0a50       ?max_size@?$vector@PAUIDirect3DTexture9@@V?$allocator@PAUIDirect3DTexture9@@@std@@@std@@QBEIXZ 006d4a50 f i opengl_directx.obj
 0002:000c0ab0       ?_Xlen@?$vector@PAUIDirect3DTexture9@@V?$allocator@PAUIDirect3DTexture9@@@std@@@std@@KAXXZ 006d4ab0 f i opengl_directx.obj
 0002:000c0b90       ?deallocate@?$allocator@PAUIDirect3DTexture9@@@std@@QAEXPAPAUIDirect3DTexture9@@I@Z 006d4b90 f i opengl_directx.obj
 0002:000c0bf0       ?allocate@?$allocator@PAUIDirect3DTexture9@@@std@@QAEPAPAUIDirect3DTexture9@@I@Z 006d4bf0 f i opengl_directx.obj
 0002:000c0c50       ?_Isnil@?$_Tree@V?$_Tmap_traits@IPAVDisplayList@OpenGLD3D@@U?$less@I@std@@V?$allocator@U?$pair@$$CBIPAVDisplayList@OpenGLD3D@@@std@@@4@$0A@@std@@@std@@KAAADPAU_Node@?$_Tree_nod@V?$_Tmap_traits@IPAVDisplayList@OpenGLD3D@@U?$less@I@std@@V?$allocator@U?$pair@$$CBIPAVDisplayList@OpenGLD3D@@@std@@@4@$0A@@std@@@2@@Z 006d4c50 f i opengl_directx.obj
 0002:000c0c90       ?_Right@?$_Tree@V?$_Tmap_traits@IPAVDisplayList@OpenGLD3D@@U?$less@I@std@@V?$allocator@U?$pair@$$CBIPAVDisplayList@OpenGLD3D@@@std@@@4@$0A@@std@@@std@@KAAAPAU_Node@?$_Tree_nod@V?$_Tmap_traits@IPAVDisplayList@OpenGLD3D@@U?$less@I@std@@V?$allocator@U?$pair@$$CBIPAVDisplayList@OpenGLD3D@@@std@@@4@$0A@@std@@@2@PAU342@@Z 006d4c90 f i opengl_directx.obj
 0002:000c0cd0       ?_Myval@?$_Tree@V?$_Tmap_traits@IPAVDisplayList@OpenGLD3D@@U?$less@I@std@@V?$allocator@U?$pair@$$CBIPAVDisplayList@OpenGLD3D@@@std@@@4@$0A@@std@@@std@@KAAAU?$pair@$$CBIPAVDisplayList@OpenGLD3D@@@2@PAU_Node@?$_Tree_nod@V?$_Tmap_traits@IPAVDisplayList@OpenGLD3D@@U?$less@I@std@@V?$allocator@U?$pair@$$CBIPAVDisplayList@OpenGLD3D@@@std@@@4@$0A@@std@@@2@@Z 006d4cd0 f i opengl_directx.obj
 0002:000c0d10       ?begin@?$_Tree@V?$_Tmap_traits@IPAVDisplayList@OpenGLD3D@@U?$less@I@std@@V?$allocator@U?$pair@$$CBIPAVDisplayList@OpenGLD3D@@@std@@@4@$0A@@std@@@std@@QAE?AViterator@12@XZ 006d4d10 f i opengl_directx.obj
 0002:000c0da0       ?size@?$_Tree@V?$_Tmap_traits@IPAVDisplayList@OpenGLD3D@@U?$less@I@std@@V?$allocator@U?$pair@$$CBIPAVDisplayList@OpenGLD3D@@@std@@@4@$0A@@std@@@std@@QBEIXZ 006d4da0 f i opengl_directx.obj
 0002:000c0de0       ?insert@?$_Tree@V?$_Tmap_traits@IPAVDisplayList@OpenGLD3D@@U?$less@I@std@@V?$allocator@U?$pair@$$CBIPAVDisplayList@OpenGLD3D@@@std@@@4@$0A@@std@@@std@@QAE?AU?$pair@Viterator@?$_Tree@V?$_Tmap_traits@IPAVDisplayList@OpenGLD3D@@U?$less@I@std@@V?$allocator@U?$pair@$$CBIPAVDisplayList@OpenGLD3D@@@std@@@4@$0A@@std@@@std@@_N@2@ABU?$pair@$$CBIPAVDisplayList@OpenGLD3D@@@2@@Z 006d4de0 f i opengl_directx.obj
 0002:000c12a0       ?_Left@?$_Tree@V?$_Tmap_traits@IPAVDisplayList@OpenGLD3D@@U?$less@I@std@@V?$allocator@U?$pair@$$CBIPAVDisplayList@OpenGLD3D@@@std@@@4@$0A@@std@@@std@@KAAAPAU_Node@?$_Tree_nod@V?$_Tmap_traits@IPAVDisplayList@OpenGLD3D@@U?$less@I@std@@V?$allocator@U?$pair@$$CBIPAVDisplayList@OpenGLD3D@@@std@@@4@$0A@@std@@@2@PAU342@@Z 006d52a0 f i opengl_directx.obj
 0002:000c12e0       ?erase@?$_Tree@V?$_Tmap_traits@IPAVDisplayList@OpenGLD3D@@U?$less@I@std@@V?$allocator@U?$pair@$$CBIPAVDisplayList@OpenGLD3D@@@std@@@4@$0A@@std@@@std@@QAE?AViterator@12@V312@@Z 006d52e0 f i opengl_directx.obj
 0002:000c1d20       ?_Parent@?$_Tree@V?$_Tmap_traits@IPAVDisplayList@OpenGLD3D@@U?$less@I@std@@V?$allocator@U?$pair@$$CBIPAVDisplayList@OpenGLD3D@@@std@@@4@$0A@@std@@@std@@KAAAPAU_Node@?$_Tree_nod@V?$_Tmap_traits@IPAVDisplayList@OpenGLD3D@@U?$less@I@std@@V?$allocator@U?$pair@$$CBIPAVDisplayList@OpenGLD3D@@@std@@@4@$0A@@std@@@2@PAU342@@Z 006d5d20 f i opengl_directx.obj
 0002:000c1d60       ?clear@?$_Tree@V?$_Tmap_traits@IPAVDisplayList@OpenGLD3D@@U?$less@I@std@@V?$allocator@U?$pair@$$CBIPAVDisplayList@OpenGLD3D@@@std@@@4@$0A@@std@@@std@@QAEXXZ 006d5d60 f i opengl_directx.obj
 0002:000c1e20       ?upper_bound@?$_Tree@V?$_Tmap_traits@IPAVDisplayList@OpenGLD3D@@U?$less@I@std@@V?$allocator@U?$pair@$$CBIPAVDisplayList@OpenGLD3D@@@std@@@4@$0A@@std@@@std@@QAE?AViterator@12@ABI@Z 006d5e20 f i opengl_directx.obj
 0002:000c1eb0       ?_Insert@?$_Tree@V?$_Tmap_traits@IPAVDisplayList@OpenGLD3D@@U?$less@I@std@@V?$allocator@U?$pair@$$CBIPAVDisplayList@OpenGLD3D@@@std@@@4@$0A@@std@@@std@@IAE?AViterator@12@_NPAU_Node@?$_Tree_nod@V?$_Tmap_traits@IPAVDisplayList@OpenGLD3D@@U?$less@I@std@@V?$allocator@U?$pair@$$CBIPAVDisplayList@OpenGLD3D@@@std@@@4@$0A@@std@@@2@ABU?$pair@$$CBIPAVDisplayList@OpenGLD3D@@@2@@Z 006d5eb0 f i opengl_directx.obj
 0002:000c24b0       ?_Lbound@?$_Tree@V?$_Tmap_traits@IPAVDisplayList@OpenGLD3D@@U?$less@I@std@@V?$allocator@U?$pair@$$CBIPAVDisplayList@OpenGLD3D@@@std@@@4@$0A@@std@@@std@@IBEPAU_Node@?$_Tree_nod@V?$_Tmap_traits@IPAVDisplayList@OpenGLD3D@@U?$less@I@std@@V?$allocator@U?$pair@$$CBIPAVDisplayList@OpenGLD3D@@@std@@@4@$0A@@std@@@2@ABI@Z 006d64b0 f i opengl_directx.obj
 0002:000c25b0       ?_Rmost@?$_Tree@V?$_Tmap_traits@IPAVDisplayList@OpenGLD3D@@U?$less@I@std@@V?$allocator@U?$pair@$$CBIPAVDisplayList@OpenGLD3D@@@std@@@4@$0A@@std@@@std@@IBEAAPAU_Node@?$_Tree_nod@V?$_Tmap_traits@IPAVDisplayList@OpenGLD3D@@U?$less@I@std@@V?$allocator@U?$pair@$$CBIPAVDisplayList@OpenGLD3D@@@std@@@4@$0A@@std@@@2@XZ 006d65b0 f i opengl_directx.obj
 0002:000c2610       ?_Kfn@?$_Tmap_traits@IPAVDisplayList@OpenGLD3D@@U?$less@I@std@@V?$allocator@U?$pair@$$CBIPAVDisplayList@OpenGLD3D@@@std@@@4@$0A@@std@@SAABIABU?$pair@$$CBIPAVDisplayList@OpenGLD3D@@@2@@Z 006d6610 f i opengl_directx.obj
 0002:000c2650       ?deallocate@?$allocator@U_Node@?$_Tree_nod@V?$_Tmap_traits@IPAVDisplayList@OpenGLD3D@@U?$less@I@std@@V?$allocator@U?$pair@$$CBIPAVDisplayList@OpenGLD3D@@@std@@@4@$0A@@std@@@std@@@std@@QAEXPAU_Node@?$_Tree_nod@V?$_Tmap_traits@IPAVDisplayList@OpenGLD3D@@U?$less@I@std@@V?$allocator@U?$pair@$$CBIPAVDisplayList@OpenGLD3D@@@std@@@4@$0A@@std@@@2@I@Z 006d6650 f i opengl_directx.obj
 0002:000c26b0       ??0iterator@?$_Tree@V?$_Tmap_traits@IPAVDisplayList@OpenGLD3D@@U?$less@I@std@@V?$allocator@U?$pair@$$CBIPAVDisplayList@OpenGLD3D@@@std@@@4@$0A@@std@@@std@@QAE@XZ 006d66b0 f i opengl_directx.obj
 0002:000c2710       ??0iterator@?$_Tree@V?$_Tmap_traits@IPAVDisplayList@OpenGLD3D@@U?$less@I@std@@V?$allocator@U?$pair@$$CBIPAVDisplayList@OpenGLD3D@@@std@@@4@$0A@@std@@@std@@QAE@PAU_Node@?$_Tree_nod@V?$_Tmap_traits@IPAVDisplayList@OpenGLD3D@@U?$less@I@std@@V?$allocator@U?$pair@$$CBIPAVDisplayList@OpenGLD3D@@@std@@@4@$0A@@std@@@2@PBV12@@Z 006d6710 f i opengl_directx.obj
 0002:000c2770       ??Eiterator@?$_Tree@V?$_Tmap_traits@IPAVDisplayList@OpenGLD3D@@U?$less@I@std@@V?$allocator@U?$pair@$$CBIPAVDisplayList@OpenGLD3D@@@std@@@4@$0A@@std@@@std@@QAEAAV012@XZ 006d6770 f i opengl_directx.obj
 0002:000c27d0       ??Eiterator@?$_Tree@V?$_Tmap_traits@IPAVDisplayList@OpenGLD3D@@U?$less@I@std@@V?$allocator@U?$pair@$$CBIPAVDisplayList@OpenGLD3D@@@std@@@4@$0A@@std@@@std@@QAE?AV012@H@Z 006d67d0 f i opengl_directx.obj
 0002:000c28f0       ??Fiterator@?$_Tree@V?$_Tmap_traits@IPAVDisplayList@OpenGLD3D@@U?$less@I@std@@V?$allocator@U?$pair@$$CBIPAVDisplayList@OpenGLD3D@@@std@@@4@$0A@@std@@@std@@QAEAAV012@XZ 006d68f0 f i opengl_directx.obj
 0002:000c2950       ??Dconst_iterator@?$_Tree@V?$_Tmap_traits@IPAVDisplayList@OpenGLD3D@@U?$less@I@std@@V?$allocator@U?$pair@$$CBIPAVDisplayList@OpenGLD3D@@@std@@@4@$0A@@std@@@std@@QBEABU?$pair@$$CBIPAVDisplayList@OpenGLD3D@@@2@XZ 006d6950 f i opengl_directx.obj
 0002:000c2a40       ??9const_iterator@?$_Tree@V?$_Tmap_traits@IPAVDisplayList@OpenGLD3D@@U?$less@I@std@@V?$allocator@U?$pair@$$CBIPAVDisplayList@OpenGLD3D@@@std@@@4@$0A@@std@@@std@@QBE_NABV012@@Z 006d6a40 f i opengl_directx.obj
 0002:000c2ab0       ??0?$_Vector_iterator@PAUIDirect3DTexture9@@V?$allocator@PAUIDirect3DTexture9@@@std@@@std@@QAE@PAPAUIDirect3DTexture9@@PBV_Container_base@1@@Z 006d6ab0 f i opengl_directx.obj
 0002:000c2b10       ??H?$_Vector_iterator@PAUIDirect3DTexture9@@V?$allocator@PAUIDirect3DTexture9@@@std@@@std@@QBE?AV01@H@Z 006d6b10 f i opengl_directx.obj
 0002:000c2c30       ??G?$_Vector_iterator@PAUIDirect3DTexture9@@V?$allocator@PAUIDirect3DTexture9@@@std@@@std@@QBEHABV?$_Vector_const_iterator@PAUIDirect3DTexture9@@V?$allocator@PAUIDirect3DTexture9@@@std@@@1@@Z 006d6c30 f i opengl_directx.obj
 0002:000c2c90       ??9?$_Vector_const_iterator@PAUIDirect3DTexture9@@V?$allocator@PAUIDirect3DTexture9@@@std@@@std@@QBE_NABV01@@Z 006d6c90 f i opengl_directx.obj
 0002:000c2d00       ??M?$_Vector_const_iterator@PAUIDirect3DTexture9@@V?$allocator@PAUIDirect3DTexture9@@@std@@@std@@QBE_NABV01@@Z 006d6d00 f i opengl_directx.obj
 0002:000c2d70       ??0?$pair@Viterator@?$_Tree@V?$_Tmap_traits@IPAVDisplayList@OpenGLD3D@@U?$less@I@std@@V?$allocator@U?$pair@$$CBIPAVDisplayList@OpenGLD3D@@@std@@@4@$0A@@std@@@std@@V123@@std@@QAE@ABViterator@?$_Tree@V?$_Tmap_traits@IPAVDisplayList@OpenGLD3D@@U?$less@I@std@@V?$allocator@U?$pair@$$CBIPAVDisplayList@OpenGLD3D@@@std@@@4@$0A@@std@@@1@0@Z 006d6d70 f i opengl_directx.obj
 0002:000c2e30       ?max_size@?$allocator@PAVCommand@OpenGLD3D@@@std@@QBEIXZ 006d6e30 f i opengl_directx.obj
 0002:000c2ea0       ?max_size@?$allocator@UCustomVertex@OpenGLD3D@@@std@@QBEIXZ 006d6ea0 f i opengl_directx.obj
 0002:000c2f10       ?max_size@?$allocator@PAUIDirect3DTexture9@@@std@@QBEIXZ 006d6f10 f i opengl_directx.obj
 0002:000c2f80       ?_Color@?$_Tree@V?$_Tmap_traits@IPAVDisplayList@OpenGLD3D@@U?$less@I@std@@V?$allocator@U?$pair@$$CBIPAVDisplayList@OpenGLD3D@@@std@@@4@$0A@@std@@@std@@KAAADPAU_Node@?$_Tree_nod@V?$_Tmap_traits@IPAVDisplayList@OpenGLD3D@@U?$less@I@std@@V?$allocator@U?$pair@$$CBIPAVDisplayList@OpenGLD3D@@@std@@@4@$0A@@std@@@2@@Z 006d6f80 f i opengl_directx.obj
 0002:000c2fc0       ?max_size@?$_Tree@V?$_Tmap_traits@IPAVDisplayList@OpenGLD3D@@U?$less@I@std@@V?$allocator@U?$pair@$$CBIPAVDisplayList@OpenGLD3D@@@std@@@4@$0A@@std@@@std@@QBEIXZ 006d6fc0 f i opengl_directx.obj
 0002:000c3020       ?_Erase@?$_Tree@V?$_Tmap_traits@IPAVDisplayList@OpenGLD3D@@U?$less@I@std@@V?$allocator@U?$pair@$$CBIPAVDisplayList@OpenGLD3D@@@std@@@4@$0A@@std@@@std@@IAEXPAU_Node@?$_Tree_nod@V?$_Tmap_traits@IPAVDisplayList@OpenGLD3D@@U?$less@I@std@@V?$allocator@U?$pair@$$CBIPAVDisplayList@OpenGLD3D@@@std@@@4@$0A@@std@@@2@@Z 006d7020 f i opengl_directx.obj
 0002:000c3100       ?_Lmost@?$_Tree@V?$_Tmap_traits@IPAVDisplayList@OpenGLD3D@@U?$less@I@std@@V?$allocator@U?$pair@$$CBIPAVDisplayList@OpenGLD3D@@@std@@@4@$0A@@std@@@std@@IBEAAPAU_Node@?$_Tree_nod@V?$_Tmap_traits@IPAVDisplayList@OpenGLD3D@@U?$less@I@std@@V?$allocator@U?$pair@$$CBIPAVDisplayList@OpenGLD3D@@@std@@@4@$0A@@std@@@2@XZ 006d7100 f i opengl_directx.obj
 0002:000c3160       ?_Lrotate@?$_Tree@V?$_Tmap_traits@IPAVDisplayList@OpenGLD3D@@U?$less@I@std@@V?$allocator@U?$pair@$$CBIPAVDisplayList@OpenGLD3D@@@std@@@4@$0A@@std@@@std@@IAEXPAU_Node@?$_Tree_nod@V?$_Tmap_traits@IPAVDisplayList@OpenGLD3D@@U?$less@I@std@@V?$allocator@U?$pair@$$CBIPAVDisplayList@OpenGLD3D@@@std@@@4@$0A@@std@@@2@@Z 006d7160 f i opengl_directx.obj
 0002:000c3310       ?_Max@?$_Tree@V?$_Tmap_traits@IPAVDisplayList@OpenGLD3D@@U?$less@I@std@@V?$allocator@U?$pair@$$CBIPAVDisplayList@OpenGLD3D@@@std@@@4@$0A@@std@@@std@@KAPAU_Node@?$_Tree_nod@V?$_Tmap_traits@IPAVDisplayList@OpenGLD3D@@U?$less@I@std@@V?$allocator@U?$pair@$$CBIPAVDisplayList@OpenGLD3D@@@std@@@4@$0A@@std@@@2@PAU342@@Z 006d7310 f i opengl_directx.obj
 0002:000c3390       ?_Min@?$_Tree@V?$_Tmap_traits@IPAVDisplayList@OpenGLD3D@@U?$less@I@std@@V?$allocator@U?$pair@$$CBIPAVDisplayList@OpenGLD3D@@@std@@@4@$0A@@std@@@std@@KAPAU_Node@?$_Tree_nod@V?$_Tmap_traits@IPAVDisplayList@OpenGLD3D@@U?$less@I@std@@V?$allocator@U?$pair@$$CBIPAVDisplayList@OpenGLD3D@@@std@@@4@$0A@@std@@@2@PAU342@@Z 006d7390 f i opengl_directx.obj
 0002:000c3410       ?_Root@?$_Tree@V?$_Tmap_traits@IPAVDisplayList@OpenGLD3D@@U?$less@I@std@@V?$allocator@U?$pair@$$CBIPAVDisplayList@OpenGLD3D@@@std@@@4@$0A@@std@@@std@@IBEAAPAU_Node@?$_Tree_nod@V?$_Tmap_traits@IPAVDisplayList@OpenGLD3D@@U?$less@I@std@@V?$allocator@U?$pair@$$CBIPAVDisplayList@OpenGLD3D@@@std@@@4@$0A@@std@@@2@XZ 006d7410 f i opengl_directx.obj
 0002:000c3470       ?_Rrotate@?$_Tree@V?$_Tmap_traits@IPAVDisplayList@OpenGLD3D@@U?$less@I@std@@V?$allocator@U?$pair@$$CBIPAVDisplayList@OpenGLD3D@@@std@@@4@$0A@@std@@@std@@IAEXPAU_Node@?$_Tree_nod@V?$_Tmap_traits@IPAVDisplayList@OpenGLD3D@@U?$less@I@std@@V?$allocator@U?$pair@$$CBIPAVDisplayList@OpenGLD3D@@@std@@@4@$0A@@std@@@2@@Z 006d7470 f i opengl_directx.obj
 0002:000c3620       ?_Ubound@?$_Tree@V?$_Tmap_traits@IPAVDisplayList@OpenGLD3D@@U?$less@I@std@@V?$allocator@U?$pair@$$CBIPAVDisplayList@OpenGLD3D@@@std@@@4@$0A@@std@@@std@@IBEPAU_Node@?$_Tree_nod@V?$_Tmap_traits@IPAVDisplayList@OpenGLD3D@@U?$less@I@std@@V?$allocator@U?$pair@$$CBIPAVDisplayList@OpenGLD3D@@@std@@@4@$0A@@std@@@2@ABI@Z 006d7620 f i opengl_directx.obj
 0002:000c3720       ?_Orphan_ptr@?$_Tree@V?$_Tmap_traits@IPAVDisplayList@OpenGLD3D@@U?$less@I@std@@V?$allocator@U?$pair@$$CBIPAVDisplayList@OpenGLD3D@@@std@@@4@$0A@@std@@@std@@IBEXAAV12@PAU_Node@?$_Tree_nod@V?$_Tmap_traits@IPAVDisplayList@OpenGLD3D@@U?$less@I@std@@V?$allocator@U?$pair@$$CBIPAVDisplayList@OpenGLD3D@@@std@@@4@$0A@@std@@@2@@Z 006d7720 f i opengl_directx.obj
 0002:000c3830       ?_Buynode@?$_Tree@V?$_Tmap_traits@IPAVDisplayList@OpenGLD3D@@U?$less@I@std@@V?$allocator@U?$pair@$$CBIPAVDisplayList@OpenGLD3D@@@std@@@4@$0A@@std@@@std@@IAEPAU_Node@?$_Tree_nod@V?$_Tmap_traits@IPAVDisplayList@OpenGLD3D@@U?$less@I@std@@V?$allocator@U?$pair@$$CBIPAVDisplayList@OpenGLD3D@@@std@@@4@$0A@@std@@@2@PAU342@00ABU?$pair@$$CBIPAVDisplayList@OpenGLD3D@@@2@D@Z 006d7830 f i opengl_directx.obj
 0002:000c39a0       ?destroy@?$allocator@U_Node@?$_Tree_nod@V?$_Tmap_traits@IPAVDisplayList@OpenGLD3D@@U?$less@I@std@@V?$allocator@U?$pair@$$CBIPAVDisplayList@OpenGLD3D@@@std@@@4@$0A@@std@@@std@@@std@@QAEXPAU_Node@?$_Tree_nod@V?$_Tmap_traits@IPAVDisplayList@OpenGLD3D@@U?$less@I@std@@V?$allocator@U?$pair@$$CBIPAVDisplayList@OpenGLD3D@@@std@@@4@$0A@@std@@@2@@Z 006d79a0 f i opengl_directx.obj
 0002:000c3a00       ??0const_iterator@?$_Tree@V?$_Tmap_traits@IPAVDisplayList@OpenGLD3D@@U?$less@I@std@@V?$allocator@U?$pair@$$CBIPAVDisplayList@OpenGLD3D@@@std@@@4@$0A@@std@@@std@@QAE@XZ 006d7a00 f i opengl_directx.obj
 0002:000c3a60       ??0const_iterator@?$_Tree@V?$_Tmap_traits@IPAVDisplayList@OpenGLD3D@@U?$less@I@std@@V?$allocator@U?$pair@$$CBIPAVDisplayList@OpenGLD3D@@@std@@@4@$0A@@std@@@std@@QAE@PAU_Node@?$_Tree_nod@V?$_Tmap_traits@IPAVDisplayList@OpenGLD3D@@U?$less@I@std@@V?$allocator@U?$pair@$$CBIPAVDisplayList@OpenGLD3D@@@std@@@4@$0A@@std@@@2@PBV12@@Z 006d7a60 f i opengl_directx.obj
 0002:000c3b20       ??Econst_iterator@?$_Tree@V?$_Tmap_traits@IPAVDisplayList@OpenGLD3D@@U?$less@I@std@@V?$allocator@U?$pair@$$CBIPAVDisplayList@OpenGLD3D@@@std@@@4@$0A@@std@@@std@@QAEAAV012@XZ 006d7b20 f i opengl_directx.obj
 0002:000c3b80       ??Fconst_iterator@?$_Tree@V?$_Tmap_traits@IPAVDisplayList@OpenGLD3D@@U?$less@I@std@@V?$allocator@U?$pair@$$CBIPAVDisplayList@OpenGLD3D@@@std@@@4@$0A@@std@@@std@@QAEAAV012@XZ 006d7b80 f i opengl_directx.obj
 0002:000c3be0       ??Y?$_Vector_iterator@PAUIDirect3DTexture9@@V?$allocator@PAUIDirect3DTexture9@@@std@@@std@@QAEAAV01@H@Z 006d7be0 f i opengl_directx.obj
 0002:000c3c40       ??0?$_Vector_const_iterator@PAUIDirect3DTexture9@@V?$allocator@PAUIDirect3DTexture9@@@std@@@std@@QAE@PAPAUIDirect3DTexture9@@PBV_Container_base@1@@Z 006d7c40 f i opengl_directx.obj
 0002:000c3d70       ??G?$_Vector_const_iterator@PAUIDirect3DTexture9@@V?$allocator@PAUIDirect3DTexture9@@@std@@@std@@QBEHABV01@@Z 006d7d70 f i opengl_directx.obj
 0002:000c3de0       ??8?$_Vector_const_iterator@PAUIDirect3DTexture9@@V?$allocator@PAUIDirect3DTexture9@@@std@@@std@@QBE_NABV01@@Z 006d7de0 f i opengl_directx.obj
 0002:000c3e50       ?_Compat@?$_Vector_const_iterator@PAUIDirect3DTexture9@@V?$allocator@PAUIDirect3DTexture9@@@std@@@std@@QBEXABV12@@Z 006d7e50 f i opengl_directx.obj
 0002:000c3f20       ??0?$pair@Viterator@?$_Tree@V?$_Tmap_traits@IPAVDisplayList@OpenGLD3D@@U?$less@I@std@@V?$allocator@U?$pair@$$CBIPAVDisplayList@OpenGLD3D@@@std@@@4@$0A@@std@@@std@@_N@std@@QAE@ABViterator@?$_Tree@V?$_Tmap_traits@IPAVDisplayList@OpenGLD3D@@U?$less@I@std@@V?$allocator@U?$pair@$$CBIPAVDisplayList@OpenGLD3D@@@std@@@4@$0A@@std@@@1@AB_N@Z 006d7f20 f i opengl_directx.obj
 0002:000c3f90       ??0?$_Bidit@U?$pair@$$CBIPAVDisplayList@OpenGLD3D@@@std@@HPBU12@ABU12@@std@@QAE@XZ 006d7f90 f i opengl_directx.obj
 0002:000c3ff0       ??0?$_Ranit@PAUIDirect3DTexture9@@HPBQAU1@ABQAU1@@std@@QAE@XZ 006d7ff0 f i opengl_directx.obj
 0002:000c4050       ?max_size@?$allocator@U?$pair@$$CBIPAVDisplayList@OpenGLD3D@@@std@@@std@@QBEIXZ 006d8050 f i opengl_directx.obj
 0002:000c40c0       ?allocate@?$allocator@U_Node@?$_Tree_nod@V?$_Tmap_traits@IPAVDisplayList@OpenGLD3D@@U?$less@I@std@@V?$allocator@U?$pair@$$CBIPAVDisplayList@OpenGLD3D@@@std@@@4@$0A@@std@@@std@@@std@@QAEPAU_Node@?$_Tree_nod@V?$_Tmap_traits@IPAVDisplayList@OpenGLD3D@@U?$less@I@std@@V?$allocator@U?$pair@$$CBIPAVDisplayList@OpenGLD3D@@@std@@@4@$0A@@std@@@2@I@Z 006d80c0 f i opengl_directx.obj
 0002:000c4120       ?_Dec@const_iterator@?$_Tree@V?$_Tmap_traits@IPAVDisplayList@OpenGLD3D@@U?$less@I@std@@V?$allocator@U?$pair@$$CBIPAVDisplayList@OpenGLD3D@@@std@@@4@$0A@@std@@@std@@QAEXXZ 006d8120 f i opengl_directx.obj
 0002:000c4400       ?_Inc@const_iterator@?$_Tree@V?$_Tmap_traits@IPAVDisplayList@OpenGLD3D@@U?$less@I@std@@V?$allocator@U?$pair@$$CBIPAVDisplayList@OpenGLD3D@@@std@@@4@$0A@@std@@@std@@QAEXXZ 006d8400 f i opengl_directx.obj
 0002:000c45a0       ??Y?$_Vector_const_iterator@PAUIDirect3DTexture9@@V?$allocator@PAUIDirect3DTexture9@@@std@@@std@@QAEAAV01@H@Z 006d85a0 f i opengl_directx.obj
 0002:000c46f0       ??0_Node@?$_Tree_nod@V?$_Tmap_traits@IPAVDisplayList@OpenGLD3D@@U?$less@I@std@@V?$allocator@U?$pair@$$CBIPAVDisplayList@OpenGLD3D@@@std@@@4@$0A@@std@@@std@@QAE@PAU012@00ABU?$pair@$$CBIPAVDisplayList@OpenGLD3D@@@2@D@Z 006d86f0 f i opengl_directx.obj
 0002:000c4ae0       ??$_Distance@Viterator@?$_Tree@V?$_Tmap_traits@IPAVDisplayList@OpenGLD3D@@U?$less@I@std@@V?$allocator@U?$pair@$$CBIPAVDisplayList@OpenGLD3D@@@std@@@4@$0A@@std@@@std@@I@std@@YAXViterator@?$_Tree@V?$_Tmap_traits@IPAVDisplayList@OpenGLD3D@@U?$less@I@std@@V?$allocator@U?$pair@$$CBIPAVDisplayList@OpenGLD3D@@@std@@@4@$0A@@std@@@0@0AAI@Z 006d8ae0 f i opengl_directx.obj
 0002:000c4c10       ??$unchecked_copy@PAPAUIDirect3DTexture9@@PAPAU1@@stdext@@YAPAPAUIDirect3DTexture9@@PAPAU1@00@Z 006d8c10 f i opengl_directx.obj
 0002:000c4ce0       ??$unchecked_uninitialized_fill_n@PAPAUIDirect3DTexture9@@IPAU1@V?$allocator@PAUIDirect3DTexture9@@@std@@@stdext@@YAXPAPAUIDirect3DTexture9@@IABQAU1@AAV?$allocator@PAUIDirect3DTexture9@@@std@@@Z 006d8ce0 f i opengl_directx.obj
 0002:000c4d80       ??$_Destroy_range@PAVCommand@OpenGLD3D@@V?$allocator@PAVCommand@OpenGLD3D@@@std@@@std@@YAXPAPAVCommand@OpenGLD3D@@0AAV?$allocator@PAVCommand@OpenGLD3D@@@0@@Z 006d8d80 f i opengl_directx.obj
 0002:000c4e00       ??$_Allocate@PAVCommand@OpenGLD3D@@@std@@YAPAPAVCommand@OpenGLD3D@@IPAPAV12@@Z 006d8e00 f i opengl_directx.obj
 0002:000c4ea0       ??$_Destroy_range@UCustomVertex@OpenGLD3D@@V?$allocator@UCustomVertex@OpenGLD3D@@@std@@@std@@YAXPAUCustomVertex@OpenGLD3D@@0AAV?$allocator@UCustomVertex@OpenGLD3D@@@0@@Z 006d8ea0 f i opengl_directx.obj
 0002:000c4f20       ??$_Allocate@UCustomVertex@OpenGLD3D@@@std@@YAPAUCustomVertex@OpenGLD3D@@IPAU12@@Z 006d8f20 f i opengl_directx.obj
 0002:000c4fc0       ??$_Destroy_range@PAUIDirect3DTexture9@@V?$allocator@PAUIDirect3DTexture9@@@std@@@std@@YAXPAPAUIDirect3DTexture9@@0AAV?$allocator@PAUIDirect3DTexture9@@@0@@Z 006d8fc0 f i opengl_directx.obj
 0002:000c5040       ??$_Umove@PAPAUIDirect3DTexture9@@@?$vector@PAUIDirect3DTexture9@@V?$allocator@PAUIDirect3DTexture9@@@std@@@std@@IAEPAPAUIDirect3DTexture9@@PAPAU2@00@Z 006d9040 f i opengl_directx.obj
 0002:000c50b0       ??$fill@PAPAUIDirect3DTexture9@@PAU1@@std@@YAXPAPAUIDirect3DTexture9@@0ABQAU1@@Z 006d90b0 f i opengl_directx.obj
 0002:000c5120       ??$_Unchecked_move_backward@PAPAUIDirect3DTexture9@@PAPAU1@@stdext@@YAPAPAUIDirect3DTexture9@@PAPAU1@00@Z 006d9120 f i opengl_directx.obj
 0002:000c51e0       ??$_Allocate@PAUIDirect3DTexture9@@@std@@YAPAPAUIDirect3DTexture9@@IPAPAU1@@Z 006d91e0 f i opengl_directx.obj
 0002:000c5280       ??$_Destroy@U_Node@?$_Tree_nod@V?$_Tmap_traits@IPAVDisplayList@OpenGLD3D@@U?$less@I@std@@V?$allocator@U?$pair@$$CBIPAVDisplayList@OpenGLD3D@@@std@@@4@$0A@@std@@@std@@@std@@YAXPAU_Node@?$_Tree_nod@V?$_Tmap_traits@IPAVDisplayList@OpenGLD3D@@U?$less@I@std@@V?$allocator@U?$pair@$$CBIPAVDisplayList@OpenGLD3D@@@std@@@4@$0A@@std@@@0@@Z 006d9280 f i opengl_directx.obj
 0002:000c52b0       ??$_Allocate@U_Node@?$_Tree_nod@V?$_Tmap_traits@IPAVDisplayList@OpenGLD3D@@U?$less@I@std@@V?$allocator@U?$pair@$$CBIPAVDisplayList@OpenGLD3D@@@std@@@4@$0A@@std@@@std@@@std@@YAPAU_Node@?$_Tree_nod@V?$_Tmap_traits@IPAVDisplayList@OpenGLD3D@@U?$less@I@std@@V?$allocator@U?$pair@$$CBIPAVDisplayList@OpenGLD3D@@@std@@@4@$0A@@std@@@0@IPAU120@@Z 006d92b0 f i opengl_directx.obj
 0002:000c5350       ??$_Iter_cat@Viterator@?$_Tree@V?$_Tmap_traits@IPAVDisplayList@OpenGLD3D@@U?$less@I@std@@V?$allocator@U?$pair@$$CBIPAVDisplayList@OpenGLD3D@@@std@@@4@$0A@@std@@@std@@@std@@YA?AUbidirectional_iterator_tag@0@ABViterator@?$_Tree@V?$_Tmap_traits@IPAVDisplayList@OpenGLD3D@@U?$less@I@std@@V?$allocator@U?$pair@$$CBIPAVDisplayList@OpenGLD3D@@@std@@@4@$0A@@std@@@0@@Z 006d9350 f i opengl_directx.obj
 0002:000c53c0       ??$_Distance2@Viterator@?$_Tree@V?$_Tmap_traits@IPAVDisplayList@OpenGLD3D@@U?$less@I@std@@V?$allocator@U?$pair@$$CBIPAVDisplayList@OpenGLD3D@@@std@@@4@$0A@@std@@@std@@I@std@@YAXViterator@?$_Tree@V?$_Tmap_traits@IPAVDisplayList@OpenGLD3D@@U?$less@I@std@@V?$allocator@U?$pair@$$CBIPAVDisplayList@OpenGLD3D@@@std@@@4@$0A@@std@@@0@0AAIUbidirectional_iterator_tag@0@@Z 006d93c0 f i opengl_directx.obj
 0002:000c54a0       ??$_Checked_base@PAPAUIDirect3DTexture9@@@std@@YAPAPAUIDirect3DTexture9@@AAPAPAU1@@Z 006d94a0 f i opengl_directx.obj
 0002:000c5530       ??$_Iter_random@PAPAUIDirect3DTexture9@@PAPAU1@@std@@YA?AUrandom_access_iterator_tag@0@ABQAPAUIDirect3DTexture9@@0@Z 006d9530 f i opengl_directx.obj
 0002:000c55a0       ??$_Ptr_cat@PAPAUIDirect3DTexture9@@PAPAU1@@std@@YA?AU_Scalar_ptr_iterator_tag@0@AAPAPAUIDirect3DTexture9@@0@Z 006d95a0 f i opengl_directx.obj
 0002:000c5610       ??$_Copy_opt@PAPAUIDirect3DTexture9@@PAPAU1@Urandom_access_iterator_tag@std@@@std@@YAPAPAUIDirect3DTexture9@@PAPAU1@00Urandom_access_iterator_tag@0@U_Scalar_ptr_iterator_tag@0@U_Range_checked_iterator_tag@0@@Z 006d9610 f i opengl_directx.obj
 0002:000c56f0       ??$_Uninit_fill_n@PAPAUIDirect3DTexture9@@IPAU1@V?$allocator@PAUIDirect3DTexture9@@@std@@@std@@YAXPAPAUIDirect3DTexture9@@IABQAU1@AAV?$allocator@PAUIDirect3DTexture9@@@0@U_Scalar_ptr_iterator_tag@0@U_Range_checked_iterator_tag@0@@Z 006d96f0 f i opengl_directx.obj
 0002:000c5750       ??$_Ptr_cat@PAPAVCommand@OpenGLD3D@@PAPAV12@@std@@YA?AU_Scalar_ptr_iterator_tag@0@AAPAPAVCommand@OpenGLD3D@@0@Z 006d9750 f i opengl_directx.obj
 0002:000c57c0       ??$_Destroy_range@PAVCommand@OpenGLD3D@@V?$allocator@PAVCommand@OpenGLD3D@@@std@@@std@@YAXPAPAVCommand@OpenGLD3D@@0AAV?$allocator@PAVCommand@OpenGLD3D@@@0@U_Scalar_ptr_iterator_tag@0@@Z 006d97c0 f i opengl_directx.obj
 0002:000c57f0       ??$_Ptr_cat@PAUCustomVertex@OpenGLD3D@@PAU12@@std@@YA?AU_Nonscalar_ptr_iterator_tag@0@AAPAUCustomVertex@OpenGLD3D@@0@Z 006d97f0 f i opengl_directx.obj
 0002:000c5860       ??$_Destroy_range@UCustomVertex@OpenGLD3D@@V?$allocator@UCustomVertex@OpenGLD3D@@@std@@@std@@YAXPAUCustomVertex@OpenGLD3D@@0AAV?$allocator@UCustomVertex@OpenGLD3D@@@0@U_Nonscalar_ptr_iterator_tag@0@@Z 006d9860 f i opengl_directx.obj
 0002:000c58d0       ??$_Destroy_range@PAUIDirect3DTexture9@@V?$allocator@PAUIDirect3DTexture9@@@std@@@std@@YAXPAPAUIDirect3DTexture9@@0AAV?$allocator@PAUIDirect3DTexture9@@@0@U_Scalar_ptr_iterator_tag@0@@Z 006d98d0 f i opengl_directx.obj
 0002:000c5900       ??$_Unchecked_uninitialized_move@PAPAUIDirect3DTexture9@@PAPAU1@V?$allocator@PAUIDirect3DTexture9@@@std@@@stdext@@YAPAPAUIDirect3DTexture9@@PAPAU1@00AAV?$allocator@PAUIDirect3DTexture9@@@std@@@Z 006d9900 f i opengl_directx.obj
 0002:000c59b0       ??$_Fill@PAPAUIDirect3DTexture9@@PAU1@@std@@YAXPAPAUIDirect3DTexture9@@0ABQAU1@@Z 006d99b0 f i opengl_directx.obj
 0002:000c5a40       ??$_Move_cat@PAPAUIDirect3DTexture9@@@std@@YA?AU_Undefined_move_tag@0@ABQAPAUIDirect3DTexture9@@@Z 006d9a40 f i opengl_directx.obj
 0002:000c5ab0       ??$_Move_backward_opt@PAPAUIDirect3DTexture9@@PAPAU1@Urandom_access_iterator_tag@std@@U_Undefined_move_tag@3@@std@@YAPAPAUIDirect3DTexture9@@PAPAU1@00Urandom_access_iterator_tag@0@U_Undefined_move_tag@0@U_Range_checked_iterator_tag@0@@Z 006d9ab0 f i opengl_directx.obj
 0002:000c5b50       ?destroy@?$allocator@UCustomVertex@OpenGLD3D@@@std@@QAEXPAUCustomVertex@OpenGLD3D@@@Z 006d9b50 f i opengl_directx.obj
 0002:000c5bb0       ??$_Checked_base@PAPAUIDirect3DTexture9@@@std@@YAPAPAUIDirect3DTexture9@@AAPAPAU1@U_Unchanged_checked_iterator_base_type_tag@0@@Z 006d9bb0 f i opengl_directx.obj
 0002:000c5bf0       ??$_Debug_range@PAPAUIDirect3DTexture9@@@std@@YAXPAPAUIDirect3DTexture9@@0PB_WI@Z 006d9bf0 f i opengl_directx.obj
 0002:000c5c70       ??$_Debug_pointer@PAUIDirect3DTexture9@@@std@@YAXPAPAUIDirect3DTexture9@@PB_WI@Z 006d9c70 f i opengl_directx.obj
 0002:000c5cd0       ??$unchecked_fill_n@PAPAUIDirect3DTexture9@@IPAU1@@stdext@@YAXPAPAUIDirect3DTexture9@@IABQAU1@@Z 006d9cd0 f i opengl_directx.obj
 0002:000c5d60       ??$_Uninit_move@PAPAUIDirect3DTexture9@@PAPAU1@V?$allocator@PAUIDirect3DTexture9@@@std@@U_Undefined_move_tag@3@@std@@YAPAPAUIDirect3DTexture9@@PAPAU1@00AAV?$allocator@PAUIDirect3DTexture9@@@0@U_Undefined_move_tag@0@U_Range_checked_iterator_tag@0@@Z 006d9d60 f i opengl_directx.obj
 0002:000c5dc0       ??$_Copy_backward_opt@PAPAUIDirect3DTexture9@@PAPAU1@Urandom_access_iterator_tag@std@@@std@@YAPAPAUIDirect3DTexture9@@PAPAU1@00Urandom_access_iterator_tag@0@U_Scalar_ptr_iterator_tag@0@U_Range_checked_iterator_tag@0@@Z 006d9dc0 f i opengl_directx.obj
 0002:000c5ea0       ??$_Destroy@UCustomVertex@OpenGLD3D@@@std@@YAXPAUCustomVertex@OpenGLD3D@@@Z 006d9ea0 f i opengl_directx.obj
 0002:000c5ed0       ??$_Iter_cat@PAPAUIDirect3DTexture9@@@std@@YA?AUrandom_access_iterator_tag@0@ABQAPAUIDirect3DTexture9@@@Z 006d9ed0 f i opengl_directx.obj
 0002:000c5f40       ??$_Debug_range2@PAPAUIDirect3DTexture9@@@std@@YAXPAPAUIDirect3DTexture9@@0PB_WIUrandom_access_iterator_tag@0@@Z 006d9f40 f i opengl_directx.obj
 0002:000c5fe0       ??$_Fill_n@PAPAUIDirect3DTexture9@@IPAU1@@std@@YAXPAPAUIDirect3DTexture9@@IABQAU1@Urandom_access_iterator_tag@0@U_Range_checked_iterator_tag@0@@Z 006d9fe0 f i opengl_directx.obj
 0002:000c6070       ??$unchecked_uninitialized_copy@PAPAUIDirect3DTexture9@@PAPAU1@V?$allocator@PAUIDirect3DTexture9@@@std@@@stdext@@YAPAPAUIDirect3DTexture9@@PAPAU1@00AAV?$allocator@PAUIDirect3DTexture9@@@std@@@Z 006da070 f i opengl_directx.obj
 0002:000c6120       ??$_Fill_n@PAPAUIDirect3DTexture9@@IPAU1@@std@@YAXPAPAUIDirect3DTexture9@@IABQAU1@U_Range_checked_iterator_tag@0@@Z 006da120 f i opengl_directx.obj
 0002:000c6190       ??$_Uninit_copy@PAPAUIDirect3DTexture9@@PAPAU1@V?$allocator@PAUIDirect3DTexture9@@@std@@@std@@YAPAPAUIDirect3DTexture9@@PAPAU1@00AAV?$allocator@PAUIDirect3DTexture9@@@0@U_Scalar_ptr_iterator_tag@0@U_Range_checked_iterator_tag@0@@Z 006da190 f i opengl_directx.obj
 0002:000c6260       ??0?$vector@PAUIDirect3DTexture9@@V?$allocator@PAUIDirect3DTexture9@@@std@@@std@@QAE@XZ 006da260 f i opengl_directx.obj
 0002:000c6320       ??1?$_Vector_val@PAUIDirect3DTexture9@@V?$allocator@PAUIDirect3DTexture9@@@std@@@std@@QAE@XZ 006da320 f i opengl_directx.obj
 0002:000c6370       ?_Buy@?$vector@PAUIDirect3DTexture9@@V?$allocator@PAUIDirect3DTexture9@@@std@@@std@@IAE_NI@Z 006da370 f i opengl_directx.obj
 0002:000c6450       ??0?$_Vector_val@PAUIDirect3DTexture9@@V?$allocator@PAUIDirect3DTexture9@@@std@@@std@@IAE@V?$allocator@PAUIDirect3DTexture9@@@1@@Z 006da450 f i opengl_directx.obj
 0002:000c64c0       ??0?$allocator@PAUIDirect3DTexture9@@@std@@QAE@XZ 006da4c0 f i opengl_directx.obj
 0002:000c6500       ??0?$allocator@PAUIDirect3DTexture9@@@std@@QAE@ABV01@@Z 006da500 f i opengl_directx.obj
 0002:000c6540       ??0?$map@IPAVDisplayList@OpenGLD3D@@U?$less@I@std@@V?$allocator@U?$pair@$$CBIPAVDisplayList@OpenGLD3D@@@std@@@4@@std@@QAE@XZ 006da540 f i opengl_directx.obj
 0002:000c65b0       ??0?$_Tree@V?$_Tmap_traits@IPAVDisplayList@OpenGLD3D@@U?$less@I@std@@V?$allocator@U?$pair@$$CBIPAVDisplayList@OpenGLD3D@@@std@@@4@$0A@@std@@@std@@QAE@ABU?$less@I@1@ABV?$allocator@U?$pair@$$CBIPAVDisplayList@OpenGLD3D@@@std@@@1@@Z 006da5b0 f i opengl_directx.obj
 0002:000c6670       ??1?$_Tree_val@V?$_Tmap_traits@IPAVDisplayList@OpenGLD3D@@U?$less@I@std@@V?$allocator@U?$pair@$$CBIPAVDisplayList@OpenGLD3D@@@std@@@4@$0A@@std@@@std@@QAE@XZ 006da670 f i opengl_directx.obj
 0002:000c66c0       ??1?$_Tree_ptr@V?$_Tmap_traits@IPAVDisplayList@OpenGLD3D@@U?$less@I@std@@V?$allocator@U?$pair@$$CBIPAVDisplayList@OpenGLD3D@@@std@@@4@$0A@@std@@@std@@QAE@XZ 006da6c0 f i opengl_directx.obj
 0002:000c6710       ??1?$_Tree_nod@V?$_Tmap_traits@IPAVDisplayList@OpenGLD3D@@U?$less@I@std@@V?$allocator@U?$pair@$$CBIPAVDisplayList@OpenGLD3D@@@std@@@4@$0A@@std@@@std@@QAE@XZ 006da710 f i opengl_directx.obj
 0002:000c6760       ??1?$_Tmap_traits@IPAVDisplayList@OpenGLD3D@@U?$less@I@std@@V?$allocator@U?$pair@$$CBIPAVDisplayList@OpenGLD3D@@@std@@@4@$0A@@std@@QAE@XZ 006da760 f i opengl_directx.obj
 0002:000c67b0       ??0?$allocator@U?$pair@$$CBIPAVDisplayList@OpenGLD3D@@@std@@@std@@QAE@XZ 006da7b0 f i opengl_directx.obj
 0002:000c67f0       ?_Init@?$_Tree@V?$_Tmap_traits@IPAVDisplayList@OpenGLD3D@@U?$less@I@std@@V?$allocator@U?$pair@$$CBIPAVDisplayList@OpenGLD3D@@@std@@@4@$0A@@std@@@std@@IAEXXZ 006da7f0 f i opengl_directx.obj
 0002:000c68b0       ??0?$_Tree_val@V?$_Tmap_traits@IPAVDisplayList@OpenGLD3D@@U?$less@I@std@@V?$allocator@U?$pair@$$CBIPAVDisplayList@OpenGLD3D@@@std@@@4@$0A@@std@@@std@@IAE@ABU?$less@I@1@V?$allocator@U?$pair@$$CBIPAVDisplayList@OpenGLD3D@@@std@@@1@@Z 006da8b0 f i opengl_directx.obj
 0002:000c6940       ??0?$allocator@U?$pair@$$CBIPAVDisplayList@OpenGLD3D@@@std@@@std@@QAE@ABV01@@Z 006da940 f i opengl_directx.obj
 0002:000c6980       ?_Buynode@?$_Tree@V?$_Tmap_traits@IPAVDisplayList@OpenGLD3D@@U?$less@I@std@@V?$allocator@U?$pair@$$CBIPAVDisplayList@OpenGLD3D@@@std@@@4@$0A@@std@@@std@@IAEPAU_Node@?$_Tree_nod@V?$_Tmap_traits@IPAVDisplayList@OpenGLD3D@@U?$less@I@std@@V?$allocator@U?$pair@$$CBIPAVDisplayList@OpenGLD3D@@@std@@@4@$0A@@std@@@2@XZ 006da980 f i opengl_directx.obj
 0002:000c6bc0       ?destroy@?$allocator@PAU_Node@?$_Tree_nod@V?$_Tmap_traits@IPAVDisplayList@OpenGLD3D@@U?$less@I@std@@V?$allocator@U?$pair@$$CBIPAVDisplayList@OpenGLD3D@@@std@@@4@$0A@@std@@@std@@@std@@QAEXPAPAU_Node@?$_Tree_nod@V?$_Tmap_traits@IPAVDisplayList@OpenGLD3D@@U?$less@I@std@@V?$allocator@U?$pair@$$CBIPAVDisplayList@OpenGLD3D@@@std@@@4@$0A@@std@@@2@@Z 006dabc0 f i opengl_directx.obj
 0002:000c6c20       ??0?$_Tree_ptr@V?$_Tmap_traits@IPAVDisplayList@OpenGLD3D@@U?$less@I@std@@V?$allocator@U?$pair@$$CBIPAVDisplayList@OpenGLD3D@@@std@@@4@$0A@@std@@@std@@QAE@ABU?$less@I@1@V?$allocator@U?$pair@$$CBIPAVDisplayList@OpenGLD3D@@@std@@@1@@Z 006dac20 f i opengl_directx.obj
 0002:000c6cb0       ??0?$_Tree_nod@V?$_Tmap_traits@IPAVDisplayList@OpenGLD3D@@U?$less@I@std@@V?$allocator@U?$pair@$$CBIPAVDisplayList@OpenGLD3D@@@std@@@4@$0A@@std@@@std@@IAE@ABU?$less@I@1@V?$allocator@U?$pair@$$CBIPAVDisplayList@OpenGLD3D@@@std@@@1@@Z 006dacb0 f i opengl_directx.obj
 0002:000c6d20       ?construct@?$allocator@PAU_Node@?$_Tree_nod@V?$_Tmap_traits@IPAVDisplayList@OpenGLD3D@@U?$less@I@std@@V?$allocator@U?$pair@$$CBIPAVDisplayList@OpenGLD3D@@@std@@@4@$0A@@std@@@std@@@std@@QAEXPAPAU_Node@?$_Tree_nod@V?$_Tmap_traits@IPAVDisplayList@OpenGLD3D@@U?$less@I@std@@V?$allocator@U?$pair@$$CBIPAVDisplayList@OpenGLD3D@@@std@@@4@$0A@@std@@@2@ABQAU342@@Z 006dad20 f i opengl_directx.obj
 0002:000c6d80       ??0?$_Tmap_traits@IPAVDisplayList@OpenGLD3D@@U?$less@I@std@@V?$allocator@U?$pair@$$CBIPAVDisplayList@OpenGLD3D@@@std@@@4@$0A@@std@@QAE@U?$less@I@1@@Z 006dad80 f i opengl_directx.obj
 0002:000c6de0       ??$_Destroy@PAU_Node@?$_Tree_nod@V?$_Tmap_traits@IPAVDisplayList@OpenGLD3D@@U?$less@I@std@@V?$allocator@U?$pair@$$CBIPAVDisplayList@OpenGLD3D@@@std@@@4@$0A@@std@@@std@@@std@@YAXPAPAU_Node@?$_Tree_nod@V?$_Tmap_traits@IPAVDisplayList@OpenGLD3D@@U?$less@I@std@@V?$allocator@U?$pair@$$CBIPAVDisplayList@OpenGLD3D@@@std@@@4@$0A@@std@@@0@@Z 006dade0 f i opengl_directx.obj
 0002:000c6e10       ??$?0U?$pair@$$CBIPAVDisplayList@OpenGLD3D@@@std@@@?$allocator@PAU_Node@?$_Tree_nod@V?$_Tmap_traits@IPAVDisplayList@OpenGLD3D@@U?$less@I@std@@V?$allocator@U?$pair@$$CBIPAVDisplayList@OpenGLD3D@@@std@@@4@$0A@@std@@@std@@@std@@QAE@ABV?$allocator@U?$pair@$$CBIPAVDisplayList@OpenGLD3D@@@std@@@1@@Z 006dae10 f i opengl_directx.obj
 0002:000c6e50       ??$?0U?$pair@$$CBIPAVDisplayList@OpenGLD3D@@@std@@@?$allocator@U_Node@?$_Tree_nod@V?$_Tmap_traits@IPAVDisplayList@OpenGLD3D@@U?$less@I@std@@V?$allocator@U?$pair@$$CBIPAVDisplayList@OpenGLD3D@@@std@@@4@$0A@@std@@@std@@@std@@QAE@ABV?$allocator@U?$pair@$$CBIPAVDisplayList@OpenGLD3D@@@std@@@1@@Z 006dae50 f i opengl_directx.obj
 0002:000c6e90       ??$_Construct@PAU_Node@?$_Tree_nod@V?$_Tmap_traits@IPAVDisplayList@OpenGLD3D@@U?$less@I@std@@V?$allocator@U?$pair@$$CBIPAVDisplayList@OpenGLD3D@@@std@@@4@$0A@@std@@@std@@PAU123@@std@@YAXPAPAU_Node@?$_Tree_nod@V?$_Tmap_traits@IPAVDisplayList@OpenGLD3D@@U?$less@I@std@@V?$allocator@U?$pair@$$CBIPAVDisplayList@OpenGLD3D@@@std@@@4@$0A@@std@@@0@ABQAU120@@Z 006dae90 f i opengl_directx.obj
 0002:000c6f30       ??0?$stack@VAttributes@@V?$deque@VAttributes@@V?$allocator@VAttributes@@@std@@@std@@@std@@QAE@XZ 006daf30 f i opengl_directx.obj
 0002:000c6f90       ??0?$deque@VAttributes@@V?$allocator@VAttributes@@@std@@@std@@QAE@XZ 006daf90 f i opengl_directx.obj
 0002:000c7030       ??0?$_Deque_val@VAttributes@@V?$allocator@VAttributes@@@std@@@std@@IAE@V?$allocator@VAttributes@@@1@@Z 006db030 f i opengl_directx.obj
 0002:000c70b0       ??0?$allocator@VAttributes@@@std@@QAE@XZ 006db0b0 f i opengl_directx.obj
 0002:000c70f0       ??0?$_Deque_map@VAttributes@@V?$allocator@VAttributes@@@std@@@std@@IAE@V?$allocator@VAttributes@@@1@@Z 006db0f0 f i opengl_directx.obj
 0002:000c7160       ??0?$allocator@VAttributes@@@std@@QAE@ABV01@@Z 006db160 f i opengl_directx.obj
 0002:000c71a0       ??$?0VAttributes@@@?$allocator@PAVAttributes@@@std@@QAE@ABV?$allocator@VAttributes@@@1@@Z 006db1a0 f i opengl_directx.obj
 0002:000c71e0       ??1?$vector@PAUIDirect3DTexture9@@V?$allocator@PAUIDirect3DTexture9@@@std@@@std@@QAE@XZ 006db1e0 f i opengl_directx.obj
 0002:000c7280       ?_Tidy@?$vector@PAUIDirect3DTexture9@@V?$allocator@PAUIDirect3DTexture9@@@std@@@std@@IAEXXZ 006db280 f i opengl_directx.obj
 0002:000c7350       ??1?$map@IPAVDisplayList@OpenGLD3D@@U?$less@I@std@@V?$allocator@U?$pair@$$CBIPAVDisplayList@OpenGLD3D@@@std@@@4@@std@@QAE@XZ 006db350 f i opengl_directx.obj
 0002:000c73a0       ??1?$_Tree@V?$_Tmap_traits@IPAVDisplayList@OpenGLD3D@@U?$less@I@std@@V?$allocator@U?$pair@$$CBIPAVDisplayList@OpenGLD3D@@@std@@@4@$0A@@std@@@std@@QAE@XZ 006db3a0 f i opengl_directx.obj
 0002:000c7440       ?_Tidy@?$_Tree@V?$_Tmap_traits@IPAVDisplayList@OpenGLD3D@@U?$less@I@std@@V?$allocator@U?$pair@$$CBIPAVDisplayList@OpenGLD3D@@@std@@@4@$0A@@std@@@std@@IAEXXZ 006db440 f i opengl_directx.obj
 0002:000c75e0       ??1?$stack@VAttributes@@V?$deque@VAttributes@@V?$allocator@VAttributes@@@std@@@std@@@std@@QAE@XZ 006db5e0 f i opengl_directx.obj
 0002:000c7630       ??1?$deque@VAttributes@@V?$allocator@VAttributes@@@std@@@std@@QAE@XZ 006db630 f i opengl_directx.obj
 0002:000c76d0       ??1?$_Deque_val@VAttributes@@V?$allocator@VAttributes@@@std@@@std@@QAE@XZ 006db6d0 f i opengl_directx.obj
 0002:000c7720       ??1?$_Deque_map@VAttributes@@V?$allocator@VAttributes@@@std@@@std@@QAE@XZ 006db720 f i opengl_directx.obj
 0002:000c7770       ?_Tidy@?$deque@VAttributes@@V?$allocator@VAttributes@@@std@@@std@@IAEXXZ 006db770 f i opengl_directx.obj
 0002:000c7890       ?empty@?$deque@VAttributes@@V?$allocator@VAttributes@@@std@@@std@@QBE_NXZ 006db890 f i opengl_directx.obj
 0002:000c78e0       ?pop_back@?$deque@VAttributes@@V?$allocator@VAttributes@@@std@@@std@@QAEXXZ 006db8e0 f i opengl_directx.obj
 0002:000c7a20       ?deallocate@?$allocator@VAttributes@@@std@@QAEXPAVAttributes@@I@Z 006dba20 f i opengl_directx.obj
 0002:000c7a80       ?deallocate@?$allocator@PAVAttributes@@@std@@QAEXPAPAVAttributes@@I@Z 006dba80 f i opengl_directx.obj
 0002:000c7ae0       ?destroy@?$allocator@PAVAttributes@@@std@@QAEXPAPAVAttributes@@@Z 006dbae0 f i opengl_directx.obj
 0002:000c7b40       ?_Orphan_off@?$deque@VAttributes@@V?$allocator@VAttributes@@@std@@@std@@IBEXI@Z 006dbb40 f i opengl_directx.obj
 0002:000c7cc0       ?destroy@?$allocator@VAttributes@@@std@@QAEXPAVAttributes@@@Z 006dbcc0 f i opengl_directx.obj
 0002:000c7d20       ??$_Destroy@PAVAttributes@@@std@@YAXPAPAVAttributes@@@Z 006dbd20 f i opengl_directx.obj
 0002:000c7d50       ??$_Destroy@VAttributes@@@std@@YAXPAVAttributes@@@Z 006dbd50 f i opengl_directx.obj
 0002:000c7d80       ??0DisplayList@OpenGLD3D@@QAE@ABV?$vector@PAVCommand@OpenGLD3D@@V?$allocator@PAVCommand@OpenGLD3D@@@std@@@std@@ABV?$vector@UCustomVertex@OpenGLD3D@@V?$allocator@UCustomVertex@OpenGLD3D@@@std@@@3@@Z 006dbd80 f   opengl_directx_dlist.obj
 0002:000c8160       ??1DisplayList@OpenGLD3D@@QAE@XZ 006dc160 f   opengl_directx_dlist.obj
 0002:000c8240       ?Draw@DisplayList@OpenGLD3D@@QAEXXZ 006dc240 f   opengl_directx_dlist.obj
 0002:000c8310       ??0CommandDrawPrimitive@OpenGLD3D@@QAE@W4_D3DPRIMITIVETYPE@@II@Z 006dc310 f   opengl_directx_dlist.obj
 0002:000c83a0       ??0Command@OpenGLD3D@@QAE@XZ 006dc3a0 f i opengl_directx_dlist.obj
 0002:000c83f0       ?Execute@CommandDrawPrimitive@OpenGLD3D@@UAEXXZ 006dc3f0 f   opengl_directx_dlist.obj
 0002:000c8480       ??0CommandLoadTransform@OpenGLD3D@@QAE@PAVMatrixStack@1@ABU_D3DMATRIX@@@Z 006dc480 f   opengl_directx_dlist.obj
 0002:000c8500       ?Execute@CommandLoadTransform@OpenGLD3D@@UAEXXZ 006dc500 f   opengl_directx_dlist.obj
 0002:000c85a0       ??0CommandMultiplyTransform@OpenGLD3D@@QAE@PAVMatrixStack@1@ABUD3DXMATRIX@@@Z 006dc5a0 f   opengl_directx_dlist.obj
 0002:000c8620       ?Execute@CommandMultiplyTransform@OpenGLD3D@@UAEXXZ 006dc620 f   opengl_directx_dlist.obj
 0002:000c86c0       ??0CommandPushMatrix@OpenGLD3D@@QAE@PAVMatrixStack@1@@Z 006dc6c0 f   opengl_directx_dlist.obj
 0002:000c8730       ?Execute@CommandPushMatrix@OpenGLD3D@@UAEXXZ 006dc730 f   opengl_directx_dlist.obj
 0002:000c87a0       ??0CommandPopMatrix@OpenGLD3D@@QAE@PAVMatrixStack@1@@Z 006dc7a0 f   opengl_directx_dlist.obj
 0002:000c8810       ?Execute@CommandPopMatrix@OpenGLD3D@@UAEXXZ 006dc810 f   opengl_directx_dlist.obj
 0002:000c88a0       ?size@?$vector@PAVCommand@OpenGLD3D@@V?$allocator@PAVCommand@OpenGLD3D@@@std@@@std@@QBEIXZ 006dc8a0 f i opengl_directx_dlist.obj
 0002:000c8910       ??A?$vector@PAVCommand@OpenGLD3D@@V?$allocator@PAVCommand@OpenGLD3D@@@std@@@std@@QBEABQAVCommand@OpenGLD3D@@I@Z 006dc910 f i opengl_directx_dlist.obj
 0002:000c8a50       ?size@?$vector@UCustomVertex@OpenGLD3D@@V?$allocator@UCustomVertex@OpenGLD3D@@@std@@@std@@QBEIXZ 006dca50 f i opengl_directx_dlist.obj
 0002:000c8ad0       ??A?$vector@UCustomVertex@OpenGLD3D@@V?$allocator@UCustomVertex@OpenGLD3D@@@std@@@std@@QBEABUCustomVertex@OpenGLD3D@@I@Z 006dcad0 f i opengl_directx_dlist.obj
 0002:000c8c10       ?DrawPrimitiveUP@DisplayListDevice@OpenGLD3D@@EAGJW4_D3DPRIMITIVETYPE@@IPBXI@Z 006dcc10 f   opengl_directx_dlist_dev.obj
 0002:000c8ee0       ?RecordLoadTransform@DisplayListDevice@OpenGLD3D@@QAEXPAVMatrixStack@2@ABUD3DXMATRIX@@@Z 006dcee0 f   opengl_directx_dlist_dev.obj
 0002:000c8ff0       ?RecordPushMatrix@DisplayListDevice@OpenGLD3D@@QAEXPAVMatrixStack@2@@Z 006dcff0 f   opengl_directx_dlist_dev.obj
 0002:000c9100       ?RecordPopMatrix@DisplayListDevice@OpenGLD3D@@QAEXPAVMatrixStack@2@@Z 006dd100 f   opengl_directx_dlist_dev.obj
 0002:000c9210       ?RecordMultMatrix@DisplayListDevice@OpenGLD3D@@QAEXPAVMatrixStack@2@ABUD3DXMATRIX@@@Z 006dd210 f   opengl_directx_dlist_dev.obj
 0002:000c9320       ?Compile@DisplayListDevice@OpenGLD3D@@QAEPAVDisplayList@2@XZ 006dd320 f   opengl_directx_dlist_dev.obj
 0002:000c9420       ?push_back@?$vector@PAVCommand@OpenGLD3D@@V?$allocator@PAVCommand@OpenGLD3D@@@std@@@std@@QAEXABQAVCommand@OpenGLD3D@@@Z 006dd420 f i opengl_directx_dlist_dev.obj
 0002:000c9510       ?push_back@?$vector@UCustomVertex@OpenGLD3D@@V?$allocator@UCustomVertex@OpenGLD3D@@@std@@@std@@QAEXABUCustomVertex@OpenGLD3D@@@Z 006dd510 f i opengl_directx_dlist_dev.obj
 0002:000c9600       ??1?$_Vector_iterator@PAVCommand@OpenGLD3D@@V?$allocator@PAVCommand@OpenGLD3D@@@std@@@std@@QAE@XZ 006dd600 f i opengl_directx_dlist_dev.obj
 0002:000c9650       ??1?$_Vector_iterator@UCustomVertex@OpenGLD3D@@V?$allocator@UCustomVertex@OpenGLD3D@@@std@@@std@@QAE@XZ 006dd650 f i opengl_directx_dlist_dev.obj
 0002:000c96a0       ??1?$_Vector_const_iterator@PAVCommand@OpenGLD3D@@V?$allocator@PAVCommand@OpenGLD3D@@@std@@@std@@QAE@XZ 006dd6a0 f i opengl_directx_dlist_dev.obj
 0002:000c96f0       ??1?$_Vector_const_iterator@UCustomVertex@OpenGLD3D@@V?$allocator@UCustomVertex@OpenGLD3D@@@std@@@std@@QAE@XZ 006dd6f0 f i opengl_directx_dlist_dev.obj
 0002:000c9740       ??1?$_Ranit@PAVCommand@OpenGLD3D@@HPBQAV12@ABQAV12@@std@@QAE@XZ 006dd740 f i opengl_directx_dlist_dev.obj
 0002:000c9790       ??1?$_Ranit@UCustomVertex@OpenGLD3D@@HPBU12@ABU12@@std@@QAE@XZ 006dd790 f i opengl_directx_dlist_dev.obj
 0002:000c97e0       ?capacity@?$vector@PAVCommand@OpenGLD3D@@V?$allocator@PAVCommand@OpenGLD3D@@@std@@@std@@QBEIXZ 006dd7e0 f i opengl_directx_dlist_dev.obj
 0002:000c9850       ?end@?$vector@PAVCommand@OpenGLD3D@@V?$allocator@PAVCommand@OpenGLD3D@@@std@@@std@@QAE?AV?$_Vector_iterator@PAVCommand@OpenGLD3D@@V?$allocator@PAVCommand@OpenGLD3D@@@std@@@2@XZ 006dd850 f i opengl_directx_dlist_dev.obj
 0002:000c98e0       ?insert@?$vector@PAVCommand@OpenGLD3D@@V?$allocator@PAVCommand@OpenGLD3D@@@std@@@std@@QAE?AV?$_Vector_iterator@PAVCommand@OpenGLD3D@@V?$allocator@PAVCommand@OpenGLD3D@@@std@@@2@V32@ABQAVCommand@OpenGLD3D@@@Z 006dd8e0 f i opengl_directx_dlist_dev.obj
 0002:000c9ae0       ?_Ufill@?$vector@PAVCommand@OpenGLD3D@@V?$allocator@PAVCommand@OpenGLD3D@@@std@@@std@@IAEPAPAVCommand@OpenGLD3D@@PAPAV34@IABQAV34@@Z 006ddae0 f i opengl_directx_dlist_dev.obj
 0002:000c9b60       ?_Orphan_range@?$vector@PAVCommand@OpenGLD3D@@V?$allocator@PAVCommand@OpenGLD3D@@@std@@@std@@IBEXPAPAVCommand@OpenGLD3D@@0@Z 006ddb60 f i opengl_directx_dlist_dev.obj
 0002:000c9c60       ?capacity@?$vector@UCustomVertex@OpenGLD3D@@V?$allocator@UCustomVertex@OpenGLD3D@@@std@@@std@@QBEIXZ 006ddc60 f i opengl_directx_dlist_dev.obj
 0002:000c9ce0       ?end@?$vector@UCustomVertex@OpenGLD3D@@V?$allocator@UCustomVertex@OpenGLD3D@@@std@@@std@@QAE?AV?$_Vector_iterator@UCustomVertex@OpenGLD3D@@V?$allocator@UCustomVertex@OpenGLD3D@@@std@@@2@XZ 006ddce0 f i opengl_directx_dlist_dev.obj
 0002:000c9d70       ?insert@?$vector@UCustomVertex@OpenGLD3D@@V?$allocator@UCustomVertex@OpenGLD3D@@@std@@@std@@QAE?AV?$_Vector_iterator@UCustomVertex@OpenGLD3D@@V?$allocator@UCustomVertex@OpenGLD3D@@@std@@@2@V32@ABUCustomVertex@OpenGLD3D@@@Z 006ddd70 f i opengl_directx_dlist_dev.obj
 0002:000c9f70       ?_Ufill@?$vector@UCustomVertex@OpenGLD3D@@V?$allocator@UCustomVertex@OpenGLD3D@@@std@@@std@@IAEPAUCustomVertex@OpenGLD3D@@PAU34@IABU34@@Z 006ddf70 f i opengl_directx_dlist_dev.obj
 0002:000c9ff0       ?_Orphan_range@?$vector@UCustomVertex@OpenGLD3D@@V?$allocator@UCustomVertex@OpenGLD3D@@@std@@@std@@IBEXPAUCustomVertex@OpenGLD3D@@0@Z 006ddff0 f i opengl_directx_dlist_dev.obj
 0002:000ca0f0       ??0?$_Vector_iterator@PAVCommand@OpenGLD3D@@V?$allocator@PAVCommand@OpenGLD3D@@@std@@@std@@QAE@ABV01@@Z 006de0f0 f i opengl_directx_dlist_dev.obj
 0002:000ca150       ??0?$_Vector_iterator@UCustomVertex@OpenGLD3D@@V?$allocator@UCustomVertex@OpenGLD3D@@@std@@@std@@QAE@ABV01@@Z 006de150 f i opengl_directx_dlist_dev.obj
 0002:000ca1b0       ??0?$_Vector_const_iterator@PAVCommand@OpenGLD3D@@V?$allocator@PAVCommand@OpenGLD3D@@@std@@@std@@QAE@ABV01@@Z 006de1b0 f i opengl_directx_dlist_dev.obj
 0002:000ca220       ??0?$_Vector_const_iterator@UCustomVertex@OpenGLD3D@@V?$allocator@UCustomVertex@OpenGLD3D@@@std@@@std@@QAE@ABV01@@Z 006de220 f i opengl_directx_dlist_dev.obj
 0002:000ca290       ??0?$_Ranit@PAVCommand@OpenGLD3D@@HPBQAV12@ABQAV12@@std@@QAE@ABU01@@Z 006de290 f i opengl_directx_dlist_dev.obj
 0002:000ca2f0       ??0?$_Ranit@UCustomVertex@OpenGLD3D@@HPBU12@ABU12@@std@@QAE@ABU01@@Z 006de2f0 f i opengl_directx_dlist_dev.obj
 0002:000ca350       ?begin@?$vector@PAVCommand@OpenGLD3D@@V?$allocator@PAVCommand@OpenGLD3D@@@std@@@std@@QAE?AV?$_Vector_iterator@PAVCommand@OpenGLD3D@@V?$allocator@PAVCommand@OpenGLD3D@@@std@@@2@XZ 006de350 f i opengl_directx_dlist_dev.obj
 0002:000ca3e0       ?_Insert_n@?$vector@PAVCommand@OpenGLD3D@@V?$allocator@PAVCommand@OpenGLD3D@@@std@@@std@@IAEXV?$_Vector_iterator@PAVCommand@OpenGLD3D@@V?$allocator@PAVCommand@OpenGLD3D@@@std@@@2@IABQAVCommand@OpenGLD3D@@@Z 006de3e0 f i opengl_directx_dlist_dev.obj
 0002:000ca910       ?begin@?$vector@UCustomVertex@OpenGLD3D@@V?$allocator@UCustomVertex@OpenGLD3D@@@std@@@std@@QAE?AV?$_Vector_iterator@UCustomVertex@OpenGLD3D@@V?$allocator@UCustomVertex@OpenGLD3D@@@std@@@2@XZ 006de910 f i opengl_directx_dlist_dev.obj
 0002:000ca9a0       ?_Insert_n@?$vector@UCustomVertex@OpenGLD3D@@V?$allocator@UCustomVertex@OpenGLD3D@@@std@@@std@@IAEXV?$_Vector_iterator@UCustomVertex@OpenGLD3D@@V?$allocator@UCustomVertex@OpenGLD3D@@@std@@@2@IABUCustomVertex@OpenGLD3D@@@Z 006de9a0 f i opengl_directx_dlist_dev.obj
 0002:000caee0       ??0?$_Vector_iterator@PAVCommand@OpenGLD3D@@V?$allocator@PAVCommand@OpenGLD3D@@@std@@@std@@QAE@PAPAVCommand@OpenGLD3D@@PBV_Container_base@1@@Z 006deee0 f i opengl_directx_dlist_dev.obj
 0002:000caf40       ??H?$_Vector_iterator@PAVCommand@OpenGLD3D@@V?$allocator@PAVCommand@OpenGLD3D@@@std@@@std@@QBE?AV01@H@Z 006def40 f i opengl_directx_dlist_dev.obj
 0002:000cb060       ??G?$_Vector_iterator@PAVCommand@OpenGLD3D@@V?$allocator@PAVCommand@OpenGLD3D@@@std@@@std@@QBEHABV?$_Vector_const_iterator@PAVCommand@OpenGLD3D@@V?$allocator@PAVCommand@OpenGLD3D@@@std@@@1@@Z 006df060 f i opengl_directx_dlist_dev.obj
 0002:000cb0c0       ??0?$_Vector_iterator@UCustomVertex@OpenGLD3D@@V?$allocator@UCustomVertex@OpenGLD3D@@@std@@@std@@QAE@PAUCustomVertex@OpenGLD3D@@PBV_Container_base@1@@Z 006df0c0 f i opengl_directx_dlist_dev.obj
 0002:000cb120       ??H?$_Vector_iterator@UCustomVertex@OpenGLD3D@@V?$allocator@UCustomVertex@OpenGLD3D@@@std@@@std@@QBE?AV01@H@Z 006df120 f i opengl_directx_dlist_dev.obj
 0002:000cb240       ??G?$_Vector_iterator@UCustomVertex@OpenGLD3D@@V?$allocator@UCustomVertex@OpenGLD3D@@@std@@@std@@QBEHABV?$_Vector_const_iterator@UCustomVertex@OpenGLD3D@@V?$allocator@UCustomVertex@OpenGLD3D@@@std@@@1@@Z 006df240 f i opengl_directx_dlist_dev.obj
 0002:000cb2a0       ??Y?$_Vector_iterator@PAVCommand@OpenGLD3D@@V?$allocator@PAVCommand@OpenGLD3D@@@std@@@std@@QAEAAV01@H@Z 006df2a0 f i opengl_directx_dlist_dev.obj
 0002:000cb300       ??0?$_Vector_const_iterator@PAVCommand@OpenGLD3D@@V?$allocator@PAVCommand@OpenGLD3D@@@std@@@std@@QAE@PAPAVCommand@OpenGLD3D@@PBV_Container_base@1@@Z 006df300 f i opengl_directx_dlist_dev.obj
 0002:000cb430       ??G?$_Vector_const_iterator@PAVCommand@OpenGLD3D@@V?$allocator@PAVCommand@OpenGLD3D@@@std@@@std@@QBEHABV01@@Z 006df430 f i opengl_directx_dlist_dev.obj
 0002:000cb4a0       ??Y?$_Vector_iterator@UCustomVertex@OpenGLD3D@@V?$allocator@UCustomVertex@OpenGLD3D@@@std@@@std@@QAEAAV01@H@Z 006df4a0 f i opengl_directx_dlist_dev.obj
 0002:000cb500       ??0?$_Vector_const_iterator@UCustomVertex@OpenGLD3D@@V?$allocator@UCustomVertex@OpenGLD3D@@@std@@@std@@QAE@PAUCustomVertex@OpenGLD3D@@PBV_Container_base@1@@Z 006df500 f i opengl_directx_dlist_dev.obj
 0002:000cb630       ??G?$_Vector_const_iterator@UCustomVertex@OpenGLD3D@@V?$allocator@UCustomVertex@OpenGLD3D@@@std@@@std@@QBEHABV01@@Z 006df630 f i opengl_directx_dlist_dev.obj
 0002:000cb6a0       ??0?$_Ranit@PAVCommand@OpenGLD3D@@HPBQAV12@ABQAV12@@std@@QAE@XZ 006df6a0 f i opengl_directx_dlist_dev.obj
 0002:000cb700       ??0?$_Ranit@UCustomVertex@OpenGLD3D@@HPBU12@ABU12@@std@@QAE@XZ 006df700 f i opengl_directx_dlist_dev.obj
 0002:000cb760       ??Y?$_Vector_const_iterator@PAVCommand@OpenGLD3D@@V?$allocator@PAVCommand@OpenGLD3D@@@std@@@std@@QAEAAV01@H@Z 006df760 f i opengl_directx_dlist_dev.obj
 0002:000cb8b0       ?_Compat@?$_Vector_const_iterator@PAVCommand@OpenGLD3D@@V?$allocator@PAVCommand@OpenGLD3D@@@std@@@std@@QBEXABV12@@Z 006df8b0 f i opengl_directx_dlist_dev.obj
 0002:000cb980       ??Y?$_Vector_const_iterator@UCustomVertex@OpenGLD3D@@V?$allocator@UCustomVertex@OpenGLD3D@@@std@@@std@@QAEAAV01@H@Z 006df980 f i opengl_directx_dlist_dev.obj
 0002:000cbad0       ?_Compat@?$_Vector_const_iterator@UCustomVertex@OpenGLD3D@@V?$allocator@UCustomVertex@OpenGLD3D@@@std@@@std@@QBEXABV12@@Z 006dfad0 f i opengl_directx_dlist_dev.obj
 0002:000cbba0       ??$unchecked_uninitialized_fill_n@PAPAVCommand@OpenGLD3D@@IPAV12@V?$allocator@PAVCommand@OpenGLD3D@@@std@@@stdext@@YAXPAPAVCommand@OpenGLD3D@@IABQAV12@AAV?$allocator@PAVCommand@OpenGLD3D@@@std@@@Z 006dfba0 f i opengl_directx_dlist_dev.obj
 0002:000cbc40       ??$unchecked_uninitialized_fill_n@PAUCustomVertex@OpenGLD3D@@IU12@V?$allocator@UCustomVertex@OpenGLD3D@@@std@@@stdext@@YAXPAUCustomVertex@OpenGLD3D@@IABU12@AAV?$allocator@UCustomVertex@OpenGLD3D@@@std@@@Z 006dfc40 f i opengl_directx_dlist_dev.obj
 0002:000cbce0       ??$_Umove@PAPAVCommand@OpenGLD3D@@@?$vector@PAVCommand@OpenGLD3D@@V?$allocator@PAVCommand@OpenGLD3D@@@std@@@std@@IAEPAPAVCommand@OpenGLD3D@@PAPAV23@00@Z 006dfce0 f i opengl_directx_dlist_dev.obj
 0002:000cbd50       ??$fill@PAPAVCommand@OpenGLD3D@@PAV12@@std@@YAXPAPAVCommand@OpenGLD3D@@0ABQAV12@@Z 006dfd50 f i opengl_directx_dlist_dev.obj
 0002:000cbdc0       ??$_Unchecked_move_backward@PAPAVCommand@OpenGLD3D@@PAPAV12@@stdext@@YAPAPAVCommand@OpenGLD3D@@PAPAV12@00@Z 006dfdc0 f i opengl_directx_dlist_dev.obj
 0002:000cbe80       ??$_Umove@PAUCustomVertex@OpenGLD3D@@@?$vector@UCustomVertex@OpenGLD3D@@V?$allocator@UCustomVertex@OpenGLD3D@@@std@@@std@@IAEPAUCustomVertex@OpenGLD3D@@PAU23@00@Z 006dfe80 f i opengl_directx_dlist_dev.obj
 0002:000cbef0       ??$fill@PAUCustomVertex@OpenGLD3D@@U12@@std@@YAXPAUCustomVertex@OpenGLD3D@@0ABU12@@Z 006dfef0 f i opengl_directx_dlist_dev.obj
 0002:000cbf60       ??$_Unchecked_move_backward@PAUCustomVertex@OpenGLD3D@@PAU12@@stdext@@YAPAUCustomVertex@OpenGLD3D@@PAU12@00@Z 006dff60 f i opengl_directx_dlist_dev.obj
 0002:000cc020       ??$_Uninit_fill_n@PAPAVCommand@OpenGLD3D@@IPAV12@V?$allocator@PAVCommand@OpenGLD3D@@@std@@@std@@YAXPAPAVCommand@OpenGLD3D@@IABQAV12@AAV?$allocator@PAVCommand@OpenGLD3D@@@0@U_Scalar_ptr_iterator_tag@0@U_Range_checked_iterator_tag@0@@Z 006e0020 f i opengl_directx_dlist_dev.obj
 0002:000cc080       ??$_Uninit_fill_n@PAUCustomVertex@OpenGLD3D@@IU12@V?$allocator@UCustomVertex@OpenGLD3D@@@std@@@std@@YAXPAUCustomVertex@OpenGLD3D@@IABU12@AAV?$allocator@UCustomVertex@OpenGLD3D@@@0@U_Nonscalar_ptr_iterator_tag@0@U_Range_checked_iterator_tag@0@@Z 006e0080 f i opengl_directx_dlist_dev.obj
 0002:000cc1a0       ??$_Unchecked_uninitialized_move@PAPAVCommand@OpenGLD3D@@PAPAV12@V?$allocator@PAVCommand@OpenGLD3D@@@std@@@stdext@@YAPAPAVCommand@OpenGLD3D@@PAPAV12@00AAV?$allocator@PAVCommand@OpenGLD3D@@@std@@@Z 006e01a0 f i opengl_directx_dlist_dev.obj
 0002:000cc250       ??$_Checked_base@PAPAVCommand@OpenGLD3D@@@std@@YAPAPAVCommand@OpenGLD3D@@AAPAPAV12@@Z 006e0250 f i opengl_directx_dlist_dev.obj
 0002:000cc2e0       ??$_Fill@PAPAVCommand@OpenGLD3D@@PAV12@@std@@YAXPAPAVCommand@OpenGLD3D@@0ABQAV12@@Z 006e02e0 f i opengl_directx_dlist_dev.obj
 0002:000cc370       ??$_Iter_random@PAPAVCommand@OpenGLD3D@@PAPAV12@@std@@YA?AUrandom_access_iterator_tag@0@ABQAPAVCommand@OpenGLD3D@@0@Z 006e0370 f i opengl_directx_dlist_dev.obj
 0002:000cc3e0       ??$_Move_cat@PAPAVCommand@OpenGLD3D@@@std@@YA?AU_Undefined_move_tag@0@ABQAPAVCommand@OpenGLD3D@@@Z 006e03e0 f i opengl_directx_dlist_dev.obj
 0002:000cc450       ??$_Move_backward_opt@PAPAVCommand@OpenGLD3D@@PAPAV12@Urandom_access_iterator_tag@std@@U_Undefined_move_tag@4@@std@@YAPAPAVCommand@OpenGLD3D@@PAPAV12@00Urandom_access_iterator_tag@0@U_Undefined_move_tag@0@U_Range_checked_iterator_tag@0@@Z 006e0450 f i opengl_directx_dlist_dev.obj
 0002:000cc4f0       ??$_Unchecked_uninitialized_move@PAUCustomVertex@OpenGLD3D@@PAU12@V?$allocator@UCustomVertex@OpenGLD3D@@@std@@@stdext@@YAPAUCustomVertex@OpenGLD3D@@PAU12@00AAV?$allocator@UCustomVertex@OpenGLD3D@@@std@@@Z 006e04f0 f i opengl_directx_dlist_dev.obj
 0002:000cc5a0       ??$_Checked_base@PAUCustomVertex@OpenGLD3D@@@std@@YAPAUCustomVertex@OpenGLD3D@@AAPAU12@@Z 006e05a0 f i opengl_directx_dlist_dev.obj
 0002:000cc630       ??$_Fill@PAUCustomVertex@OpenGLD3D@@U12@@std@@YAXPAUCustomVertex@OpenGLD3D@@0ABU12@@Z 006e0630 f i opengl_directx_dlist_dev.obj
 0002:000cc6d0       ??$_Iter_random@PAUCustomVertex@OpenGLD3D@@PAU12@@std@@YA?AUrandom_access_iterator_tag@0@ABQAUCustomVertex@OpenGLD3D@@0@Z 006e06d0 f i opengl_directx_dlist_dev.obj
 0002:000cc740       ??$_Move_cat@PAUCustomVertex@OpenGLD3D@@@std@@YA?AU_Undefined_move_tag@0@ABQAUCustomVertex@OpenGLD3D@@@Z 006e0740 f i opengl_directx_dlist_dev.obj
 0002:000cc7b0       ??$_Move_backward_opt@PAUCustomVertex@OpenGLD3D@@PAU12@Urandom_access_iterator_tag@std@@U_Undefined_move_tag@4@@std@@YAPAUCustomVertex@OpenGLD3D@@PAU12@00Urandom_access_iterator_tag@0@U_Undefined_move_tag@0@U_Range_checked_iterator_tag@0@@Z 006e07b0 f i opengl_directx_dlist_dev.obj
 0002:000cc850       ?construct@?$allocator@UCustomVertex@OpenGLD3D@@@std@@QAEXPAUCustomVertex@OpenGLD3D@@ABU34@@Z 006e0850 f i opengl_directx_dlist_dev.obj
 0002:000cc8b0       ??$unchecked_fill_n@PAPAVCommand@OpenGLD3D@@IPAV12@@stdext@@YAXPAPAVCommand@OpenGLD3D@@IABQAV12@@Z 006e08b0 f i opengl_directx_dlist_dev.obj
 0002:000cc940       ??$_Uninit_move@PAPAVCommand@OpenGLD3D@@PAPAV12@V?$allocator@PAVCommand@OpenGLD3D@@@std@@U_Undefined_move_tag@4@@std@@YAPAPAVCommand@OpenGLD3D@@PAPAV12@00AAV?$allocator@PAVCommand@OpenGLD3D@@@0@U_Undefined_move_tag@0@U_Range_checked_iterator_tag@0@@Z 006e0940 f i opengl_directx_dlist_dev.obj
 0002:000cc9a0       ??$_Checked_base@PAPAVCommand@OpenGLD3D@@@std@@YAPAPAVCommand@OpenGLD3D@@AAPAPAV12@U_Unchanged_checked_iterator_base_type_tag@0@@Z 006e09a0 f i opengl_directx_dlist_dev.obj
 0002:000cc9e0       ??$_Debug_range@PAPAVCommand@OpenGLD3D@@@std@@YAXPAPAVCommand@OpenGLD3D@@0PB_WI@Z 006e09e0 f i opengl_directx_dlist_dev.obj
 0002:000cca60       ??$_Copy_backward_opt@PAPAVCommand@OpenGLD3D@@PAPAV12@Urandom_access_iterator_tag@std@@@std@@YAPAPAVCommand@OpenGLD3D@@PAPAV12@00Urandom_access_iterator_tag@0@U_Scalar_ptr_iterator_tag@0@U_Range_checked_iterator_tag@0@@Z 006e0a60 f i opengl_directx_dlist_dev.obj
 0002:000ccb40       ??$_Uninit_move@PAUCustomVertex@OpenGLD3D@@PAU12@V?$allocator@UCustomVertex@OpenGLD3D@@@std@@U_Undefined_move_tag@4@@std@@YAPAUCustomVertex@OpenGLD3D@@PAU12@00AAV?$allocator@UCustomVertex@OpenGLD3D@@@0@U_Undefined_move_tag@0@U_Range_checked_iterator_tag@0@@Z 006e0b40 f i opengl_directx_dlist_dev.obj
 0002:000ccba0       ??$_Checked_base@PAUCustomVertex@OpenGLD3D@@@std@@YAPAUCustomVertex@OpenGLD3D@@AAPAU12@U_Unchanged_checked_iterator_base_type_tag@0@@Z 006e0ba0 f i opengl_directx_dlist_dev.obj
 0002:000ccbe0       ??$_Debug_range@PAUCustomVertex@OpenGLD3D@@@std@@YAXPAUCustomVertex@OpenGLD3D@@0PB_WI@Z 006e0be0 f i opengl_directx_dlist_dev.obj
 0002:000ccc60       ??$_Copy_backward_opt@PAUCustomVertex@OpenGLD3D@@PAU12@@std@@YAPAUCustomVertex@OpenGLD3D@@PAU12@00Urandom_access_iterator_tag@0@U_Nonscalar_ptr_iterator_tag@0@U_Range_checked_iterator_tag@0@@Z 006e0c60 f i opengl_directx_dlist_dev.obj
 0002:000ccd20       ??$_Construct@UCustomVertex@OpenGLD3D@@U12@@std@@YAXPAUCustomVertex@OpenGLD3D@@ABU12@@Z 006e0d20 f i opengl_directx_dlist_dev.obj
 0002:000ccdc0       ??$_Iter_cat@PAPAVCommand@OpenGLD3D@@@std@@YA?AUrandom_access_iterator_tag@0@ABQAPAVCommand@OpenGLD3D@@@Z 006e0dc0 f i opengl_directx_dlist_dev.obj
 0002:000cce30       ??$_Fill_n@PAPAVCommand@OpenGLD3D@@IPAV12@@std@@YAXPAPAVCommand@OpenGLD3D@@IABQAV12@Urandom_access_iterator_tag@0@U_Range_checked_iterator_tag@0@@Z 006e0e30 f i opengl_directx_dlist_dev.obj
 0002:000ccec0       ??$unchecked_uninitialized_copy@PAPAVCommand@OpenGLD3D@@PAPAV12@V?$allocator@PAVCommand@OpenGLD3D@@@std@@@stdext@@YAPAPAVCommand@OpenGLD3D@@PAPAV12@00AAV?$allocator@PAVCommand@OpenGLD3D@@@std@@@Z 006e0ec0 f i opengl_directx_dlist_dev.obj
 0002:000ccf70       ??$_Debug_range2@PAPAVCommand@OpenGLD3D@@@std@@YAXPAPAVCommand@OpenGLD3D@@0PB_WIUrandom_access_iterator_tag@0@@Z 006e0f70 f i opengl_directx_dlist_dev.obj
 0002:000cd010       ??$_Debug_pointer@PAVCommand@OpenGLD3D@@@std@@YAXPAPAVCommand@OpenGLD3D@@PB_WI@Z 006e1010 f i opengl_directx_dlist_dev.obj
 0002:000cd070       ??$unchecked_uninitialized_copy@PAUCustomVertex@OpenGLD3D@@PAU12@V?$allocator@UCustomVertex@OpenGLD3D@@@std@@@stdext@@YAPAUCustomVertex@OpenGLD3D@@PAU12@00AAV?$allocator@UCustomVertex@OpenGLD3D@@@std@@@Z 006e1070 f i opengl_directx_dlist_dev.obj
 0002:000cd120       ??$_Iter_cat@PAUCustomVertex@OpenGLD3D@@@std@@YA?AUrandom_access_iterator_tag@0@ABQAUCustomVertex@OpenGLD3D@@@Z 006e1120 f i opengl_directx_dlist_dev.obj
 0002:000cd190       ??$_Debug_range2@PAUCustomVertex@OpenGLD3D@@@std@@YAXPAUCustomVertex@OpenGLD3D@@0PB_WIUrandom_access_iterator_tag@0@@Z 006e1190 f i opengl_directx_dlist_dev.obj
 0002:000cd230       ??$_Copy_backward_opt@PAUCustomVertex@OpenGLD3D@@PAU12@Uforward_iterator_tag@std@@@std@@YAPAUCustomVertex@OpenGLD3D@@PAU12@00Uforward_iterator_tag@0@U_Nonscalar_ptr_iterator_tag@0@U_Range_checked_iterator_tag@0@@Z 006e1230 f i opengl_directx_dlist_dev.obj
 0002:000cd2d0       ??$_Fill_n@PAPAVCommand@OpenGLD3D@@IPAV12@@std@@YAXPAPAVCommand@OpenGLD3D@@IABQAV12@U_Range_checked_iterator_tag@0@@Z 006e12d0 f i opengl_directx_dlist_dev.obj
 0002:000cd340       ??$_Uninit_copy@PAPAVCommand@OpenGLD3D@@PAPAV12@V?$allocator@PAVCommand@OpenGLD3D@@@std@@@std@@YAPAPAVCommand@OpenGLD3D@@PAPAV12@00AAV?$allocator@PAVCommand@OpenGLD3D@@@0@U_Scalar_ptr_iterator_tag@0@U_Range_checked_iterator_tag@0@@Z 006e1340 f i opengl_directx_dlist_dev.obj
 0002:000cd410       ??$_Uninit_copy@PAUCustomVertex@OpenGLD3D@@PAU12@V?$allocator@UCustomVertex@OpenGLD3D@@@std@@@std@@YAPAUCustomVertex@OpenGLD3D@@PAU12@00AAV?$allocator@UCustomVertex@OpenGLD3D@@@0@U_Nonscalar_ptr_iterator_tag@0@U_Range_checked_iterator_tag@0@@Z 006e1410 f i opengl_directx_dlist_dev.obj
 0002:000cd570       ??$_Debug_pointer@UCustomVertex@OpenGLD3D@@@std@@YAXPAUCustomVertex@OpenGLD3D@@PB_WI@Z 006e1570 f i opengl_directx_dlist_dev.obj
 0002:000cd5d0       ??0MatrixStack@OpenGLD3D@@QAE@W4_D3DTRANSFORMSTATETYPE@@@Z 006e15d0 f   opengl_directx_matrix_stack.obj
 0002:000cd630       ??_EMatrixStack@OpenGLD3D@@UAEPAXI@Z 006e1630 f i opengl_directx_matrix_stack.obj
 0002:000cd630       ??_GMatrixStack@OpenGLD3D@@UAEPAXI@Z 006e1630 f i opengl_directx_matrix_stack.obj
 0002:000cd6a0       ??1MatrixStack@OpenGLD3D@@UAE@XZ 006e16a0 f   opengl_directx_matrix_stack.obj
 0002:000cd6e0       ??0MatrixStackActual@OpenGLD3D@@QAE@W4_D3DTRANSFORMSTATETYPE@@@Z 006e16e0 f   opengl_directx_matrix_stack.obj
 0002:000cd760       ??_GMatrixStackActual@OpenGLD3D@@UAEPAXI@Z 006e1760 f i opengl_directx_matrix_stack.obj
 0002:000cd760       ??_EMatrixStackActual@OpenGLD3D@@UAEPAXI@Z 006e1760 f i opengl_directx_matrix_stack.obj
 0002:000cd7d0       ??1MatrixStackActual@OpenGLD3D@@UAE@XZ 006e17d0 f   opengl_directx_matrix_stack.obj
 0002:000cd8a0       ?Load@MatrixStackActual@OpenGLD3D@@UAEXABUD3DXMATRIX@@@Z 006e18a0 f   opengl_directx_matrix_stack.obj
 0002:000cd920       ?Multiply@MatrixStackActual@OpenGLD3D@@UAEXABUD3DXMATRIX@@@Z 006e1920 f   opengl_directx_matrix_stack.obj
 0002:000cd9a0       ?SetTransform@MatrixStackActual@OpenGLD3D@@UAEXXZ 006e19a0 f   opengl_directx_matrix_stack.obj
 0002:000cda50       ?GetTransform@MatrixStackActual@OpenGLD3D@@UBEABUD3DXMATRIX@@XZ 006e1a50 f   opengl_directx_matrix_stack.obj
 0002:000cdac0       ?Push@MatrixStackActual@OpenGLD3D@@UAEXXZ 006e1ac0 f   opengl_directx_matrix_stack.obj
 0002:000cdb30       ?Pop@MatrixStackActual@OpenGLD3D@@UAEXXZ 006e1b30 f   opengl_directx_matrix_stack.obj
 0002:000cdbb0       ??0MatrixStackDisplayList@OpenGLD3D@@QAE@W4_D3DTRANSFORMSTATETYPE@@PAVDisplayListDevice@1@PAVMatrixStack@1@@Z 006e1bb0 f   opengl_directx_matrix_stack.obj
 0002:000cdc30       ??_EMatrixStackDisplayList@OpenGLD3D@@UAEPAXI@Z 006e1c30 f i opengl_directx_matrix_stack.obj
 0002:000cdc30       ??_GMatrixStackDisplayList@OpenGLD3D@@UAEPAXI@Z 006e1c30 f i opengl_directx_matrix_stack.obj
 0002:000cdca0       ??1MatrixStackDisplayList@OpenGLD3D@@UAE@XZ 006e1ca0 f   opengl_directx_matrix_stack.obj
 0002:000cdd00       ?Load@MatrixStackDisplayList@OpenGLD3D@@UAEXABUD3DXMATRIX@@@Z 006e1d00 f   opengl_directx_matrix_stack.obj
 0002:000cdd70       ?Multiply@MatrixStackDisplayList@OpenGLD3D@@UAEXABUD3DXMATRIX@@@Z 006e1d70 f   opengl_directx_matrix_stack.obj
 0002:000cdde0       ?SetTransform@MatrixStackDisplayList@OpenGLD3D@@UAEXXZ 006e1de0 f   opengl_directx_matrix_stack.obj
 0002:000cde20       ?GetTransform@MatrixStackDisplayList@OpenGLD3D@@UBEABUD3DXMATRIX@@XZ 006e1e20 f   opengl_directx_matrix_stack.obj
 0002:000cdf30       ?Push@MatrixStackDisplayList@OpenGLD3D@@UAEXXZ 006e1f30 f   opengl_directx_matrix_stack.obj
 0002:000cdf90       ?Pop@MatrixStackDisplayList@OpenGLD3D@@UAEXXZ 006e1f90 f   opengl_directx_matrix_stack.obj
 0002:000cdff0       ?glGetString@@YAPBEI@Z     006e1ff0 f   opengl_directx_stubs.obj
 0002:000ce060       ?glDeleteTextures@@YAXHPBI@Z 006e2060 f   opengl_directx_stubs.obj
 0002:000ce0d0       ?glFrustum@@YAXNNNNNN@Z    006e20d0 f   opengl_directx_stubs.obj
 0002:000ce170       ?glGetMaterialfv@@YAXIIPAM@Z 006e2170 f   opengl_directx_stubs.obj
 0002:000ce200       ?glEnableClientState@@YAXI@Z 006e2200 f   opengl_directx_stubs.obj
 0002:000ce270       ?glDisableClientState@@YAXI@Z 006e2270 f   opengl_directx_stubs.obj
 0002:000ce2e0       ?glVertexPointer@@YAXHIHPBX@Z 006e22e0 f   opengl_directx_stubs.obj
 0002:000ce360       ?glColorPointer@@YAXHIHPBX@Z 006e2360 f   opengl_directx_stubs.obj
 0002:000ce3e0       ?glNormalPointer@@YAXIHPBX@Z 006e23e0 f   opengl_directx_stubs.obj
 0002:000ce460       ?glTexCoordPointer@@YAXHIHPBX@Z 006e2460 f   opengl_directx_stubs.obj
 0002:000ce4e0       ?glDrawArrays@@YAXIHH@Z    006e24e0 f   opengl_directx_stubs.obj
 0002:000ce560       ?glTraceEnable@@YAX_N@Z    006e2560 f   opengl_trace.obj
 0002:000ce5a0       ?glTrace@@YAXPBDZZ         006e25a0 f   opengl_trace.obj
 0002:000ce730       ?rotatingStaticString@@YAPBDPBD@Z 006e2730 f   opengl_trace.obj
 0002:000ce8b0       ?glEnumToString@@YAPBDI@Z  006e28b0 f   opengl_trace.obj
 0002:000cfc20       ?glBooleanToString@@YAPBD_N@Z 006e3c20 f   opengl_trace.obj
 0002:000cfc80       ?glArrayToString@@YAPBDPBEH@Z 006e3c80 f   opengl_trace.obj
 0002:000cfee0       ?hex@std@@YAAAVios_base@1@AAV21@@Z 006e3ee0 f i opengl_trace.obj
 0002:000cff40       ?setf@ios_base@std@@QAEHHH@Z 006e3f40 f i opengl_trace.obj
 0002:000cffb0       ??_D?$basic_ostringstream@DU?$char_traits@D@std@@V?$allocator@D@2@@std@@QAEXXZ 006e3fb0 f i opengl_trace.obj
 0002:000d0010       ?glBitfieldToString1@@YAXPADAAIIPBD@Z 006e4010 f   opengl_trace.obj
 0002:000d00b0       ?glBitfieldToString@@YAPBDI@Z 006e40b0 f   opengl_trace.obj
 0002:000d0230       ??6?$basic_ostream@DU?$char_traits@D@std@@@std@@QAEAAV01@P6AAAVios_base@1@AAV21@@Z@Z 006e4230 f i opengl_trace.obj
 0002:000d02e0       ??0?$basic_ostringstream@DU?$char_traits@D@std@@V?$allocator@D@2@@std@@QAE@H@Z 006e42e0 f i opengl_trace.obj
 0002:000d0400       ??1?$basic_ostringstream@DU?$char_traits@D@std@@V?$allocator@D@2@@std@@UAE@XZ 006e4400 f i opengl_trace.obj
 0002:000d04c0       ?str@?$basic_ostringstream@DU?$char_traits@D@std@@V?$allocator@D@2@@std@@QBE?AV?$basic_string@DU?$char_traits@D@std@@V?$allocator@D@2@@2@XZ 006e44c0 f i opengl_trace.obj
 0002:000d0540       ??1?$basic_stringbuf@DU?$char_traits@D@std@@V?$allocator@D@2@@std@@UAE@XZ 006e4540 f i opengl_trace.obj
 0002:000d05f0       ?overflow@?$basic_stringbuf@DU?$char_traits@D@std@@V?$allocator@D@2@@std@@MAEHH@Z 006e45f0 f i opengl_trace.obj
 0002:000d0a10       ?pbackfail@?$basic_stringbuf@DU?$char_traits@D@std@@V?$allocator@D@2@@std@@MAEHH@Z 006e4a10 f i opengl_trace.obj
 0002:000d0b80       ?eq@?$char_traits@D@std@@SA_NABD0@Z 006e4b80 f i opengl_trace.obj
 0002:000d0bd0       ?underflow@?$basic_stringbuf@DU?$char_traits@D@std@@V?$allocator@D@2@@std@@MAEHXZ 006e4bd0 f i opengl_trace.obj
 0002:000d0d30       ?seekoff@?$basic_stringbuf@DU?$char_traits@D@std@@V?$allocator@D@2@@std@@MAE?AV?$fpos@H@2@JHH@Z 006e4d30 f i opengl_trace.obj
 0002:000d0fe0       ?seekpos@?$basic_stringbuf@DU?$char_traits@D@std@@V?$allocator@D@2@@std@@MAE?AV?$fpos@H@2@V32@H@Z 006e4fe0 f i opengl_trace.obj
 0002:000d11d0       ??_G?$basic_ostringstream@DU?$char_traits@D@std@@V?$allocator@D@2@@std@@UAEPAXI@Z 006e51d0 f i opengl_trace.obj
 0002:000d11d0       ??_E?$basic_ostringstream@DU?$char_traits@D@std@@V?$allocator@D@2@@std@@UAEPAXI@Z 006e51d0 f i opengl_trace.obj
 0002:000d1250       ??_G?$basic_stringbuf@DU?$char_traits@D@std@@V?$allocator@D@2@@std@@UAEPAXI@Z 006e5250 f i opengl_trace.obj
 0002:000d1250       ??_E?$basic_stringbuf@DU?$char_traits@D@std@@V?$allocator@D@2@@std@@UAEPAXI@Z 006e5250 f i opengl_trace.obj
 0002:000d12c0       ??0?$basic_stringbuf@DU?$char_traits@D@std@@V?$allocator@D@2@@std@@QAE@H@Z 006e52c0 f i opengl_trace.obj
 0002:000d13a0       ?str@?$basic_stringbuf@DU?$char_traits@D@std@@V?$allocator@D@2@@std@@QBE?AV?$basic_string@DU?$char_traits@D@std@@V?$allocator@D@2@@2@XZ 006e53a0 f i opengl_trace.obj
 0002:000d1650       ?_Tidy@?$basic_stringbuf@DU?$char_traits@D@std@@V?$allocator@D@2@@std@@IAEXXZ 006e5650 f i opengl_trace.obj
 0002:000d1750       ??0?$basic_string@DU?$char_traits@D@std@@V?$allocator@D@2@@std@@QAE@PBDI@Z 006e5750 f i opengl_trace.obj
 0002:000d1820       ?_Init@?$basic_stringbuf@DU?$char_traits@D@std@@V?$allocator@D@2@@std@@IAEXPBDIH@Z 006e5820 f i opengl_trace.obj
 0002:000d19b0       ?_Getstate@?$basic_stringbuf@DU?$char_traits@D@std@@V?$allocator@D@2@@std@@AAEHH@Z 006e59b0 f i opengl_trace.obj
 0002:000d1a50       ??$setfill@D@std@@YA?AU?$_Fillobj@D@0@D@Z 006e5a50 f i opengl_trace.obj
 0002:000d1ab0       ??$?6DU?$char_traits@D@std@@@std@@YAAAV?$basic_ostream@DU?$char_traits@D@std@@@0@AAV10@ABU?$_Fillobj@D@0@@Z 006e5ab0 f i opengl_trace.obj
 0002:000d1b10       ??$?6DU?$char_traits@D@std@@H@std@@YAAAV?$basic_ostream@DU?$char_traits@D@std@@@0@AAV10@ABU?$_Smanip@H@0@@Z 006e5b10 f i opengl_trace.obj
 0002:000d1bb0       ??$?6U?$char_traits@D@std@@@std@@YAAAV?$basic_ostream@DU?$char_traits@D@std@@@0@AAV10@E@Z 006e5bb0 f i opengl_trace.obj
 0002:000d1c10       ??$glArrayToString@N@@YAPBDPBNH@Z 006e5c10 f i opengl_trace.obj
 0002:000d1e10       ??$glArrayToString@M@@YAPBDPBMH@Z 006e5e10 f i opengl_trace.obj
 0002:000d2010       ??$glArrayToString@H@@YAPBDPBHH@Z 006e6010 f i opengl_trace.obj
 0002:000d2210       ??$_Debug_pointer@$$A6AAAVios_base@std@@AAV12@@Z@std@@YAXP6AAAVios_base@0@AAV10@@ZPB_WI@Z 006e6210 f i opengl_trace.obj
 0002:000d2270       ??6?$basic_ostream@DU?$char_traits@D@std@@@std@@QAEAAV01@H@Z 006e6270 f i opengl_trace.obj
 0002:000d25a0       ??6?$basic_ostream@DU?$char_traits@D@std@@@std@@QAEAAV01@M@Z 006e65a0 f i opengl_trace.obj
 0002:000d2880       ??6?$basic_ostream@DU?$char_traits@D@std@@@std@@QAEAAV01@N@Z 006e6880 f i opengl_trace.obj
 0002:000d2b60       ?fill@?$basic_ios@DU?$char_traits@D@std@@@std@@QAEDD@Z 006e6b60 f i opengl_trace.obj
 0002:000d2bc0       ??0?$_Fillobj@D@std@@QAE@D@Z 006e6bc0 f i opengl_trace.obj
 0002:000d2c10       ??1?$ostreambuf_iterator@DU?$char_traits@D@std@@@std@@QAE@XZ 006e6c10 f i opengl_trace.obj
 0002:000d2c60       ??1?$_Outit_with_base@V_Iterator_base@std@@@std@@QAE@XZ 006e6c60 f i opengl_trace.obj
 0002:000d2cb0       ??1?$_Iterator_with_base@Uoutput_iterator_tag@std@@XXXXV_Iterator_base@2@@std@@QAE@XZ 006e6cb0 f i opengl_trace.obj
 0002:000d2d00       ?put@?$num_put@DV?$ostreambuf_iterator@DU?$char_traits@D@std@@@std@@@std@@QBE?AV?$ostreambuf_iterator@DU?$char_traits@D@std@@@2@V32@AAVios_base@2@DJ@Z 006e6d00 f i opengl_trace.obj
 0002:000d2e10       ?put@?$num_put@DV?$ostreambuf_iterator@DU?$char_traits@D@std@@@std@@@std@@QBE?AV?$ostreambuf_iterator@DU?$char_traits@D@std@@@2@V32@AAVios_base@2@DN@Z 006e6e10 f i opengl_trace.obj
 0002:000d2f20       ??0?$ostreambuf_iterator@DU?$char_traits@D@std@@@std@@QAE@PAV?$basic_streambuf@DU?$char_traits@D@std@@@1@@Z 006e6f20 f i opengl_trace.obj
 0002:000d2f90       ?failed@?$ostreambuf_iterator@DU?$char_traits@D@std@@@std@@QBE_NXZ 006e6f90 f i opengl_trace.obj
 0002:000d2fd0       ??0?$ostreambuf_iterator@DU?$char_traits@D@std@@@std@@QAE@ABV01@@Z 006e6fd0 f i opengl_trace.obj
 0002:000d3050       ??0?$_Outit_with_base@V_Iterator_base@std@@@std@@QAE@XZ 006e7050 f i opengl_trace.obj
 0002:000d30b0       ??0?$_Outit_with_base@V_Iterator_base@std@@@std@@QAE@ABU01@@Z 006e70b0 f i opengl_trace.obj
 0002:000d3110       ??0?$_Iterator_with_base@Uoutput_iterator_tag@std@@XXXXV_Iterator_base@2@@std@@QAE@XZ 006e7110 f i opengl_trace.obj
 0002:000d3170       ??0?$_Iterator_with_base@Uoutput_iterator_tag@std@@XXXXV_Iterator_base@2@@std@@QAE@ABU01@@Z 006e7170 f i opengl_trace.obj
 0002:000d31d0       ??$use_facet@V?$num_put@DV?$ostreambuf_iterator@DU?$char_traits@D@std@@@std@@@std@@@std@@YAABV?$num_put@DV?$ostreambuf_iterator@DU?$char_traits@D@std@@@std@@@0@ABVlocale@0@@Z 006e71d0 f i opengl_trace.obj
 0002:000d3390       ?_Getcat@?$num_put@DV?$ostreambuf_iterator@DU?$char_traits@D@std@@@std@@@std@@SAIPAPBVfacet@locale@2@@Z 006e7390 f i opengl_trace.obj
 0002:000d34c0       ??0?$num_put@DV?$ostreambuf_iterator@DU?$char_traits@D@std@@@std@@@std@@QAE@I@Z 006e74c0 f i opengl_trace.obj
 0002:000d3600       ?do_put@?$num_put@DV?$ostreambuf_iterator@DU?$char_traits@D@std@@@std@@@std@@MBE?AV?$ostreambuf_iterator@DU?$char_traits@D@std@@@2@V32@AAVios_base@2@D_N@Z 006e7600 f i opengl_trace.obj
 0002:000d3ad0       ?do_put@?$num_put@DV?$ostreambuf_iterator@DU?$char_traits@D@std@@@std@@@std@@MBE?AV?$ostreambuf_iterator@DU?$char_traits@D@std@@@2@V32@AAVios_base@2@DJ@Z 006e7ad0 f i opengl_trace.obj
 0002:000d3c80       ?do_put@?$num_put@DV?$ostreambuf_iterator@DU?$char_traits@D@std@@@std@@@std@@MBE?AV?$ostreambuf_iterator@DU?$char_traits@D@std@@@2@V32@AAVios_base@2@DK@Z 006e7c80 f i opengl_trace.obj
 0002:000d3e30       ?do_put@?$num_put@DV?$ostreambuf_iterator@DU?$char_traits@D@std@@@std@@@std@@MBE?AV?$ostreambuf_iterator@DU?$char_traits@D@std@@@2@V32@AAVios_base@2@D_J@Z 006e7e30 f i opengl_trace.obj
 0002:000d3fe0       ?do_put@?$num_put@DV?$ostreambuf_iterator@DU?$char_traits@D@std@@@std@@@std@@MBE?AV?$ostreambuf_iterator@DU?$char_traits@D@std@@@2@V32@AAVios_base@2@D_K@Z 006e7fe0 f i opengl_trace.obj
 0002:000d4190       ?do_put@?$num_put@DV?$ostreambuf_iterator@DU?$char_traits@D@std@@@std@@@std@@MBE?AV?$ostreambuf_iterator@DU?$char_traits@D@std@@@2@V32@AAVios_base@2@DN@Z 006e8190 f i opengl_trace.obj
 0002:000d4580       ?precision@ios_base@std@@QBEHXZ 006e8580 f i opengl_trace.obj
 0002:000d45c0       ?do_put@?$num_put@DV?$ostreambuf_iterator@DU?$char_traits@D@std@@@std@@@std@@MBE?AV?$ostreambuf_iterator@DU?$char_traits@D@std@@@2@V32@AAVios_base@2@DO@Z 006e85c0 f i opengl_trace.obj
 0002:000d49b0       ?do_put@?$num_put@DV?$ostreambuf_iterator@DU?$char_traits@D@std@@@std@@@std@@MBE?AV?$ostreambuf_iterator@DU?$char_traits@D@std@@@2@V32@AAVios_base@2@DPBX@Z 006e89b0 f i opengl_trace.obj
 0002:000d4b20       ??_G?$num_put@DV?$ostreambuf_iterator@DU?$char_traits@D@std@@@std@@@std@@MAEPAXI@Z 006e8b20 f i opengl_trace.obj
 0002:000d4b20       ??_E?$num_put@DV?$ostreambuf_iterator@DU?$char_traits@D@std@@@std@@@std@@MAEPAXI@Z 006e8b20 f i opengl_trace.obj
 0002:000d4b90       ??1?$num_put@DV?$ostreambuf_iterator@DU?$char_traits@D@std@@@std@@@std@@MAE@XZ 006e8b90 f i opengl_trace.obj
 0002:000d4bf0       ??4?$ostreambuf_iterator@DU?$char_traits@D@std@@@std@@QAEAAV01@ABV01@@Z 006e8bf0 f i opengl_trace.obj
 0002:000d4c70       ??4?$_Outit_with_base@V_Iterator_base@std@@@std@@QAEAAU01@ABU01@@Z 006e8c70 f i opengl_trace.obj
 0002:000d4cd0       ??4?$_Iterator_with_base@Uoutput_iterator_tag@std@@XXXXV_Iterator_base@2@@std@@QAEAAU01@ABU01@@Z 006e8cd0 f i opengl_trace.obj
 0002:000d4d30       ?_Ffmt@?$num_put@DV?$ostreambuf_iterator@DU?$char_traits@D@std@@@std@@@std@@ABAPADPADDH@Z 006e8d30 f i opengl_trace.obj
 0002:000d4e60       ?_Fput@?$num_put@DV?$ostreambuf_iterator@DU?$char_traits@D@std@@@std@@@std@@ABA?AV?$ostreambuf_iterator@DU?$char_traits@D@std@@@2@V32@AAVios_base@2@DPBDIIII@Z 006e8e60 f i opengl_trace.obj
 0002:000d5c00       ?_Ifmt@?$num_put@DV?$ostreambuf_iterator@DU?$char_traits@D@std@@@std@@@std@@ABAPADPADPBDH@Z 006e9c00 f i opengl_trace.obj
 0002:000d5d80       ?_Iput@?$num_put@DV?$ostreambuf_iterator@DU?$char_traits@D@std@@@std@@@std@@ABA?AV?$ostreambuf_iterator@DU?$char_traits@D@std@@@2@V32@AAVios_base@2@DPADI@Z 006e9d80 f i opengl_trace.obj
 0002:000d63c0       ?_Put@?$num_put@DV?$ostreambuf_iterator@DU?$char_traits@D@std@@@std@@@std@@ABA?AV?$ostreambuf_iterator@DU?$char_traits@D@std@@@2@V32@PBDI@Z 006ea3c0 f i opengl_trace.obj
 0002:000d64d0       ?_Rep@?$num_put@DV?$ostreambuf_iterator@DU?$char_traits@D@std@@@std@@@std@@ABA?AV?$ostreambuf_iterator@DU?$char_traits@D@std@@@2@V32@DI@Z 006ea4d0 f i opengl_trace.obj
 0002:000d65d0       ?falsename@?$numpunct@D@std@@QBE?AV?$basic_string@DU?$char_traits@D@std@@V?$allocator@D@2@@2@XZ 006ea5d0 f i opengl_trace.obj
 0002:000d6660       ?truename@?$numpunct@D@std@@QBE?AV?$basic_string@DU?$char_traits@D@std@@V?$allocator@D@2@@2@XZ 006ea660 f i opengl_trace.obj
 0002:000d66f0       ?append@?$basic_string@DU?$char_traits@D@std@@V?$allocator@D@2@@std@@QAEAAV12@PBDI@Z 006ea6f0 f i opengl_trace.obj
 0002:000d6830       ?insert@?$basic_string@DU?$char_traits@D@std@@V?$allocator@D@2@@std@@QAEAAV12@IID@Z 006ea830 f i opengl_trace.obj
 0002:000d6950       ??A?$basic_string@DU?$char_traits@D@std@@V?$allocator@D@2@@std@@QAEAADI@Z 006ea950 f i opengl_trace.obj
 0002:000d6a30       ?_Putc@?$num_put@DV?$ostreambuf_iterator@DU?$char_traits@D@std@@@std@@@std@@ABA?AV?$ostreambuf_iterator@DU?$char_traits@D@std@@@2@V32@PBDI@Z 006eaa30 f i opengl_trace.obj
 0002:000d6b60       ?_Putgrouped@?$num_put@DV?$ostreambuf_iterator@DU?$char_traits@D@std@@@std@@@std@@ABA?AV?$ostreambuf_iterator@DU?$char_traits@D@std@@@2@V32@PBDID@Z 006eab60 f i opengl_trace.obj
 0002:000d6dc0       ??4?$ostreambuf_iterator@DU?$char_traits@D@std@@@std@@QAEAAV01@D@Z 006eadc0 f i opengl_trace.obj
 0002:000d6e70       ??D?$ostreambuf_iterator@DU?$char_traits@D@std@@@std@@QAEAAV01@XZ 006eae70 f i opengl_trace.obj
 0002:000d6eb0       ??E?$ostreambuf_iterator@DU?$char_traits@D@std@@@std@@QAEAAV01@XZ 006eaeb0 f i opengl_trace.obj
 0002:000d6ef0       ?decimal_point@?$numpunct@D@std@@QBEDXZ 006eaef0 f i opengl_trace.obj
 0002:000d6f50       ?thousands_sep@?$numpunct@D@std@@QBEDXZ 006eaf50 f i opengl_trace.obj
 0002:000d6fb0       ?grouping@?$numpunct@D@std@@QBE?AV?$basic_string@DU?$char_traits@D@std@@V?$allocator@D@2@@2@XZ 006eafb0 f i opengl_trace.obj
 0002:000d7040       ?append@?$basic_string@DU?$char_traits@D@std@@V?$allocator@D@2@@std@@QAEAAV12@ABV12@II@Z 006eb040 f i opengl_trace.obj
 0002:000d7180       ??$_Debug_pointer@V?$ostreambuf_iterator@DU?$char_traits@D@std@@@std@@@std@@YAXAAV?$ostreambuf_iterator@DU?$char_traits@D@std@@@0@PB_WI@Z 006eb180 f i opengl_trace.obj
 0002:000d71b0       ??$use_facet@V?$numpunct@D@std@@@std@@YAABV?$numpunct@D@0@ABVlocale@0@@Z 006eb1b0 f i opengl_trace.obj
 0002:000d7370       ??$_Maklocchr@D@std@@YADDPADABU_Cvtvec@@@Z 006eb370 f i opengl_trace.obj
 0002:000d73b0       ?_Getcat@?$numpunct@D@std@@SAIPAPBVfacet@locale@2@@Z 006eb3b0 f i opengl_trace.obj
 0002:000d74d0       ??0?$numpunct@D@std@@QAE@I@Z 006eb4d0 f i opengl_trace.obj
 0002:000d7640       ?_Getcvt@_Locinfo@std@@QBE?AU_Cvtvec@@XZ 006eb640 f i opengl_trace.obj
 0002:000d76c0       ?do_decimal_point@?$numpunct@D@std@@MBEDXZ 006eb6c0 f i opengl_trace.obj
 0002:000d7700       ?do_thousands_sep@?$numpunct@D@std@@MBEDXZ 006eb700 f i opengl_trace.obj
 0002:000d7740       ?do_grouping@?$numpunct@D@std@@MBE?AV?$basic_string@DU?$char_traits@D@std@@V?$allocator@D@2@@2@XZ 006eb740 f i opengl_trace.obj
 0002:000d77c0       ?do_falsename@?$numpunct@D@std@@MBE?AV?$basic_string@DU?$char_traits@D@std@@V?$allocator@D@2@@2@XZ 006eb7c0 f i opengl_trace.obj
 0002:000d7840       ?do_truename@?$numpunct@D@std@@MBE?AV?$basic_string@DU?$char_traits@D@std@@V?$allocator@D@2@@2@XZ 006eb840 f i opengl_trace.obj
 0002:000d78c0       ??_G?$numpunct@D@std@@MAEPAXI@Z 006eb8c0 f i opengl_trace.obj
 0002:000d78c0       ??_E?$numpunct@D@std@@MAEPAXI@Z 006eb8c0 f i opengl_trace.obj
 0002:000d7930       ??1?$numpunct@D@std@@MAE@XZ 006eb930 f i opengl_trace.obj
 0002:000d79e0       ?_Tidy@?$numpunct@D@std@@AAEXXZ 006eb9e0 f i opengl_trace.obj
 0002:000d7a60       ?_Init@?$num_put@DV?$ostreambuf_iterator@DU?$char_traits@D@std@@@std@@@std@@IAEXABV_Locinfo@2@@Z 006eba60 f i opengl_trace.obj
 0002:000d7ad0       ?_Init@?$numpunct@D@std@@IAEXABV_Locinfo@2@@Z 006ebad0 f i opengl_trace.obj
 0002:000d7d40       ?_Getlconv@_Locinfo@std@@QBEPBUlconv@@XZ 006ebd40 f i opengl_trace.obj
 0002:000d7d90       ?_Getfalse@_Locinfo@std@@QBEPBDXZ 006ebd90 f i opengl_trace.obj
 0002:000d7dd0       ?_Gettrue@_Locinfo@std@@QBEPBDXZ 006ebdd0 f i opengl_trace.obj
 0002:000d7e10       ??$_Maklocstr@D@std@@YAPADPBDPADABU_Cvtvec@@@Z 006ebe10 f i opengl_trace.obj
 0002:000d7ef0       ?WndProc@@YGJPAUHWND__@@IIJ@Z 006ebef0 f   window_manager_directx.obj
 0002:000d7fb0       ??0WindowManager@@QAE@XZ   006ebfb0 f   window_manager_directx.obj
 0002:000d8140       ??0WindowManagerWin32@@QAE@XZ 006ec140 f i window_manager_directx.obj
 0002:000d81a0       ??1WindowManager@@QAE@XZ   006ec1a0 f   window_manager_directx.obj
 0002:000d8270       ?SaveDesktop@WindowManager@@QAEXXZ 006ec270 f   window_manager_directx.obj
 0002:000d8390       ?RestoreDesktop@WindowManager@@QAEXXZ 006ec390 f   window_manager_directx.obj
 0002:000d83d0       ?EnableOpenGL@WindowManager@@IAE_NHH@Z 006ec3d0 f   window_manager_directx.obj
 0002:000d8480       ?DisableOpenGL@WindowManager@@IAEXXZ 006ec480 f   window_manager_directx.obj
 0002:000d84d0       ?GetResolutionId@WindowManager@@QAEHHH@Z 006ec4d0 f   window_manager_directx.obj
 0002:000d8580       ?ListAllDisplayModes@WindowManager@@IAEXXZ 006ec580 f   window_manager_directx.obj
 0002:000d8800       ??0Resolution@@QAE@HH@Z    006ec800 f i window_manager_directx.obj
 0002:000d8870       ?GetResolution@WindowManager@@QAEPAVResolution@@H@Z 006ec870 f   window_manager_directx.obj
 0002:000d88f0       ?Windowed@WindowManager@@QAE_NXZ 006ec8f0 f   window_manager_directx.obj
 0002:000d8930       ?CreateWin@WindowManager@@QAE_NHH_NHHH0@Z 006ec930 f   window_manager_directx.obj
 0002:000d8d40       ?DestroyWin@WindowManager@@QAEXXZ 006ecd40 f   window_manager_directx.obj
 0002:000d8dc0       ?Flip@WindowManager@@QAEXXZ 006ecdc0 f   window_manager_directx.obj
 0002:000d8e10       ?NastyPollForMessages@WindowManager@@QAEXXZ 006ece10 f   window_manager_directx.obj
 0002:000d8ef0       ?NastySetMousePos@WindowManager@@QAEXHH@Z 006ecef0 f   window_manager_directx.obj
 0002:000d9080       ?NastyMoveMouse@WindowManager@@QAEXHH@Z 006ed080 f   window_manager_directx.obj
 0002:000d9160       ?WindowMoved@WindowManager@@QAEXXZ 006ed160 f   window_manager_directx.obj
 0002:000d91b0       ?Captured@WindowManager@@QAE_NXZ 006ed1b0 f   window_manager_directx.obj
 0002:000d91f0       ?CaptureMouse@WindowManager@@QAEXXZ 006ed1f0 f   window_manager_directx.obj
 0002:000d9260       ?EnsureMouseCaptured@WindowManager@@QAEXXZ 006ed260 f   window_manager_directx.obj
 0002:000d92a0       ?UncaptureMouse@WindowManager@@QAEXXZ 006ed2a0 f   window_manager_directx.obj
 0002:000d9300       ?EnsureMouseUncaptured@WindowManager@@QAEXXZ 006ed300 f   window_manager_directx.obj
 0002:000d9340       ?HideMousePointer@WindowManager@@QAEXXZ 006ed340 f   window_manager_directx.obj
 0002:000d9380       ?UnhideMousePointer@WindowManager@@QAEXXZ 006ed380 f   window_manager_directx.obj
 0002:000d93c0       ?OpenWebsite@WindowManager@@SAXPAD@Z 006ed3c0 f   window_manager_directx.obj
 0002:000d9430       ?SuggestDefaultRes@WindowManager@@QAEXPAH000@Z 006ed430 f   window_manager_directx.obj
 0002:000d94a0       _WinMain@16                006ed4a0 f   window_manager_directx.obj
 0002:000d9560       ?FindData@?$LList@H@@QAEHABH@Z 006ed560 f i window_manager_directx.obj
 0002:000d9610       ??0?$LList@PAVResolution@@@@QAE@XZ 006ed610 f i window_manager_directx.obj
 0002:000d9690       ??1?$LList@PAVResolution@@@@QAE@XZ 006ed690 f i window_manager_directx.obj
 0002:000d96e0       ?PutDataAtEnd@?$LList@PAVResolution@@@@QAEXABQAVResolution@@@Z 006ed6e0 f i window_manager_directx.obj
 0002:000d9870       ?EmptyAndDelete@?$LList@PAVResolution@@@@QAEXXZ 006ed870 f i window_manager_directx.obj
 0002:000d9930       ??_GResolution@@QAEPAXI@Z  006ed930 f i window_manager_directx.obj
 0002:000d99a0       ??1Resolution@@QAE@XZ      006ed9a0 f i window_manager_directx.obj
 0002:000d9a00       ?RemoveData@?$LList@PAVResolution@@@@QAEXH@Z 006eda00 f i window_manager_directx.obj
 0002:000d9b90       ?Empty@?$LList@PAVResolution@@@@QAEXXZ 006edb90 f i window_manager_directx.obj
 0002:000d9c90       ??0?$LListItem@PAVResolution@@@@QAE@XZ 006edc90 f i window_manager_directx.obj
 0002:000d9cf0       ??_G?$LListItem@PAVResolution@@@@QAEPAXI@Z 006edcf0 f i window_manager_directx.obj
 0002:000d9d60       ??1?$LListItem@PAVResolution@@@@QAE@XZ 006edd60 f i window_manager_directx.obj
 0002:000d9da0       ??0BinaryReader@@QAE@XZ    006edda0 f   binary_stream_readers.obj
 0002:000d9e00       ??_EBinaryReader@@UAEPAXI@Z 006ede00 f i binary_stream_readers.obj
 0002:000d9e00       ??_GBinaryReader@@UAEPAXI@Z 006ede00 f i binary_stream_readers.obj
 0002:000d9e70       ??1BinaryReader@@UAE@XZ    006ede70 f   binary_stream_readers.obj
 0002:000d9eb0       ??0BinaryFileReader@@QAE@PBD@Z 006edeb0 f   binary_stream_readers.obj
 0002:000d9fc0       ??_EBinaryFileReader@@UAEPAXI@Z 006edfc0 f i binary_stream_readers.obj
 0002:000d9fc0       ??_GBinaryFileReader@@UAEPAXI@Z 006edfc0 f i binary_stream_readers.obj
 0002:000da030       ??1BinaryFileReader@@UAE@XZ 006ee030 f   binary_stream_readers.obj
 0002:000da0a0       ?IsOpen@BinaryFileReader@@UAE_NXZ 006ee0a0 f   binary_stream_readers.obj
 0002:000da0f0       ?GetFileType@BinaryFileReader@@UAEPADXZ 006ee0f0 f   binary_stream_readers.obj
 0002:000da180       ?ReadS8@BinaryFileReader@@UAECXZ 006ee180 f   binary_stream_readers.obj
 0002:000da200       ?ReadU8@BinaryFileReader@@UAEEXZ 006ee200 f   binary_stream_readers.obj
 0002:000da280       ?ReadS16@BinaryFileReader@@UAEFXZ 006ee280 f   binary_stream_readers.obj
 0002:000da320       ?ReadS32@BinaryFileReader@@UAEHXZ 006ee320 f   binary_stream_readers.obj
 0002:000da420       ?ReadBytes@BinaryFileReader@@UAEIIPAE@Z 006ee420 f   binary_stream_readers.obj
 0002:000da4b0       ?Seek@BinaryFileReader@@UAEHHH@Z 006ee4b0 f   binary_stream_readers.obj
 0002:000da520       ?Tell@BinaryFileReader@@UAEHXZ 006ee520 f   binary_stream_readers.obj
 0002:000da580       ??0BinaryDataReader@@QAE@PBEIPBD@Z 006ee580 f   binary_stream_readers.obj
 0002:000da630       ??_EBinaryDataReader@@UAEPAXI@Z 006ee630 f i binary_stream_readers.obj
 0002:000da630       ??_GBinaryDataReader@@UAEPAXI@Z 006ee630 f i binary_stream_readers.obj
 0002:000da6a0       ??1BinaryDataReader@@UAE@XZ 006ee6a0 f   binary_stream_readers.obj
 0002:000da700       ?IsOpen@BinaryDataReader@@UAE_NXZ 006ee700 f   binary_stream_readers.obj
 0002:000da740       ?GetFileType@BinaryDataReader@@UAEPADXZ 006ee740 f   binary_stream_readers.obj
 0002:000da7d0       ?ReadS8@BinaryDataReader@@UAECXZ 006ee7d0 f   binary_stream_readers.obj
 0002:000da870       ?ReadU8@BinaryDataReader@@UAEEXZ 006ee870 f   binary_stream_readers.obj
 0002:000da910       ?ReadS16@BinaryDataReader@@UAEFXZ 006ee910 f   binary_stream_readers.obj
 0002:000da9f0       ?ReadS32@BinaryDataReader@@UAEHXZ 006ee9f0 f   binary_stream_readers.obj
 0002:000dab80       ?ReadBytes@BinaryDataReader@@UAEIIPAE@Z 006eeb80 f   binary_stream_readers.obj
 0002:000dac60       ?Seek@BinaryDataReader@@UAEHHH@Z 006eec60 f   binary_stream_readers.obj
 0002:000dad40       ?Tell@BinaryDataReader@@UAEHXZ 006eed40 f   binary_stream_readers.obj
 0002:000dad80       ?GetSize@BinaryReader@@QAEHXZ 006eed80 f   binary_stream_readers.obj
 0002:000dae50       ??0FileWriter@@QAE@PBD_N@Z 006eee50 f   file_writer.obj
 0002:000daf20       ??1FileWriter@@QAE@XZ      006eef20 f   file_writer.obj
 0002:000daf80       ?printf@FileWriter@@QAAHPBDZZ 006eef80 f   file_writer.obj
 0002:000db170       ?ListDirectory@@YAPAV?$LList@PAD@@PBD0_N@Z 006ef170 f   filesys_utils.obj
 0002:000db5a0       ?ListSubDirectoryNames@@YAPAV?$LList@PAD@@PBD@Z 006ef5a0 f   filesys_utils.obj
 0002:000db7e0       ?DoesFileExist@@YA_NPBD@Z  006ef7e0 f   filesys_utils.obj
 0002:000db860       ?GetDirectoryPart@@YAPBDPBD@Z 006ef860 f   filesys_utils.obj
 0002:000db8f0       ?GetFilenamePart@@YAPBDPBD@Z 006ef8f0 f   filesys_utils.obj
 0002:000db970       ?GetExtensionPart@@YAPBDPBD@Z 006ef970 f   filesys_utils.obj
 0002:000db9d0       ?RemoveExtension@@YAPBDPBD@Z 006ef9d0 f   filesys_utils.obj
 0002:000dba50       ?AreFilesIdentical@@YA_NPBD0@Z 006efa50 f   filesys_utils.obj
 0002:000dbbc0       ?CreateDirectoryA@@YA_NPBD@Z 006efbc0 f   filesys_utils.obj
 0002:000dbc40       ?DeleteThisFile@@YAXPBD@Z  006efc40 f   filesys_utils.obj
 0002:000dbca0       ?IsDirectory@@YA_NPBD@Z    006efca0 f   filesys_utils.obj
 0002:000dbcd0       ??0EncryptedFileWriter@@QAE@PBD@Z 006efcd0 f   filesys_utils.obj
 0002:000dbd50       ??1EncryptedFileWriter@@QAE@XZ 006efd50 f   filesys_utils.obj
 0002:000dbdb0       ?WriteLine@EncryptedFileWriter@@QAEXPAD@Z 006efdb0 f   filesys_utils.obj
 0002:000dbee0       ??0TextReader@@QAE@XZ      006efee0 f   text_stream_readers.obj
 0002:000dbfd0       ??_ETextReader@@UAEPAXI@Z  006effd0 f i text_stream_readers.obj
 0002:000dbfd0       ??_GTextReader@@UAEPAXI@Z  006effd0 f i text_stream_readers.obj
 0002:000dc040       ??1TextReader@@UAE@XZ      006f0040 f   text_stream_readers.obj
 0002:000dc0c0       ?DoubleMaxLineLen@TextReader@@IAEXXZ 006f00c0 f   text_stream_readers.obj
 0002:000dc1e0       ?CleanLine@TextReader@@IAEXXZ 006f01e0 f   text_stream_readers.obj
 0002:000dc4e0       ?SetSeperatorChars@TextReader@@QAEXPBD@Z 006f04e0 f   text_stream_readers.obj
 0002:000dc550       ?SetDefaultSeperatorChars@TextReader@@QAEXXZ 006f0550 f   text_stream_readers.obj
 0002:000dc5b0       ?TokenAvailable@TextReader@@QAE_NXZ 006f05b0 f   text_stream_readers.obj
 0002:000dc660       ?GetFilename@TextReader@@QAEPBDXZ 006f0660 f   text_stream_readers.obj
 0002:000dc6a0       ?GetNextToken@TextReader@@QAEPADXZ 006f06a0 f   text_stream_readers.obj
 0002:000dc860       ?GetRestOfLine@TextReader@@QAEPADXZ 006f0860 f   text_stream_readers.obj
 0002:000dc940       ??0TextFileReader@@QAE@PBD@Z 006f0940 f   text_stream_readers.obj
 0002:000dc9e0       ??_GTextFileReader@@UAEPAXI@Z 006f09e0 f i text_stream_readers.obj
 0002:000dc9e0       ??_ETextFileReader@@UAEPAXI@Z 006f09e0 f i text_stream_readers.obj
 0002:000dca50       ??0TextFileReader@@QAE@ABV?$basic_string@DU?$char_traits@D@std@@V?$allocator@D@2@@std@@@Z 006f0a50 f   text_stream_readers.obj
 0002:000dcb50       ??1TextFileReader@@UAE@XZ  006f0b50 f   text_stream_readers.obj
 0002:000dcbd0       ?IsOpen@TextFileReader@@UAE_NXZ 006f0bd0 f   text_stream_readers.obj
 0002:000dcc50       ?ReadLine@TextFileReader@@UAE_NXZ 006f0c50 f   text_stream_readers.obj
 0002:000dcdc0       ??0TextDataReader@@QAE@PBDI0@Z 006f0dc0 f   text_stream_readers.obj
 0002:000dce70       ??_GTextDataReader@@UAEPAXI@Z 006f0e70 f i text_stream_readers.obj
 0002:000dce70       ??_ETextDataReader@@UAEPAXI@Z 006f0e70 f i text_stream_readers.obj
 0002:000dcee0       ?IsOpen@TextDataReader@@UAE_NXZ 006f0ee0 f   text_stream_readers.obj
 0002:000dcf20       ?ReadLine@TextDataReader@@UAE_NXZ 006f0f20 f   text_stream_readers.obj
 0002:000dd0d0       ??0ControlBindings@@QAE@XZ 006f10d0 f   control_bindings.obj
 0002:000dd1d0       ??_F?$auto_vector@$$CBUInputSpec@@@@QAEXXZ 006f11d0 f i control_bindings.obj
 0002:000dd230       ?getControlID@ControlBindings@@SAHABV?$basic_string@DU?$char_traits@D@std@@V?$allocator@D@2@@std@@@Z 006f1230 f   control_bindings.obj
 0002:000dd2f0       ?getControlString@ControlBindings@@SAXW4ControlType@@AAV?$basic_string@DU?$char_traits@D@std@@V?$allocator@D@2@@std@@@Z 006f12f0 f   control_bindings.obj
 0002:000dd380       ?isAcceptibleInputType@ControlBindings@@SA_NHH@Z 006f1380 f   control_bindings.obj
 0002:000dd400       ??AControlBindings@@QBEABV?$auto_vector@$$CBUInputSpec@@@@W4ControlType@@@Z 006f1400 f   control_bindings.obj
 0002:000dd450       ??AControlBindings@@QBEABV?$auto_vector@$$CBUInputSpec@@@@H@Z 006f1450 f   control_bindings.obj
 0002:000dd4e0       ?getIcon@ControlBindings@@QBEABV?$basic_string@DU?$char_traits@D@std@@V?$allocator@D@2@@std@@W4ControlType@@@Z 006f14e0 f   control_bindings.obj
 0002:000dd530       ?getIcon@ControlBindings@@QBEABV?$basic_string@DU?$char_traits@D@std@@V?$allocator@D@2@@std@@H@Z 006f1530 f   control_bindings.obj
 0002:000dd5d0       ?setIcon@ControlBindings@@QAEXHABV?$basic_string@DU?$char_traits@D@std@@V?$allocator@D@2@@std@@@Z 006f15d0 f   control_bindings.obj
 0002:000dd670       ?bind@ControlBindings@@QAE_NHABUInputSpec@@_N@Z 006f1670 f   control_bindings.obj
 0002:000dd8a0       ?Advance@ControlBindings@@QAEXXZ 006f18a0 f   control_bindings.obj
 0002:000dd910       ?Clear@ControlBindings@@QAEXXZ 006f1910 f   control_bindings.obj
 0002:000dd9a0       ?suppress@ControlBindings@@QAEXW4ControlType@@@Z 006f19a0 f   control_bindings.obj
 0002:000dd9f0       ?isActive@ControlBindings@@QBE_NW4ControlType@@@Z 006f19f0 f   control_bindings.obj
 0002:000dda40       ??4?$basic_string@DU?$char_traits@D@std@@V?$allocator@D@2@@std@@QAEAAV01@PBD@Z 006f1a40 f i control_bindings.obj
 0002:000ddaa0       ?size@?$auto_vector@$$CBUInputSpec@@@@QBEIXZ 006f1aa0 f i control_bindings.obj
 0002:000ddaf0       ??0?$auto_ptr@$$CBUInputSpec@@@std@@QAE@PBUInputSpec@@@Z 006f1af0 f i control_bindings.obj
 0002:000ddb40       ??0?$auto_ptr@$$CBUInputSpec@@@std@@QAE@AAV01@@Z 006f1b40 f i control_bindings.obj
 0002:000ddba0       ??1?$auto_ptr@$$CBUInputSpec@@@std@@QAE@XZ 006f1ba0 f i control_bindings.obj
 0002:000ddc10       ?size@?$vector@PBUInputSpec@@V?$allocator@PBUInputSpec@@@std@@@std@@QBEIXZ 006f1c10 f i control_bindings.obj
 0002:000ddc80       ?release@?$auto_ptr@$$CBUInputSpec@@@std@@QAEPBUInputSpec@@XZ 006f1c80 f i control_bindings.obj
 0002:000ddcd0       ??0?$auto_vector@$$CBUInputSpec@@@@QAE@I@Z 006f1cd0 f i control_bindings.obj
 0002:000ddd80       ??1?$auto_vector@$$CBUInputSpec@@@@QAE@XZ 006f1d80 f i control_bindings.obj
 0002:000dde20       ?erase@?$auto_vector@$$CBUInputSpec@@@@QAEXI@Z 006f1e20 f i control_bindings.obj
 0002:000ddf10       ?clear@?$auto_vector@$$CBUInputSpec@@@@QAEXXZ 006f1f10 f i control_bindings.obj
 0002:000de030       ?insert@?$auto_vector@$$CBUInputSpec@@@@QAEXIV?$auto_ptr@$$CBUInputSpec@@@std@@@Z 006f2030 f i control_bindings.obj
 0002:000de170       ?push_back@?$auto_vector@$$CBUInputSpec@@@@QAEXV?$auto_ptr@$$CBUInputSpec@@@std@@@Z 006f2170 f i control_bindings.obj
 0002:000de240       ??1?$_Vector_iterator@PBUInputSpec@@V?$allocator@PBUInputSpec@@@std@@@std@@QAE@XZ 006f2240 f i control_bindings.obj
 0002:000de290       ??1?$_Vector_const_iterator@PBUInputSpec@@V?$allocator@PBUInputSpec@@@std@@@std@@QAE@XZ 006f2290 f i control_bindings.obj
 0002:000de2e0       ??1?$_Ranit@PBUInputSpec@@HPBQBU1@ABQBU1@@std@@QAE@XZ 006f22e0 f i control_bindings.obj
 0002:000de330       ?begin@?$auto_vector@$$CBUInputSpec@@@@QAE?AV?$_Vector_iterator@PBUInputSpec@@V?$allocator@PBUInputSpec@@@std@@@std@@XZ 006f2330 f i control_bindings.obj
 0002:000de3b0       ?end@?$auto_vector@$$CBUInputSpec@@@@QAE?AV?$_Vector_iterator@PBUInputSpec@@V?$allocator@PBUInputSpec@@@std@@@std@@XZ 006f23b0 f i control_bindings.obj
 0002:000de430       ??0?$vector@PBUInputSpec@@V?$allocator@PBUInputSpec@@@std@@@std@@QAE@XZ 006f2430 f i control_bindings.obj
 0002:000de4f0       ??1?$vector@PBUInputSpec@@V?$allocator@PBUInputSpec@@@std@@@std@@QAE@XZ 006f24f0 f i control_bindings.obj
 0002:000de590       ?reserve@?$vector@PBUInputSpec@@V?$allocator@PBUInputSpec@@@std@@@std@@QAEXI@Z 006f2590 f i control_bindings.obj
 0002:000de7b0       ??A?$vector@PBUInputSpec@@V?$allocator@PBUInputSpec@@@std@@@std@@QAEAAPBUInputSpec@@I@Z 006f27b0 f i control_bindings.obj
 0002:000de8f0       ?push_back@?$vector@PBUInputSpec@@V?$allocator@PBUInputSpec@@@std@@@std@@QAEXABQBUInputSpec@@@Z 006f28f0 f i control_bindings.obj
 0002:000de9e0       ?insert@?$vector@PBUInputSpec@@V?$allocator@PBUInputSpec@@@std@@@std@@QAE?AV?$_Vector_iterator@PBUInputSpec@@V?$allocator@PBUInputSpec@@@std@@@2@V32@ABQBUInputSpec@@@Z 006f29e0 f i control_bindings.obj
 0002:000debe0       ?erase@?$vector@PBUInputSpec@@V?$allocator@PBUInputSpec@@@std@@@std@@QAE?AV?$_Vector_iterator@PBUInputSpec@@V?$allocator@PBUInputSpec@@@std@@@2@V32@@Z 006f2be0 f i control_bindings.obj
 0002:000ded60       ?clear@?$vector@PBUInputSpec@@V?$allocator@PBUInputSpec@@@std@@@std@@QAEXXZ 006f2d60 f i control_bindings.obj
 0002:000dee70       ?get@?$auto_ptr@$$CBUInputSpec@@@std@@QBEPBUInputSpec@@XZ 006f2e70 f i control_bindings.obj
 0002:000deeb0       ??1?$_Vector_val@PBUInputSpec@@V?$allocator@PBUInputSpec@@@std@@@std@@QAE@XZ 006f2eb0 f i control_bindings.obj
 0002:000def00       ??0?$_Vector_iterator@PBUInputSpec@@V?$allocator@PBUInputSpec@@@std@@@std@@QAE@ABV01@@Z 006f2f00 f i control_bindings.obj
 0002:000def60       ??0?$_Vector_const_iterator@PBUInputSpec@@V?$allocator@PBUInputSpec@@@std@@@std@@QAE@ABV01@@Z 006f2f60 f i control_bindings.obj
 0002:000defd0       ??0?$_Ranit@PBUInputSpec@@HPBQBU1@ABQBU1@@std@@QAE@ABU01@@Z 006f2fd0 f i control_bindings.obj
 0002:000df030       ?capacity@?$vector@PBUInputSpec@@V?$allocator@PBUInputSpec@@@std@@@std@@QBEIXZ 006f3030 f i control_bindings.obj
 0002:000df0a0       ?begin@?$vector@PBUInputSpec@@V?$allocator@PBUInputSpec@@@std@@@std@@QAE?AV?$_Vector_iterator@PBUInputSpec@@V?$allocator@PBUInputSpec@@@std@@@2@XZ 006f30a0 f i control_bindings.obj
 0002:000df130       ?end@?$vector@PBUInputSpec@@V?$allocator@PBUInputSpec@@@std@@@std@@QAE?AV?$_Vector_iterator@PBUInputSpec@@V?$allocator@PBUInputSpec@@@std@@@2@XZ 006f3130 f i control_bindings.obj
 0002:000df1c0       ?max_size@?$vector@PBUInputSpec@@V?$allocator@PBUInputSpec@@@std@@@std@@QBEIXZ 006f31c0 f i control_bindings.obj
 0002:000df220       ?erase@?$vector@PBUInputSpec@@V?$allocator@PBUInputSpec@@@std@@@std@@QAE?AV?$_Vector_iterator@PBUInputSpec@@V?$allocator@PBUInputSpec@@@std@@@2@V32@0@Z 006f3220 f i control_bindings.obj
 0002:000df3d0       ?_Buy@?$vector@PBUInputSpec@@V?$allocator@PBUInputSpec@@@std@@@std@@IAE_NI@Z 006f33d0 f i control_bindings.obj
 0002:000df4b0       ?_Destroy@?$vector@PBUInputSpec@@V?$allocator@PBUInputSpec@@@std@@@std@@IAEXPAPBUInputSpec@@0@Z 006f34b0 f i control_bindings.obj
 0002:000df520       ?_Tidy@?$vector@PBUInputSpec@@V?$allocator@PBUInputSpec@@@std@@@std@@IAEXXZ 006f3520 f i control_bindings.obj
 0002:000df5f0       ?_Insert_n@?$vector@PBUInputSpec@@V?$allocator@PBUInputSpec@@@std@@@std@@IAEXV?$_Vector_iterator@PBUInputSpec@@V?$allocator@PBUInputSpec@@@std@@@2@IABQBUInputSpec@@@Z 006f35f0 f i control_bindings.obj
 0002:000dfb20       ?_Ufill@?$vector@PBUInputSpec@@V?$allocator@PBUInputSpec@@@std@@@std@@IAEPAPBUInputSpec@@PAPBU3@IABQBU3@@Z 006f3b20 f i control_bindings.obj
 0002:000dfba0       ?_Xlen@?$vector@PBUInputSpec@@V?$allocator@PBUInputSpec@@@std@@@std@@KAXXZ 006f3ba0 f i control_bindings.obj
 0002:000dfc80       ?_Orphan_range@?$vector@PBUInputSpec@@V?$allocator@PBUInputSpec@@@std@@@std@@IBEXPAPBUInputSpec@@0@Z 006f3c80 f i control_bindings.obj
 0002:000dfd80       ??0?$_Vector_val@PBUInputSpec@@V?$allocator@PBUInputSpec@@@std@@@std@@IAE@V?$allocator@PBUInputSpec@@@1@@Z 006f3d80 f i control_bindings.obj
 0002:000dfdf0       ??0?$allocator@PBUInputSpec@@@std@@QAE@XZ 006f3df0 f i control_bindings.obj
 0002:000dfe30       ?deallocate@?$allocator@PBUInputSpec@@@std@@QAEXPAPBUInputSpec@@I@Z 006f3e30 f i control_bindings.obj
 0002:000dfe90       ?allocate@?$allocator@PBUInputSpec@@@std@@QAEPAPBUInputSpec@@I@Z 006f3e90 f i control_bindings.obj
 0002:000dfef0       ??0?$_Vector_iterator@PBUInputSpec@@V?$allocator@PBUInputSpec@@@std@@@std@@QAE@PAPBUInputSpec@@PBV_Container_base@1@@Z 006f3ef0 f i control_bindings.obj
 0002:000dff50       ??H?$_Vector_iterator@PBUInputSpec@@V?$allocator@PBUInputSpec@@@std@@@std@@QBE?AV01@H@Z 006f3f50 f i control_bindings.obj
 0002:000e0070       ??G?$_Vector_iterator@PBUInputSpec@@V?$allocator@PBUInputSpec@@@std@@@std@@QBEHABV?$_Vector_const_iterator@PBUInputSpec@@V?$allocator@PBUInputSpec@@@std@@@1@@Z 006f4070 f i control_bindings.obj
 0002:000e00d0       ??0?$allocator@PBUInputSpec@@@std@@QAE@ABV01@@Z 006f40d0 f i control_bindings.obj
 0002:000e0110       ?max_size@?$allocator@PBUInputSpec@@@std@@QBEIXZ 006f4110 f i control_bindings.obj
 0002:000e0180       ??Y?$_Vector_iterator@PBUInputSpec@@V?$allocator@PBUInputSpec@@@std@@@std@@QAEAAV01@H@Z 006f4180 f i control_bindings.obj
 0002:000e01e0       ??0?$_Vector_const_iterator@PBUInputSpec@@V?$allocator@PBUInputSpec@@@std@@@std@@QAE@PAPBUInputSpec@@PBV_Container_base@1@@Z 006f41e0 f i control_bindings.obj
 0002:000e0310       ??G?$_Vector_const_iterator@PBUInputSpec@@V?$allocator@PBUInputSpec@@@std@@@std@@QBEHABV01@@Z 006f4310 f i control_bindings.obj
 0002:000e0380       ??9?$_Vector_const_iterator@PBUInputSpec@@V?$allocator@PBUInputSpec@@@std@@@std@@QBE_NABV01@@Z 006f4380 f i control_bindings.obj
 0002:000e03f0       ??M?$_Vector_const_iterator@PBUInputSpec@@V?$allocator@PBUInputSpec@@@std@@@std@@QBE_NABV01@@Z 006f43f0 f i control_bindings.obj
 0002:000e0460       ??0?$_Ranit@PBUInputSpec@@HPBQBU1@ABQBU1@@std@@QAE@XZ 006f4460 f i control_bindings.obj
 0002:000e04c0       ??Y?$_Vector_const_iterator@PBUInputSpec@@V?$allocator@PBUInputSpec@@@std@@@std@@QAEAAV01@H@Z 006f44c0 f i control_bindings.obj
 0002:000e0610       ??8?$_Vector_const_iterator@PBUInputSpec@@V?$allocator@PBUInputSpec@@@std@@@std@@QBE_NABV01@@Z 006f4610 f i control_bindings.obj
 0002:000e0680       ?_Compat@?$_Vector_const_iterator@PBUInputSpec@@V?$allocator@PBUInputSpec@@@std@@@std@@QBEXABV12@@Z 006f4680 f i control_bindings.obj
 0002:000e0750       ?ToIter@?$auto_vector@$$CBUInputSpec@@@@QAE?AV?$_Vector_iterator@PBUInputSpec@@V?$allocator@PBUInputSpec@@@std@@@std@@I@Z 006f4750 f i control_bindings.obj
 0002:000e0850       ??$for_each@V?$_Vector_iterator@PBUInputSpec@@V?$allocator@PBUInputSpec@@@std@@@std@@V?$DeletePtr@$$CBUInputSpec@@@@@std@@YA?AV?$DeletePtr@$$CBUInputSpec@@@@V?$_Vector_iterator@PBUInputSpec@@V?$allocator@PBUInputSpec@@@std@@@0@0V1@@Z 006f4850 f i control_bindings.obj
 0002:000e0a70       ??$_Umove@V?$_Vector_iterator@PBUInputSpec@@V?$allocator@PBUInputSpec@@@std@@@std@@@?$vector@PBUInputSpec@@V?$allocator@PBUInputSpec@@@std@@@std@@IAEPAPBUInputSpec@@V?$_Vector_iterator@PBUInputSpec@@V?$allocator@PBUInputSpec@@@std@@@1@0PAPBU2@@Z 006f4a70 f i control_bindings.obj
 0002:000e0bb0       ??$unchecked_copy@PAPBUInputSpec@@PAPBU1@@stdext@@YAPAPBUInputSpec@@PAPBU1@00@Z 006f4bb0 f i control_bindings.obj
 0002:000e0c80       ??$_Destroy_range@PBUInputSpec@@V?$allocator@PBUInputSpec@@@std@@@std@@YAXPAPBUInputSpec@@0AAV?$allocator@PBUInputSpec@@@0@@Z 006f4c80 f i control_bindings.obj
 0002:000e0d00       ??$_Umove@PAPBUInputSpec@@@?$vector@PBUInputSpec@@V?$allocator@PBUInputSpec@@@std@@@std@@IAEPAPBUInputSpec@@PAPBU2@00@Z 006f4d00 f i control_bindings.obj
 0002:000e0d70       ??$fill@PAPBUInputSpec@@PBU1@@std@@YAXPAPBUInputSpec@@0ABQBU1@@Z 006f4d70 f i control_bindings.obj
 0002:000e0de0       ??$_Unchecked_move_backward@PAPBUInputSpec@@PAPBU1@@stdext@@YAPAPBUInputSpec@@PAPBU1@00@Z 006f4de0 f i control_bindings.obj
 0002:000e0ea0       ??$unchecked_uninitialized_fill_n@PAPBUInputSpec@@IPBU1@V?$allocator@PBUInputSpec@@@std@@@stdext@@YAXPAPBUInputSpec@@IABQBU1@AAV?$allocator@PBUInputSpec@@@std@@@Z 006f4ea0 f i control_bindings.obj
 0002:000e0f40       ??$_Allocate@PBUInputSpec@@@std@@YAPAPBUInputSpec@@IPAPBU1@@Z 006f4f40 f i control_bindings.obj
 0002:000e0fe0       ??D?$_Vector_iterator@PBUInputSpec@@V?$allocator@PBUInputSpec@@@std@@@std@@QBEAAPBUInputSpec@@XZ 006f4fe0 f i control_bindings.obj
 0002:000e1030       ??E?$_Vector_iterator@PBUInputSpec@@V?$allocator@PBUInputSpec@@@std@@@std@@QAEAAV01@XZ 006f5030 f i control_bindings.obj
 0002:000e1090       ??R?$DeletePtr@$$CBUInputSpec@@@@QAEXPBUInputSpec@@@Z 006f5090 f i control_bindings.obj
 0002:000e1100       ??D?$_Vector_const_iterator@PBUInputSpec@@V?$allocator@PBUInputSpec@@@std@@@std@@QBEABQBUInputSpec@@XZ 006f5100 f i control_bindings.obj
 0002:000e11f0       ??E?$_Vector_const_iterator@PBUInputSpec@@V?$allocator@PBUInputSpec@@@std@@@std@@QAEAAV01@XZ 006f51f0 f i control_bindings.obj
 0002:000e1310       ??$_Debug_range@V?$_Vector_iterator@PBUInputSpec@@V?$allocator@PBUInputSpec@@@std@@@std@@@std@@YAXV?$_Vector_iterator@PBUInputSpec@@V?$allocator@PBUInputSpec@@@std@@@0@0PB_WI@Z 006f5310 f i control_bindings.obj
 0002:000e1440       ??$_Debug_pointer@V?$DeletePtr@$$CBUInputSpec@@@@@std@@YAXAAV?$DeletePtr@$$CBUInputSpec@@@@PB_WI@Z 006f5440 f i control_bindings.obj
 0002:000e1470       ??$_Checked_base@V?$_Vector_iterator@PBUInputSpec@@V?$allocator@PBUInputSpec@@@std@@@std@@@std@@YA?AV?$_Vector_iterator@PBUInputSpec@@V?$allocator@PBUInputSpec@@@std@@@0@AAV10@@Z 006f5470 f i control_bindings.obj
 0002:000e1530       ??$_Unchecked_uninitialized_move@V?$_Vector_iterator@PBUInputSpec@@V?$allocator@PBUInputSpec@@@std@@@std@@PAPBUInputSpec@@V?$allocator@PBUInputSpec@@@2@@stdext@@YAPAPBUInputSpec@@V?$_Vector_iterator@PBUInputSpec@@V?$allocator@PBUInputSpec@@@std@@@std@@0PAPBU1@AAV?$allocator@PBUInputSpec@@@3@@Z 006f5530 f i control_bindings.obj
 0002:000e16a0       ??$_Checked_base@PAPBUInputSpec@@@std@@YAPAPBUInputSpec@@AAPAPBU1@@Z 006f56a0 f i control_bindings.obj
 0002:000e1730       ??$_Iter_random@PAPBUInputSpec@@PAPBU1@@std@@YA?AUrandom_access_iterator_tag@0@ABQAPBUInputSpec@@0@Z 006f5730 f i control_bindings.obj
 0002:000e17a0       ??$_Ptr_cat@PAPBUInputSpec@@PAPBU1@@std@@YA?AU_Scalar_ptr_iterator_tag@0@AAPAPBUInputSpec@@0@Z 006f57a0 f i control_bindings.obj
 0002:000e1810       ??$_Copy_opt@PAPBUInputSpec@@PAPBU1@Urandom_access_iterator_tag@std@@@std@@YAPAPBUInputSpec@@PAPBU1@00Urandom_access_iterator_tag@0@U_Scalar_ptr_iterator_tag@0@U_Range_checked_iterator_tag@0@@Z 006f5810 f i control_bindings.obj
 0002:000e18f0       ??$_Destroy_range@PBUInputSpec@@V?$allocator@PBUInputSpec@@@std@@@std@@YAXPAPBUInputSpec@@0AAV?$allocator@PBUInputSpec@@@0@U_Scalar_ptr_iterator_tag@0@@Z 006f58f0 f i control_bindings.obj
 0002:000e1920       ??$_Unchecked_uninitialized_move@PAPBUInputSpec@@PAPBU1@V?$allocator@PBUInputSpec@@@std@@@stdext@@YAPAPBUInputSpec@@PAPBU1@00AAV?$allocator@PBUInputSpec@@@std@@@Z 006f5920 f i control_bindings.obj
 0002:000e19d0       ??$_Fill@PAPBUInputSpec@@PBU1@@std@@YAXPAPBUInputSpec@@0ABQBU1@@Z 006f59d0 f i control_bindings.obj
 0002:000e1a60       ??$_Move_cat@PAPBUInputSpec@@@std@@YA?AU_Undefined_move_tag@0@ABQAPBUInputSpec@@@Z 006f5a60 f i control_bindings.obj
 0002:000e1ad0       ??$_Move_backward_opt@PAPBUInputSpec@@PAPBU1@Urandom_access_iterator_tag@std@@U_Undefined_move_tag@3@@std@@YAPAPBUInputSpec@@PAPBU1@00Urandom_access_iterator_tag@0@U_Undefined_move_tag@0@U_Range_checked_iterator_tag@0@@Z 006f5ad0 f i control_bindings.obj
 0002:000e1b70       ??$_Uninit_fill_n@PAPBUInputSpec@@IPBU1@V?$allocator@PBUInputSpec@@@std@@@std@@YAXPAPBUInputSpec@@IABQBU1@AAV?$allocator@PBUInputSpec@@@0@U_Scalar_ptr_iterator_tag@0@U_Range_checked_iterator_tag@0@@Z 006f5b70 f i control_bindings.obj
 0002:000e1bd0       ??$_Iter_cat@V?$_Vector_iterator@PBUInputSpec@@V?$allocator@PBUInputSpec@@@std@@@std@@@std@@YA?AUrandom_access_iterator_tag@0@ABV?$_Vector_iterator@PBUInputSpec@@V?$allocator@PBUInputSpec@@@std@@@0@@Z 006f5bd0 f i control_bindings.obj
 0002:000e1c40       ??$_Debug_range2@V?$_Vector_iterator@PBUInputSpec@@V?$allocator@PBUInputSpec@@@std@@@std@@@std@@YAXV?$_Vector_iterator@PBUInputSpec@@V?$allocator@PBUInputSpec@@@std@@@0@0PB_WIUrandom_access_iterator_tag@0@@Z 006f5c40 f i control_bindings.obj
 0002:000e1d60       ??$_Checked_base@V?$_Vector_iterator@PBUInputSpec@@V?$allocator@PBUInputSpec@@@std@@@std@@@std@@YA?AV?$_Vector_iterator@PBUInputSpec@@V?$allocator@PBUInputSpec@@@std@@@0@AAV10@U_Unchanged_checked_iterator_base_type_tag@0@@Z 006f5d60 f i control_bindings.obj
 0002:000e1dd0       ??$_Uninit_move@V?$_Vector_iterator@PBUInputSpec@@V?$allocator@PBUInputSpec@@@std@@@std@@PAPBUInputSpec@@V?$allocator@PBUInputSpec@@@2@U_Undefined_move_tag@2@@std@@YAPAPBUInputSpec@@V?$_Vector_iterator@PBUInputSpec@@V?$allocator@PBUInputSpec@@@std@@@0@0PAPBU1@AAV?$allocator@PBUInputSpec@@@0@U_Undefined_move_tag@0@U_Range_checked_iterator_tag@0@@Z 006f5dd0 f i control_bindings.obj
 0002:000e1f00       ??$_Checked_base@PAPBUInputSpec@@@std@@YAPAPBUInputSpec@@AAPAPBU1@U_Unchanged_checked_iterator_base_type_tag@0@@Z 006f5f00 f i control_bindings.obj
 0002:000e1f40       ??$_Debug_range@PAPBUInputSpec@@@std@@YAXPAPBUInputSpec@@0PB_WI@Z 006f5f40 f i control_bindings.obj
 0002:000e1fc0       ??$_Debug_pointer@PBUInputSpec@@@std@@YAXPAPBUInputSpec@@PB_WI@Z 006f5fc0 f i control_bindings.obj
 0002:000e2020       ??$_Uninit_move@PAPBUInputSpec@@PAPBU1@V?$allocator@PBUInputSpec@@@std@@U_Undefined_move_tag@3@@std@@YAPAPBUInputSpec@@PAPBU1@00AAV?$allocator@PBUInputSpec@@@0@U_Undefined_move_tag@0@U_Range_checked_iterator_tag@0@@Z 006f6020 f i control_bindings.obj
 0002:000e2080       ??$_Copy_backward_opt@PAPBUInputSpec@@PAPBU1@Urandom_access_iterator_tag@std@@@std@@YAPAPBUInputSpec@@PAPBU1@00Urandom_access_iterator_tag@0@U_Scalar_ptr_iterator_tag@0@U_Range_checked_iterator_tag@0@@Z 006f6080 f i control_bindings.obj
 0002:000e2160       ??$unchecked_fill_n@PAPBUInputSpec@@IPBU1@@stdext@@YAXPAPBUInputSpec@@IABQBU1@@Z 006f6160 f i control_bindings.obj
 0002:000e21f0       ??$_Debug_pointer@V?$_Vector_iterator@PBUInputSpec@@V?$allocator@PBUInputSpec@@@std@@@std@@@std@@YAXAAV?$_Vector_iterator@PBUInputSpec@@V?$allocator@PBUInputSpec@@@std@@@0@PB_WI@Z 006f61f0 f i control_bindings.obj
 0002:000e2220       ??$unchecked_uninitialized_copy@V?$_Vector_iterator@PBUInputSpec@@V?$allocator@PBUInputSpec@@@std@@@std@@PAPBUInputSpec@@V?$allocator@PBUInputSpec@@@2@@stdext@@YAPAPBUInputSpec@@V?$_Vector_iterator@PBUInputSpec@@V?$allocator@PBUInputSpec@@@std@@@std@@0PAPBU1@AAV?$allocator@PBUInputSpec@@@3@@Z 006f6220 f i control_bindings.obj
 0002:000e2390       ??$_Iter_cat@PAPBUInputSpec@@@std@@YA?AUrandom_access_iterator_tag@0@ABQAPBUInputSpec@@@Z 006f6390 f i control_bindings.obj
 0002:000e2400       ??$_Debug_range2@PAPBUInputSpec@@@std@@YAXPAPBUInputSpec@@0PB_WIUrandom_access_iterator_tag@0@@Z 006f6400 f i control_bindings.obj
 0002:000e24a0       ??$unchecked_uninitialized_copy@PAPBUInputSpec@@PAPBU1@V?$allocator@PBUInputSpec@@@std@@@stdext@@YAPAPBUInputSpec@@PAPBU1@00AAV?$allocator@PBUInputSpec@@@std@@@Z 006f64a0 f i control_bindings.obj
 0002:000e2550       ??$_Fill_n@PAPBUInputSpec@@IPBU1@@std@@YAXPAPBUInputSpec@@IABQBU1@Urandom_access_iterator_tag@0@U_Range_checked_iterator_tag@0@@Z 006f6550 f i control_bindings.obj
 0002:000e25e0       ??$_Ptr_cat@V?$_Vector_iterator@PBUInputSpec@@V?$allocator@PBUInputSpec@@@std@@@std@@PAPBUInputSpec@@@std@@YA?AU_Scalar_ptr_iterator_tag@0@AAV?$_Vector_iterator@PBUInputSpec@@V?$allocator@PBUInputSpec@@@std@@@0@AAPAPBUInputSpec@@@Z 006f65e0 f i control_bindings.obj
 0002:000e2650       ??$_Uninit_copy@V?$_Vector_iterator@PBUInputSpec@@V?$allocator@PBUInputSpec@@@std@@@std@@PAPBUInputSpec@@V?$allocator@PBUInputSpec@@@2@@std@@YAPAPBUInputSpec@@V?$_Vector_iterator@PBUInputSpec@@V?$allocator@PBUInputSpec@@@std@@@0@0PAPBU1@AAV?$allocator@PBUInputSpec@@@0@U_Scalar_ptr_iterator_tag@0@U_Range_checked_iterator_tag@0@@Z 006f6650 f i control_bindings.obj
 0002:000e27f0       ??$_Uninit_copy@PAPBUInputSpec@@PAPBU1@V?$allocator@PBUInputSpec@@@std@@@std@@YAPAPBUInputSpec@@PAPBU1@00AAV?$allocator@PBUInputSpec@@@0@U_Scalar_ptr_iterator_tag@0@U_Range_checked_iterator_tag@0@@Z 006f67f0 f i control_bindings.obj
 0002:000e28c0       ??$_Fill_n@PAPBUInputSpec@@IPBU1@@std@@YAXPAPBUInputSpec@@IABQBU1@U_Range_checked_iterator_tag@0@@Z 006f68c0 f i control_bindings.obj
 0002:000e2930       ?readLocaleNames@@YAXXZ    006f6930 f   file_paths.obj
 0002:000e2b30       ??1?$pair@$$CBHV?$basic_string@DU?$char_traits@D@std@@V?$allocator@D@2@@std@@@std@@QAE@XZ 006f6b30 f i file_paths.obj
 0002:000e2b90       ??1?$pair@Viterator@?$_Tree@V?$_Tmap_traits@HV?$basic_string@DU?$char_traits@D@std@@V?$allocator@D@2@@std@@U?$less@H@2@V?$allocator@U?$pair@$$CBHV?$basic_string@DU?$char_traits@D@std@@V?$allocator@D@2@@std@@@std@@@2@$0A@@std@@@std@@_N@std@@QAE@XZ 006f6b90 f i file_paths.obj
 0002:000e2be0       ??1iterator@?$_Tree@V?$_Tmap_traits@HV?$basic_string@DU?$char_traits@D@std@@V?$allocator@D@2@@std@@U?$less@H@2@V?$allocator@U?$pair@$$CBHV?$basic_string@DU?$char_traits@D@std@@V?$allocator@D@2@@std@@@std@@@2@$0A@@std@@@std@@QAE@XZ 006f6be0 f i file_paths.obj
 0002:000e2c30       ??1const_iterator@?$_Tree@V?$_Tmap_traits@HV?$basic_string@DU?$char_traits@D@std@@V?$allocator@D@2@@std@@U?$less@H@2@V?$allocator@U?$pair@$$CBHV?$basic_string@DU?$char_traits@D@std@@V?$allocator@D@2@@std@@@std@@@2@$0A@@std@@@std@@QAE@XZ 006f6c30 f i file_paths.obj
 0002:000e2c80       ??1?$_Bidit@U?$pair@$$CBHV?$basic_string@DU?$char_traits@D@std@@V?$allocator@D@2@@std@@@std@@HPBU12@ABU12@@std@@QAE@XZ 006f6c80 f i file_paths.obj
 0002:000e2cd0       ?GetSystemPrefsPath@InputPrefs@@SAABV?$basic_string@DU?$char_traits@D@std@@V?$allocator@D@2@@std@@XZ 006f6cd0 f   file_paths.obj
 0002:000e2e30       ?GetLocalePrefsPath@InputPrefs@@SAABV?$basic_string@DU?$char_traits@D@std@@V?$allocator@D@2@@std@@XZ 006f6e30 f   file_paths.obj
 0002:000e3280       ??0const_iterator@?$_Tree@V?$_Tmap_traits@HV?$basic_string@DU?$char_traits@D@std@@V?$allocator@D@2@@std@@U?$less@H@2@V?$allocator@U?$pair@$$CBHV?$basic_string@DU?$char_traits@D@std@@V?$allocator@D@2@@std@@@std@@@2@$0A@@std@@@std@@QAE@ABV012@@Z 006f7280 f i file_paths.obj
 0002:000e32f0       ??0?$_Bidit@U?$pair@$$CBHV?$basic_string@DU?$char_traits@D@std@@V?$allocator@D@2@@std@@@std@@HPBU12@ABU12@@std@@QAE@ABU01@@Z 006f72f0 f i file_paths.obj
 0002:000e3350       ?GetUserPrefsPath@InputPrefs@@SAABV?$basic_string@DU?$char_traits@D@std@@V?$allocator@D@2@@std@@XZ 006f7350 f   file_paths.obj
 0002:000e3460       ?append@?$basic_string@DU?$char_traits@D@std@@V?$allocator@D@2@@std@@QAEAAV12@ABV12@@Z 006f7460 f i file_paths.obj
 0002:000e34c0       ?end@?$_Tree@V?$_Tmap_traits@HV?$basic_string@DU?$char_traits@D@std@@V?$allocator@D@2@@std@@U?$less@H@2@V?$allocator@U?$pair@$$CBHV?$basic_string@DU?$char_traits@D@std@@V?$allocator@D@2@@std@@@std@@@2@$0A@@std@@@std@@QAE?AViterator@12@XZ 006f74c0 f i file_paths.obj
 0002:000e3550       ?empty@?$_Tree@V?$_Tmap_traits@HV?$basic_string@DU?$char_traits@D@std@@V?$allocator@D@2@@std@@U?$less@H@2@V?$allocator@U?$pair@$$CBHV?$basic_string@DU?$char_traits@D@std@@V?$allocator@D@2@@std@@@std@@@2@$0A@@std@@@std@@QBE_NXZ 006f7550 f i file_paths.obj
 0002:000e35b0       ?insert@?$_Tree@V?$_Tmap_traits@HV?$basic_string@DU?$char_traits@D@std@@V?$allocator@D@2@@std@@U?$less@H@2@V?$allocator@U?$pair@$$CBHV?$basic_string@DU?$char_traits@D@std@@V?$allocator@D@2@@std@@@std@@@2@$0A@@std@@@std@@QAE?AU?$pair@Viterator@?$_Tree@V?$_Tmap_traits@HV?$basic_string@DU?$char_traits@D@std@@V?$allocator@D@2@@std@@U?$less@H@2@V?$allocator@U?$pair@$$CBHV?$basic_string@DU?$char_traits@D@std@@V?$allocator@D@2@@std@@@std@@@2@$0A@@std@@@std@@_N@2@ABU?$pair@$$CBHV?$basic_string@DU?$char_traits@D@std@@V?$allocator@D@2@@std@@@2@@Z 006f75b0 f i file_paths.obj
 0002:000e3a70       ?find@?$_Tree@V?$_Tmap_traits@HV?$basic_string@DU?$char_traits@D@std@@V?$allocator@D@2@@std@@U?$less@H@2@V?$allocator@U?$pair@$$CBHV?$basic_string@DU?$char_traits@D@std@@V?$allocator@D@2@@std@@@std@@@2@$0A@@std@@@std@@QAE?AViterator@12@ABH@Z 006f7a70 f i file_paths.obj
 0002:000e3cf0       ??Cconst_iterator@?$_Tree@V?$_Tmap_traits@HV?$basic_string@DU?$char_traits@D@std@@V?$allocator@D@2@@std@@U?$less@H@2@V?$allocator@U?$pair@$$CBHV?$basic_string@DU?$char_traits@D@std@@V?$allocator@D@2@@std@@@std@@@2@$0A@@std@@@std@@QBEPBU?$pair@$$CBHV?$basic_string@DU?$char_traits@D@std@@V?$allocator@D@2@@std@@@2@XZ 006f7cf0 f i file_paths.obj
 0002:000e3d40       ??9const_iterator@?$_Tree@V?$_Tmap_traits@HV?$basic_string@DU?$char_traits@D@std@@V?$allocator@D@2@@std@@U?$less@H@2@V?$allocator@U?$pair@$$CBHV?$basic_string@DU?$char_traits@D@std@@V?$allocator@D@2@@std@@@std@@@2@$0A@@std@@@std@@QBE_NABV012@@Z 006f7d40 f i file_paths.obj
 0002:000e3db0       ??0iterator@?$_Tree@V?$_Tmap_traits@HV?$basic_string@DU?$char_traits@D@std@@V?$allocator@D@2@@std@@U?$less@H@2@V?$allocator@U?$pair@$$CBHV?$basic_string@DU?$char_traits@D@std@@V?$allocator@D@2@@std@@@std@@@2@$0A@@std@@@std@@QAE@ABV012@@Z 006f7db0 f i file_paths.obj
 0002:000e3e10       ?_Isnil@?$_Tree@V?$_Tmap_traits@HV?$basic_string@DU?$char_traits@D@std@@V?$allocator@D@2@@std@@U?$less@H@2@V?$allocator@U?$pair@$$CBHV?$basic_string@DU?$char_traits@D@std@@V?$allocator@D@2@@std@@@std@@@2@$0A@@std@@@std@@KAAADPAU_Node@?$_Tree_nod@V?$_Tmap_traits@HV?$basic_string@DU?$char_traits@D@std@@V?$allocator@D@2@@std@@U?$less@H@2@V?$allocator@U?$pair@$$CBHV?$basic_string@DU?$char_traits@D@std@@V?$allocator@D@2@@std@@@std@@@2@$0A@@std@@@2@@Z 006f7e10 f i file_paths.obj
 0002:000e3e50       ?_Key@?$_Tree@V?$_Tmap_traits@HV?$basic_string@DU?$char_traits@D@std@@V?$allocator@D@2@@std@@U?$less@H@2@V?$allocator@U?$pair@$$CBHV?$basic_string@DU?$char_traits@D@std@@V?$allocator@D@2@@std@@@std@@@2@$0A@@std@@@std@@KAABHPAU_Node@?$_Tree_nod@V?$_Tmap_traits@HV?$basic_string@DU?$char_traits@D@std@@V?$allocator@D@2@@std@@U?$less@H@2@V?$allocator@U?$pair@$$CBHV?$basic_string@DU?$char_traits@D@std@@V?$allocator@D@2@@std@@@std@@@2@$0A@@std@@@2@@Z 006f7e50 f i file_paths.obj
 0002:000e3eb0       ?_Left@?$_Tree@V?$_Tmap_traits@HV?$basic_string@DU?$char_traits@D@std@@V?$allocator@D@2@@std@@U?$less@H@2@V?$allocator@U?$pair@$$CBHV?$basic_string@DU?$char_traits@D@std@@V?$allocator@D@2@@std@@@std@@@2@$0A@@std@@@std@@KAAAPAU_Node@?$_Tree_nod@V?$_Tmap_traits@HV?$basic_string@DU?$char_traits@D@std@@V?$allocator@D@2@@std@@U?$less@H@2@V?$allocator@U?$pair@$$CBHV?$basic_string@DU?$char_traits@D@std@@V?$allocator@D@2@@std@@@std@@@2@$0A@@std@@@2@PAU342@@Z 006f7eb0 f i file_paths.obj
 0002:000e3ef0       ?_Right@?$_Tree@V?$_Tmap_traits@HV?$basic_string@DU?$char_traits@D@std@@V?$allocator@D@2@@std@@U?$less@H@2@V?$allocator@U?$pair@$$CBHV?$basic_string@DU?$char_traits@D@std@@V?$allocator@D@2@@std@@@std@@@2@$0A@@std@@@std@@KAAAPAU_Node@?$_Tree_nod@V?$_Tmap_traits@HV?$basic_string@DU?$char_traits@D@std@@V?$allocator@D@2@@std@@U?$less@H@2@V?$allocator@U?$pair@$$CBHV?$basic_string@DU?$char_traits@D@std@@V?$allocator@D@2@@std@@@std@@@2@$0A@@std@@@2@PAU342@@Z 006f7ef0 f i file_paths.obj
 0002:000e3f30       ?begin@?$_Tree@V?$_Tmap_traits@HV?$basic_string@DU?$char_traits@D@std@@V?$allocator@D@2@@std@@U?$less@H@2@V?$allocator@U?$pair@$$CBHV?$basic_string@DU?$char_traits@D@std@@V?$allocator@D@2@@std@@@std@@@2@$0A@@std@@@std@@QAE?AViterator@12@XZ 006f7f30 f i file_paths.obj
 0002:000e3fc0       ?size@?$_Tree@V?$_Tmap_traits@HV?$basic_string@DU?$char_traits@D@std@@V?$allocator@D@2@@std@@U?$less@H@2@V?$allocator@U?$pair@$$CBHV?$basic_string@DU?$char_traits@D@std@@V?$allocator@D@2@@std@@@std@@@2@$0A@@std@@@std@@QBEIXZ 006f7fc0 f i file_paths.obj
 0002:000e4000       ?lower_bound@?$_Tree@V?$_Tmap_traits@HV?$basic_string@DU?$char_traits@D@std@@V?$allocator@D@2@@std@@U?$less@H@2@V?$allocator@U?$pair@$$CBHV?$basic_string@DU?$char_traits@D@std@@V?$allocator@D@2@@std@@@std@@@2@$0A@@std@@@std@@QAE?AViterator@12@ABH@Z 006f8000 f i file_paths.obj
 0002:000e4090       ?_Insert@?$_Tree@V?$_Tmap_traits@HV?$basic_string@DU?$char_traits@D@std@@V?$allocator@D@2@@std@@U?$less@H@2@V?$allocator@U?$pair@$$CBHV?$basic_string@DU?$char_traits@D@std@@V?$allocator@D@2@@std@@@std@@@2@$0A@@std@@@std@@IAE?AViterator@12@_NPAU_Node@?$_Tree_nod@V?$_Tmap_traits@HV?$basic_string@DU?$char_traits@D@std@@V?$allocator@D@2@@std@@U?$less@H@2@V?$allocator@U?$pair@$$CBHV?$basic_string@DU?$char_traits@D@std@@V?$allocator@D@2@@std@@@std@@@2@$0A@@std@@@2@ABU?$pair@$$CBHV?$basic_string@DU?$char_traits@D@std@@V?$allocator@D@2@@std@@@2@@Z 006f8090 f i file_paths.obj
 0002:000e4690       ?_Root@?$_Tree@V?$_Tmap_traits@HV?$basic_string@DU?$char_traits@D@std@@V?$allocator@D@2@@std@@U?$less@H@2@V?$allocator@U?$pair@$$CBHV?$basic_string@DU?$char_traits@D@std@@V?$allocator@D@2@@std@@@std@@@2@$0A@@std@@@std@@IBEAAPAU_Node@?$_Tree_nod@V?$_Tmap_traits@HV?$basic_string@DU?$char_traits@D@std@@V?$allocator@D@2@@std@@U?$less@H@2@V?$allocator@U?$pair@$$CBHV?$basic_string@DU?$char_traits@D@std@@V?$allocator@D@2@@std@@@std@@@2@$0A@@std@@@2@XZ 006f8690 f i file_paths.obj
 0002:000e46f0       ?_Kfn@?$_Tmap_traits@HV?$basic_string@DU?$char_traits@D@std@@V?$allocator@D@2@@std@@U?$less@H@2@V?$allocator@U?$pair@$$CBHV?$basic_string@DU?$char_traits@D@std@@V?$allocator@D@2@@std@@@std@@@2@$0A@@std@@SAABHABU?$pair@$$CBHV?$basic_string@DU?$char_traits@D@std@@V?$allocator@D@2@@std@@@2@@Z 006f86f0 f i file_paths.obj
 0002:000e4730       ??0?$pair@Viterator@?$_Tree@V?$_Tmap_traits@HV?$basic_string@DU?$char_traits@D@std@@V?$allocator@D@2@@std@@U?$less@H@2@V?$allocator@U?$pair@$$CBHV?$basic_string@DU?$char_traits@D@std@@V?$allocator@D@2@@std@@@std@@@2@$0A@@std@@@std@@_N@std@@QAE@ABViterator@?$_Tree@V?$_Tmap_traits@HV?$basic_string@DU?$char_traits@D@std@@V?$allocator@D@2@@std@@U?$less@H@2@V?$allocator@U?$pair@$$CBHV?$basic_string@DU?$char_traits@D@std@@V?$allocator@D@2@@std@@@std@@@2@$0A@@std@@@1@AB_N@Z 006f8730 f i file_paths.obj
 0002:000e47a0       ??0iterator@?$_Tree@V?$_Tmap_traits@HV?$basic_string@DU?$char_traits@D@std@@V?$allocator@D@2@@std@@U?$less@H@2@V?$allocator@U?$pair@$$CBHV?$basic_string@DU?$char_traits@D@std@@V?$allocator@D@2@@std@@@std@@@2@$0A@@std@@@std@@QAE@PAU_Node@?$_Tree_nod@V?$_Tmap_traits@HV?$basic_string@DU?$char_traits@D@std@@V?$allocator@D@2@@std@@U?$less@H@2@V?$allocator@U?$pair@$$CBHV?$basic_string@DU?$char_traits@D@std@@V?$allocator@D@2@@std@@@std@@@2@$0A@@std@@@2@PBV12@@Z 006f87a0 f i file_paths.obj
 0002:000e4800       ??Fiterator@?$_Tree@V?$_Tmap_traits@HV?$basic_string@DU?$char_traits@D@std@@V?$allocator@D@2@@std@@U?$less@H@2@V?$allocator@U?$pair@$$CBHV?$basic_string@DU?$char_traits@D@std@@V?$allocator@D@2@@std@@@std@@@2@$0A@@std@@@std@@QAEAAV012@XZ 006f8800 f i file_paths.obj
 0002:000e4860       ??Dconst_iterator@?$_Tree@V?$_Tmap_traits@HV?$basic_string@DU?$char_traits@D@std@@V?$allocator@D@2@@std@@U?$less@H@2@V?$allocator@U?$pair@$$CBHV?$basic_string@DU?$char_traits@D@std@@V?$allocator@D@2@@std@@@std@@@2@$0A@@std@@@std@@QBEABU?$pair@$$CBHV?$basic_string@DU?$char_traits@D@std@@V?$allocator@D@2@@std@@@2@XZ 006f8860 f i file_paths.obj
 0002:000e4950       ??8const_iterator@?$_Tree@V?$_Tmap_traits@HV?$basic_string@DU?$char_traits@D@std@@V?$allocator@D@2@@std@@U?$less@H@2@V?$allocator@U?$pair@$$CBHV?$basic_string@DU?$char_traits@D@std@@V?$allocator@D@2@@std@@@std@@@2@$0A@@std@@@std@@QBE_NABV012@@Z 006f8950 f i file_paths.obj
 0002:000e4a40       ?_Mynode@const_iterator@?$_Tree@V?$_Tmap_traits@HV?$basic_string@DU?$char_traits@D@std@@V?$allocator@D@2@@std@@U?$less@H@2@V?$allocator@U?$pair@$$CBHV?$basic_string@DU?$char_traits@D@std@@V?$allocator@D@2@@std@@@std@@@2@$0A@@std@@@std@@QBEPAU_Node@?$_Tree_nod@V?$_Tmap_traits@HV?$basic_string@DU?$char_traits@D@std@@V?$allocator@D@2@@std@@U?$less@H@2@V?$allocator@U?$pair@$$CBHV?$basic_string@DU?$char_traits@D@std@@V?$allocator@D@2@@std@@@std@@@2@$0A@@std@@@3@XZ 006f8a40 f i file_paths.obj
 0002:000e4a80       ?_Color@?$_Tree@V?$_Tmap_traits@HV?$basic_string@DU?$char_traits@D@std@@V?$allocator@D@2@@std@@U?$less@H@2@V?$allocator@U?$pair@$$CBHV?$basic_string@DU?$char_traits@D@std@@V?$allocator@D@2@@std@@@std@@@2@$0A@@std@@@std@@KAAADPAU_Node@?$_Tree_nod@V?$_Tmap_traits@HV?$basic_string@DU?$char_traits@D@std@@V?$allocator@D@2@@std@@U?$less@H@2@V?$allocator@U?$pair@$$CBHV?$basic_string@DU?$char_traits@D@std@@V?$allocator@D@2@@std@@@std@@@2@$0A@@std@@@2@@Z 006f8a80 f i file_paths.obj
 0002:000e4ac0       ?_Parent@?$_Tree@V?$_Tmap_traits@HV?$basic_string@DU?$char_traits@D@std@@V?$allocator@D@2@@std@@U?$less@H@2@V?$allocator@U?$pair@$$CBHV?$basic_string@DU?$char_traits@D@std@@V?$allocator@D@2@@std@@@std@@@2@$0A@@std@@@std@@KAAAPAU_Node@?$_Tree_nod@V?$_Tmap_traits@HV?$basic_string@DU?$char_traits@D@std@@V?$allocator@D@2@@std@@U?$less@H@2@V?$allocator@U?$pair@$$CBHV?$basic_string@DU?$char_traits@D@std@@V?$allocator@D@2@@std@@@std@@@2@$0A@@std@@@2@PAU342@@Z 006f8ac0 f i file_paths.obj
 0002:000e4b00       ?_Myval@?$_Tree@V?$_Tmap_traits@HV?$basic_string@DU?$char_traits@D@std@@V?$allocator@D@2@@std@@U?$less@H@2@V?$allocator@U?$pair@$$CBHV?$basic_string@DU?$char_traits@D@std@@V?$allocator@D@2@@std@@@std@@@2@$0A@@std@@@std@@KAAAU?$pair@$$CBHV?$basic_string@DU?$char_traits@D@std@@V?$allocator@D@2@@std@@@2@PAU_Node@?$_Tree_nod@V?$_Tmap_traits@HV?$basic_string@DU?$char_traits@D@std@@V?$allocator@D@2@@std@@U?$less@H@2@V?$allocator@U?$pair@$$CBHV?$basic_string@DU?$char_traits@D@std@@V?$allocator@D@2@@std@@@std@@@2@$0A@@std@@@2@@Z 006f8b00 f i file_paths.obj
 0002:000e4b40       ?max_size@?$_Tree@V?$_Tmap_traits@HV?$basic_string@DU?$char_traits@D@std@@V?$allocator@D@2@@std@@U?$less@H@2@V?$allocator@U?$pair@$$CBHV?$basic_string@DU?$char_traits@D@std@@V?$allocator@D@2@@std@@@std@@@2@$0A@@std@@@std@@QBEIXZ 006f8b40 f i file_paths.obj
 0002:000e4ba0       ?_Lbound@?$_Tree@V?$_Tmap_traits@HV?$basic_string@DU?$char_traits@D@std@@V?$allocator@D@2@@std@@U?$less@H@2@V?$allocator@U?$pair@$$CBHV?$basic_string@DU?$char_traits@D@std@@V?$allocator@D@2@@std@@@std@@@2@$0A@@std@@@std@@IBEPAU_Node@?$_Tree_nod@V?$_Tmap_traits@HV?$basic_string@DU?$char_traits@D@std@@V?$allocator@D@2@@std@@U?$less@H@2@V?$allocator@U?$pair@$$CBHV?$basic_string@DU?$char_traits@D@std@@V?$allocator@D@2@@std@@@std@@@2@$0A@@std@@@2@ABH@Z 006f8ba0 f i file_paths.obj
 0002:000e4ca0       ?_Lmost@?$_Tree@V?$_Tmap_traits@HV?$basic_string@DU?$char_traits@D@std@@V?$allocator@D@2@@std@@U?$less@H@2@V?$allocator@U?$pair@$$CBHV?$basic_string@DU?$char_traits@D@std@@V?$allocator@D@2@@std@@@std@@@2@$0A@@std@@@std@@IBEAAPAU_Node@?$_Tree_nod@V?$_Tmap_traits@HV?$basic_string@DU?$char_traits@D@std@@V?$allocator@D@2@@std@@U?$less@H@2@V?$allocator@U?$pair@$$CBHV?$basic_string@DU?$char_traits@D@std@@V?$allocator@D@2@@std@@@std@@@2@$0A@@std@@@2@XZ 006f8ca0 f i file_paths.obj
 0002:000e4d00       ?_Lrotate@?$_Tree@V?$_Tmap_traits@HV?$basic_string@DU?$char_traits@D@std@@V?$allocator@D@2@@std@@U?$less@H@2@V?$allocator@U?$pair@$$CBHV?$basic_string@DU?$char_traits@D@std@@V?$allocator@D@2@@std@@@std@@@2@$0A@@std@@@std@@IAEXPAU_Node@?$_Tree_nod@V?$_Tmap_traits@HV?$basic_string@DU?$char_traits@D@std@@V?$allocator@D@2@@std@@U?$less@H@2@V?$allocator@U?$pair@$$CBHV?$basic_string@DU?$char_traits@D@std@@V?$allocator@D@2@@std@@@std@@@2@$0A@@std@@@2@@Z 006f8d00 f i file_paths.obj
 0002:000e4eb0       ?_Rmost@?$_Tree@V?$_Tmap_traits@HV?$basic_string@DU?$char_traits@D@std@@V?$allocator@D@2@@std@@U?$less@H@2@V?$allocator@U?$pair@$$CBHV?$basic_string@DU?$char_traits@D@std@@V?$allocator@D@2@@std@@@std@@@2@$0A@@std@@@std@@IBEAAPAU_Node@?$_Tree_nod@V?$_Tmap_traits@HV?$basic_string@DU?$char_traits@D@std@@V?$allocator@D@2@@std@@U?$less@H@2@V?$allocator@U?$pair@$$CBHV?$basic_string@DU?$char_traits@D@std@@V?$allocator@D@2@@std@@@std@@@2@$0A@@std@@@2@XZ 006f8eb0 f i file_paths.obj
 0002:000e4f10       ?_Rrotate@?$_Tree@V?$_Tmap_traits@HV?$basic_string@DU?$char_traits@D@std@@V?$allocator@D@2@@std@@U?$less@H@2@V?$allocator@U?$pair@$$CBHV?$basic_string@DU?$char_traits@D@std@@V?$allocator@D@2@@std@@@std@@@2@$0A@@std@@@std@@IAEXPAU_Node@?$_Tree_nod@V?$_Tmap_traits@HV?$basic_string@DU?$char_traits@D@std@@V?$allocator@D@2@@std@@U?$less@H@2@V?$allocator@U?$pair@$$CBHV?$basic_string@DU?$char_traits@D@std@@V?$allocator@D@2@@std@@@std@@@2@$0A@@std@@@2@@Z 006f8f10 f i file_paths.obj
 0002:000e50c0       ?_Buynode@?$_Tree@V?$_Tmap_traits@HV?$basic_string@DU?$char_traits@D@std@@V?$allocator@D@2@@std@@U?$less@H@2@V?$allocator@U?$pair@$$CBHV?$basic_string@DU?$char_traits@D@std@@V?$allocator@D@2@@std@@@std@@@2@$0A@@std@@@std@@IAEPAU_Node@?$_Tree_nod@V?$_Tmap_traits@HV?$basic_string@DU?$char_traits@D@std@@V?$allocator@D@2@@std@@U?$less@H@2@V?$allocator@U?$pair@$$CBHV?$basic_string@DU?$char_traits@D@std@@V?$allocator@D@2@@std@@@std@@@2@$0A@@std@@@2@PAU342@00ABU?$pair@$$CBHV?$basic_string@DU?$char_traits@D@std@@V?$allocator@D@2@@std@@@2@D@Z 006f90c0 f i file_paths.obj
 0002:000e5230       ?deallocate@?$allocator@U_Node@?$_Tree_nod@V?$_Tmap_traits@HV?$basic_string@DU?$char_traits@D@std@@V?$allocator@D@2@@std@@U?$less@H@2@V?$allocator@U?$pair@$$CBHV?$basic_string@DU?$char_traits@D@std@@V?$allocator@D@2@@std@@@std@@@2@$0A@@std@@@std@@@std@@QAEXPAU_Node@?$_Tree_nod@V?$_Tmap_traits@HV?$basic_string@DU?$char_traits@D@std@@V?$allocator@D@2@@std@@U?$less@H@2@V?$allocator@U?$pair@$$CBHV?$basic_string@DU?$char_traits@D@std@@V?$allocator@D@2@@std@@@std@@@2@$0A@@std@@@2@I@Z 006f9230 f i file_paths.obj
 0002:000e5290       ??0const_iterator@?$_Tree@V?$_Tmap_traits@HV?$basic_string@DU?$char_traits@D@std@@V?$allocator@D@2@@std@@U?$less@H@2@V?$allocator@U?$pair@$$CBHV?$basic_string@DU?$char_traits@D@std@@V?$allocator@D@2@@std@@@std@@@2@$0A@@std@@@std@@QAE@PAU_Node@?$_Tree_nod@V?$_Tmap_traits@HV?$basic_string@DU?$char_traits@D@std@@V?$allocator@D@2@@std@@U?$less@H@2@V?$allocator@U?$pair@$$CBHV?$basic_string@DU?$char_traits@D@std@@V?$allocator@D@2@@std@@@std@@@2@$0A@@std@@@2@PBV12@@Z 006f9290 f i file_paths.obj
 0002:000e5350       ??Fconst_iterator@?$_Tree@V?$_Tmap_traits@HV?$basic_string@DU?$char_traits@D@std@@V?$allocator@D@2@@std@@U?$less@H@2@V?$allocator@U?$pair@$$CBHV?$basic_string@DU?$char_traits@D@std@@V?$allocator@D@2@@std@@@std@@@2@$0A@@std@@@std@@QAEAAV012@XZ 006f9350 f i file_paths.obj
 0002:000e53b0       ??0?$_Bidit@U?$pair@$$CBHV?$basic_string@DU?$char_traits@D@std@@V?$allocator@D@2@@std@@@std@@HPBU12@ABU12@@std@@QAE@XZ 006f93b0 f i file_paths.obj
 0002:000e5410       ?max_size@?$allocator@U?$pair@$$CBHV?$basic_string@DU?$char_traits@D@std@@V?$allocator@D@2@@std@@@std@@@std@@QBEIXZ 006f9410 f i file_paths.obj
 0002:000e5480       ?allocate@?$allocator@U_Node@?$_Tree_nod@V?$_Tmap_traits@HV?$basic_string@DU?$char_traits@D@std@@V?$allocator@D@2@@std@@U?$less@H@2@V?$allocator@U?$pair@$$CBHV?$basic_string@DU?$char_traits@D@std@@V?$allocator@D@2@@std@@@std@@@2@$0A@@std@@@std@@@std@@QAEPAU_Node@?$_Tree_nod@V?$_Tmap_traits@HV?$basic_string@DU?$char_traits@D@std@@V?$allocator@D@2@@std@@U?$less@H@2@V?$allocator@U?$pair@$$CBHV?$basic_string@DU?$char_traits@D@std@@V?$allocator@D@2@@std@@@std@@@2@$0A@@std@@@2@I@Z 006f9480 f i file_paths.obj
 0002:000e54e0       ?_Dec@const_iterator@?$_Tree@V?$_Tmap_traits@HV?$basic_string@DU?$char_traits@D@std@@V?$allocator@D@2@@std@@U?$less@H@2@V?$allocator@U?$pair@$$CBHV?$basic_string@DU?$char_traits@D@std@@V?$allocator@D@2@@std@@@std@@@2@$0A@@std@@@std@@QAEXXZ 006f94e0 f i file_paths.obj
 0002:000e57c0       ??0_Node@?$_Tree_nod@V?$_Tmap_traits@HV?$basic_string@DU?$char_traits@D@std@@V?$allocator@D@2@@std@@U?$less@H@2@V?$allocator@U?$pair@$$CBHV?$basic_string@DU?$char_traits@D@std@@V?$allocator@D@2@@std@@@std@@@2@$0A@@std@@@std@@QAE@PAU012@00ABU?$pair@$$CBHV?$basic_string@DU?$char_traits@D@std@@V?$allocator@D@2@@std@@@2@D@Z 006f97c0 f i file_paths.obj
 0002:000e5860       ??0?$pair@$$CBHV?$basic_string@DU?$char_traits@D@std@@V?$allocator@D@2@@std@@@std@@QAE@ABU01@@Z 006f9860 f i file_paths.obj
 0002:000e58d0       ?_Max@?$_Tree@V?$_Tmap_traits@HV?$basic_string@DU?$char_traits@D@std@@V?$allocator@D@2@@std@@U?$less@H@2@V?$allocator@U?$pair@$$CBHV?$basic_string@DU?$char_traits@D@std@@V?$allocator@D@2@@std@@@std@@@2@$0A@@std@@@std@@KAPAU_Node@?$_Tree_nod@V?$_Tmap_traits@HV?$basic_string@DU?$char_traits@D@std@@V?$allocator@D@2@@std@@U?$less@H@2@V?$allocator@U?$pair@$$CBHV?$basic_string@DU?$char_traits@D@std@@V?$allocator@D@2@@std@@@std@@@2@$0A@@std@@@2@PAU342@@Z 006f98d0 f i file_paths.obj
 0002:000e5950       ??$?HDU?$char_traits@D@std@@V?$allocator@D@1@@std@@YA?AV?$basic_string@DU?$char_traits@D@std@@V?$allocator@D@2@@0@ABV10@PBD@Z 006f9950 f i file_paths.obj
 0002:000e5a50       ??$make_pair@HPAD@std@@YA?AU?$pair@HPAD@0@HPAD@Z 006f9a50 f i file_paths.obj
 0002:000e5ab0       ??$?0HPAD@?$pair@$$CBHV?$basic_string@DU?$char_traits@D@std@@V?$allocator@D@2@@std@@@std@@QAE@ABU?$pair@HPAD@1@@Z 006f9ab0 f i file_paths.obj
 0002:000e5b20       ??$?8DU?$char_traits@D@std@@V?$allocator@D@1@@std@@YA_NABV?$basic_string@DU?$char_traits@D@std@@V?$allocator@D@2@@0@PBD@Z 006f9b20 f i file_paths.obj
 0002:000e5b80       ?compare@?$basic_string@DU?$char_traits@D@std@@V?$allocator@D@2@@std@@QBEHPBD@Z 006f9b80 f i file_paths.obj
 0002:000e5c00       ?compare@?$basic_string@DU?$char_traits@D@std@@V?$allocator@D@2@@std@@QBEHIIPBDI@Z 006f9c00 f i file_paths.obj
 0002:000e5d40       ??$?HDU?$char_traits@D@std@@V?$allocator@D@1@@std@@YA?AV?$basic_string@DU?$char_traits@D@std@@V?$allocator@D@2@@0@ABV10@0@Z 006f9d40 f i file_paths.obj
 0002:000e5e40       ??$?9DU?$char_traits@D@std@@V?$allocator@D@1@@std@@YA_NABV?$basic_string@DU?$char_traits@D@std@@V?$allocator@D@2@@0@PBD@Z 006f9e40 f i file_paths.obj
 0002:000e5ea0       ??$_Debug_lt_pred@U?$less@H@std@@HH@std@@YA_NU?$less@H@0@ABH1PB_WI@Z 006f9ea0 f i file_paths.obj
 0002:000e5f40       ??$_Allocate@U_Node@?$_Tree_nod@V?$_Tmap_traits@HV?$basic_string@DU?$char_traits@D@std@@V?$allocator@D@2@@std@@U?$less@H@2@V?$allocator@U?$pair@$$CBHV?$basic_string@DU?$char_traits@D@std@@V?$allocator@D@2@@std@@@std@@@2@$0A@@std@@@std@@@std@@YAPAU_Node@?$_Tree_nod@V?$_Tmap_traits@HV?$basic_string@DU?$char_traits@D@std@@V?$allocator@D@2@@std@@U?$less@H@2@V?$allocator@U?$pair@$$CBHV?$basic_string@DU?$char_traits@D@std@@V?$allocator@D@2@@std@@@std@@@2@$0A@@std@@@0@IPAU120@@Z 006f9f40 f i file_paths.obj
 0002:000e5fe0       ??Y?$basic_string@DU?$char_traits@D@std@@V?$allocator@D@2@@std@@QAEAAV01@ABV01@@Z 006f9fe0 f i file_paths.obj
 0002:000e6040       ??Y?$basic_string@DU?$char_traits@D@std@@V?$allocator@D@2@@std@@QAEAAV01@PBD@Z 006fa040 f i file_paths.obj
 0002:000e60a0       ??R?$less@H@std@@QBE_NABH0@Z 006fa0a0 f i file_paths.obj
 0002:000e60f0       ??0?$pair@HPAD@std@@QAE@ABHABQAD@Z 006fa0f0 f i file_paths.obj
 0002:000e6150       ?append@?$basic_string@DU?$char_traits@D@std@@V?$allocator@D@2@@std@@QAEAAV12@PBD@Z 006fa150 f i file_paths.obj
 0002:000e61c0       ??0?$map@HV?$basic_string@DU?$char_traits@D@std@@V?$allocator@D@2@@std@@U?$less@H@2@V?$allocator@U?$pair@$$CBHV?$basic_string@DU?$char_traits@D@std@@V?$allocator@D@2@@std@@@std@@@2@@std@@QAE@XZ 006fa1c0 f i file_paths.obj
 0002:000e6230       ??0?$_Tree@V?$_Tmap_traits@HV?$basic_string@DU?$char_traits@D@std@@V?$allocator@D@2@@std@@U?$less@H@2@V?$allocator@U?$pair@$$CBHV?$basic_string@DU?$char_traits@D@std@@V?$allocator@D@2@@std@@@std@@@2@$0A@@std@@@std@@QAE@ABU?$less@H@1@ABV?$allocator@U?$pair@$$CBHV?$basic_string@DU?$char_traits@D@std@@V?$allocator@D@2@@std@@@std@@@1@@Z 006fa230 f i file_paths.obj
 0002:000e62f0       ??1?$_Tree_val@V?$_Tmap_traits@HV?$basic_string@DU?$char_traits@D@std@@V?$allocator@D@2@@std@@U?$less@H@2@V?$allocator@U?$pair@$$CBHV?$basic_string@DU?$char_traits@D@std@@V?$allocator@D@2@@std@@@std@@@2@$0A@@std@@@std@@QAE@XZ 006fa2f0 f i file_paths.obj
 0002:000e6340       ??1?$_Tree_ptr@V?$_Tmap_traits@HV?$basic_string@DU?$char_traits@D@std@@V?$allocator@D@2@@std@@U?$less@H@2@V?$allocator@U?$pair@$$CBHV?$basic_string@DU?$char_traits@D@std@@V?$allocator@D@2@@std@@@std@@@2@$0A@@std@@@std@@QAE@XZ 006fa340 f i file_paths.obj
 0002:000e6390       ??1?$_Tree_nod@V?$_Tmap_traits@HV?$basic_string@DU?$char_traits@D@std@@V?$allocator@D@2@@std@@U?$less@H@2@V?$allocator@U?$pair@$$CBHV?$basic_string@DU?$char_traits@D@std@@V?$allocator@D@2@@std@@@std@@@2@$0A@@std@@@std@@QAE@XZ 006fa390 f i file_paths.obj
 0002:000e63e0       ??1?$_Tmap_traits@HV?$basic_string@DU?$char_traits@D@std@@V?$allocator@D@2@@std@@U?$less@H@2@V?$allocator@U?$pair@$$CBHV?$basic_string@DU?$char_traits@D@std@@V?$allocator@D@2@@std@@@std@@@2@$0A@@std@@QAE@XZ 006fa3e0 f i file_paths.obj
 0002:000e6430       ??0?$allocator@U?$pair@$$CBHV?$basic_string@DU?$char_traits@D@std@@V?$allocator@D@2@@std@@@std@@@std@@QAE@XZ 006fa430 f i file_paths.obj
 0002:000e6470       ?_Init@?$_Tree@V?$_Tmap_traits@HV?$basic_string@DU?$char_traits@D@std@@V?$allocator@D@2@@std@@U?$less@H@2@V?$allocator@U?$pair@$$CBHV?$basic_string@DU?$char_traits@D@std@@V?$allocator@D@2@@std@@@std@@@2@$0A@@std@@@std@@IAEXXZ 006fa470 f i file_paths.obj
 0002:000e6530       ??0?$_Tree_val@V?$_Tmap_traits@HV?$basic_string@DU?$char_traits@D@std@@V?$allocator@D@2@@std@@U?$less@H@2@V?$allocator@U?$pair@$$CBHV?$basic_string@DU?$char_traits@D@std@@V?$allocator@D@2@@std@@@std@@@2@$0A@@std@@@std@@IAE@ABU?$less@H@1@V?$allocator@U?$pair@$$CBHV?$basic_string@DU?$char_traits@D@std@@V?$allocator@D@2@@std@@@std@@@1@@Z 006fa530 f i file_paths.obj
 0002:000e65c0       ??0?$allocator@U?$pair@$$CBHV?$basic_string@DU?$char_traits@D@std@@V?$allocator@D@2@@std@@@std@@@std@@QAE@ABV01@@Z 006fa5c0 f i file_paths.obj
 0002:000e6600       ?_Buynode@?$_Tree@V?$_Tmap_traits@HV?$basic_string@DU?$char_traits@D@std@@V?$allocator@D@2@@std@@U?$less@H@2@V?$allocator@U?$pair@$$CBHV?$basic_string@DU?$char_traits@D@std@@V?$allocator@D@2@@std@@@std@@@2@$0A@@std@@@std@@IAEPAU_Node@?$_Tree_nod@V?$_Tmap_traits@HV?$basic_string@DU?$char_traits@D@std@@V?$allocator@D@2@@std@@U?$less@H@2@V?$allocator@U?$pair@$$CBHV?$basic_string@DU?$char_traits@D@std@@V?$allocator@D@2@@std@@@std@@@2@$0A@@std@@@2@XZ 006fa600 f i file_paths.obj
 0002:000e6840       ?destroy@?$allocator@PAU_Node@?$_Tree_nod@V?$_Tmap_traits@HV?$basic_string@DU?$char_traits@D@std@@V?$allocator@D@2@@std@@U?$less@H@2@V?$allocator@U?$pair@$$CBHV?$basic_string@DU?$char_traits@D@std@@V?$allocator@D@2@@std@@@std@@@2@$0A@@std@@@std@@@std@@QAEXPAPAU_Node@?$_Tree_nod@V?$_Tmap_traits@HV?$basic_string@DU?$char_traits@D@std@@V?$allocator@D@2@@std@@U?$less@H@2@V?$allocator@U?$pair@$$CBHV?$basic_string@DU?$char_traits@D@std@@V?$allocator@D@2@@std@@@std@@@2@$0A@@std@@@2@@Z 006fa840 f i file_paths.obj
 0002:000e68a0       ??0?$_Tree_ptr@V?$_Tmap_traits@HV?$basic_string@DU?$char_traits@D@std@@V?$allocator@D@2@@std@@U?$less@H@2@V?$allocator@U?$pair@$$CBHV?$basic_string@DU?$char_traits@D@std@@V?$allocator@D@2@@std@@@std@@@2@$0A@@std@@@std@@QAE@ABU?$less@H@1@V?$allocator@U?$pair@$$CBHV?$basic_string@DU?$char_traits@D@std@@V?$allocator@D@2@@std@@@std@@@1@@Z 006fa8a0 f i file_paths.obj
 0002:000e6930       ??0?$_Tree_nod@V?$_Tmap_traits@HV?$basic_string@DU?$char_traits@D@std@@V?$allocator@D@2@@std@@U?$less@H@2@V?$allocator@U?$pair@$$CBHV?$basic_string@DU?$char_traits@D@std@@V?$allocator@D@2@@std@@@std@@@2@$0A@@std@@@std@@IAE@ABU?$less@H@1@V?$allocator@U?$pair@$$CBHV?$basic_string@DU?$char_traits@D@std@@V?$allocator@D@2@@std@@@std@@@1@@Z 006fa930 f i file_paths.obj
 0002:000e69a0       ?construct@?$allocator@PAU_Node@?$_Tree_nod@V?$_Tmap_traits@HV?$basic_string@DU?$char_traits@D@std@@V?$allocator@D@2@@std@@U?$less@H@2@V?$allocator@U?$pair@$$CBHV?$basic_string@DU?$char_traits@D@std@@V?$allocator@D@2@@std@@@std@@@2@$0A@@std@@@std@@@std@@QAEXPAPAU_Node@?$_Tree_nod@V?$_Tmap_traits@HV?$basic_string@DU?$char_traits@D@std@@V?$allocator@D@2@@std@@U?$less@H@2@V?$allocator@U?$pair@$$CBHV?$basic_string@DU?$char_traits@D@std@@V?$allocator@D@2@@std@@@std@@@2@$0A@@std@@@2@ABQAU342@@Z 006fa9a0 f i file_paths.obj
 0002:000e6a00       ??0?$_Tmap_traits@HV?$basic_string@DU?$char_traits@D@std@@V?$allocator@D@2@@std@@U?$less@H@2@V?$allocator@U?$pair@$$CBHV?$basic_string@DU?$char_traits@D@std@@V?$allocator@D@2@@std@@@std@@@2@$0A@@std@@QAE@U?$less@H@1@@Z 006faa00 f i file_paths.obj
 0002:000e6a60       ??$_Destroy@PAU_Node@?$_Tree_nod@V?$_Tmap_traits@HV?$basic_string@DU?$char_traits@D@std@@V?$allocator@D@2@@std@@U?$less@H@2@V?$allocator@U?$pair@$$CBHV?$basic_string@DU?$char_traits@D@std@@V?$allocator@D@2@@std@@@std@@@2@$0A@@std@@@std@@@std@@YAXPAPAU_Node@?$_Tree_nod@V?$_Tmap_traits@HV?$basic_string@DU?$char_traits@D@std@@V?$allocator@D@2@@std@@U?$less@H@2@V?$allocator@U?$pair@$$CBHV?$basic_string@DU?$char_traits@D@std@@V?$allocator@D@2@@std@@@std@@@2@$0A@@std@@@0@@Z 006faa60 f i file_paths.obj
 0002:000e6a90       ??$?0U?$pair@$$CBHV?$basic_string@DU?$char_traits@D@std@@V?$allocator@D@2@@std@@@std@@@?$allocator@PAU_Node@?$_Tree_nod@V?$_Tmap_traits@HV?$basic_string@DU?$char_traits@D@std@@V?$allocator@D@2@@std@@U?$less@H@2@V?$allocator@U?$pair@$$CBHV?$basic_string@DU?$char_traits@D@std@@V?$allocator@D@2@@std@@@std@@@2@$0A@@std@@@std@@@std@@QAE@ABV?$allocator@U?$pair@$$CBHV?$basic_string@DU?$char_traits@D@std@@V?$allocator@D@2@@std@@@std@@@1@@Z 006faa90 f i file_paths.obj
 0002:000e6ad0       ??$?0U?$pair@$$CBHV?$basic_string@DU?$char_traits@D@std@@V?$allocator@D@2@@std@@@std@@@?$allocator@U_Node@?$_Tree_nod@V?$_Tmap_traits@HV?$basic_string@DU?$char_traits@D@std@@V?$allocator@D@2@@std@@U?$less@H@2@V?$allocator@U?$pair@$$CBHV?$basic_string@DU?$char_traits@D@std@@V?$allocator@D@2@@std@@@std@@@2@$0A@@std@@@std@@@std@@QAE@ABV?$allocator@U?$pair@$$CBHV?$basic_string@DU?$char_traits@D@std@@V?$allocator@D@2@@std@@@std@@@1@@Z 006faad0 f i file_paths.obj
 0002:000e6b10       ??$_Construct@PAU_Node@?$_Tree_nod@V?$_Tmap_traits@HV?$basic_string@DU?$char_traits@D@std@@V?$allocator@D@2@@std@@U?$less@H@2@V?$allocator@U?$pair@$$CBHV?$basic_string@DU?$char_traits@D@std@@V?$allocator@D@2@@std@@@std@@@2@$0A@@std@@@std@@PAU123@@std@@YAXPAPAU_Node@?$_Tree_nod@V?$_Tmap_traits@HV?$basic_string@DU?$char_traits@D@std@@V?$allocator@D@2@@std@@U?$less@H@2@V?$allocator@U?$pair@$$CBHV?$basic_string@DU?$char_traits@D@std@@V?$allocator@D@2@@std@@@std@@@2@$0A@@std@@@0@ABQAU120@@Z 006fab10 f i file_paths.obj
 0002:000e6bb0       ??1?$map@HV?$basic_string@DU?$char_traits@D@std@@V?$allocator@D@2@@std@@U?$less@H@2@V?$allocator@U?$pair@$$CBHV?$basic_string@DU?$char_traits@D@std@@V?$allocator@D@2@@std@@@std@@@2@@std@@QAE@XZ 006fabb0 f i file_paths.obj
 0002:000e6c00       ??1?$_Tree@V?$_Tmap_traits@HV?$basic_string@DU?$char_traits@D@std@@V?$allocator@D@2@@std@@U?$less@H@2@V?$allocator@U?$pair@$$CBHV?$basic_string@DU?$char_traits@D@std@@V?$allocator@D@2@@std@@@std@@@2@$0A@@std@@@std@@QAE@XZ 006fac00 f i file_paths.obj
 0002:000e6ca0       ?_Tidy@?$_Tree@V?$_Tmap_traits@HV?$basic_string@DU?$char_traits@D@std@@V?$allocator@D@2@@std@@U?$less@H@2@V?$allocator@U?$pair@$$CBHV?$basic_string@DU?$char_traits@D@std@@V?$allocator@D@2@@std@@@std@@@2@$0A@@std@@@std@@IAEXXZ 006faca0 f i file_paths.obj
 0002:000e6e40       ?erase@?$_Tree@V?$_Tmap_traits@HV?$basic_string@DU?$char_traits@D@std@@V?$allocator@D@2@@std@@U?$less@H@2@V?$allocator@U?$pair@$$CBHV?$basic_string@DU?$char_traits@D@std@@V?$allocator@D@2@@std@@@std@@@2@$0A@@std@@@std@@QAE?AViterator@12@V312@0@Z 006fae40 f i file_paths.obj
 0002:000e7150       ?erase@?$_Tree@V?$_Tmap_traits@HV?$basic_string@DU?$char_traits@D@std@@V?$allocator@D@2@@std@@U?$less@H@2@V?$allocator@U?$pair@$$CBHV?$basic_string@DU?$char_traits@D@std@@V?$allocator@D@2@@std@@@std@@@2@$0A@@std@@@std@@QAE?AViterator@12@V312@@Z 006fb150 f i file_paths.obj
 0002:000e7b90       ?clear@?$_Tree@V?$_Tmap_traits@HV?$basic_string@DU?$char_traits@D@std@@V?$allocator@D@2@@std@@U?$less@H@2@V?$allocator@U?$pair@$$CBHV?$basic_string@DU?$char_traits@D@std@@V?$allocator@D@2@@std@@@std@@@2@$0A@@std@@@std@@QAEXXZ 006fbb90 f i file_paths.obj
 0002:000e7c50       ??Eiterator@?$_Tree@V?$_Tmap_traits@HV?$basic_string@DU?$char_traits@D@std@@V?$allocator@D@2@@std@@U?$less@H@2@V?$allocator@U?$pair@$$CBHV?$basic_string@DU?$char_traits@D@std@@V?$allocator@D@2@@std@@@std@@@2@$0A@@std@@@std@@QAE?AV012@H@Z 006fbc50 f i file_paths.obj
 0002:000e7d70       ?_Erase@?$_Tree@V?$_Tmap_traits@HV?$basic_string@DU?$char_traits@D@std@@V?$allocator@D@2@@std@@U?$less@H@2@V?$allocator@U?$pair@$$CBHV?$basic_string@DU?$char_traits@D@std@@V?$allocator@D@2@@std@@@std@@@2@$0A@@std@@@std@@IAEXPAU_Node@?$_Tree_nod@V?$_Tmap_traits@HV?$basic_string@DU?$char_traits@D@std@@V?$allocator@D@2@@std@@U?$less@H@2@V?$allocator@U?$pair@$$CBHV?$basic_string@DU?$char_traits@D@std@@V?$allocator@D@2@@std@@@std@@@2@$0A@@std@@@2@@Z 006fbd70 f i file_paths.obj
 0002:000e7e50       ?_Min@?$_Tree@V?$_Tmap_traits@HV?$basic_string@DU?$char_traits@D@std@@V?$allocator@D@2@@std@@U?$less@H@2@V?$allocator@U?$pair@$$CBHV?$basic_string@DU?$char_traits@D@std@@V?$allocator@D@2@@std@@@std@@@2@$0A@@std@@@std@@KAPAU_Node@?$_Tree_nod@V?$_Tmap_traits@HV?$basic_string@DU?$char_traits@D@std@@V?$allocator@D@2@@std@@U?$less@H@2@V?$allocator@U?$pair@$$CBHV?$basic_string@DU?$char_traits@D@std@@V?$allocator@D@2@@std@@@std@@@2@$0A@@std@@@2@PAU342@@Z 006fbe50 f i file_paths.obj
 0002:000e7ed0       ?_Orphan_ptr@?$_Tree@V?$_Tmap_traits@HV?$basic_string@DU?$char_traits@D@std@@V?$allocator@D@2@@std@@U?$less@H@2@V?$allocator@U?$pair@$$CBHV?$basic_string@DU?$char_traits@D@std@@V?$allocator@D@2@@std@@@std@@@2@$0A@@std@@@std@@IBEXAAV12@PAU_Node@?$_Tree_nod@V?$_Tmap_traits@HV?$basic_string@DU?$char_traits@D@std@@V?$allocator@D@2@@std@@U?$less@H@2@V?$allocator@U?$pair@$$CBHV?$basic_string@DU?$char_traits@D@std@@V?$allocator@D@2@@std@@@std@@@2@$0A@@std@@@2@@Z 006fbed0 f i file_paths.obj
 0002:000e7fe0       ?destroy@?$allocator@U_Node@?$_Tree_nod@V?$_Tmap_traits@HV?$basic_string@DU?$char_traits@D@std@@V?$allocator@D@2@@std@@U?$less@H@2@V?$allocator@U?$pair@$$CBHV?$basic_string@DU?$char_traits@D@std@@V?$allocator@D@2@@std@@@std@@@2@$0A@@std@@@std@@@std@@QAEXPAU_Node@?$_Tree_nod@V?$_Tmap_traits@HV?$basic_string@DU?$char_traits@D@std@@V?$allocator@D@2@@std@@U?$less@H@2@V?$allocator@U?$pair@$$CBHV?$basic_string@DU?$char_traits@D@std@@V?$allocator@D@2@@std@@@std@@@2@$0A@@std@@@2@@Z 006fbfe0 f i file_paths.obj
 0002:000e8040       ??Eiterator@?$_Tree@V?$_Tmap_traits@HV?$basic_string@DU?$char_traits@D@std@@V?$allocator@D@2@@std@@U?$less@H@2@V?$allocator@U?$pair@$$CBHV?$basic_string@DU?$char_traits@D@std@@V?$allocator@D@2@@std@@@std@@@2@$0A@@std@@@std@@QAEAAV012@XZ 006fc040 f i file_paths.obj
 0002:000e80a0       ??Econst_iterator@?$_Tree@V?$_Tmap_traits@HV?$basic_string@DU?$char_traits@D@std@@V?$allocator@D@2@@std@@U?$less@H@2@V?$allocator@U?$pair@$$CBHV?$basic_string@DU?$char_traits@D@std@@V?$allocator@D@2@@std@@@std@@@2@$0A@@std@@@std@@QAEAAV012@XZ 006fc0a0 f i file_paths.obj
 0002:000e8100       ?_Inc@const_iterator@?$_Tree@V?$_Tmap_traits@HV?$basic_string@DU?$char_traits@D@std@@V?$allocator@D@2@@std@@U?$less@H@2@V?$allocator@U?$pair@$$CBHV?$basic_string@DU?$char_traits@D@std@@V?$allocator@D@2@@std@@@std@@@2@$0A@@std@@@std@@QAEXXZ 006fc100 f i file_paths.obj
 0002:000e82a0       ??$_Destroy@U_Node@?$_Tree_nod@V?$_Tmap_traits@HV?$basic_string@DU?$char_traits@D@std@@V?$allocator@D@2@@std@@U?$less@H@2@V?$allocator@U?$pair@$$CBHV?$basic_string@DU?$char_traits@D@std@@V?$allocator@D@2@@std@@@std@@@2@$0A@@std@@@std@@@std@@YAXPAU_Node@?$_Tree_nod@V?$_Tmap_traits@HV?$basic_string@DU?$char_traits@D@std@@V?$allocator@D@2@@std@@U?$less@H@2@V?$allocator@U?$pair@$$CBHV?$basic_string@DU?$char_traits@D@std@@V?$allocator@D@2@@std@@@std@@@2@$0A@@std@@@0@@Z 006fc2a0 f i file_paths.obj
 0002:000e82f0       ??_G_Node@?$_Tree_nod@V?$_Tmap_traits@HV?$basic_string@DU?$char_traits@D@std@@V?$allocator@D@2@@std@@U?$less@H@2@V?$allocator@U?$pair@$$CBHV?$basic_string@DU?$char_traits@D@std@@V?$allocator@D@2@@std@@@std@@@2@$0A@@std@@@std@@QAEPAXI@Z 006fc2f0 f i file_paths.obj
 0002:000e8360       ??1_Node@?$_Tree_nod@V?$_Tmap_traits@HV?$basic_string@DU?$char_traits@D@std@@V?$allocator@D@2@@std@@U?$less@H@2@V?$allocator@U?$pair@$$CBHV?$basic_string@DU?$char_traits@D@std@@V?$allocator@D@2@@std@@@std@@@2@$0A@@std@@@std@@QAE@XZ 006fc360 f i file_paths.obj
 0002:000e83c0       ??0InputManager@@QAE@XZ    006fc3c0 f   input.obj
 0002:000e8490       ??1InputManager@@QAE@XZ    006fc490 f   input.obj
 0002:000e85e0       ??1ControlBindings@@QAE@XZ 006fc5e0 f i input.obj
 0002:000e86b0       ??_GInputDriver@@QAEPAXI@Z 006fc6b0 f i input.obj
 0002:000e8720       ??1InputDriver@@QAE@XZ     006fc720 f i input.obj
 0002:000e8780       ?parseInputPrefs@InputManager@@QAEXAAVTextReader@@_N@Z 006fc780 f   input.obj
 0002:000e8da0       ?parseInputSpecString@InputManager@@QAE?AW4InputParserState@@ABV?$basic_string@DU?$char_traits@D@std@@V?$allocator@D@2@@std@@AAUInputSpec@@AAV34@@Z 006fcda0 f   input.obj
 0002:000e8ed0       ?parseInputSpecTokens@InputManager@@QAE?AW4InputParserState@@ABVInputSpecTokens@@AAUInputSpec@@AAV?$basic_string@DU?$char_traits@D@std@@V?$allocator@D@2@@std@@@Z 006fced0 f   input.obj
 0002:000e9060       ?controlEventA@InputManager@@AAE_NW4ControlType@@AAUInputDetails@@@Z 006fd060 f   input.obj
 0002:000e9150       ?controlEvent@InputManager@@QAE_NW4ControlType@@AAUInputDetails@@@Z 006fd150 f   input.obj
 0002:000e91b0       ?controlEvent@InputManager@@QAE_NW4ControlType@@@Z 006fd1b0 f   input.obj
 0002:000e9250       ?controlIcon@InputManager@@QBEABV?$basic_string@DU?$char_traits@D@std@@V?$allocator@D@2@@std@@W4ControlType@@@Z 006fd250 f   input.obj
 0002:000e92b0       ?Advance@InputManager@@QAEXXZ 006fd2b0 f   input.obj
 0002:000e9460       ?PollForEvents@InputManager@@QAEXXZ 006fd460 f   input.obj
 0002:000e9510       ?checkInput@InputManager@@QAE_NABUInputSpec@@AAUInputDetails@@@Z 006fd510 f   input.obj
 0002:000e95c0       ?getFirstActiveInput@InputManager@@QAE_NAAUInputSpec@@_N@Z 006fd5c0 f   input.obj
 0002:000e9690       ?addDriver@InputManager@@QAEXPAVInputDriver@@@Z 006fd690 f   input.obj
 0002:000e96f0       ?suppressEvent@InputManager@@QAEXW4ControlType@@@Z 006fd6f0 f   input.obj
 0002:000e9750       ?getBoundInputDescription@InputManager@@QAE_NW4ControlType@@AAVInputDescription@@@Z 006fd750 f   input.obj
 0002:000e9940       ?getInputDescription@InputManager@@QAE_NABUInputSpec@@AAVInputDescription@@@Z 006fd940 f   input.obj
 0002:000e99d0       ?getControlID@InputManager@@QAEHABV?$basic_string@DU?$char_traits@D@std@@V?$allocator@D@2@@std@@@Z 006fd9d0 f   input.obj
 0002:000e9a30       ?getControlString@InputManager@@QAEXW4ControlType@@AAV?$basic_string@DU?$char_traits@D@std@@V?$allocator@D@2@@std@@@Z 006fda30 f   input.obj
 0002:000e9a90       ?replacePrimaryBinding@InputManager@@QAEXW4ControlType@@ABV?$basic_string@DU?$char_traits@D@std@@V?$allocator@D@2@@std@@@Z 006fda90 f   input.obj
 0002:000e9bd0       ?Clear@InputManager@@QAEXXZ 006fdbd0 f   input.obj
 0002:000e9c30       ?isIdle@InputManager@@QAE_NXZ 006fdc30 f   input.obj
 0002:000e9c70       ?getInputMode@InputManager@@QAE?AW4InputMode@@XZ 006fdc70 f   input.obj
 0002:000e9cb0       ?printNumBindings@InputManager@@QAEXXZ 006fdcb0 f   input.obj
 0002:000e9d90       ?length@?$basic_string@DU?$char_traits@D@std@@V?$allocator@D@2@@std@@QBEIXZ 006fdd90 f i input.obj
 0002:000e9dd0       ?substr@?$basic_string@DU?$char_traits@D@std@@V?$allocator@D@2@@std@@QBE?AV12@II@Z 006fddd0 f i input.obj
 0002:000e9e60       ??6?$basic_ostream@DU?$char_traits@D@std@@@std@@QAEAAV01@I@Z 006fde60 f i input.obj
 0002:000ea130       ??A?$auto_vector@$$CBUInputSpec@@@@QBEPBUInputSpec@@I@Z 006fe130 f i input.obj
 0002:000ea190       ?begin@?$auto_vector@$$CBUInputSpec@@@@QBE?AV?$_Vector_const_iterator@PBUInputSpec@@V?$allocator@PBUInputSpec@@@std@@@std@@XZ 006fe190 f i input.obj
 0002:000ea210       ?end@?$auto_vector@$$CBUInputSpec@@@@QBE?AV?$_Vector_const_iterator@PBUInputSpec@@V?$allocator@PBUInputSpec@@@std@@@std@@XZ 006fe210 f i input.obj
 0002:000ea290       ??0?$vector@PAVInputDriver@@V?$allocator@PAVInputDriver@@@std@@@std@@QAE@XZ 006fe290 f i input.obj
 0002:000ea350       ??1?$vector@PAVInputDriver@@V?$allocator@PAVInputDriver@@@std@@@std@@QAE@XZ 006fe350 f i input.obj
 0002:000ea3f0       ?size@?$vector@PAVInputDriver@@V?$allocator@PAVInputDriver@@@std@@@std@@QBEIXZ 006fe3f0 f i input.obj
 0002:000ea460       ??A?$vector@PAVInputDriver@@V?$allocator@PAVInputDriver@@@std@@@std@@QAEAAPAVInputDriver@@I@Z 006fe460 f i input.obj
 0002:000ea5a0       ?push_back@?$vector@PAVInputDriver@@V?$allocator@PAVInputDriver@@@std@@@std@@QAEXABQAVInputDriver@@@Z 006fe5a0 f i input.obj
 0002:000ea690       ??1?$_Vector_val@PAVInputDriver@@V?$allocator@PAVInputDriver@@@std@@@std@@QAE@XZ 006fe690 f i input.obj
 0002:000ea6e0       ??1?$_Vector_iterator@PAVInputDriver@@V?$allocator@PAVInputDriver@@@std@@@std@@QAE@XZ 006fe6e0 f i input.obj
 0002:000ea730       ??1?$_Vector_const_iterator@PAVInputDriver@@V?$allocator@PAVInputDriver@@@std@@@std@@QAE@XZ 006fe730 f i input.obj
 0002:000ea780       ??1?$_Ranit@PAVInputDriver@@HPBQAV1@ABQAV1@@std@@QAE@XZ 006fe780 f i input.obj
 0002:000ea7d0       ??0?$basic_string@DU?$char_traits@D@std@@V?$allocator@D@2@@std@@QAE@ABV01@II@Z 006fe7d0 f i input.obj
 0002:000ea8c0       ?begin@?$vector@PBUInputSpec@@V?$allocator@PBUInputSpec@@@std@@@std@@QBE?AV?$_Vector_const_iterator@PBUInputSpec@@V?$allocator@PBUInputSpec@@@std@@@2@XZ 006fe8c0 f i input.obj
 0002:000ea950       ?end@?$vector@PBUInputSpec@@V?$allocator@PBUInputSpec@@@std@@@std@@QBE?AV?$_Vector_const_iterator@PBUInputSpec@@V?$allocator@PBUInputSpec@@@std@@@2@XZ 006fe950 f i input.obj
 0002:000ea9e0       ??A?$vector@PBUInputSpec@@V?$allocator@PBUInputSpec@@@std@@@std@@QBEABQBUInputSpec@@I@Z 006fe9e0 f i input.obj
 0002:000eab20       ?capacity@?$vector@PAVInputDriver@@V?$allocator@PAVInputDriver@@@std@@@std@@QBEIXZ 006feb20 f i input.obj
 0002:000eab90       ?end@?$vector@PAVInputDriver@@V?$allocator@PAVInputDriver@@@std@@@std@@QAE?AV?$_Vector_iterator@PAVInputDriver@@V?$allocator@PAVInputDriver@@@std@@@2@XZ 006feb90 f i input.obj
 0002:000eac20       ?insert@?$vector@PAVInputDriver@@V?$allocator@PAVInputDriver@@@std@@@std@@QAE?AV?$_Vector_iterator@PAVInputDriver@@V?$allocator@PAVInputDriver@@@std@@@2@V32@ABQAVInputDriver@@@Z 006fec20 f i input.obj
 0002:000eae20       ?_Buy@?$vector@PAVInputDriver@@V?$allocator@PAVInputDriver@@@std@@@std@@IAE_NI@Z 006fee20 f i input.obj
 0002:000eaf00       ?_Tidy@?$vector@PAVInputDriver@@V?$allocator@PAVInputDriver@@@std@@@std@@IAEXXZ 006fef00 f i input.obj
 0002:000eafd0       ?_Ufill@?$vector@PAVInputDriver@@V?$allocator@PAVInputDriver@@@std@@@std@@IAEPAPAVInputDriver@@PAPAV3@IABQAV3@@Z 006fefd0 f i input.obj
 0002:000eb050       ?_Orphan_range@?$vector@PAVInputDriver@@V?$allocator@PAVInputDriver@@@std@@@std@@IBEXPAPAVInputDriver@@0@Z 006ff050 f i input.obj
 0002:000eb150       ??0?$_Vector_val@PAVInputDriver@@V?$allocator@PAVInputDriver@@@std@@@std@@IAE@V?$allocator@PAVInputDriver@@@1@@Z 006ff150 f i input.obj
 0002:000eb1c0       ??0?$allocator@PAVInputDriver@@@std@@QAE@XZ 006ff1c0 f i input.obj
 0002:000eb200       ?put@?$num_put@DV?$ostreambuf_iterator@DU?$char_traits@D@std@@@std@@@std@@QBE?AV?$ostreambuf_iterator@DU?$char_traits@D@std@@@2@V32@AAVios_base@2@DK@Z 006ff200 f i input.obj
 0002:000eb310       ??0?$_Vector_iterator@PAVInputDriver@@V?$allocator@PAVInputDriver@@@std@@@std@@QAE@ABV01@@Z 006ff310 f i input.obj
 0002:000eb370       ??0?$_Vector_const_iterator@PAVInputDriver@@V?$allocator@PAVInputDriver@@@std@@@std@@QAE@ABV01@@Z 006ff370 f i input.obj
 0002:000eb3e0       ??0?$_Ranit@PAVInputDriver@@HPBQAV1@ABQAV1@@std@@QAE@ABU01@@Z 006ff3e0 f i input.obj
 0002:000eb440       ?begin@?$vector@PAVInputDriver@@V?$allocator@PAVInputDriver@@@std@@@std@@QAE?AV?$_Vector_iterator@PAVInputDriver@@V?$allocator@PAVInputDriver@@@std@@@2@XZ 006ff440 f i input.obj
 0002:000eb4d0       ?max_size@?$vector@PAVInputDriver@@V?$allocator@PAVInputDriver@@@std@@@std@@QBEIXZ 006ff4d0 f i input.obj
 0002:000eb530       ?_Destroy@?$vector@PAVInputDriver@@V?$allocator@PAVInputDriver@@@std@@@std@@IAEXPAPAVInputDriver@@0@Z 006ff530 f i input.obj
 0002:000eb5a0       ?_Insert_n@?$vector@PAVInputDriver@@V?$allocator@PAVInputDriver@@@std@@@std@@IAEXV?$_Vector_iterator@PAVInputDriver@@V?$allocator@PAVInputDriver@@@std@@@2@IABQAVInputDriver@@@Z 006ff5a0 f i input.obj
 0002:000ebad0       ?_Xlen@?$vector@PAVInputDriver@@V?$allocator@PAVInputDriver@@@std@@@std@@KAXXZ 006ffad0 f i input.obj
 0002:000ebbb0       ??0?$allocator@PAVInputDriver@@@std@@QAE@ABV01@@Z 006ffbb0 f i input.obj
 0002:000ebbf0       ?deallocate@?$allocator@PAVInputDriver@@@std@@QAEXPAPAVInputDriver@@I@Z 006ffbf0 f i input.obj
 0002:000ebc50       ?allocate@?$allocator@PAVInputDriver@@@std@@QAEPAPAVInputDriver@@I@Z 006ffc50 f i input.obj
 0002:000ebcb0       ??0?$_Vector_iterator@PAVInputDriver@@V?$allocator@PAVInputDriver@@@std@@@std@@QAE@PAPAVInputDriver@@PBV_Container_base@1@@Z 006ffcb0 f i input.obj
 0002:000ebd10       ??H?$_Vector_iterator@PAVInputDriver@@V?$allocator@PAVInputDriver@@@std@@@std@@QBE?AV01@H@Z 006ffd10 f i input.obj
 0002:000ebe30       ??G?$_Vector_iterator@PAVInputDriver@@V?$allocator@PAVInputDriver@@@std@@@std@@QBEHABV?$_Vector_const_iterator@PAVInputDriver@@V?$allocator@PAVInputDriver@@@std@@@1@@Z 006ffe30 f i input.obj
 0002:000ebe90       ?max_size@?$allocator@PAVInputDriver@@@std@@QBEIXZ 006ffe90 f i input.obj
 0002:000ebf00       ??Y?$_Vector_iterator@PAVInputDriver@@V?$allocator@PAVInputDriver@@@std@@@std@@QAEAAV01@H@Z 006fff00 f i input.obj
 0002:000ebf60       ??0?$_Vector_const_iterator@PAVInputDriver@@V?$allocator@PAVInputDriver@@@std@@@std@@QAE@PAPAVInputDriver@@PBV_Container_base@1@@Z 006fff60 f i input.obj
 0002:000ec090       ??G?$_Vector_const_iterator@PAVInputDriver@@V?$allocator@PAVInputDriver@@@std@@@std@@QBEHABV01@@Z 00700090 f i input.obj
 0002:000ec100       ??0?$_Ranit@PAVInputDriver@@HPBQAV1@ABQAV1@@std@@QAE@XZ 00700100 f i input.obj
 0002:000ec160       ??Y?$_Vector_const_iterator@PAVInputDriver@@V?$allocator@PAVInputDriver@@@std@@@std@@QAEAAV01@H@Z 00700160 f i input.obj
 0002:000ec2b0       ?_Compat@?$_Vector_const_iterator@PAVInputDriver@@V?$allocator@PAVInputDriver@@@std@@@std@@QBEXABV12@@Z 007002b0 f i input.obj
 0002:000ec380       ??$?6DU?$char_traits@D@std@@V?$allocator@D@1@@std@@YAAAV?$basic_ostream@DU?$char_traits@D@std@@@0@AAV10@ABV?$basic_string@DU?$char_traits@D@std@@V?$allocator@D@2@@0@@Z 00700380 f i input.obj
 0002:000ec8b0       ??$unchecked_uninitialized_fill_n@PAPAVInputDriver@@IPAV1@V?$allocator@PAVInputDriver@@@std@@@stdext@@YAXPAPAVInputDriver@@IABQAV1@AAV?$allocator@PAVInputDriver@@@std@@@Z 007008b0 f i input.obj
 0002:000ec950       ??$_Destroy_range@PAVInputDriver@@V?$allocator@PAVInputDriver@@@std@@@std@@YAXPAPAVInputDriver@@0AAV?$allocator@PAVInputDriver@@@0@@Z 00700950 f i input.obj
 0002:000ec9d0       ??$_Umove@PAPAVInputDriver@@@?$vector@PAVInputDriver@@V?$allocator@PAVInputDriver@@@std@@@std@@IAEPAPAVInputDriver@@PAPAV2@00@Z 007009d0 f i input.obj
 0002:000eca40       ??$fill@PAPAVInputDriver@@PAV1@@std@@YAXPAPAVInputDriver@@0ABQAV1@@Z 00700a40 f i input.obj
 0002:000ecab0       ??$_Unchecked_move_backward@PAPAVInputDriver@@PAPAV1@@stdext@@YAPAPAVInputDriver@@PAPAV1@00@Z 00700ab0 f i input.obj
 0002:000ecb70       ??$_Allocate@PAVInputDriver@@@std@@YAPAPAVInputDriver@@IPAPAV1@@Z 00700b70 f i input.obj
 0002:000ecc10       ??A?$basic_string@DU?$char_traits@D@std@@V?$allocator@D@2@@std@@QBEABDI@Z 00700c10 f i input.obj
 0002:000eccf0       ??$_Ptr_cat@PAPAVInputDriver@@PAPAV1@@std@@YA?AU_Scalar_ptr_iterator_tag@0@AAPAPAVInputDriver@@0@Z 00700cf0 f i input.obj
 0002:000ecd60       ??$_Uninit_fill_n@PAPAVInputDriver@@IPAV1@V?$allocator@PAVInputDriver@@@std@@@std@@YAXPAPAVInputDriver@@IABQAV1@AAV?$allocator@PAVInputDriver@@@0@U_Scalar_ptr_iterator_tag@0@U_Range_checked_iterator_tag@0@@Z 00700d60 f i input.obj
 0002:000ecdc0       ??$_Destroy_range@PAVInputDriver@@V?$allocator@PAVInputDriver@@@std@@@std@@YAXPAPAVInputDriver@@0AAV?$allocator@PAVInputDriver@@@0@U_Scalar_ptr_iterator_tag@0@@Z 00700dc0 f i input.obj
 0002:000ecdf0       ??$_Unchecked_uninitialized_move@PAPAVInputDriver@@PAPAV1@V?$allocator@PAVInputDriver@@@std@@@stdext@@YAPAPAVInputDriver@@PAPAV1@00AAV?$allocator@PAVInputDriver@@@std@@@Z 00700df0 f i input.obj
 0002:000ecea0       ??$_Checked_base@PAPAVInputDriver@@@std@@YAPAPAVInputDriver@@AAPAPAV1@@Z 00700ea0 f i input.obj
 0002:000ecf30       ??$_Fill@PAPAVInputDriver@@PAV1@@std@@YAXPAPAVInputDriver@@0ABQAV1@@Z 00700f30 f i input.obj
 0002:000ecfc0       ??$_Iter_random@PAPAVInputDriver@@PAPAV1@@std@@YA?AUrandom_access_iterator_tag@0@ABQAPAVInputDriver@@0@Z 00700fc0 f i input.obj
 0002:000ed030       ??$_Move_cat@PAPAVInputDriver@@@std@@YA?AU_Undefined_move_tag@0@ABQAPAVInputDriver@@@Z 00701030 f i input.obj
 0002:000ed0a0       ??$_Move_backward_opt@PAPAVInputDriver@@PAPAV1@Urandom_access_iterator_tag@std@@U_Undefined_move_tag@3@@std@@YAPAPAVInputDriver@@PAPAV1@00Urandom_access_iterator_tag@0@U_Undefined_move_tag@0@U_Range_checked_iterator_tag@0@@Z 007010a0 f i input.obj
 0002:000ed140       ??$unchecked_fill_n@PAPAVInputDriver@@IPAV1@@stdext@@YAXPAPAVInputDriver@@IABQAV1@@Z 00701140 f i input.obj
 0002:000ed1d0       ??$_Uninit_move@PAPAVInputDriver@@PAPAV1@V?$allocator@PAVInputDriver@@@std@@U_Undefined_move_tag@3@@std@@YAPAPAVInputDriver@@PAPAV1@00AAV?$allocator@PAVInputDriver@@@0@U_Undefined_move_tag@0@U_Range_checked_iterator_tag@0@@Z 007011d0 f i input.obj
 0002:000ed230       ??$_Checked_base@PAPAVInputDriver@@@std@@YAPAPAVInputDriver@@AAPAPAV1@U_Unchanged_checked_iterator_base_type_tag@0@@Z 00701230 f i input.obj
 0002:000ed270       ??$_Debug_range@PAPAVInputDriver@@@std@@YAXPAPAVInputDriver@@0PB_WI@Z 00701270 f i input.obj
 0002:000ed2f0       ??$_Copy_backward_opt@PAPAVInputDriver@@PAPAV1@Urandom_access_iterator_tag@std@@@std@@YAPAPAVInputDriver@@PAPAV1@00Urandom_access_iterator_tag@0@U_Scalar_ptr_iterator_tag@0@U_Range_checked_iterator_tag@0@@Z 007012f0 f i input.obj
 0002:000ed3d0       ??$_Iter_cat@PAPAVInputDriver@@@std@@YA?AUrandom_access_iterator_tag@0@ABQAPAVInputDriver@@@Z 007013d0 f i input.obj
 0002:000ed440       ??$_Fill_n@PAPAVInputDriver@@IPAV1@@std@@YAXPAPAVInputDriver@@IABQAV1@Urandom_access_iterator_tag@0@U_Range_checked_iterator_tag@0@@Z 00701440 f i input.obj
 0002:000ed4d0       ??$unchecked_uninitialized_copy@PAPAVInputDriver@@PAPAV1@V?$allocator@PAVInputDriver@@@std@@@stdext@@YAPAPAVInputDriver@@PAPAV1@00AAV?$allocator@PAVInputDriver@@@std@@@Z 007014d0 f i input.obj
 0002:000ed580       ??$_Debug_range2@PAPAVInputDriver@@@std@@YAXPAPAVInputDriver@@0PB_WIUrandom_access_iterator_tag@0@@Z 00701580 f i input.obj
 0002:000ed620       ??$_Debug_pointer@PAVInputDriver@@@std@@YAXPAPAVInputDriver@@PB_WI@Z 00701620 f i input.obj
 0002:000ed680       ??$_Fill_n@PAPAVInputDriver@@IPAV1@@std@@YAXPAPAVInputDriver@@IABQAV1@U_Range_checked_iterator_tag@0@@Z 00701680 f i input.obj
 0002:000ed6f0       ??$_Uninit_copy@PAPAVInputDriver@@PAPAV1@V?$allocator@PAVInputDriver@@@std@@@std@@YAPAPAVInputDriver@@PAPAV1@00AAV?$allocator@PAVInputDriver@@@0@U_Scalar_ptr_iterator_tag@0@U_Range_checked_iterator_tag@0@@Z 007016f0 f i input.obj
 0002:000ed7c0       ??0InputDescription@@QAE@XZ 007017c0 f   input_types.obj
 0002:000ed880       ??0InputDescription@@QAE@ABV0@@Z 00701880 f   input_types.obj
 0002:000ed970       ??0InputDescription@@QAE@ABV?$basic_string@DU?$char_traits@D@std@@V?$allocator@D@2@@std@@00_N@Z 00701970 f   input_types.obj
 0002:000eda50       ?translate@InputDescription@@QAEXXZ 00701a50 f   input_types.obj
 0002:000edb60       ?getDefaultConditionID@InputDriver@@IAEHABV?$basic_string@DU?$char_traits@D@std@@V?$allocator@D@2@@std@@AAH@Z 00701b60 f   inputdriver.obj
 0002:000edc90       ?getDefaultPrefsString@InputDriver@@IAE_NHHAAV?$basic_string@DU?$char_traits@D@std@@V?$allocator@D@2@@std@@@Z 00701c90 f   inputdriver.obj
 0002:000eddc0       ?getDefaultVerb@InputDriver@@IAE_NHHAAV?$basic_string@DU?$char_traits@D@std@@V?$allocator@D@2@@std@@@Z 00701dc0 f   inputdriver.obj
 0002:000edf00       ?PollForEvents@InputDriver@@UAEXXZ 00701f00 f   inputdriver.obj
 0002:000edf40       ?isIdle@InputDriver@@UAE_NXZ 00701f40 f   inputdriver.obj
 0002:000edf80       ?getInputMode@InputDriver@@UAE?AW4InputMode@@XZ 00701f80 f   inputdriver.obj
 0002:000edfc0       ?getInputDescription@InputDriver@@UAE_NABUInputSpec@@AAVInputDescription@@@Z 00701fc0 f   inputdriver.obj
 0002:000ee000       ?getFirstActiveInput@InputDriver@@UAE_NAAUInputSpec@@_N@Z 00702000 f   inputdriver.obj
 0002:000ee040       ?setName@InputDriver@@IAEXABV?$basic_string@DU?$char_traits@D@std@@V?$allocator@D@2@@std@@@Z 00702040 f   inputdriver.obj
 0002:000ee0a0       ?getName@InputDriver@@UBEABV?$basic_string@DU?$char_traits@D@std@@V?$allocator@D@2@@std@@XZ 007020a0 f   inputdriver.obj
 0002:000ee0e0       ??6@YAAAV?$basic_ostream@DU?$char_traits@D@std@@@std@@AAV01@ABVInputDriver@@@Z 007020e0 f   inputdriver.obj
 0002:000ee170       ??0AliasInputDriver@@QAE@XZ 00702170 f   inputdriver_alias.obj
 0002:000ee260       ??0InputDriver@@QAE@XZ     00702260 f i inputdriver_alias.obj
 0002:000ee2d0       ?parseInputSpecification@AliasInputDriver@@UAE?AW4InputParserState@@ABVInputSpecTokens@@AAUInputSpec@@@Z 007022d0 f   inputdriver_alias.obj
 0002:000ee420       ?getInput@AliasInputDriver@@UAE_NABUInputSpec@@AAUInputDetails@@@Z 00702420 f   inputdriver_alias.obj
 0002:000ee4b0       ?Advance@AliasInputDriver@@UAEXXZ 007024b0 f   inputdriver_alias.obj
 0002:000ee4f0       ?getLastParseError@AliasInputDriver@@UAEABV?$basic_string@DU?$char_traits@D@std@@V?$allocator@D@2@@std@@W4InputParserState@@@Z 007024f0 f   inputdriver_alias.obj
 0002:000ee540       ?getInputDescription@AliasInputDriver@@UAE_NABUInputSpec@@AAVInputDescription@@@Z 00702540 f   inputdriver_alias.obj
 0002:000ee5d0       ??0ChordInputDriver@@QAE@XZ 007025d0 f   inputdriver_chord.obj
 0002:000ee6e0       ?parseInputSpecification@ChordInputDriver@@UAE?AW4InputParserState@@ABVInputSpecTokens@@AAUInputSpec@@@Z 007026e0 f   inputdriver_chord.obj
 0002:000eee00       ?getInput@ChordInputDriver@@UAE_NABUInputSpec@@AAUInputDetails@@@Z 00702e00 f   inputdriver_chord.obj
 0002:000ef010       ?Advance@ChordInputDriver@@UAEXXZ 00703010 f   inputdriver_chord.obj
 0002:000ef050       ?getLastParseError@ChordInputDriver@@UAEABV?$basic_string@DU?$char_traits@D@std@@V?$allocator@D@2@@std@@W4InputParserState@@@Z 00703050 f   inputdriver_chord.obj
 0002:000ef090       ?getInputDescription@ChordInputDriver@@UAE_NABUInputSpec@@AAVInputDescription@@@Z 00703090 f   inputdriver_chord.obj
 0002:000ef3a0       ?clear@?$basic_string@DU?$char_traits@D@std@@V?$allocator@D@2@@std@@QAEXXZ 007033a0 f i inputdriver_chord.obj
 0002:000ef4b0       ??0?$vector@V?$basic_string@DU?$char_traits@D@std@@V?$allocator@D@2@@std@@V?$allocator@V?$basic_string@DU?$char_traits@D@std@@V?$allocator@D@2@@std@@@2@@std@@QAE@XZ 007034b0 f i inputdriver_chord.obj
 0002:000ef570       ??1?$vector@V?$basic_string@DU?$char_traits@D@std@@V?$allocator@D@2@@std@@V?$allocator@V?$basic_string@DU?$char_traits@D@std@@V?$allocator@D@2@@std@@@2@@std@@QAE@XZ 00703570 f i inputdriver_chord.obj
 0002:000ef610       ?size@?$vector@V?$basic_string@DU?$char_traits@D@std@@V?$allocator@D@2@@std@@V?$allocator@V?$basic_string@DU?$char_traits@D@std@@V?$allocator@D@2@@std@@@2@@std@@QBEIXZ 00703610 f i inputdriver_chord.obj
 0002:000ef680       ??A?$vector@V?$basic_string@DU?$char_traits@D@std@@V?$allocator@D@2@@std@@V?$allocator@V?$basic_string@DU?$char_traits@D@std@@V?$allocator@D@2@@std@@@2@@std@@QAEAAV?$basic_string@DU?$char_traits@D@std@@V?$allocator@D@2@@1@I@Z 00703680 f i inputdriver_chord.obj
 0002:000ef7c0       ?push_back@?$vector@V?$basic_string@DU?$char_traits@D@std@@V?$allocator@D@2@@std@@V?$allocator@V?$basic_string@DU?$char_traits@D@std@@V?$allocator@D@2@@std@@@2@@std@@QAEXABV?$basic_string@DU?$char_traits@D@std@@V?$allocator@D@2@@2@@Z 007037c0 f i inputdriver_chord.obj
 0002:000ef8b0       ?size@?$auto_vector@V?$auto_vector@$$CBUInputSpec@@@@@@QBEIXZ 007038b0 f i inputdriver_chord.obj
 0002:000ef900       ??A?$auto_vector@V?$auto_vector@$$CBUInputSpec@@@@@@QAE?AVauto_lvalue@0@I@Z 00703900 f i inputdriver_chord.obj
 0002:000ef970       ??0?$auto_ptr@V?$auto_vector@$$CBUInputSpec@@@@@std@@QAE@PAV?$auto_vector@$$CBUInputSpec@@@@@Z 00703970 f i inputdriver_chord.obj
 0002:000ef9c0       ??0?$auto_ptr@V?$auto_vector@$$CBUInputSpec@@@@@std@@QAE@AAV01@@Z 007039c0 f i inputdriver_chord.obj
 0002:000efa20       ??1?$auto_ptr@V?$auto_vector@$$CBUInputSpec@@@@@std@@QAE@XZ 00703a20 f i inputdriver_chord.obj
 0002:000efac0       ??C?$auto_ptr@V?$auto_vector@$$CBUInputSpec@@@@@std@@QBEPAV?$auto_vector@$$CBUInputSpec@@@@XZ 00703ac0 f i inputdriver_chord.obj
 0002:000efb10       ??0?$auto_ptr@$$CBUInputSpec@@@std@@QAE@U?$auto_ptr_ref@$$CBUInputSpec@@@1@@Z 00703b10 f i inputdriver_chord.obj
 0002:000efb80       ??Bauto_lvalue@?$auto_vector@V?$auto_vector@$$CBUInputSpec@@@@@@QBEPAV?$auto_vector@$$CBUInputSpec@@@@XZ 00703b80 f i inputdriver_chord.obj
 0002:000efbc0       ??1?$_Vector_val@V?$basic_string@DU?$char_traits@D@std@@V?$allocator@D@2@@std@@V?$allocator@V?$basic_string@DU?$char_traits@D@std@@V?$allocator@D@2@@std@@@2@@std@@QAE@XZ 00703bc0 f i inputdriver_chord.obj
 0002:000efc10       ??1?$_Vector_iterator@V?$basic_string@DU?$char_traits@D@std@@V?$allocator@D@2@@std@@V?$allocator@V?$basic_string@DU?$char_traits@D@std@@V?$allocator@D@2@@std@@@2@@std@@QAE@XZ 00703c10 f i inputdriver_chord.obj
 0002:000efc60       ??_G?$auto_vector@$$CBUInputSpec@@@@QAEPAXI@Z 00703c60 f i inputdriver_chord.obj
 0002:000efcd0       ??1?$_Vector_const_iterator@V?$basic_string@DU?$char_traits@D@std@@V?$allocator@D@2@@std@@V?$allocator@V?$basic_string@DU?$char_traits@D@std@@V?$allocator@D@2@@std@@@2@@std@@QAE@XZ 00703cd0 f i inputdriver_chord.obj
 0002:000efd20       ??1?$_Ranit@V?$basic_string@DU?$char_traits@D@std@@V?$allocator@D@2@@std@@HPBV12@ABV12@@std@@QAE@XZ 00703d20 f i inputdriver_chord.obj
 0002:000efd70       ?erase@?$basic_string@DU?$char_traits@D@std@@V?$allocator@D@2@@std@@QAE?AV?$_String_iterator@DU?$char_traits@D@std@@V?$allocator@D@2@@2@V32@0@Z 00703d70 f i inputdriver_chord.obj
 0002:000effa0       ?end@?$basic_string@DU?$char_traits@D@std@@V?$allocator@D@2@@std@@QAE?AV?$_String_iterator@DU?$char_traits@D@std@@V?$allocator@D@2@@2@XZ 00703fa0 f i inputdriver_chord.obj
 0002:000f0030       ?capacity@?$vector@V?$basic_string@DU?$char_traits@D@std@@V?$allocator@D@2@@std@@V?$allocator@V?$basic_string@DU?$char_traits@D@std@@V?$allocator@D@2@@std@@@2@@std@@QBEIXZ 00704030 f i inputdriver_chord.obj
 0002:000f00a0       ?end@?$vector@V?$basic_string@DU?$char_traits@D@std@@V?$allocator@D@2@@std@@V?$allocator@V?$basic_string@DU?$char_traits@D@std@@V?$allocator@D@2@@std@@@2@@std@@QAE?AV?$_Vector_iterator@V?$basic_string@DU?$char_traits@D@std@@V?$allocator@D@2@@std@@V?$allocator@V?$basic_string@DU?$char_traits@D@std@@V?$allocator@D@2@@std@@@2@@2@XZ 007040a0 f i inputdriver_chord.obj
 0002:000f0130       ?insert@?$vector@V?$basic_string@DU?$char_traits@D@std@@V?$allocator@D@2@@std@@V?$allocator@V?$basic_string@DU?$char_traits@D@std@@V?$allocator@D@2@@std@@@2@@std@@QAE?AV?$_Vector_iterator@V?$basic_string@DU?$char_traits@D@std@@V?$allocator@D@2@@std@@V?$allocator@V?$basic_string@DU?$char_traits@D@std@@V?$allocator@D@2@@std@@@2@@2@V32@ABV?$basic_string@DU?$char_traits@D@std@@V?$allocator@D@2@@2@@Z 00704130 f i inputdriver_chord.obj
 0002:000f0330       ?_Buy@?$vector@V?$basic_string@DU?$char_traits@D@std@@V?$allocator@D@2@@std@@V?$allocator@V?$basic_string@DU?$char_traits@D@std@@V?$allocator@D@2@@std@@@2@@std@@IAE_NI@Z 00704330 f i inputdriver_chord.obj
 0002:000f0410       ?_Tidy@?$vector@V?$basic_string@DU?$char_traits@D@std@@V?$allocator@D@2@@std@@V?$allocator@V?$basic_string@DU?$char_traits@D@std@@V?$allocator@D@2@@std@@@2@@std@@IAEXXZ 00704410 f i inputdriver_chord.obj
 0002:000f04e0       ?_Ufill@?$vector@V?$basic_string@DU?$char_traits@D@std@@V?$allocator@D@2@@std@@V?$allocator@V?$basic_string@DU?$char_traits@D@std@@V?$allocator@D@2@@std@@@2@@std@@IAEPAV?$basic_string@DU?$char_traits@D@std@@V?$allocator@D@2@@2@PAV32@IABV32@@Z 007044e0 f i inputdriver_chord.obj
 0002:000f0560       ?_Orphan_range@?$vector@V?$basic_string@DU?$char_traits@D@std@@V?$allocator@D@2@@std@@V?$allocator@V?$basic_string@DU?$char_traits@D@std@@V?$allocator@D@2@@std@@@2@@std@@IBEXPAV?$basic_string@DU?$char_traits@D@std@@V?$allocator@D@2@@2@0@Z 00704560 f i inputdriver_chord.obj
 0002:000f0660       ??0?$_Vector_val@V?$basic_string@DU?$char_traits@D@std@@V?$allocator@D@2@@std@@V?$allocator@V?$basic_string@DU?$char_traits@D@std@@V?$allocator@D@2@@std@@@2@@std@@IAE@V?$allocator@V?$basic_string@DU?$char_traits@D@std@@V?$allocator@D@2@@std@@@1@@Z 00704660 f i inputdriver_chord.obj
 0002:000f06d0       ??0?$allocator@V?$basic_string@DU?$char_traits@D@std@@V?$allocator@D@2@@std@@@std@@QAE@XZ 007046d0 f i inputdriver_chord.obj
 0002:000f0710       ?size@?$vector@PAV?$auto_vector@$$CBUInputSpec@@@@V?$allocator@PAV?$auto_vector@$$CBUInputSpec@@@@@std@@@std@@QBEIXZ 00704710 f i inputdriver_chord.obj
 0002:000f0780       ??A?$vector@PAV?$auto_vector@$$CBUInputSpec@@@@V?$allocator@PAV?$auto_vector@$$CBUInputSpec@@@@@std@@@std@@QAEAAPAV?$auto_vector@$$CBUInputSpec@@@@I@Z 00704780 f i inputdriver_chord.obj
 0002:000f08c0       ??D?$auto_ptr@V?$auto_vector@$$CBUInputSpec@@@@@std@@QBEAAV?$auto_vector@$$CBUInputSpec@@@@XZ 007048c0 f i inputdriver_chord.obj
 0002:000f0940       ?release@?$auto_ptr@V?$auto_vector@$$CBUInputSpec@@@@@std@@QAEPAV?$auto_vector@$$CBUInputSpec@@@@XZ 00704940 f i inputdriver_chord.obj
 0002:000f0990       ??0auto_lvalue@?$auto_vector@V?$auto_vector@$$CBUInputSpec@@@@@@QAE@AAPAV?$auto_vector@$$CBUInputSpec@@@@@Z 00704990 f i inputdriver_chord.obj
 0002:000f09e0       ??0?$_String_const_iterator@DU?$char_traits@D@std@@V?$allocator@D@2@@std@@QAE@ABV01@@Z 007049e0 f i inputdriver_chord.obj
 0002:000f0a50       ??0?$_Vector_iterator@V?$basic_string@DU?$char_traits@D@std@@V?$allocator@D@2@@std@@V?$allocator@V?$basic_string@DU?$char_traits@D@std@@V?$allocator@D@2@@std@@@2@@std@@QAE@ABV01@@Z 00704a50 f i inputdriver_chord.obj
 0002:000f0ab0       ??0?$_Ranit_base@DHPBDABDV_Iterator_base@std@@@std@@QAE@ABU01@@Z 00704ab0 f i inputdriver_chord.obj
 0002:000f0b10       ??0?$_Vector_const_iterator@V?$basic_string@DU?$char_traits@D@std@@V?$allocator@D@2@@std@@V?$allocator@V?$basic_string@DU?$char_traits@D@std@@V?$allocator@D@2@@std@@@2@@std@@QAE@ABV01@@Z 00704b10 f i inputdriver_chord.obj
 0002:000f0b80       ??0?$_Ranit@V?$basic_string@DU?$char_traits@D@std@@V?$allocator@D@2@@std@@HPBV12@ABV12@@std@@QAE@ABU01@@Z 00704b80 f i inputdriver_chord.obj
 0002:000f0be0       ?_Pdif@?$basic_string@DU?$char_traits@D@std@@V?$allocator@D@2@@std@@KAIV?$_String_const_iterator@DU?$char_traits@D@std@@V?$allocator@D@2@@2@0@Z 00704be0 f i inputdriver_chord.obj
 0002:000f0cd0       ?begin@?$vector@V?$basic_string@DU?$char_traits@D@std@@V?$allocator@D@2@@std@@V?$allocator@V?$basic_string@DU?$char_traits@D@std@@V?$allocator@D@2@@std@@@2@@std@@QAE?AV?$_Vector_iterator@V?$basic_string@DU?$char_traits@D@std@@V?$allocator@D@2@@std@@V?$allocator@V?$basic_string@DU?$char_traits@D@std@@V?$allocator@D@2@@std@@@2@@2@XZ 00704cd0 f i inputdriver_chord.obj
 0002:000f0d60       ?max_size@?$vector@V?$basic_string@DU?$char_traits@D@std@@V?$allocator@D@2@@std@@V?$allocator@V?$basic_string@DU?$char_traits@D@std@@V?$allocator@D@2@@std@@@2@@std@@QBEIXZ 00704d60 f i inputdriver_chord.obj
 0002:000f0dc0       ?_Destroy@?$vector@V?$basic_string@DU?$char_traits@D@std@@V?$allocator@D@2@@std@@V?$allocator@V?$basic_string@DU?$char_traits@D@std@@V?$allocator@D@2@@std@@@2@@std@@IAEXPAV?$basic_string@DU?$char_traits@D@std@@V?$allocator@D@2@@2@0@Z 00704dc0 f i inputdriver_chord.obj
 0002:000f0e30       ?_Insert_n@?$vector@V?$basic_string@DU?$char_traits@D@std@@V?$allocator@D@2@@std@@V?$allocator@V?$basic_string@DU?$char_traits@D@std@@V?$allocator@D@2@@std@@@2@@std@@IAEXV?$_Vector_iterator@V?$basic_string@DU?$char_traits@D@std@@V?$allocator@D@2@@std@@V?$allocator@V?$basic_string@DU?$char_traits@D@std@@V?$allocator@D@2@@std@@@2@@2@IABV?$basic_string@DU?$char_traits@D@std@@V?$allocator@D@2@@2@@Z 00704e30 f i inputdriver_chord.obj
 0002:000f1390       ?_Xlen@?$vector@V?$basic_string@DU?$char_traits@D@std@@V?$allocator@D@2@@std@@V?$allocator@V?$basic_string@DU?$char_traits@D@std@@V?$allocator@D@2@@std@@@2@@std@@KAXXZ 00705390 f i inputdriver_chord.obj
 0002:000f1470       ??0?$allocator@V?$basic_string@DU?$char_traits@D@std@@V?$allocator@D@2@@std@@@std@@QAE@ABV01@@Z 00705470 f i inputdriver_chord.obj
 0002:000f14b0       ?deallocate@?$allocator@V?$basic_string@DU?$char_traits@D@std@@V?$allocator@D@2@@std@@@std@@QAEXPAV?$basic_string@DU?$char_traits@D@std@@V?$allocator@D@2@@2@I@Z 007054b0 f i inputdriver_chord.obj
 0002:000f1510       ?allocate@?$allocator@V?$basic_string@DU?$char_traits@D@std@@V?$allocator@D@2@@std@@@std@@QAEPAV?$basic_string@DU?$char_traits@D@std@@V?$allocator@D@2@@2@I@Z 00705510 f i inputdriver_chord.obj
 0002:000f1570       ??0?$_Vector_iterator@V?$basic_string@DU?$char_traits@D@std@@V?$allocator@D@2@@std@@V?$allocator@V?$basic_string@DU?$char_traits@D@std@@V?$allocator@D@2@@std@@@2@@std@@QAE@PAV?$basic_string@DU?$char_traits@D@std@@V?$allocator@D@2@@1@PBV_Container_base@1@@Z 00705570 f i inputdriver_chord.obj
 0002:000f15d0       ??H?$_Vector_iterator@V?$basic_string@DU?$char_traits@D@std@@V?$allocator@D@2@@std@@V?$allocator@V?$basic_string@DU?$char_traits@D@std@@V?$allocator@D@2@@std@@@2@@std@@QBE?AV01@H@Z 007055d0 f i inputdriver_chord.obj
 0002:000f16f0       ??G?$_Vector_iterator@V?$basic_string@DU?$char_traits@D@std@@V?$allocator@D@2@@std@@V?$allocator@V?$basic_string@DU?$char_traits@D@std@@V?$allocator@D@2@@std@@@2@@std@@QBEHABV?$_Vector_const_iterator@V?$basic_string@DU?$char_traits@D@std@@V?$allocator@D@2@@std@@V?$allocator@V?$basic_string@DU?$char_traits@D@std@@V?$allocator@D@2@@std@@@2@@1@@Z 007056f0 f i inputdriver_chord.obj
 0002:000f1750       ?max_size@?$allocator@V?$basic_string@DU?$char_traits@D@std@@V?$allocator@D@2@@std@@@std@@QBEIXZ 00705750 f i inputdriver_chord.obj
 0002:000f17c0       ??G?$_String_const_iterator@DU?$char_traits@D@std@@V?$allocator@D@2@@std@@QBEHABV01@@Z 007057c0 f i inputdriver_chord.obj
 0002:000f1830       ??Y?$_Vector_iterator@V?$basic_string@DU?$char_traits@D@std@@V?$allocator@D@2@@std@@V?$allocator@V?$basic_string@DU?$char_traits@D@std@@V?$allocator@D@2@@std@@@2@@std@@QAEAAV01@H@Z 00705830 f i inputdriver_chord.obj
 0002:000f1890       ??0?$_Vector_const_iterator@V?$basic_string@DU?$char_traits@D@std@@V?$allocator@D@2@@std@@V?$allocator@V?$basic_string@DU?$char_traits@D@std@@V?$allocator@D@2@@std@@@2@@std@@QAE@PAV?$basic_string@DU?$char_traits@D@std@@V?$allocator@D@2@@1@PBV_Container_base@1@@Z 00705890 f i inputdriver_chord.obj
 0002:000f19c0       ??G?$_Vector_const_iterator@V?$basic_string@DU?$char_traits@D@std@@V?$allocator@D@2@@std@@V?$allocator@V?$basic_string@DU?$char_traits@D@std@@V?$allocator@D@2@@std@@@2@@std@@QBEHABV01@@Z 007059c0 f i inputdriver_chord.obj
 0002:000f1a30       ??0?$_Ranit@V?$basic_string@DU?$char_traits@D@std@@V?$allocator@D@2@@std@@HPBV12@ABV12@@std@@QAE@XZ 00705a30 f i inputdriver_chord.obj
 0002:000f1a90       ?_Compat@?$_String_const_iterator@DU?$char_traits@D@std@@V?$allocator@D@2@@std@@QBEXABV12@@Z 00705a90 f i inputdriver_chord.obj
 0002:000f1b60       ??Y?$_Vector_const_iterator@V?$basic_string@DU?$char_traits@D@std@@V?$allocator@D@2@@std@@V?$allocator@V?$basic_string@DU?$char_traits@D@std@@V?$allocator@D@2@@std@@@2@@std@@QAEAAV01@H@Z 00705b60 f i inputdriver_chord.obj
 0002:000f1cb0       ?_Compat@?$_Vector_const_iterator@V?$basic_string@DU?$char_traits@D@std@@V?$allocator@D@2@@std@@V?$allocator@V?$basic_string@DU?$char_traits@D@std@@V?$allocator@D@2@@std@@@2@@std@@QBEXABV12@@Z 00705cb0 f i inputdriver_chord.obj
 0002:000f1d80       ??0?$auto_vector@V?$auto_vector@$$CBUInputSpec@@@@@@QAE@I@Z 00705d80 f i inputdriver_chord.obj
 0002:000f1e30       ??1?$auto_vector@V?$auto_vector@$$CBUInputSpec@@@@@@QAE@XZ 00705e30 f i inputdriver_chord.obj
 0002:000f1ed0       ?push_back@?$auto_vector@V?$auto_vector@$$CBUInputSpec@@@@@@QAEXV?$auto_ptr@V?$auto_vector@$$CBUInputSpec@@@@@std@@@Z 00705ed0 f i inputdriver_chord.obj
 0002:000f1fa0       ??$?HDU?$char_traits@D@std@@V?$allocator@D@1@@std@@YA?AV?$basic_string@DU?$char_traits@D@std@@V?$allocator@D@2@@0@PBDABV10@@Z 00705fa0 f i inputdriver_chord.obj
 0002:000f20a0       ??$?B$$CBUInputSpec@@@?$auto_ptr@$$CBUInputSpec@@@std@@QAE?AU?$auto_ptr_ref@$$CBUInputSpec@@@1@XZ 007060a0 f i inputdriver_chord.obj
 0002:000f2180       ??$unchecked_uninitialized_fill_n@PAV?$basic_string@DU?$char_traits@D@std@@V?$allocator@D@2@@std@@IV12@V?$allocator@V?$basic_string@DU?$char_traits@D@std@@V?$allocator@D@2@@std@@@2@@stdext@@YAXPAV?$basic_string@DU?$char_traits@D@std@@V?$allocator@D@2@@std@@IABV12@AAV?$allocator@V?$basic_string@DU?$char_traits@D@std@@V?$allocator@D@2@@std@@@2@@Z 00706180 f i inputdriver_chord.obj
 0002:000f2220       ??$_Destroy_range@V?$basic_string@DU?$char_traits@D@std@@V?$allocator@D@2@@std@@V?$allocator@V?$basic_string@DU?$char_traits@D@std@@V?$allocator@D@2@@std@@@2@@std@@YAXPAV?$basic_string@DU?$char_traits@D@std@@V?$allocator@D@2@@0@0AAV?$allocator@V?$basic_string@DU?$char_traits@D@std@@V?$allocator@D@2@@std@@@0@@Z 00706220 f i inputdriver_chord.obj
 0002:000f22a0       ??$_Umove@PAV?$basic_string@DU?$char_traits@D@std@@V?$allocator@D@2@@std@@@?$vector@V?$basic_string@DU?$char_traits@D@std@@V?$allocator@D@2@@std@@V?$allocator@V?$basic_string@DU?$char_traits@D@std@@V?$allocator@D@2@@std@@@2@@std@@IAEPAV?$basic_string@DU?$char_traits@D@std@@V?$allocator@D@2@@1@PAV21@00@Z 007062a0 f i inputdriver_chord.obj
 0002:000f2310       ??$fill@PAV?$basic_string@DU?$char_traits@D@std@@V?$allocator@D@2@@std@@V12@@std@@YAXPAV?$basic_string@DU?$char_traits@D@std@@V?$allocator@D@2@@0@0ABV10@@Z 00706310 f i inputdriver_chord.obj
 0002:000f2380       ??$_Unchecked_move_backward@PAV?$basic_string@DU?$char_traits@D@std@@V?$allocator@D@2@@std@@PAV12@@stdext@@YAPAV?$basic_string@DU?$char_traits@D@std@@V?$allocator@D@2@@std@@PAV12@00@Z 00706380 f i inputdriver_chord.obj
 0002:000f2440       ??$_Allocate@V?$basic_string@DU?$char_traits@D@std@@V?$allocator@D@2@@std@@@std@@YAPAV?$basic_string@DU?$char_traits@D@std@@V?$allocator@D@2@@0@IPAV10@@Z 00706440 f i inputdriver_chord.obj
 0002:000f24e0       ??0?$vector@PAV?$auto_vector@$$CBUInputSpec@@@@V?$allocator@PAV?$auto_vector@$$CBUInputSpec@@@@@std@@@std@@QAE@XZ 007064e0 f i inputdriver_chord.obj
 0002:000f25a0       ??1?$vector@PAV?$auto_vector@$$CBUInputSpec@@@@V?$allocator@PAV?$auto_vector@$$CBUInputSpec@@@@@std@@@std@@QAE@XZ 007065a0 f i inputdriver_chord.obj
 0002:000f2640       ?reserve@?$vector@PAV?$auto_vector@$$CBUInputSpec@@@@V?$allocator@PAV?$auto_vector@$$CBUInputSpec@@@@@std@@@std@@QAEXI@Z 00706640 f i inputdriver_chord.obj
 0002:000f2860       ?push_back@?$vector@PAV?$auto_vector@$$CBUInputSpec@@@@V?$allocator@PAV?$auto_vector@$$CBUInputSpec@@@@@std@@@std@@QAEXABQAV?$auto_vector@$$CBUInputSpec@@@@@Z 00706860 f i inputdriver_chord.obj
 0002:000f2950       ?get@?$auto_ptr@V?$auto_vector@$$CBUInputSpec@@@@@std@@QBEPAV?$auto_vector@$$CBUInputSpec@@@@XZ 00706950 f i inputdriver_chord.obj
 0002:000f2990       ??0?$auto_ptr_ref@$$CBUInputSpec@@@std@@QAE@PAX@Z 00706990 f i inputdriver_chord.obj
 0002:000f29e0       ??1?$_Vector_val@PAV?$auto_vector@$$CBUInputSpec@@@@V?$allocator@PAV?$auto_vector@$$CBUInputSpec@@@@@std@@@std@@QAE@XZ 007069e0 f i inputdriver_chord.obj
 0002:000f2a30       ??1?$_Vector_iterator@PAV?$auto_vector@$$CBUInputSpec@@@@V?$allocator@PAV?$auto_vector@$$CBUInputSpec@@@@@std@@@std@@QAE@XZ 00706a30 f i inputdriver_chord.obj
 0002:000f2a80       ??1?$_Vector_const_iterator@PAV?$auto_vector@$$CBUInputSpec@@@@V?$allocator@PAV?$auto_vector@$$CBUInputSpec@@@@@std@@@std@@QAE@XZ 00706a80 f i inputdriver_chord.obj
 0002:000f2ad0       ??1?$_Ranit@PAV?$auto_vector@$$CBUInputSpec@@@@HPBQAV1@ABQAV1@@std@@QAE@XZ 00706ad0 f i inputdriver_chord.obj
 0002:000f2b20       ?capacity@?$vector@PAV?$auto_vector@$$CBUInputSpec@@@@V?$allocator@PAV?$auto_vector@$$CBUInputSpec@@@@@std@@@std@@QBEIXZ 00706b20 f i inputdriver_chord.obj
 0002:000f2b90       ?begin@?$vector@PAV?$auto_vector@$$CBUInputSpec@@@@V?$allocator@PAV?$auto_vector@$$CBUInputSpec@@@@@std@@@std@@QAE?AV?$_Vector_iterator@PAV?$auto_vector@$$CBUInputSpec@@@@V?$allocator@PAV?$auto_vector@$$CBUInputSpec@@@@@std@@@2@XZ 00706b90 f i inputdriver_chord.obj
 0002:000f2c20       ?end@?$vector@PAV?$auto_vector@$$CBUInputSpec@@@@V?$allocator@PAV?$auto_vector@$$CBUInputSpec@@@@@std@@@std@@QAE?AV?$_Vector_iterator@PAV?$auto_vector@$$CBUInputSpec@@@@V?$allocator@PAV?$auto_vector@$$CBUInputSpec@@@@@std@@@2@XZ 00706c20 f i inputdriver_chord.obj
 0002:000f2cb0       ?max_size@?$vector@PAV?$auto_vector@$$CBUInputSpec@@@@V?$allocator@PAV?$auto_vector@$$CBUInputSpec@@@@@std@@@std@@QBEIXZ 00706cb0 f i inputdriver_chord.obj
 0002:000f2d10       ?insert@?$vector@PAV?$auto_vector@$$CBUInputSpec@@@@V?$allocator@PAV?$auto_vector@$$CBUInputSpec@@@@@std@@@std@@QAE?AV?$_Vector_iterator@PAV?$auto_vector@$$CBUInputSpec@@@@V?$allocator@PAV?$auto_vector@$$CBUInputSpec@@@@@std@@@2@V32@ABQAV?$auto_vector@$$CBUInputSpec@@@@@Z 00706d10 f i inputdriver_chord.obj
 0002:000f2f10       ?_Buy@?$vector@PAV?$auto_vector@$$CBUInputSpec@@@@V?$allocator@PAV?$auto_vector@$$CBUInputSpec@@@@@std@@@std@@IAE_NI@Z 00706f10 f i inputdriver_chord.obj
 0002:000f2ff0       ?_Destroy@?$vector@PAV?$auto_vector@$$CBUInputSpec@@@@V?$allocator@PAV?$auto_vector@$$CBUInputSpec@@@@@std@@@std@@IAEXPAPAV?$auto_vector@$$CBUInputSpec@@@@0@Z 00706ff0 f i inputdriver_chord.obj
 0002:000f3060       ?_Tidy@?$vector@PAV?$auto_vector@$$CBUInputSpec@@@@V?$allocator@PAV?$auto_vector@$$CBUInputSpec@@@@@std@@@std@@IAEXXZ 00707060 f i inputdriver_chord.obj
 0002:000f3130       ?_Ufill@?$vector@PAV?$auto_vector@$$CBUInputSpec@@@@V?$allocator@PAV?$auto_vector@$$CBUInputSpec@@@@@std@@@std@@IAEPAPAV?$auto_vector@$$CBUInputSpec@@@@PAPAV3@IABQAV3@@Z 00707130 f i inputdriver_chord.obj
 0002:000f31b0       ?_Xlen@?$vector@PAV?$auto_vector@$$CBUInputSpec@@@@V?$allocator@PAV?$auto_vector@$$CBUInputSpec@@@@@std@@@std@@KAXXZ 007071b0 f i inputdriver_chord.obj
 0002:000f3290       ?_Orphan_range@?$vector@PAV?$auto_vector@$$CBUInputSpec@@@@V?$allocator@PAV?$auto_vector@$$CBUInputSpec@@@@@std@@@std@@IBEXPAPAV?$auto_vector@$$CBUInputSpec@@@@0@Z 00707290 f i inputdriver_chord.obj
 0002:000f3390       ??0?$_Vector_val@PAV?$auto_vector@$$CBUInputSpec@@@@V?$allocator@PAV?$auto_vector@$$CBUInputSpec@@@@@std@@@std@@IAE@V?$allocator@PAV?$auto_vector@$$CBUInputSpec@@@@@1@@Z 00707390 f i inputdriver_chord.obj
 0002:000f3400       ??0?$allocator@PAV?$auto_vector@$$CBUInputSpec@@@@@std@@QAE@XZ 00707400 f i inputdriver_chord.obj
 0002:000f3440       ?deallocate@?$allocator@PAV?$auto_vector@$$CBUInputSpec@@@@@std@@QAEXPAPAV?$auto_vector@$$CBUInputSpec@@@@I@Z 00707440 f i inputdriver_chord.obj
 0002:000f34a0       ?allocate@?$allocator@PAV?$auto_vector@$$CBUInputSpec@@@@@std@@QAEPAPAV?$auto_vector@$$CBUInputSpec@@@@I@Z 007074a0 f i inputdriver_chord.obj
 0002:000f3500       ??0?$_Vector_iterator@PAV?$auto_vector@$$CBUInputSpec@@@@V?$allocator@PAV?$auto_vector@$$CBUInputSpec@@@@@std@@@std@@QAE@ABV01@@Z 00707500 f i inputdriver_chord.obj
 0002:000f3560       ??0?$_Vector_const_iterator@PAV?$auto_vector@$$CBUInputSpec@@@@V?$allocator@PAV?$auto_vector@$$CBUInputSpec@@@@@std@@@std@@QAE@ABV01@@Z 00707560 f i inputdriver_chord.obj
 0002:000f35d0       ??0?$_Ranit@PAV?$auto_vector@$$CBUInputSpec@@@@HPBQAV1@ABQAV1@@std@@QAE@ABU01@@Z 007075d0 f i inputdriver_chord.obj
 0002:000f3630       ?_Insert_n@?$vector@PAV?$auto_vector@$$CBUInputSpec@@@@V?$allocator@PAV?$auto_vector@$$CBUInputSpec@@@@@std@@@std@@IAEXV?$_Vector_iterator@PAV?$auto_vector@$$CBUInputSpec@@@@V?$allocator@PAV?$auto_vector@$$CBUInputSpec@@@@@std@@@2@IABQAV?$auto_vector@$$CBUInputSpec@@@@@Z 00707630 f i inputdriver_chord.obj
 0002:000f3b60       ??0?$allocator@PAV?$auto_vector@$$CBUInputSpec@@@@@std@@QAE@ABV01@@Z 00707b60 f i inputdriver_chord.obj
 0002:000f3ba0       ?max_size@?$allocator@PAV?$auto_vector@$$CBUInputSpec@@@@@std@@QBEIXZ 00707ba0 f i inputdriver_chord.obj
 0002:000f3c10       ??0?$_Vector_iterator@PAV?$auto_vector@$$CBUInputSpec@@@@V?$allocator@PAV?$auto_vector@$$CBUInputSpec@@@@@std@@@std@@QAE@PAPAV?$auto_vector@$$CBUInputSpec@@@@PBV_Container_base@1@@Z 00707c10 f i inputdriver_chord.obj
 0002:000f3c70       ??H?$_Vector_iterator@PAV?$auto_vector@$$CBUInputSpec@@@@V?$allocator@PAV?$auto_vector@$$CBUInputSpec@@@@@std@@@std@@QBE?AV01@H@Z 00707c70 f i inputdriver_chord.obj
 0002:000f3d90       ??G?$_Vector_iterator@PAV?$auto_vector@$$CBUInputSpec@@@@V?$allocator@PAV?$auto_vector@$$CBUInputSpec@@@@@std@@@std@@QBEHABV?$_Vector_const_iterator@PAV?$auto_vector@$$CBUInputSpec@@@@V?$allocator@PAV?$auto_vector@$$CBUInputSpec@@@@@std@@@1@@Z 00707d90 f i inputdriver_chord.obj
 0002:000f3df0       ??Y?$_Vector_iterator@PAV?$auto_vector@$$CBUInputSpec@@@@V?$allocator@PAV?$auto_vector@$$CBUInputSpec@@@@@std@@@std@@QAEAAV01@H@Z 00707df0 f i inputdriver_chord.obj
 0002:000f3e50       ??0?$_Vector_const_iterator@PAV?$auto_vector@$$CBUInputSpec@@@@V?$allocator@PAV?$auto_vector@$$CBUInputSpec@@@@@std@@@std@@QAE@PAPAV?$auto_vector@$$CBUInputSpec@@@@PBV_Container_base@1@@Z 00707e50 f i inputdriver_chord.obj
 0002:000f3f80       ??G?$_Vector_const_iterator@PAV?$auto_vector@$$CBUInputSpec@@@@V?$allocator@PAV?$auto_vector@$$CBUInputSpec@@@@@std@@@std@@QBEHABV01@@Z 00707f80 f i inputdriver_chord.obj
 0002:000f3ff0       ??0?$_Ranit@PAV?$auto_vector@$$CBUInputSpec@@@@HPBQAV1@ABQAV1@@std@@QAE@XZ 00707ff0 f i inputdriver_chord.obj
 0002:000f4050       ??Y?$_Vector_const_iterator@PAV?$auto_vector@$$CBUInputSpec@@@@V?$allocator@PAV?$auto_vector@$$CBUInputSpec@@@@@std@@@std@@QAEAAV01@H@Z 00708050 f i inputdriver_chord.obj
 0002:000f41a0       ?_Compat@?$_Vector_const_iterator@PAV?$auto_vector@$$CBUInputSpec@@@@V?$allocator@PAV?$auto_vector@$$CBUInputSpec@@@@@std@@@std@@QBEXABV12@@Z 007081a0 f i inputdriver_chord.obj
 0002:000f4270       ?clear@?$auto_vector@V?$auto_vector@$$CBUInputSpec@@@@@@QAEXXZ 00708270 f i inputdriver_chord.obj
 0002:000f4390       ??$_Ptr_cat@PAV?$basic_string@DU?$char_traits@D@std@@V?$allocator@D@2@@std@@PAV12@@std@@YA?AU_Nonscalar_ptr_iterator_tag@0@AAPAV?$basic_string@DU?$char_traits@D@std@@V?$allocator@D@2@@0@0@Z 00708390 f i inputdriver_chord.obj
 0002:000f4400       ??$_Uninit_fill_n@PAV?$basic_string@DU?$char_traits@D@std@@V?$allocator@D@2@@std@@IV12@V?$allocator@V?$basic_string@DU?$char_traits@D@std@@V?$allocator@D@2@@std@@@2@@std@@YAXPAV?$basic_string@DU?$char_traits@D@std@@V?$allocator@D@2@@0@IABV10@AAV?$allocator@V?$basic_string@DU?$char_traits@D@std@@V?$allocator@D@2@@std@@@0@U_Nonscalar_ptr_iterator_tag@0@U_Range_checked_iterator_tag@0@@Z 00708400 f i inputdriver_chord.obj
 0002:000f4520       ??$_Destroy_range@V?$basic_string@DU?$char_traits@D@std@@V?$allocator@D@2@@std@@V?$allocator@V?$basic_string@DU?$char_traits@D@std@@V?$allocator@D@2@@std@@@2@@std@@YAXPAV?$basic_string@DU?$char_traits@D@std@@V?$allocator@D@2@@0@0AAV?$allocator@V?$basic_string@DU?$char_traits@D@std@@V?$allocator@D@2@@std@@@0@U_Nonscalar_ptr_iterator_tag@0@@Z 00708520 f i inputdriver_chord.obj
 0002:000f4590       ??$_Unchecked_uninitialized_move@PAV?$basic_string@DU?$char_traits@D@std@@V?$allocator@D@2@@std@@PAV12@V?$allocator@V?$basic_string@DU?$char_traits@D@std@@V?$allocator@D@2@@std@@@2@@stdext@@YAPAV?$basic_string@DU?$char_traits@D@std@@V?$allocator@D@2@@std@@PAV12@00AAV?$allocator@V?$basic_string@DU?$char_traits@D@std@@V?$allocator@D@2@@std@@@2@@Z 00708590 f i inputdriver_chord.obj
 0002:000f4640       ??$_Checked_base@PAV?$basic_string@DU?$char_traits@D@std@@V?$allocator@D@2@@std@@@std@@YAPAV?$basic_string@DU?$char_traits@D@std@@V?$allocator@D@2@@0@AAPAV10@@Z 00708640 f i inputdriver_chord.obj
 0002:000f46d0       ??$_Fill@PAV?$basic_string@DU?$char_traits@D@std@@V?$allocator@D@2@@std@@V12@@std@@YAXPAV?$basic_string@DU?$char_traits@D@std@@V?$allocator@D@2@@0@0ABV10@@Z 007086d0 f i inputdriver_chord.obj
 0002:000f4760       ??$_Iter_random@PAV?$basic_string@DU?$char_traits@D@std@@V?$allocator@D@2@@std@@PAV12@@std@@YA?AUrandom_access_iterator_tag@0@ABQAV?$basic_string@DU?$char_traits@D@std@@V?$allocator@D@2@@0@0@Z 00708760 f i inputdriver_chord.obj
 0002:000f47d0       ??$_Move_cat@PAV?$basic_string@DU?$char_traits@D@std@@V?$allocator@D@2@@std@@@std@@YA?AU_Swap_move_tag@0@ABQAV?$basic_string@DU?$char_traits@D@std@@V?$allocator@D@2@@0@@Z 007087d0 f i inputdriver_chord.obj
 0002:000f4840       ??$_Move_backward_opt@PAV?$basic_string@DU?$char_traits@D@std@@V?$allocator@D@2@@std@@PAV12@@std@@YAPAV?$basic_string@DU?$char_traits@D@std@@V?$allocator@D@2@@0@PAV10@00Urandom_access_iterator_tag@0@U_Swap_move_tag@0@U_Range_checked_iterator_tag@0@@Z 00708840 f i inputdriver_chord.obj
 0002:000f48e0       ??$_Umove@V?$_Vector_iterator@PAV?$auto_vector@$$CBUInputSpec@@@@V?$allocator@PAV?$auto_vector@$$CBUInputSpec@@@@@std@@@std@@@?$vector@PAV?$auto_vector@$$CBUInputSpec@@@@V?$allocator@PAV?$auto_vector@$$CBUInputSpec@@@@@std@@@std@@IAEPAPAV?$auto_vector@$$CBUInputSpec@@@@V?$_Vector_iterator@PAV?$auto_vector@$$CBUInputSpec@@@@V?$allocator@PAV?$auto_vector@$$CBUInputSpec@@@@@std@@@1@0PAPAV2@@Z 007088e0 f i inputdriver_chord.obj
 0002:000f4a20       ??$_Destroy_range@PAV?$auto_vector@$$CBUInputSpec@@@@V?$allocator@PAV?$auto_vector@$$CBUInputSpec@@@@@std@@@std@@YAXPAPAV?$auto_vector@$$CBUInputSpec@@@@0AAV?$allocator@PAV?$auto_vector@$$CBUInputSpec@@@@@0@@Z 00708a20 f i inputdriver_chord.obj
 0002:000f4aa0       ??$unchecked_uninitialized_fill_n@PAPAV?$auto_vector@$$CBUInputSpec@@@@IPAV1@V?$allocator@PAV?$auto_vector@$$CBUInputSpec@@@@@std@@@stdext@@YAXPAPAV?$auto_vector@$$CBUInputSpec@@@@IABQAV1@AAV?$allocator@PAV?$auto_vector@$$CBUInputSpec@@@@@std@@@Z 00708aa0 f i inputdriver_chord.obj
 0002:000f4b40       ??$_Allocate@PAV?$auto_vector@$$CBUInputSpec@@@@@std@@YAPAPAV?$auto_vector@$$CBUInputSpec@@@@IPAPAV1@@Z 00708b40 f i inputdriver_chord.obj
 0002:000f4be0       ??$_Umove@PAPAV?$auto_vector@$$CBUInputSpec@@@@@?$vector@PAV?$auto_vector@$$CBUInputSpec@@@@V?$allocator@PAV?$auto_vector@$$CBUInputSpec@@@@@std@@@std@@IAEPAPAV?$auto_vector@$$CBUInputSpec@@@@PAPAV2@00@Z 00708be0 f i inputdriver_chord.obj
 0002:000f4c50       ??$fill@PAPAV?$auto_vector@$$CBUInputSpec@@@@PAV1@@std@@YAXPAPAV?$auto_vector@$$CBUInputSpec@@@@0ABQAV1@@Z 00708c50 f i inputdriver_chord.obj
 0002:000f4cc0       ??$_Unchecked_move_backward@PAPAV?$auto_vector@$$CBUInputSpec@@@@PAPAV1@@stdext@@YAPAPAV?$auto_vector@$$CBUInputSpec@@@@PAPAV1@00@Z 00708cc0 f i inputdriver_chord.obj
 0002:000f4d80       ?construct@?$allocator@V?$basic_string@DU?$char_traits@D@std@@V?$allocator@D@2@@std@@@std@@QAEXPAV?$basic_string@DU?$char_traits@D@std@@V?$allocator@D@2@@2@ABV32@@Z 00708d80 f i inputdriver_chord.obj
 0002:000f4de0       ?destroy@?$allocator@V?$basic_string@DU?$char_traits@D@std@@V?$allocator@D@2@@std@@@std@@QAEXPAV?$basic_string@DU?$char_traits@D@std@@V?$allocator@D@2@@2@@Z 00708de0 f i inputdriver_chord.obj
 0002:000f4e40       ?begin@?$auto_vector@V?$auto_vector@$$CBUInputSpec@@@@@@QAE?AV?$_Vector_iterator@PAV?$auto_vector@$$CBUInputSpec@@@@V?$allocator@PAV?$auto_vector@$$CBUInputSpec@@@@@std@@@std@@XZ 00708e40 f i inputdriver_chord.obj
 0002:000f4ec0       ?end@?$auto_vector@V?$auto_vector@$$CBUInputSpec@@@@@@QAE?AV?$_Vector_iterator@PAV?$auto_vector@$$CBUInputSpec@@@@V?$allocator@PAV?$auto_vector@$$CBUInputSpec@@@@@std@@@std@@XZ 00708ec0 f i inputdriver_chord.obj
 0002:000f4f40       ?clear@?$vector@PAV?$auto_vector@$$CBUInputSpec@@@@V?$allocator@PAV?$auto_vector@$$CBUInputSpec@@@@@std@@@std@@QAEXXZ 00708f40 f i inputdriver_chord.obj
 0002:000f5050       ?erase@?$vector@PAV?$auto_vector@$$CBUInputSpec@@@@V?$allocator@PAV?$auto_vector@$$CBUInputSpec@@@@@std@@@std@@QAE?AV?$_Vector_iterator@PAV?$auto_vector@$$CBUInputSpec@@@@V?$allocator@PAV?$auto_vector@$$CBUInputSpec@@@@@std@@@2@V32@0@Z 00709050 f i inputdriver_chord.obj
 0002:000f5200       ??9?$_Vector_const_iterator@PAV?$auto_vector@$$CBUInputSpec@@@@V?$allocator@PAV?$auto_vector@$$CBUInputSpec@@@@@std@@@std@@QBE_NABV01@@Z 00709200 f i inputdriver_chord.obj
 0002:000f5270       ??M?$_Vector_const_iterator@PAV?$auto_vector@$$CBUInputSpec@@@@V?$allocator@PAV?$auto_vector@$$CBUInputSpec@@@@@std@@@std@@QBE_NABV01@@Z 00709270 f i inputdriver_chord.obj
 0002:000f52e0       ??8?$_Vector_const_iterator@PAV?$auto_vector@$$CBUInputSpec@@@@V?$allocator@PAV?$auto_vector@$$CBUInputSpec@@@@@std@@@std@@QBE_NABV01@@Z 007092e0 f i inputdriver_chord.obj
 0002:000f5350       ??$for_each@V?$_Vector_iterator@PAV?$auto_vector@$$CBUInputSpec@@@@V?$allocator@PAV?$auto_vector@$$CBUInputSpec@@@@@std@@@std@@V?$DeletePtr@V?$auto_vector@$$CBUInputSpec@@@@@@@std@@YA?AV?$DeletePtr@V?$auto_vector@$$CBUInputSpec@@@@@@V?$_Vector_iterator@PAV?$auto_vector@$$CBUInputSpec@@@@V?$allocator@PAV?$auto_vector@$$CBUInputSpec@@@@@std@@@0@0V1@@Z 00709350 f i inputdriver_chord.obj
 0002:000f5570       ??$_Uninit_move@PAV?$basic_string@DU?$char_traits@D@std@@V?$allocator@D@2@@std@@PAV12@V?$allocator@V?$basic_string@DU?$char_traits@D@std@@V?$allocator@D@2@@std@@@2@@std@@YAPAV?$basic_string@DU?$char_traits@D@std@@V?$allocator@D@2@@0@PAV10@00AAV?$allocator@V?$basic_string@DU?$char_traits@D@std@@V?$allocator@D@2@@std@@@0@U_Swap_move_tag@0@U_Range_checked_iterator_tag@0@@Z 00709570 f i inputdriver_chord.obj
 0002:000f5760       ??$_Checked_base@PAV?$basic_string@DU?$char_traits@D@std@@V?$allocator@D@2@@std@@@std@@YAPAV?$basic_string@DU?$char_traits@D@std@@V?$allocator@D@2@@0@AAPAV10@U_Unchanged_checked_iterator_base_type_tag@0@@Z 00709760 f i inputdriver_chord.obj
 0002:000f57a0       ??$_Debug_range@PAV?$basic_string@DU?$char_traits@D@std@@V?$allocator@D@2@@std@@@std@@YAXPAV?$basic_string@DU?$char_traits@D@std@@V?$allocator@D@2@@0@0PB_WI@Z 007097a0 f i inputdriver_chord.obj
 0002:000f5820       ??$_Move_backward_opt@PAV?$basic_string@DU?$char_traits@D@std@@V?$allocator@D@2@@std@@PAV12@Uforward_iterator_tag@2@@std@@YAPAV?$basic_string@DU?$char_traits@D@std@@V?$allocator@D@2@@0@PAV10@00Uforward_iterator_tag@0@U_Swap_move_tag@0@U_Range_checked_iterator_tag@0@@Z 00709820 f i inputdriver_chord.obj
 0002:000f58c0       ??$_Unchecked_uninitialized_move@V?$_Vector_iterator@PAV?$auto_vector@$$CBUInputSpec@@@@V?$allocator@PAV?$auto_vector@$$CBUInputSpec@@@@@std@@@std@@PAPAV?$auto_vector@$$CBUInputSpec@@@@V?$allocator@PAV?$auto_vector@$$CBUInputSpec@@@@@2@@stdext@@YAPAPAV?$auto_vector@$$CBUInputSpec@@@@V?$_Vector_iterator@PAV?$auto_vector@$$CBUInputSpec@@@@V?$allocator@PAV?$auto_vector@$$CBUInputSpec@@@@@std@@@std@@0PAPAV1@AAV?$allocator@PAV?$auto_vector@$$CBUInputSpec@@@@@3@@Z 007098c0 f i inputdriver_chord.obj
 0002:000f5a30       ??$_Ptr_cat@PAPAV?$auto_vector@$$CBUInputSpec@@@@PAPAV1@@std@@YA?AU_Scalar_ptr_iterator_tag@0@AAPAPAV?$auto_vector@$$CBUInputSpec@@@@0@Z 00709a30 f i inputdriver_chord.obj
 0002:000f5aa0       ??$_Destroy_range@PAV?$auto_vector@$$CBUInputSpec@@@@V?$allocator@PAV?$auto_vector@$$CBUInputSpec@@@@@std@@@std@@YAXPAPAV?$auto_vector@$$CBUInputSpec@@@@0AAV?$allocator@PAV?$auto_vector@$$CBUInputSpec@@@@@0@U_Scalar_ptr_iterator_tag@0@@Z 00709aa0 f i inputdriver_chord.obj
 0002:000f5ad0       ??$_Uninit_fill_n@PAPAV?$auto_vector@$$CBUInputSpec@@@@IPAV1@V?$allocator@PAV?$auto_vector@$$CBUInputSpec@@@@@std@@@std@@YAXPAPAV?$auto_vector@$$CBUInputSpec@@@@IABQAV1@AAV?$allocator@PAV?$auto_vector@$$CBUInputSpec@@@@@0@U_Scalar_ptr_iterator_tag@0@U_Range_checked_iterator_tag@0@@Z 00709ad0 f i inputdriver_chord.obj
 0002:000f5b30       ??$_Unchecked_uninitialized_move@PAPAV?$auto_vector@$$CBUInputSpec@@@@PAPAV1@V?$allocator@PAV?$auto_vector@$$CBUInputSpec@@@@@std@@@stdext@@YAPAPAV?$auto_vector@$$CBUInputSpec@@@@PAPAV1@00AAV?$allocator@PAV?$auto_vector@$$CBUInputSpec@@@@@std@@@Z 00709b30 f i inputdriver_chord.obj
 0002:000f5be0       ??$_Checked_base@PAPAV?$auto_vector@$$CBUInputSpec@@@@@std@@YAPAPAV?$auto_vector@$$CBUInputSpec@@@@AAPAPAV1@@Z 00709be0 f i inputdriver_chord.obj
 0002:000f5c70       ??$_Fill@PAPAV?$auto_vector@$$CBUInputSpec@@@@PAV1@@std@@YAXPAPAV?$auto_vector@$$CBUInputSpec@@@@0ABQAV1@@Z 00709c70 f i inputdriver_chord.obj
 0002:000f5d00       ??$_Iter_random@PAPAV?$auto_vector@$$CBUInputSpec@@@@PAPAV1@@std@@YA?AUrandom_access_iterator_tag@0@ABQAPAV?$auto_vector@$$CBUInputSpec@@@@0@Z 00709d00 f i inputdriver_chord.obj
 0002:000f5d70       ??$_Move_cat@PAPAV?$auto_vector@$$CBUInputSpec@@@@@std@@YA?AU_Undefined_move_tag@0@ABQAPAV?$auto_vector@$$CBUInputSpec@@@@@Z 00709d70 f i inputdriver_chord.obj
 0002:000f5de0       ??$_Move_backward_opt@PAPAV?$auto_vector@$$CBUInputSpec@@@@PAPAV1@Urandom_access_iterator_tag@std@@U_Undefined_move_tag@3@@std@@YAPAPAV?$auto_vector@$$CBUInputSpec@@@@PAPAV1@00Urandom_access_iterator_tag@0@U_Undefined_move_tag@0@U_Range_checked_iterator_tag@0@@Z 00709de0 f i inputdriver_chord.obj
 0002:000f5e80       ??$_Construct@V?$basic_string@DU?$char_traits@D@std@@V?$allocator@D@2@@std@@V12@@std@@YAXPAV?$basic_string@DU?$char_traits@D@std@@V?$allocator@D@2@@0@ABV10@@Z 00709e80 f i inputdriver_chord.obj
 0002:000f5f70       ??$_Destroy@V?$basic_string@DU?$char_traits@D@std@@V?$allocator@D@2@@std@@@std@@YAXPAV?$basic_string@DU?$char_traits@D@std@@V?$allocator@D@2@@0@@Z 00709f70 f i inputdriver_chord.obj
 0002:000f5fc0       ??$unchecked_copy@PAPAV?$auto_vector@$$CBUInputSpec@@@@PAPAV1@@stdext@@YAPAPAV?$auto_vector@$$CBUInputSpec@@@@PAPAV1@00@Z 00709fc0 f i inputdriver_chord.obj
 0002:000f6090       ??_G?$basic_string@DU?$char_traits@D@std@@V?$allocator@D@2@@std@@QAEPAXI@Z 0070a090 f i inputdriver_chord.obj
 0002:000f6100       ??D?$_Vector_iterator@PAV?$auto_vector@$$CBUInputSpec@@@@V?$allocator@PAV?$auto_vector@$$CBUInputSpec@@@@@std@@@std@@QBEAAPAV?$auto_vector@$$CBUInputSpec@@@@XZ 0070a100 f i inputdriver_chord.obj
 0002:000f6150       ??E?$_Vector_iterator@PAV?$auto_vector@$$CBUInputSpec@@@@V?$allocator@PAV?$auto_vector@$$CBUInputSpec@@@@@std@@@std@@QAEAAV01@XZ 0070a150 f i inputdriver_chord.obj
 0002:000f61b0       ??R?$DeletePtr@V?$auto_vector@$$CBUInputSpec@@@@@@QAEXPAV?$auto_vector@$$CBUInputSpec@@@@@Z 0070a1b0 f i inputdriver_chord.obj
 0002:000f6250       ??D?$_Vector_const_iterator@PAV?$auto_vector@$$CBUInputSpec@@@@V?$allocator@PAV?$auto_vector@$$CBUInputSpec@@@@@std@@@std@@QBEABQAV?$auto_vector@$$CBUInputSpec@@@@XZ 0070a250 f i inputdriver_chord.obj
 0002:000f6340       ??E?$_Vector_const_iterator@PAV?$auto_vector@$$CBUInputSpec@@@@V?$allocator@PAV?$auto_vector@$$CBUInputSpec@@@@@std@@@std@@QAEAAV01@XZ 0070a340 f i inputdriver_chord.obj
 0002:000f6460       ??$_Debug_range@V?$_Vector_iterator@PAV?$auto_vector@$$CBUInputSpec@@@@V?$allocator@PAV?$auto_vector@$$CBUInputSpec@@@@@std@@@std@@@std@@YAXV?$_Vector_iterator@PAV?$auto_vector@$$CBUInputSpec@@@@V?$allocator@PAV?$auto_vector@$$CBUInputSpec@@@@@std@@@0@0PB_WI@Z 0070a460 f i inputdriver_chord.obj
 0002:000f6590       ??$_Debug_pointer@V?$DeletePtr@V?$auto_vector@$$CBUInputSpec@@@@@@@std@@YAXAAV?$DeletePtr@V?$auto_vector@$$CBUInputSpec@@@@@@PB_WI@Z 0070a590 f i inputdriver_chord.obj
 0002:000f65c0       ??$_Checked_base@V?$_Vector_iterator@PAV?$auto_vector@$$CBUInputSpec@@@@V?$allocator@PAV?$auto_vector@$$CBUInputSpec@@@@@std@@@std@@@std@@YA?AV?$_Vector_iterator@PAV?$auto_vector@$$CBUInputSpec@@@@V?$allocator@PAV?$auto_vector@$$CBUInputSpec@@@@@std@@@0@AAV10@@Z 0070a5c0 f i inputdriver_chord.obj
 0002:000f6680       ??$_Debug_pointer@V?$basic_string@DU?$char_traits@D@std@@V?$allocator@D@2@@std@@@std@@YAXPAV?$basic_string@DU?$char_traits@D@std@@V?$allocator@D@2@@0@PB_WI@Z 0070a680 f i inputdriver_chord.obj
 0002:000f66e0       ??$swap@DU?$char_traits@D@std@@V?$allocator@D@2@@std@@YAXAAV?$basic_string@DU?$char_traits@D@std@@V?$allocator@D@2@@0@0@Z 0070a6e0 f i inputdriver_chord.obj
 0002:000f6730       ??$_Iter_cat@PAV?$basic_string@DU?$char_traits@D@std@@V?$allocator@D@2@@std@@@std@@YA?AUrandom_access_iterator_tag@0@ABQAV?$basic_string@DU?$char_traits@D@std@@V?$allocator@D@2@@0@@Z 0070a730 f i inputdriver_chord.obj
 0002:000f67a0       ??$_Debug_range2@PAV?$basic_string@DU?$char_traits@D@std@@V?$allocator@D@2@@std@@@std@@YAXPAV?$basic_string@DU?$char_traits@D@std@@V?$allocator@D@2@@0@0PB_WIUrandom_access_iterator_tag@0@@Z 0070a7a0 f i inputdriver_chord.obj
 0002:000f6840       ??$_Uninit_move@V?$_Vector_iterator@PAV?$auto_vector@$$CBUInputSpec@@@@V?$allocator@PAV?$auto_vector@$$CBUInputSpec@@@@@std@@@std@@PAPAV?$auto_vector@$$CBUInputSpec@@@@V?$allocator@PAV?$auto_vector@$$CBUInputSpec@@@@@2@U_Undefined_move_tag@2@@std@@YAPAPAV?$auto_vector@$$CBUInputSpec@@@@V?$_Vector_iterator@PAV?$auto_vector@$$CBUInputSpec@@@@V?$allocator@PAV?$auto_vector@$$CBUInputSpec@@@@@std@@@0@0PAPAV1@AAV?$allocator@PAV?$auto_vector@$$CBUInputSpec@@@@@0@U_Undefined_move_tag@0@U_Range_checked_iterator_tag@0@@Z 0070a840 f i inputdriver_chord.obj
 0002:000f6970       ??$unchecked_fill_n@PAPAV?$auto_vector@$$CBUInputSpec@@@@IPAV1@@stdext@@YAXPAPAV?$auto_vector@$$CBUInputSpec@@@@IABQAV1@@Z 0070a970 f i inputdriver_chord.obj
 0002:000f6a00       ??$_Uninit_move@PAPAV?$auto_vector@$$CBUInputSpec@@@@PAPAV1@V?$allocator@PAV?$auto_vector@$$CBUInputSpec@@@@@std@@U_Undefined_move_tag@3@@std@@YAPAPAV?$auto_vector@$$CBUInputSpec@@@@PAPAV1@00AAV?$allocator@PAV?$auto_vector@$$CBUInputSpec@@@@@0@U_Undefined_move_tag@0@U_Range_checked_iterator_tag@0@@Z 0070aa00 f i inputdriver_chord.obj
 0002:000f6a60       ??$_Checked_base@PAPAV?$auto_vector@$$CBUInputSpec@@@@@std@@YAPAPAV?$auto_vector@$$CBUInputSpec@@@@AAPAPAV1@U_Unchanged_checked_iterator_base_type_tag@0@@Z 0070aa60 f i inputdriver_chord.obj
 0002:000f6aa0       ??$_Debug_range@PAPAV?$auto_vector@$$CBUInputSpec@@@@@std@@YAXPAPAV?$auto_vector@$$CBUInputSpec@@@@0PB_WI@Z 0070aaa0 f i inputdriver_chord.obj
 0002:000f6b20       ??$_Copy_backward_opt@PAPAV?$auto_vector@$$CBUInputSpec@@@@PAPAV1@Urandom_access_iterator_tag@std@@@std@@YAPAPAV?$auto_vector@$$CBUInputSpec@@@@PAPAV1@00Urandom_access_iterator_tag@0@U_Scalar_ptr_iterator_tag@0@U_Range_checked_iterator_tag@0@@Z 0070ab20 f i inputdriver_chord.obj
 0002:000f6c00       ??$_Copy_opt@PAPAV?$auto_vector@$$CBUInputSpec@@@@PAPAV1@Urandom_access_iterator_tag@std@@@std@@YAPAPAV?$auto_vector@$$CBUInputSpec@@@@PAPAV1@00Urandom_access_iterator_tag@0@U_Scalar_ptr_iterator_tag@0@U_Range_checked_iterator_tag@0@@Z 0070ac00 f i inputdriver_chord.obj
 0002:000f6ce0       ?swap@?$basic_string@DU?$char_traits@D@std@@V?$allocator@D@2@@std@@QAEXAAV12@@Z 0070ace0 f i inputdriver_chord.obj
 0002:000f6f00       ?_Swap_all@_Container_base@std@@QBEXAAV12@@Z 0070af00 f i inputdriver_chord.obj
 0002:000f7030       ??$_Iter_cat@V?$_Vector_iterator@PAV?$auto_vector@$$CBUInputSpec@@@@V?$allocator@PAV?$auto_vector@$$CBUInputSpec@@@@@std@@@std@@@std@@YA?AUrandom_access_iterator_tag@0@ABV?$_Vector_iterator@PAV?$auto_vector@$$CBUInputSpec@@@@V?$allocator@PAV?$auto_vector@$$CBUInputSpec@@@@@std@@@0@@Z 0070b030 f i inputdriver_chord.obj
 0002:000f70a0       ??$_Debug_range2@V?$_Vector_iterator@PAV?$auto_vector@$$CBUInputSpec@@@@V?$allocator@PAV?$auto_vector@$$CBUInputSpec@@@@@std@@@std@@@std@@YAXV?$_Vector_iterator@PAV?$auto_vector@$$CBUInputSpec@@@@V?$allocator@PAV?$auto_vector@$$CBUInputSpec@@@@@std@@@0@0PB_WIUrandom_access_iterator_tag@0@@Z 0070b0a0 f i inputdriver_chord.obj
 0002:000f71c0       ??$_Checked_base@V?$_Vector_iterator@PAV?$auto_vector@$$CBUInputSpec@@@@V?$allocator@PAV?$auto_vector@$$CBUInputSpec@@@@@std@@@std@@@std@@YA?AV?$_Vector_iterator@PAV?$auto_vector@$$CBUInputSpec@@@@V?$allocator@PAV?$auto_vector@$$CBUInputSpec@@@@@std@@@0@AAV10@U_Unchanged_checked_iterator_base_type_tag@0@@Z 0070b1c0 f i inputdriver_chord.obj
 0002:000f7230       ??$unchecked_uninitialized_copy@V?$_Vector_iterator@PAV?$auto_vector@$$CBUInputSpec@@@@V?$allocator@PAV?$auto_vector@$$CBUInputSpec@@@@@std@@@std@@PAPAV?$auto_vector@$$CBUInputSpec@@@@V?$allocator@PAV?$auto_vector@$$CBUInputSpec@@@@@2@@stdext@@YAPAPAV?$auto_vector@$$CBUInputSpec@@@@V?$_Vector_iterator@PAV?$auto_vector@$$CBUInputSpec@@@@V?$allocator@PAV?$auto_vector@$$CBUInputSpec@@@@@std@@@std@@0PAPAV1@AAV?$allocator@PAV?$auto_vector@$$CBUInputSpec@@@@@3@@Z 0070b230 f i inputdriver_chord.obj
 0002:000f73a0       ??$_Iter_cat@PAPAV?$auto_vector@$$CBUInputSpec@@@@@std@@YA?AUrandom_access_iterator_tag@0@ABQAPAV?$auto_vector@$$CBUInputSpec@@@@@Z 0070b3a0 f i inputdriver_chord.obj
 0002:000f7410       ??$_Fill_n@PAPAV?$auto_vector@$$CBUInputSpec@@@@IPAV1@@std@@YAXPAPAV?$auto_vector@$$CBUInputSpec@@@@IABQAV1@Urandom_access_iterator_tag@0@U_Range_checked_iterator_tag@0@@Z 0070b410 f i inputdriver_chord.obj
 0002:000f74a0       ??$unchecked_uninitialized_copy@PAPAV?$auto_vector@$$CBUInputSpec@@@@PAPAV1@V?$allocator@PAV?$auto_vector@$$CBUInputSpec@@@@@std@@@stdext@@YAPAPAV?$auto_vector@$$CBUInputSpec@@@@PAPAV1@00AAV?$allocator@PAV?$auto_vector@$$CBUInputSpec@@@@@std@@@Z 0070b4a0 f i inputdriver_chord.obj
 0002:000f7550       ??$_Debug_range2@PAPAV?$auto_vector@$$CBUInputSpec@@@@@std@@YAXPAPAV?$auto_vector@$$CBUInputSpec@@@@0PB_WIUrandom_access_iterator_tag@0@@Z 0070b550 f i inputdriver_chord.obj
 0002:000f75f0       ??$_Debug_pointer@PAV?$auto_vector@$$CBUInputSpec@@@@@std@@YAXPAPAV?$auto_vector@$$CBUInputSpec@@@@PB_WI@Z 0070b5f0 f i inputdriver_chord.obj
 0002:000f7650       ??$?8DD@std@@YA_NABV?$allocator@D@0@0@Z 0070b650 f i inputdriver_chord.obj
 0002:000f7680       ??$_Debug_pointer@V?$_Vector_iterator@PAV?$auto_vector@$$CBUInputSpec@@@@V?$allocator@PAV?$auto_vector@$$CBUInputSpec@@@@@std@@@std@@@std@@YAXAAV?$_Vector_iterator@PAV?$auto_vector@$$CBUInputSpec@@@@V?$allocator@PAV?$auto_vector@$$CBUInputSpec@@@@@std@@@0@PB_WI@Z 0070b680 f i inputdriver_chord.obj
 0002:000f76b0       ??$_Ptr_cat@V?$_Vector_iterator@PAV?$auto_vector@$$CBUInputSpec@@@@V?$allocator@PAV?$auto_vector@$$CBUInputSpec@@@@@std@@@std@@PAPAV?$auto_vector@$$CBUInputSpec@@@@@std@@YA?AU_Scalar_ptr_iterator_tag@0@AAV?$_Vector_iterator@PAV?$auto_vector@$$CBUInputSpec@@@@V?$allocator@PAV?$auto_vector@$$CBUInputSpec@@@@@std@@@0@AAPAPAV?$auto_vector@$$CBUInputSpec@@@@@Z 0070b6b0 f i inputdriver_chord.obj
 0002:000f7720       ??$_Uninit_copy@V?$_Vector_iterator@PAV?$auto_vector@$$CBUInputSpec@@@@V?$allocator@PAV?$auto_vector@$$CBUInputSpec@@@@@std@@@std@@PAPAV?$auto_vector@$$CBUInputSpec@@@@V?$allocator@PAV?$auto_vector@$$CBUInputSpec@@@@@2@@std@@YAPAPAV?$auto_vector@$$CBUInputSpec@@@@V?$_Vector_iterator@PAV?$auto_vector@$$CBUInputSpec@@@@V?$allocator@PAV?$auto_vector@$$CBUInputSpec@@@@@std@@@0@0PAPAV1@AAV?$allocator@PAV?$auto_vector@$$CBUInputSpec@@@@@0@U_Scalar_ptr_iterator_tag@0@U_Range_checked_iterator_tag@0@@Z 0070b720 f i inputdriver_chord.obj
 0002:000f78c0       ??$_Fill_n@PAPAV?$auto_vector@$$CBUInputSpec@@@@IPAV1@@std@@YAXPAPAV?$auto_vector@$$CBUInputSpec@@@@IABQAV1@U_Range_checked_iterator_tag@0@@Z 0070b8c0 f i inputdriver_chord.obj
 0002:000f7930       ??$_Uninit_copy@PAPAV?$auto_vector@$$CBUInputSpec@@@@PAPAV1@V?$allocator@PAV?$auto_vector@$$CBUInputSpec@@@@@std@@@std@@YAPAPAV?$auto_vector@$$CBUInputSpec@@@@PAPAV1@00AAV?$allocator@PAV?$auto_vector@$$CBUInputSpec@@@@@0@U_Scalar_ptr_iterator_tag@0@U_Range_checked_iterator_tag@0@@Z 0070b930 f i inputdriver_chord.obj
 0002:000f7a00       ??0ConjoinInputDriver@@QAE@XZ 0070ba00 f   inputdriver_conjoin.obj
 0002:000f7b10       ?parseInputSpecification@ConjoinInputDriver@@UAE?AW4InputParserState@@ABVInputSpecTokens@@AAUInputSpec@@@Z 0070bb10 f   inputdriver_conjoin.obj
 0002:000f80c0       ?getInput@ConjoinInputDriver@@UAE_NABUInputSpec@@AAUInputDetails@@@Z 0070c0c0 f   inputdriver_conjoin.obj
 0002:000f8330       ?Advance@ConjoinInputDriver@@UAEXXZ 0070c330 f   inputdriver_conjoin.obj
 0002:000f8370       ?getLastParseError@ConjoinInputDriver@@UAEABV?$basic_string@DU?$char_traits@D@std@@V?$allocator@D@2@@std@@W4InputParserState@@@Z 0070c370 f   inputdriver_conjoin.obj
 0002:000f83b0       ?getInputDescription@ConjoinInputDriver@@UAE_NABUInputSpec@@AAVInputDescription@@@Z 0070c3b0 f   inputdriver_conjoin.obj
 0002:000f86a0       ??0IdleInputDriver@@QAE@XZ 0070c6a0 f   inputdriver_idle.obj
 0002:000f87b0       ??0SimpleInputDriver@@QAE@XZ 0070c7b0 f i inputdriver_idle.obj
 0002:000f8810       ??1SimpleInputDriver@@QAE@XZ 0070c810 f i inputdriver_idle.obj
 0002:000f8860       ?getInput@IdleInputDriver@@UAE_NABUInputSpec@@AAUInputDetails@@@Z 0070c860 f   inputdriver_idle.obj
 0002:000f89e0       ?Advance@IdleInputDriver@@UAEXXZ 0070c9e0 f   inputdriver_idle.obj
 0002:000f8a90       ?acceptDriver@IdleInputDriver@@EAE_NABV?$basic_string@DU?$char_traits@D@std@@V?$allocator@D@2@@std@@@Z 0070ca90 f   inputdriver_idle.obj
 0002:000f8b00       ?getControlID@IdleInputDriver@@EAEHABV?$basic_string@DU?$char_traits@D@std@@V?$allocator@D@2@@std@@@Z 0070cb00 f   inputdriver_idle.obj
 0002:000f8bc0       ?getControlType@IdleInputDriver@@EAEHH@Z 0070cbc0 f   inputdriver_idle.obj
 0002:000f8c10       ?getConditionID@IdleInputDriver@@EAEHABV?$basic_string@DU?$char_traits@D@std@@V?$allocator@D@2@@std@@AAH@Z 0070cc10 f   inputdriver_idle.obj
 0002:000f8dd0       ??Bios_base@std@@QBEPAXXZ  0070cdd0 f i inputdriver_idle.obj
 0002:000f8e30       ??_D?$basic_istringstream@DU?$char_traits@D@std@@V?$allocator@D@2@@std@@QAEXXZ 0070ce30 f i inputdriver_idle.obj
 0002:000f8e90       ?getInputDescription@IdleInputDriver@@UAE_NABUInputSpec@@AAVInputDescription@@@Z 0070ce90 f   inputdriver_idle.obj
 0002:000f8ed0       ??5?$basic_istream@DU?$char_traits@D@std@@@std@@QAEAAV01@AAH@Z 0070ced0 f i inputdriver_idle.obj
 0002:000f91f0       ??1sentry@?$basic_istream@DU?$char_traits@D@std@@@std@@QAE@XZ 0070d1f0 f i inputdriver_idle.obj
 0002:000f9240       ??0sentry@?$basic_istream@DU?$char_traits@D@std@@@std@@QAE@AAV12@_N@Z 0070d240 f i inputdriver_idle.obj
 0002:000f9300       ??Bsentry@?$basic_istream@DU?$char_traits@D@std@@@std@@QBE_NXZ 0070d300 f i inputdriver_idle.obj
 0002:000f9340       ??1_Sentry_base@?$basic_istream@DU?$char_traits@D@std@@@std@@QAE@XZ 0070d340 f i inputdriver_idle.obj
 0002:000f93d0       ??0?$basic_istringstream@DU?$char_traits@D@std@@V?$allocator@D@2@@std@@QAE@ABV?$basic_string@DU?$char_traits@D@std@@V?$allocator@D@2@@1@H@Z 0070d3d0 f i inputdriver_idle.obj
 0002:000f9500       ??1?$basic_istream@DU?$char_traits@D@std@@@std@@UAE@XZ 0070d500 f i inputdriver_idle.obj
 0002:000f9550       ??1?$basic_istringstream@DU?$char_traits@D@std@@V?$allocator@D@2@@std@@UAE@XZ 0070d550 f i inputdriver_idle.obj
 0002:000f9610       ??_G?$basic_istream@DU?$char_traits@D@std@@@std@@UAEPAXI@Z 0070d610 f i inputdriver_idle.obj
 0002:000f9610       ??_E?$basic_istream@DU?$char_traits@D@std@@@std@@UAEPAXI@Z 0070d610 f i inputdriver_idle.obj
 0002:000f9690       ??1?$istreambuf_iterator@DU?$char_traits@D@std@@@std@@QAE@XZ 0070d690 f i inputdriver_idle.obj
 0002:000f96e0       ??_E?$basic_istringstream@DU?$char_traits@D@std@@V?$allocator@D@2@@std@@UAEPAXI@Z 0070d6e0 f i inputdriver_idle.obj
 0002:000f96e0       ??_G?$basic_istringstream@DU?$char_traits@D@std@@V?$allocator@D@2@@std@@UAEPAXI@Z 0070d6e0 f i inputdriver_idle.obj
 0002:000f9760       ??_D?$basic_istream@DU?$char_traits@D@std@@@std@@QAEXXZ 0070d760 f i inputdriver_idle.obj
 0002:000f97c0       ??1?$_Iterator_with_base@Uinput_iterator_tag@std@@DJPADAADV_Iterator_base@2@@std@@QAE@XZ 0070d7c0 f i inputdriver_idle.obj
 0002:000f9810       ??0?$basic_istream@DU?$char_traits@D@std@@@std@@QAE@PAV?$basic_streambuf@DU?$char_traits@D@std@@@1@_N@Z 0070d810 f i inputdriver_idle.obj
 0002:000f9930       ?_Ipfx@?$basic_istream@DU?$char_traits@D@std@@@std@@QAE_N_N@Z 0070d930 f i inputdriver_idle.obj
 0002:000f9cb0       ?is@?$ctype@D@std@@QBE_NFD@Z 0070dcb0 f i inputdriver_idle.obj
 0002:000f9d10       ?sgetc@?$basic_streambuf@DU?$char_traits@D@std@@@std@@QAEHXZ 0070dd10 f i inputdriver_idle.obj
 0002:000f9db0       ?snextc@?$basic_streambuf@DU?$char_traits@D@std@@@std@@QAEHXZ 0070ddb0 f i inputdriver_idle.obj
 0002:000f9ea0       ??0_Sentry_base@?$basic_istream@DU?$char_traits@D@std@@@std@@QAE@AAV12@@Z 0070dea0 f i inputdriver_idle.obj
 0002:000f9f40       ?sbumpc@?$basic_streambuf@DU?$char_traits@D@std@@@std@@QAEHXZ 0070df40 f i inputdriver_idle.obj
 0002:000f9fe0       ?_Gnpreinc@?$basic_streambuf@DU?$char_traits@D@std@@@std@@IAEPADXZ 0070dfe0 f i inputdriver_idle.obj
 0002:000fa050       ??0?$basic_stringbuf@DU?$char_traits@D@std@@V?$allocator@D@2@@std@@QAE@ABV?$basic_string@DU?$char_traits@D@std@@V?$allocator@D@2@@1@H@Z 0070e050 f i inputdriver_idle.obj
 0002:000fa140       ?get@?$num_get@DV?$istreambuf_iterator@DU?$char_traits@D@std@@@std@@@std@@QBE?AV?$istreambuf_iterator@DU?$char_traits@D@std@@@2@V32@0AAVios_base@2@AAHAAJ@Z 0070e140 f i inputdriver_idle.obj
 0002:000fa290       ??0?$istreambuf_iterator@DU?$char_traits@D@std@@@std@@QAE@PAV?$basic_streambuf@DU?$char_traits@D@std@@@1@@Z 0070e290 f i inputdriver_idle.obj
 0002:000fa310       ??0?$istreambuf_iterator@DU?$char_traits@D@std@@@std@@QAE@ABV01@@Z 0070e310 f i inputdriver_idle.obj
 0002:000fa3a0       ??0?$_Iterator_with_base@Uinput_iterator_tag@std@@DJPADAADV_Iterator_base@2@@std@@QAE@XZ 0070e3a0 f i inputdriver_idle.obj
 0002:000fa400       ??0?$_Iterator_with_base@Uinput_iterator_tag@std@@DJPADAADV_Iterator_base@2@@std@@QAE@ABU01@@Z 0070e400 f i inputdriver_idle.obj
